ARM GAS  /var/folders/mq/wg13gp494590nh4zyt09lxf00000gn/T//ccanc9wU.s 			page 1


   1              		.cpu cortex-m7
   2              		.arch armv7e-m
   3              		.fpu fpv5-d16
   4              		.eabi_attribute 28, 1
   5              		.eabi_attribute 20, 1
   6              		.eabi_attribute 21, 1
   7              		.eabi_attribute 23, 3
   8              		.eabi_attribute 24, 1
   9              		.eabi_attribute 25, 1
  10              		.eabi_attribute 26, 1
  11              		.eabi_attribute 30, 1
  12              		.eabi_attribute 34, 1
  13              		.eabi_attribute 18, 4
  14              		.file	"jcarith.c"
  15              		.text
  16              	.Ltext0:
  17              		.cfi_sections	.debug_frame
  18              		.file 1 "Middlewares/Third_Party/LibJPEG/source/jcarith.c"
  19              		.section	.text.emit_byte,"ax",%progbits
  20              		.align	1
  21              		.syntax unified
  22              		.thumb
  23              		.thumb_func
  25              	emit_byte:
  26              	.LVL0:
  27              	.LFB147:
   1:Middlewares/Third_Party/LibJPEG/source/jcarith.c **** /*
   2:Middlewares/Third_Party/LibJPEG/source/jcarith.c ****  * jcarith.c
   3:Middlewares/Third_Party/LibJPEG/source/jcarith.c ****  *
   4:Middlewares/Third_Party/LibJPEG/source/jcarith.c ****  * Developed 1997-2011 by Guido Vollbeding.
   5:Middlewares/Third_Party/LibJPEG/source/jcarith.c ****  * This file is part of the Independent JPEG Group's software.
   6:Middlewares/Third_Party/LibJPEG/source/jcarith.c ****  * For conditions of distribution and use, see the accompanying README file.
   7:Middlewares/Third_Party/LibJPEG/source/jcarith.c ****  *
   8:Middlewares/Third_Party/LibJPEG/source/jcarith.c ****  * This file contains portable arithmetic entropy encoding routines for JPEG
   9:Middlewares/Third_Party/LibJPEG/source/jcarith.c ****  * (implementing the ISO/IEC IS 10918-1 and CCITT Recommendation ITU-T T.81).
  10:Middlewares/Third_Party/LibJPEG/source/jcarith.c ****  *
  11:Middlewares/Third_Party/LibJPEG/source/jcarith.c ****  * Both sequential and progressive modes are supported in this single module.
  12:Middlewares/Third_Party/LibJPEG/source/jcarith.c ****  *
  13:Middlewares/Third_Party/LibJPEG/source/jcarith.c ****  * Suspension is not currently supported in this module.
  14:Middlewares/Third_Party/LibJPEG/source/jcarith.c ****  */
  15:Middlewares/Third_Party/LibJPEG/source/jcarith.c **** 
  16:Middlewares/Third_Party/LibJPEG/source/jcarith.c **** #define JPEG_INTERNALS
  17:Middlewares/Third_Party/LibJPEG/source/jcarith.c **** #include "jinclude.h"
  18:Middlewares/Third_Party/LibJPEG/source/jcarith.c **** #include "jpeglib.h"
  19:Middlewares/Third_Party/LibJPEG/source/jcarith.c **** 
  20:Middlewares/Third_Party/LibJPEG/source/jcarith.c **** 
  21:Middlewares/Third_Party/LibJPEG/source/jcarith.c **** /* Expanded entropy encoder object for arithmetic encoding. */
  22:Middlewares/Third_Party/LibJPEG/source/jcarith.c **** 
  23:Middlewares/Third_Party/LibJPEG/source/jcarith.c **** typedef struct {
  24:Middlewares/Third_Party/LibJPEG/source/jcarith.c ****   struct jpeg_entropy_encoder pub; /* public fields */
  25:Middlewares/Third_Party/LibJPEG/source/jcarith.c **** 
  26:Middlewares/Third_Party/LibJPEG/source/jcarith.c ****   INT32 c; /* C register, base of coding interval, layout as in sec. D.1.3 */
  27:Middlewares/Third_Party/LibJPEG/source/jcarith.c ****   INT32 a;               /* A register, normalized size of coding interval */
  28:Middlewares/Third_Party/LibJPEG/source/jcarith.c ****   INT32 sc;        /* counter for stacked 0xFF values which might overflow */
  29:Middlewares/Third_Party/LibJPEG/source/jcarith.c ****   INT32 zc;          /* counter for pending 0x00 output values which might *
  30:Middlewares/Third_Party/LibJPEG/source/jcarith.c ****                           * be discarded at the end ("Pacman" termination) */
  31:Middlewares/Third_Party/LibJPEG/source/jcarith.c ****   int ct;  /* bit shift counter, determines when next byte will be written */
ARM GAS  /var/folders/mq/wg13gp494590nh4zyt09lxf00000gn/T//ccanc9wU.s 			page 2


  32:Middlewares/Third_Party/LibJPEG/source/jcarith.c ****   int buffer;                /* buffer for most recent output byte != 0xFF */
  33:Middlewares/Third_Party/LibJPEG/source/jcarith.c **** 
  34:Middlewares/Third_Party/LibJPEG/source/jcarith.c ****   int last_dc_val[MAX_COMPS_IN_SCAN]; /* last DC coef for each component */
  35:Middlewares/Third_Party/LibJPEG/source/jcarith.c ****   int dc_context[MAX_COMPS_IN_SCAN]; /* context index for DC conditioning */
  36:Middlewares/Third_Party/LibJPEG/source/jcarith.c **** 
  37:Middlewares/Third_Party/LibJPEG/source/jcarith.c ****   unsigned int restarts_to_go;	/* MCUs left in this restart interval */
  38:Middlewares/Third_Party/LibJPEG/source/jcarith.c ****   int next_restart_num;		/* next restart number to write (0-7) */
  39:Middlewares/Third_Party/LibJPEG/source/jcarith.c **** 
  40:Middlewares/Third_Party/LibJPEG/source/jcarith.c ****   /* Pointers to statistics areas (these workspaces have image lifespan) */
  41:Middlewares/Third_Party/LibJPEG/source/jcarith.c ****   unsigned char * dc_stats[NUM_ARITH_TBLS];
  42:Middlewares/Third_Party/LibJPEG/source/jcarith.c ****   unsigned char * ac_stats[NUM_ARITH_TBLS];
  43:Middlewares/Third_Party/LibJPEG/source/jcarith.c **** 
  44:Middlewares/Third_Party/LibJPEG/source/jcarith.c ****   /* Statistics bin for coding with fixed probability 0.5 */
  45:Middlewares/Third_Party/LibJPEG/source/jcarith.c ****   unsigned char fixed_bin[4];
  46:Middlewares/Third_Party/LibJPEG/source/jcarith.c **** } arith_entropy_encoder;
  47:Middlewares/Third_Party/LibJPEG/source/jcarith.c **** 
  48:Middlewares/Third_Party/LibJPEG/source/jcarith.c **** typedef arith_entropy_encoder * arith_entropy_ptr;
  49:Middlewares/Third_Party/LibJPEG/source/jcarith.c **** 
  50:Middlewares/Third_Party/LibJPEG/source/jcarith.c **** /* The following two definitions specify the allocation chunk size
  51:Middlewares/Third_Party/LibJPEG/source/jcarith.c ****  * for the statistics area.
  52:Middlewares/Third_Party/LibJPEG/source/jcarith.c ****  * According to sections F.1.4.4.1.3 and F.1.4.4.2, we need at least
  53:Middlewares/Third_Party/LibJPEG/source/jcarith.c ****  * 49 statistics bins for DC, and 245 statistics bins for AC coding.
  54:Middlewares/Third_Party/LibJPEG/source/jcarith.c ****  *
  55:Middlewares/Third_Party/LibJPEG/source/jcarith.c ****  * We use a compact representation with 1 byte per statistics bin,
  56:Middlewares/Third_Party/LibJPEG/source/jcarith.c ****  * thus the numbers directly represent byte sizes.
  57:Middlewares/Third_Party/LibJPEG/source/jcarith.c ****  * This 1 byte per statistics bin contains the meaning of the MPS
  58:Middlewares/Third_Party/LibJPEG/source/jcarith.c ****  * (more probable symbol) in the highest bit (mask 0x80), and the
  59:Middlewares/Third_Party/LibJPEG/source/jcarith.c ****  * index into the probability estimation state machine table
  60:Middlewares/Third_Party/LibJPEG/source/jcarith.c ****  * in the lower bits (mask 0x7F).
  61:Middlewares/Third_Party/LibJPEG/source/jcarith.c ****  */
  62:Middlewares/Third_Party/LibJPEG/source/jcarith.c **** 
  63:Middlewares/Third_Party/LibJPEG/source/jcarith.c **** #define DC_STAT_BINS 64
  64:Middlewares/Third_Party/LibJPEG/source/jcarith.c **** #define AC_STAT_BINS 256
  65:Middlewares/Third_Party/LibJPEG/source/jcarith.c **** 
  66:Middlewares/Third_Party/LibJPEG/source/jcarith.c **** /* NOTE: Uncomment the following #define if you want to use the
  67:Middlewares/Third_Party/LibJPEG/source/jcarith.c ****  * given formula for calculating the AC conditioning parameter Kx
  68:Middlewares/Third_Party/LibJPEG/source/jcarith.c ****  * for spectral selection progressive coding in section G.1.3.2
  69:Middlewares/Third_Party/LibJPEG/source/jcarith.c ****  * of the spec (Kx = Kmin + SRL (8 + Se - Kmin) 4).
  70:Middlewares/Third_Party/LibJPEG/source/jcarith.c ****  * Although the spec and P&M authors claim that this "has proven
  71:Middlewares/Third_Party/LibJPEG/source/jcarith.c ****  * to give good results for 8 bit precision samples", I'm not
  72:Middlewares/Third_Party/LibJPEG/source/jcarith.c ****  * convinced yet that this is really beneficial.
  73:Middlewares/Third_Party/LibJPEG/source/jcarith.c ****  * Early tests gave only very marginal compression enhancements
  74:Middlewares/Third_Party/LibJPEG/source/jcarith.c ****  * (a few - around 5 or so - bytes even for very large files),
  75:Middlewares/Third_Party/LibJPEG/source/jcarith.c ****  * which would turn out rather negative if we'd suppress the
  76:Middlewares/Third_Party/LibJPEG/source/jcarith.c ****  * DAC (Define Arithmetic Conditioning) marker segments for
  77:Middlewares/Third_Party/LibJPEG/source/jcarith.c ****  * the default parameters in the future.
  78:Middlewares/Third_Party/LibJPEG/source/jcarith.c ****  * Note that currently the marker writing module emits 12-byte
  79:Middlewares/Third_Party/LibJPEG/source/jcarith.c ****  * DAC segments for a full-component scan in a color image.
  80:Middlewares/Third_Party/LibJPEG/source/jcarith.c ****  * This is not worth worrying about IMHO. However, since the
  81:Middlewares/Third_Party/LibJPEG/source/jcarith.c ****  * spec defines the default values to be used if the tables
  82:Middlewares/Third_Party/LibJPEG/source/jcarith.c ****  * are omitted (unlike Huffman tables, which are required
  83:Middlewares/Third_Party/LibJPEG/source/jcarith.c ****  * anyway), one might optimize this behaviour in the future,
  84:Middlewares/Third_Party/LibJPEG/source/jcarith.c ****  * and then it would be disadvantageous to use custom tables if
  85:Middlewares/Third_Party/LibJPEG/source/jcarith.c ****  * they don't provide sufficient gain to exceed the DAC size.
  86:Middlewares/Third_Party/LibJPEG/source/jcarith.c ****  *
  87:Middlewares/Third_Party/LibJPEG/source/jcarith.c ****  * On the other hand, I'd consider it as a reasonable result
  88:Middlewares/Third_Party/LibJPEG/source/jcarith.c ****  * that the conditioning has no significant influence on the
ARM GAS  /var/folders/mq/wg13gp494590nh4zyt09lxf00000gn/T//ccanc9wU.s 			page 3


  89:Middlewares/Third_Party/LibJPEG/source/jcarith.c ****  * compression performance. This means that the basic
  90:Middlewares/Third_Party/LibJPEG/source/jcarith.c ****  * statistical model is already rather stable.
  91:Middlewares/Third_Party/LibJPEG/source/jcarith.c ****  *
  92:Middlewares/Third_Party/LibJPEG/source/jcarith.c ****  * Thus, at the moment, we use the default conditioning values
  93:Middlewares/Third_Party/LibJPEG/source/jcarith.c ****  * anyway, and do not use the custom formula.
  94:Middlewares/Third_Party/LibJPEG/source/jcarith.c ****  *
  95:Middlewares/Third_Party/LibJPEG/source/jcarith.c **** #define CALCULATE_SPECTRAL_CONDITIONING
  96:Middlewares/Third_Party/LibJPEG/source/jcarith.c ****  */
  97:Middlewares/Third_Party/LibJPEG/source/jcarith.c **** 
  98:Middlewares/Third_Party/LibJPEG/source/jcarith.c **** /* IRIGHT_SHIFT is like RIGHT_SHIFT, but works on int rather than INT32.
  99:Middlewares/Third_Party/LibJPEG/source/jcarith.c ****  * We assume that int right shift is unsigned if INT32 right shift is,
 100:Middlewares/Third_Party/LibJPEG/source/jcarith.c ****  * which should be safe.
 101:Middlewares/Third_Party/LibJPEG/source/jcarith.c ****  */
 102:Middlewares/Third_Party/LibJPEG/source/jcarith.c **** 
 103:Middlewares/Third_Party/LibJPEG/source/jcarith.c **** #ifdef RIGHT_SHIFT_IS_UNSIGNED
 104:Middlewares/Third_Party/LibJPEG/source/jcarith.c **** #define ISHIFT_TEMPS	int ishift_temp;
 105:Middlewares/Third_Party/LibJPEG/source/jcarith.c **** #define IRIGHT_SHIFT(x,shft)  \
 106:Middlewares/Third_Party/LibJPEG/source/jcarith.c **** 	((ishift_temp = (x)) < 0 ? \
 107:Middlewares/Third_Party/LibJPEG/source/jcarith.c **** 	 (ishift_temp >> (shft)) | ((~0) << (16-(shft))) : \
 108:Middlewares/Third_Party/LibJPEG/source/jcarith.c **** 	 (ishift_temp >> (shft)))
 109:Middlewares/Third_Party/LibJPEG/source/jcarith.c **** #else
 110:Middlewares/Third_Party/LibJPEG/source/jcarith.c **** #define ISHIFT_TEMPS
 111:Middlewares/Third_Party/LibJPEG/source/jcarith.c **** #define IRIGHT_SHIFT(x,shft)	((x) >> (shft))
 112:Middlewares/Third_Party/LibJPEG/source/jcarith.c **** #endif
 113:Middlewares/Third_Party/LibJPEG/source/jcarith.c **** 
 114:Middlewares/Third_Party/LibJPEG/source/jcarith.c **** 
 115:Middlewares/Third_Party/LibJPEG/source/jcarith.c **** LOCAL(void)
 116:Middlewares/Third_Party/LibJPEG/source/jcarith.c **** emit_byte (int val, j_compress_ptr cinfo)
 117:Middlewares/Third_Party/LibJPEG/source/jcarith.c **** /* Write next output byte; we do not support suspension in this module. */
 118:Middlewares/Third_Party/LibJPEG/source/jcarith.c **** {
  28              		.loc 1 118 1 view -0
  29              		.cfi_startproc
  30              		@ args = 0, pretend = 0, frame = 0
  31              		@ frame_needed = 0, uses_anonymous_args = 0
  32              		.loc 1 118 1 is_stmt 0 view .LVU1
  33 0000 10B5     		push	{r4, lr}
  34              	.LCFI0:
  35              		.cfi_def_cfa_offset 8
  36              		.cfi_offset 4, -8
  37              		.cfi_offset 14, -4
  38 0002 0C46     		mov	r4, r1
 119:Middlewares/Third_Party/LibJPEG/source/jcarith.c ****   struct jpeg_destination_mgr * dest = cinfo->dest;
  39              		.loc 1 119 3 is_stmt 1 view .LVU2
  40              		.loc 1 119 33 is_stmt 0 view .LVU3
  41 0004 8B69     		ldr	r3, [r1, #24]
  42              	.LVL1:
 120:Middlewares/Third_Party/LibJPEG/source/jcarith.c **** 
 121:Middlewares/Third_Party/LibJPEG/source/jcarith.c ****   *dest->next_output_byte++ = (JOCTET) val;
  43              		.loc 1 121 3 is_stmt 1 view .LVU4
  44              		.loc 1 121 8 is_stmt 0 view .LVU5
  45 0006 1A68     		ldr	r2, [r3]
  46              		.loc 1 121 26 view .LVU6
  47 0008 511C     		adds	r1, r2, #1
  48              	.LVL2:
  49              		.loc 1 121 26 view .LVU7
  50 000a 1960     		str	r1, [r3]
  51              		.loc 1 121 29 view .LVU8
ARM GAS  /var/folders/mq/wg13gp494590nh4zyt09lxf00000gn/T//ccanc9wU.s 			page 4


  52 000c 1070     		strb	r0, [r2]
 122:Middlewares/Third_Party/LibJPEG/source/jcarith.c ****   if (--dest->free_in_buffer == 0)
  53              		.loc 1 122 3 is_stmt 1 view .LVU9
  54              		.loc 1 122 13 is_stmt 0 view .LVU10
  55 000e 5A68     		ldr	r2, [r3, #4]
  56              		.loc 1 122 7 view .LVU11
  57 0010 013A     		subs	r2, r2, #1
  58              		.loc 1 122 6 view .LVU12
  59 0012 5A60     		str	r2, [r3, #4]
  60 0014 52B9     		cbnz	r2, .L1
 123:Middlewares/Third_Party/LibJPEG/source/jcarith.c ****     if (! (*dest->empty_output_buffer) (cinfo))
  61              		.loc 1 123 5 is_stmt 1 view .LVU13
  62              		.loc 1 123 12 is_stmt 0 view .LVU14
  63 0016 DB68     		ldr	r3, [r3, #12]
  64              	.LVL3:
  65              		.loc 1 123 12 view .LVU15
  66 0018 2046     		mov	r0, r4
  67              	.LVL4:
  68              		.loc 1 123 12 view .LVU16
  69 001a 9847     		blx	r3
  70              	.LVL5:
  71              		.loc 1 123 8 discriminator 1 view .LVU17
  72 001c 30B9     		cbnz	r0, .L1
 124:Middlewares/Third_Party/LibJPEG/source/jcarith.c ****       ERREXIT(cinfo, JERR_CANT_SUSPEND);
  73              		.loc 1 124 7 is_stmt 1 view .LVU18
  74 001e 2368     		ldr	r3, [r4]
  75 0020 1922     		movs	r2, #25
  76 0022 5A61     		str	r2, [r3, #20]
  77 0024 2368     		ldr	r3, [r4]
  78 0026 1B68     		ldr	r3, [r3]
  79 0028 2046     		mov	r0, r4
  80 002a 9847     		blx	r3
  81              	.LVL6:
  82              	.L1:
 125:Middlewares/Third_Party/LibJPEG/source/jcarith.c **** }
  83              		.loc 1 125 1 is_stmt 0 view .LVU19
  84 002c 10BD     		pop	{r4, pc}
  85              		.loc 1 125 1 view .LVU20
  86              		.cfi_endproc
  87              	.LFE147:
  89              		.section	.text.finish_pass,"ax",%progbits
  90              		.align	1
  91              		.syntax unified
  92              		.thumb
  93              		.thumb_func
  95              	finish_pass:
  96              	.LVL7:
  97              	.LFB148:
 126:Middlewares/Third_Party/LibJPEG/source/jcarith.c **** 
 127:Middlewares/Third_Party/LibJPEG/source/jcarith.c **** 
 128:Middlewares/Third_Party/LibJPEG/source/jcarith.c **** /*
 129:Middlewares/Third_Party/LibJPEG/source/jcarith.c ****  * Finish up at the end of an arithmetic-compressed scan.
 130:Middlewares/Third_Party/LibJPEG/source/jcarith.c ****  */
 131:Middlewares/Third_Party/LibJPEG/source/jcarith.c **** 
 132:Middlewares/Third_Party/LibJPEG/source/jcarith.c **** METHODDEF(void)
 133:Middlewares/Third_Party/LibJPEG/source/jcarith.c **** finish_pass (j_compress_ptr cinfo)
 134:Middlewares/Third_Party/LibJPEG/source/jcarith.c **** {
ARM GAS  /var/folders/mq/wg13gp494590nh4zyt09lxf00000gn/T//ccanc9wU.s 			page 5


  98              		.loc 1 134 1 is_stmt 1 view -0
  99              		.cfi_startproc
 100              		@ args = 0, pretend = 0, frame = 0
 101              		@ frame_needed = 0, uses_anonymous_args = 0
 102              		.loc 1 134 1 is_stmt 0 view .LVU22
 103 0000 38B5     		push	{r3, r4, r5, lr}
 104              	.LCFI1:
 105              		.cfi_def_cfa_offset 16
 106              		.cfi_offset 3, -16
 107              		.cfi_offset 4, -12
 108              		.cfi_offset 5, -8
 109              		.cfi_offset 14, -4
 110 0002 0546     		mov	r5, r0
 135:Middlewares/Third_Party/LibJPEG/source/jcarith.c ****   arith_entropy_ptr e = (arith_entropy_ptr) cinfo->entropy;
 111              		.loc 1 135 3 is_stmt 1 view .LVU23
 112              		.loc 1 135 21 is_stmt 0 view .LVU24
 113 0004 D0F8A441 		ldr	r4, [r0, #420]
 114              	.LVL8:
 136:Middlewares/Third_Party/LibJPEG/source/jcarith.c ****   INT32 temp;
 115              		.loc 1 136 3 is_stmt 1 view .LVU25
 137:Middlewares/Third_Party/LibJPEG/source/jcarith.c **** 
 138:Middlewares/Third_Party/LibJPEG/source/jcarith.c ****   /* Section D.1.8: Termination of encoding */
 139:Middlewares/Third_Party/LibJPEG/source/jcarith.c **** 
 140:Middlewares/Third_Party/LibJPEG/source/jcarith.c ****   /* Find the e->c in the coding interval with the largest
 141:Middlewares/Third_Party/LibJPEG/source/jcarith.c ****    * number of trailing zero bits */
 142:Middlewares/Third_Party/LibJPEG/source/jcarith.c ****   if ((temp = (e->a - 1 + e->c) & 0xFFFF0000L) < e->c)
 116              		.loc 1 142 3 view .LVU26
 117              		.loc 1 142 17 is_stmt 0 view .LVU27
 118 0008 2369     		ldr	r3, [r4, #16]
 119              		.loc 1 142 21 view .LVU28
 120 000a 013B     		subs	r3, r3, #1
 121              		.loc 1 142 28 view .LVU29
 122 000c E268     		ldr	r2, [r4, #12]
 123              		.loc 1 142 25 view .LVU30
 124 000e 1344     		add	r3, r3, r2
 125              		.loc 1 142 13 view .LVU31
 126 0010 6FF30F03 		bfc	r3, #0, #16
 127              	.LVL9:
 128              		.loc 1 142 6 view .LVU32
 129 0014 9A42     		cmp	r2, r3
 130 0016 45DD     		ble	.L5
 143:Middlewares/Third_Party/LibJPEG/source/jcarith.c ****     e->c = temp + 0x8000L;
 131              		.loc 1 143 5 is_stmt 1 view .LVU33
 132              		.loc 1 143 17 is_stmt 0 view .LVU34
 133 0018 03F50043 		add	r3, r3, #32768
 134              	.LVL10:
 135              		.loc 1 143 10 view .LVU35
 136 001c E360     		str	r3, [r4, #12]
 137              	.LVL11:
 138              	.L6:
 144:Middlewares/Third_Party/LibJPEG/source/jcarith.c ****   else
 145:Middlewares/Third_Party/LibJPEG/source/jcarith.c ****     e->c = temp;
 146:Middlewares/Third_Party/LibJPEG/source/jcarith.c ****   /* Send remaining bytes to output */
 147:Middlewares/Third_Party/LibJPEG/source/jcarith.c ****   e->c <<= e->ct;
 139              		.loc 1 147 3 is_stmt 1 view .LVU36
 140              		.loc 1 147 4 is_stmt 0 view .LVU37
 141 001e E368     		ldr	r3, [r4, #12]
ARM GAS  /var/folders/mq/wg13gp494590nh4zyt09lxf00000gn/T//ccanc9wU.s 			page 6


 142              		.loc 1 147 13 view .LVU38
 143 0020 E269     		ldr	r2, [r4, #28]
 144              	.LVL12:
 145              		.loc 1 147 8 view .LVU39
 146 0022 9340     		lsls	r3, r3, r2
 147 0024 E360     		str	r3, [r4, #12]
 148:Middlewares/Third_Party/LibJPEG/source/jcarith.c ****   if (e->c & 0xF8000000L) {
 148              		.loc 1 148 3 is_stmt 1 view .LVU40
 149              		.loc 1 148 6 is_stmt 0 view .LVU41
 150 0026 B3F1006F 		cmp	r3, #134217728
 151 002a 42D3     		bcc	.L7
 149:Middlewares/Third_Party/LibJPEG/source/jcarith.c ****     /* One final overflow has to be handled */
 150:Middlewares/Third_Party/LibJPEG/source/jcarith.c ****     if (e->buffer >= 0) {
 152              		.loc 1 150 5 is_stmt 1 view .LVU42
 153              		.loc 1 150 10 is_stmt 0 view .LVU43
 154 002c 236A     		ldr	r3, [r4, #32]
 155              		.loc 1 150 8 view .LVU44
 156 002e 002B     		cmp	r3, #0
 157 0030 12DB     		blt	.L8
 151:Middlewares/Third_Party/LibJPEG/source/jcarith.c ****       if (e->zc)
 158              		.loc 1 151 7 is_stmt 1 view .LVU45
 159              		.loc 1 151 12 is_stmt 0 view .LVU46
 160 0032 A369     		ldr	r3, [r4, #24]
 161              		.loc 1 151 10 view .LVU47
 162 0034 43B1     		cbz	r3, .L9
 163              	.LVL13:
 164              	.L10:
 152:Middlewares/Third_Party/LibJPEG/source/jcarith.c **** 	do emit_byte(0x00, cinfo);
 165              		.loc 1 152 2 is_stmt 1 view .LVU48
 166              		.loc 1 152 5 view .LVU49
 167 0036 2946     		mov	r1, r5
 168 0038 0020     		movs	r0, #0
 169 003a FFF7FEFF 		bl	emit_byte
 170              	.LVL14:
 153:Middlewares/Third_Party/LibJPEG/source/jcarith.c **** 	while (--e->zc);
 171              		.loc 1 153 9 discriminator 1 view .LVU50
 172              		.loc 1 153 12 is_stmt 0 discriminator 1 view .LVU51
 173 003e A369     		ldr	r3, [r4, #24]
 174              		.loc 1 153 9 discriminator 1 view .LVU52
 175 0040 013B     		subs	r3, r3, #1
 176 0042 A361     		str	r3, [r4, #24]
 177 0044 002B     		cmp	r3, #0
 178 0046 F6D1     		bne	.L10
 179              	.L9:
 154:Middlewares/Third_Party/LibJPEG/source/jcarith.c ****       emit_byte(e->buffer + 1, cinfo);
 180              		.loc 1 154 7 is_stmt 1 view .LVU53
 181              		.loc 1 154 18 is_stmt 0 view .LVU54
 182 0048 206A     		ldr	r0, [r4, #32]
 183              		.loc 1 154 7 view .LVU55
 184 004a 2946     		mov	r1, r5
 185 004c 0130     		adds	r0, r0, #1
 186 004e FFF7FEFF 		bl	emit_byte
 187              	.LVL15:
 155:Middlewares/Third_Party/LibJPEG/source/jcarith.c ****       if (e->buffer + 1 == 0xFF)
 188              		.loc 1 155 7 is_stmt 1 view .LVU56
 189              		.loc 1 155 12 is_stmt 0 view .LVU57
 190 0052 236A     		ldr	r3, [r4, #32]
ARM GAS  /var/folders/mq/wg13gp494590nh4zyt09lxf00000gn/T//ccanc9wU.s 			page 7


 191              		.loc 1 155 10 view .LVU58
 192 0054 FE2B     		cmp	r3, #254
 193 0056 27D0     		beq	.L24
 194              	.L8:
 156:Middlewares/Third_Party/LibJPEG/source/jcarith.c **** 	emit_byte(0x00, cinfo);
 157:Middlewares/Third_Party/LibJPEG/source/jcarith.c ****     }
 158:Middlewares/Third_Party/LibJPEG/source/jcarith.c ****     e->zc += e->sc;  /* carry-over converts stacked 0xFF bytes to 0x00 */
 195              		.loc 1 158 5 is_stmt 1 view .LVU59
 196              		.loc 1 158 6 is_stmt 0 view .LVU60
 197 0058 A369     		ldr	r3, [r4, #24]
 198              		.loc 1 158 15 view .LVU61
 199 005a 6269     		ldr	r2, [r4, #20]
 200              		.loc 1 158 11 view .LVU62
 201 005c 1344     		add	r3, r3, r2
 202 005e A361     		str	r3, [r4, #24]
 159:Middlewares/Third_Party/LibJPEG/source/jcarith.c ****     e->sc = 0;
 203              		.loc 1 159 5 is_stmt 1 view .LVU63
 204              		.loc 1 159 11 is_stmt 0 view .LVU64
 205 0060 0023     		movs	r3, #0
 206 0062 6361     		str	r3, [r4, #20]
 207              	.L11:
 160:Middlewares/Third_Party/LibJPEG/source/jcarith.c ****   } else {
 161:Middlewares/Third_Party/LibJPEG/source/jcarith.c ****     if (e->buffer == 0)
 162:Middlewares/Third_Party/LibJPEG/source/jcarith.c ****       ++e->zc;
 163:Middlewares/Third_Party/LibJPEG/source/jcarith.c ****     else if (e->buffer >= 0) {
 164:Middlewares/Third_Party/LibJPEG/source/jcarith.c ****       if (e->zc)
 165:Middlewares/Third_Party/LibJPEG/source/jcarith.c **** 	do emit_byte(0x00, cinfo);
 166:Middlewares/Third_Party/LibJPEG/source/jcarith.c **** 	while (--e->zc);
 167:Middlewares/Third_Party/LibJPEG/source/jcarith.c ****       emit_byte(e->buffer, cinfo);
 168:Middlewares/Third_Party/LibJPEG/source/jcarith.c ****     }
 169:Middlewares/Third_Party/LibJPEG/source/jcarith.c ****     if (e->sc) {
 170:Middlewares/Third_Party/LibJPEG/source/jcarith.c ****       if (e->zc)
 171:Middlewares/Third_Party/LibJPEG/source/jcarith.c **** 	do emit_byte(0x00, cinfo);
 172:Middlewares/Third_Party/LibJPEG/source/jcarith.c **** 	while (--e->zc);
 173:Middlewares/Third_Party/LibJPEG/source/jcarith.c ****       do {
 174:Middlewares/Third_Party/LibJPEG/source/jcarith.c **** 	emit_byte(0xFF, cinfo);
 175:Middlewares/Third_Party/LibJPEG/source/jcarith.c **** 	emit_byte(0x00, cinfo);
 176:Middlewares/Third_Party/LibJPEG/source/jcarith.c ****       } while (--e->sc);
 177:Middlewares/Third_Party/LibJPEG/source/jcarith.c ****     }
 178:Middlewares/Third_Party/LibJPEG/source/jcarith.c ****   }
 179:Middlewares/Third_Party/LibJPEG/source/jcarith.c ****   /* Output final bytes only if they are not 0x00 */
 180:Middlewares/Third_Party/LibJPEG/source/jcarith.c ****   if (e->c & 0x7FFF800L) {
 208              		.loc 1 180 3 is_stmt 1 view .LVU65
 209              		.loc 1 180 8 is_stmt 0 view .LVU66
 210 0064 E268     		ldr	r2, [r4, #12]
 211              		.loc 1 180 12 view .LVU67
 212 0066 374B     		ldr	r3, .L27
 213 0068 1340     		ands	r3, r3, r2
 214              		.loc 1 180 6 view .LVU68
 215 006a D3B1     		cbz	r3, .L4
 181:Middlewares/Third_Party/LibJPEG/source/jcarith.c ****     if (e->zc)  /* output final pending zero bytes */
 216              		.loc 1 181 5 is_stmt 1 view .LVU69
 217              		.loc 1 181 10 is_stmt 0 view .LVU70
 218 006c A369     		ldr	r3, [r4, #24]
 219              		.loc 1 181 8 view .LVU71
 220 006e 43B1     		cbz	r3, .L20
 221              	.L21:
ARM GAS  /var/folders/mq/wg13gp494590nh4zyt09lxf00000gn/T//ccanc9wU.s 			page 8


 182:Middlewares/Third_Party/LibJPEG/source/jcarith.c ****       do emit_byte(0x00, cinfo);
 222              		.loc 1 182 7 is_stmt 1 view .LVU72
 223              		.loc 1 182 10 view .LVU73
 224 0070 2946     		mov	r1, r5
 225 0072 0020     		movs	r0, #0
 226 0074 FFF7FEFF 		bl	emit_byte
 227              	.LVL16:
 183:Middlewares/Third_Party/LibJPEG/source/jcarith.c ****       while (--e->zc);
 228              		.loc 1 183 14 discriminator 1 view .LVU74
 229              		.loc 1 183 17 is_stmt 0 discriminator 1 view .LVU75
 230 0078 A369     		ldr	r3, [r4, #24]
 231              		.loc 1 183 14 discriminator 1 view .LVU76
 232 007a 013B     		subs	r3, r3, #1
 233 007c A361     		str	r3, [r4, #24]
 234 007e 002B     		cmp	r3, #0
 235 0080 F6D1     		bne	.L21
 236              	.L20:
 184:Middlewares/Third_Party/LibJPEG/source/jcarith.c ****     emit_byte((e->c >> 19) & 0xFF, cinfo);
 237              		.loc 1 184 5 is_stmt 1 view .LVU77
 238              		.loc 1 184 17 is_stmt 0 view .LVU78
 239 0082 E068     		ldr	r0, [r4, #12]
 240              		.loc 1 184 5 view .LVU79
 241 0084 2946     		mov	r1, r5
 242 0086 C0F3C740 		ubfx	r0, r0, #19, #8
 243 008a FFF7FEFF 		bl	emit_byte
 244              	.LVL17:
 185:Middlewares/Third_Party/LibJPEG/source/jcarith.c ****     if (((e->c >> 19) & 0xFF) == 0xFF)
 245              		.loc 1 185 5 is_stmt 1 view .LVU80
 246              		.loc 1 185 12 is_stmt 0 view .LVU81
 247 008e E368     		ldr	r3, [r4, #12]
 248              		.loc 1 185 8 view .LVU82
 249 0090 03F0FF63 		and	r3, r3, #133693440
 250 0094 B3F1FF6F 		cmp	r3, #133693440
 251 0098 3ED0     		beq	.L25
 252              	.L22:
 186:Middlewares/Third_Party/LibJPEG/source/jcarith.c ****       emit_byte(0x00, cinfo);
 187:Middlewares/Third_Party/LibJPEG/source/jcarith.c ****     if (e->c & 0x7F800L) {
 253              		.loc 1 187 5 is_stmt 1 view .LVU83
 254              		.loc 1 187 10 is_stmt 0 view .LVU84
 255 009a E068     		ldr	r0, [r4, #12]
 256              		.loc 1 187 8 view .LVU85
 257 009c 10F4FF2F 		tst	r0, #522240
 258 00a0 3FD1     		bne	.L26
 259              	.L4:
 188:Middlewares/Third_Party/LibJPEG/source/jcarith.c ****       emit_byte((e->c >> 11) & 0xFF, cinfo);
 189:Middlewares/Third_Party/LibJPEG/source/jcarith.c ****       if (((e->c >> 11) & 0xFF) == 0xFF)
 190:Middlewares/Third_Party/LibJPEG/source/jcarith.c **** 	emit_byte(0x00, cinfo);
 191:Middlewares/Third_Party/LibJPEG/source/jcarith.c ****     }
 192:Middlewares/Third_Party/LibJPEG/source/jcarith.c ****   }
 193:Middlewares/Third_Party/LibJPEG/source/jcarith.c **** }
 260              		.loc 1 193 1 view .LVU86
 261 00a2 38BD     		pop	{r3, r4, r5, pc}
 262              	.LVL18:
 263              	.L5:
 145:Middlewares/Third_Party/LibJPEG/source/jcarith.c ****   /* Send remaining bytes to output */
 264              		.loc 1 145 5 is_stmt 1 view .LVU87
 145:Middlewares/Third_Party/LibJPEG/source/jcarith.c ****   /* Send remaining bytes to output */
ARM GAS  /var/folders/mq/wg13gp494590nh4zyt09lxf00000gn/T//ccanc9wU.s 			page 9


 265              		.loc 1 145 10 is_stmt 0 view .LVU88
 266 00a4 E360     		str	r3, [r4, #12]
 267 00a6 BAE7     		b	.L6
 268              	.LVL19:
 269              	.L24:
 156:Middlewares/Third_Party/LibJPEG/source/jcarith.c ****     }
 270              		.loc 1 156 2 is_stmt 1 view .LVU89
 271 00a8 2946     		mov	r1, r5
 272 00aa 0020     		movs	r0, #0
 273 00ac FFF7FEFF 		bl	emit_byte
 274              	.LVL20:
 275 00b0 D2E7     		b	.L8
 276              	.LVL21:
 277              	.L7:
 161:Middlewares/Third_Party/LibJPEG/source/jcarith.c ****       ++e->zc;
 278              		.loc 1 161 5 view .LVU90
 161:Middlewares/Third_Party/LibJPEG/source/jcarith.c ****       ++e->zc;
 279              		.loc 1 161 10 is_stmt 0 view .LVU91
 280 00b2 236A     		ldr	r3, [r4, #32]
 161:Middlewares/Third_Party/LibJPEG/source/jcarith.c ****       ++e->zc;
 281              		.loc 1 161 8 view .LVU92
 282 00b4 F3B9     		cbnz	r3, .L12
 162:Middlewares/Third_Party/LibJPEG/source/jcarith.c ****     else if (e->buffer >= 0) {
 283              		.loc 1 162 7 is_stmt 1 view .LVU93
 162:Middlewares/Third_Party/LibJPEG/source/jcarith.c ****     else if (e->buffer >= 0) {
 284              		.loc 1 162 10 is_stmt 0 view .LVU94
 285 00b6 A369     		ldr	r3, [r4, #24]
 162:Middlewares/Third_Party/LibJPEG/source/jcarith.c ****     else if (e->buffer >= 0) {
 286              		.loc 1 162 7 view .LVU95
 287 00b8 0133     		adds	r3, r3, #1
 288 00ba A361     		str	r3, [r4, #24]
 289              	.LVL22:
 290              	.L13:
 169:Middlewares/Third_Party/LibJPEG/source/jcarith.c ****       if (e->zc)
 291              		.loc 1 169 5 is_stmt 1 view .LVU96
 169:Middlewares/Third_Party/LibJPEG/source/jcarith.c ****       if (e->zc)
 292              		.loc 1 169 10 is_stmt 0 view .LVU97
 293 00bc 6369     		ldr	r3, [r4, #20]
 169:Middlewares/Third_Party/LibJPEG/source/jcarith.c ****       if (e->zc)
 294              		.loc 1 169 8 view .LVU98
 295 00be 002B     		cmp	r3, #0
 296 00c0 D0D0     		beq	.L11
 170:Middlewares/Third_Party/LibJPEG/source/jcarith.c **** 	do emit_byte(0x00, cinfo);
 297              		.loc 1 170 7 is_stmt 1 view .LVU99
 170:Middlewares/Third_Party/LibJPEG/source/jcarith.c **** 	do emit_byte(0x00, cinfo);
 298              		.loc 1 170 12 is_stmt 0 view .LVU100
 299 00c2 A369     		ldr	r3, [r4, #24]
 170:Middlewares/Third_Party/LibJPEG/source/jcarith.c **** 	do emit_byte(0x00, cinfo);
 300              		.loc 1 170 10 view .LVU101
 301 00c4 43B1     		cbz	r3, .L18
 302              	.L17:
 171:Middlewares/Third_Party/LibJPEG/source/jcarith.c **** 	while (--e->zc);
 303              		.loc 1 171 2 is_stmt 1 view .LVU102
 171:Middlewares/Third_Party/LibJPEG/source/jcarith.c **** 	while (--e->zc);
 304              		.loc 1 171 5 view .LVU103
 305 00c6 2946     		mov	r1, r5
 306 00c8 0020     		movs	r0, #0
ARM GAS  /var/folders/mq/wg13gp494590nh4zyt09lxf00000gn/T//ccanc9wU.s 			page 10


 307 00ca FFF7FEFF 		bl	emit_byte
 308              	.LVL23:
 172:Middlewares/Third_Party/LibJPEG/source/jcarith.c ****       do {
 309              		.loc 1 172 9 discriminator 1 view .LVU104
 172:Middlewares/Third_Party/LibJPEG/source/jcarith.c ****       do {
 310              		.loc 1 172 12 is_stmt 0 discriminator 1 view .LVU105
 311 00ce A369     		ldr	r3, [r4, #24]
 172:Middlewares/Third_Party/LibJPEG/source/jcarith.c ****       do {
 312              		.loc 1 172 9 discriminator 1 view .LVU106
 313 00d0 013B     		subs	r3, r3, #1
 314 00d2 A361     		str	r3, [r4, #24]
 315 00d4 002B     		cmp	r3, #0
 316 00d6 F6D1     		bne	.L17
 317              	.L18:
 173:Middlewares/Third_Party/LibJPEG/source/jcarith.c **** 	emit_byte(0xFF, cinfo);
 318              		.loc 1 173 7 is_stmt 1 view .LVU107
 174:Middlewares/Third_Party/LibJPEG/source/jcarith.c **** 	emit_byte(0x00, cinfo);
 319              		.loc 1 174 2 view .LVU108
 320 00d8 2946     		mov	r1, r5
 321 00da FF20     		movs	r0, #255
 322 00dc FFF7FEFF 		bl	emit_byte
 323              	.LVL24:
 175:Middlewares/Third_Party/LibJPEG/source/jcarith.c ****       } while (--e->sc);
 324              		.loc 1 175 2 view .LVU109
 325 00e0 2946     		mov	r1, r5
 326 00e2 0020     		movs	r0, #0
 327 00e4 FFF7FEFF 		bl	emit_byte
 328              	.LVL25:
 176:Middlewares/Third_Party/LibJPEG/source/jcarith.c ****     }
 329              		.loc 1 176 16 discriminator 1 view .LVU110
 176:Middlewares/Third_Party/LibJPEG/source/jcarith.c ****     }
 330              		.loc 1 176 19 is_stmt 0 discriminator 1 view .LVU111
 331 00e8 6369     		ldr	r3, [r4, #20]
 176:Middlewares/Third_Party/LibJPEG/source/jcarith.c ****     }
 332              		.loc 1 176 16 discriminator 1 view .LVU112
 333 00ea 013B     		subs	r3, r3, #1
 334 00ec 6361     		str	r3, [r4, #20]
 335 00ee 002B     		cmp	r3, #0
 336 00f0 F2D1     		bne	.L18
 337 00f2 B7E7     		b	.L11
 338              	.LVL26:
 339              	.L12:
 163:Middlewares/Third_Party/LibJPEG/source/jcarith.c ****       if (e->zc)
 340              		.loc 1 163 10 is_stmt 1 view .LVU113
 163:Middlewares/Third_Party/LibJPEG/source/jcarith.c ****       if (e->zc)
 341              		.loc 1 163 13 is_stmt 0 view .LVU114
 342 00f4 002B     		cmp	r3, #0
 343 00f6 E1DB     		blt	.L13
 164:Middlewares/Third_Party/LibJPEG/source/jcarith.c **** 	do emit_byte(0x00, cinfo);
 344              		.loc 1 164 7 is_stmt 1 view .LVU115
 164:Middlewares/Third_Party/LibJPEG/source/jcarith.c **** 	do emit_byte(0x00, cinfo);
 345              		.loc 1 164 12 is_stmt 0 view .LVU116
 346 00f8 A369     		ldr	r3, [r4, #24]
 164:Middlewares/Third_Party/LibJPEG/source/jcarith.c **** 	do emit_byte(0x00, cinfo);
 347              		.loc 1 164 10 view .LVU117
 348 00fa 43B1     		cbz	r3, .L14
 349              	.LVL27:
ARM GAS  /var/folders/mq/wg13gp494590nh4zyt09lxf00000gn/T//ccanc9wU.s 			page 11


 350              	.L15:
 165:Middlewares/Third_Party/LibJPEG/source/jcarith.c **** 	while (--e->zc);
 351              		.loc 1 165 2 is_stmt 1 view .LVU118
 165:Middlewares/Third_Party/LibJPEG/source/jcarith.c **** 	while (--e->zc);
 352              		.loc 1 165 5 view .LVU119
 353 00fc 2946     		mov	r1, r5
 354 00fe 0020     		movs	r0, #0
 355 0100 FFF7FEFF 		bl	emit_byte
 356              	.LVL28:
 166:Middlewares/Third_Party/LibJPEG/source/jcarith.c ****       emit_byte(e->buffer, cinfo);
 357              		.loc 1 166 9 discriminator 1 view .LVU120
 166:Middlewares/Third_Party/LibJPEG/source/jcarith.c ****       emit_byte(e->buffer, cinfo);
 358              		.loc 1 166 12 is_stmt 0 discriminator 1 view .LVU121
 359 0104 A369     		ldr	r3, [r4, #24]
 166:Middlewares/Third_Party/LibJPEG/source/jcarith.c ****       emit_byte(e->buffer, cinfo);
 360              		.loc 1 166 9 discriminator 1 view .LVU122
 361 0106 013B     		subs	r3, r3, #1
 362 0108 A361     		str	r3, [r4, #24]
 363 010a 002B     		cmp	r3, #0
 364 010c F6D1     		bne	.L15
 365              	.L14:
 167:Middlewares/Third_Party/LibJPEG/source/jcarith.c ****     }
 366              		.loc 1 167 7 is_stmt 1 view .LVU123
 367 010e 2946     		mov	r1, r5
 368 0110 206A     		ldr	r0, [r4, #32]
 369 0112 FFF7FEFF 		bl	emit_byte
 370              	.LVL29:
 371 0116 D1E7     		b	.L13
 372              	.L25:
 186:Middlewares/Third_Party/LibJPEG/source/jcarith.c ****     if (e->c & 0x7F800L) {
 373              		.loc 1 186 7 view .LVU124
 374 0118 2946     		mov	r1, r5
 375 011a 0020     		movs	r0, #0
 376 011c FFF7FEFF 		bl	emit_byte
 377              	.LVL30:
 378 0120 BBE7     		b	.L22
 379              	.L26:
 188:Middlewares/Third_Party/LibJPEG/source/jcarith.c ****       if (((e->c >> 11) & 0xFF) == 0xFF)
 380              		.loc 1 188 7 view .LVU125
 381 0122 2946     		mov	r1, r5
 382 0124 C0F3C720 		ubfx	r0, r0, #11, #8
 383 0128 FFF7FEFF 		bl	emit_byte
 384              	.LVL31:
 189:Middlewares/Third_Party/LibJPEG/source/jcarith.c **** 	emit_byte(0x00, cinfo);
 385              		.loc 1 189 7 view .LVU126
 189:Middlewares/Third_Party/LibJPEG/source/jcarith.c **** 	emit_byte(0x00, cinfo);
 386              		.loc 1 189 14 is_stmt 0 view .LVU127
 387 012c E368     		ldr	r3, [r4, #12]
 189:Middlewares/Third_Party/LibJPEG/source/jcarith.c **** 	emit_byte(0x00, cinfo);
 388              		.loc 1 189 10 view .LVU128
 389 012e 03F4FF23 		and	r3, r3, #522240
 390 0132 B3F5FF2F 		cmp	r3, #522240
 391 0136 B4D1     		bne	.L4
 190:Middlewares/Third_Party/LibJPEG/source/jcarith.c ****     }
 392              		.loc 1 190 2 is_stmt 1 view .LVU129
 393 0138 2946     		mov	r1, r5
 394 013a 0020     		movs	r0, #0
ARM GAS  /var/folders/mq/wg13gp494590nh4zyt09lxf00000gn/T//ccanc9wU.s 			page 12


 395 013c FFF7FEFF 		bl	emit_byte
 396              	.LVL32:
 397              		.loc 1 193 1 is_stmt 0 view .LVU130
 398 0140 AFE7     		b	.L4
 399              	.L28:
 400 0142 00BF     		.align	2
 401              	.L27:
 402 0144 00F8FF07 		.word	134215680
 403              		.cfi_endproc
 404              	.LFE148:
 406              		.section	.text.arith_encode,"ax",%progbits
 407              		.align	1
 408              		.syntax unified
 409              		.thumb
 410              		.thumb_func
 412              	arith_encode:
 413              	.LVL33:
 414              	.LFB149:
 194:Middlewares/Third_Party/LibJPEG/source/jcarith.c **** 
 195:Middlewares/Third_Party/LibJPEG/source/jcarith.c **** 
 196:Middlewares/Third_Party/LibJPEG/source/jcarith.c **** /*
 197:Middlewares/Third_Party/LibJPEG/source/jcarith.c ****  * The core arithmetic encoding routine (common in JPEG and JBIG).
 198:Middlewares/Third_Party/LibJPEG/source/jcarith.c ****  * This needs to go as fast as possible.
 199:Middlewares/Third_Party/LibJPEG/source/jcarith.c ****  * Machine-dependent optimization facilities
 200:Middlewares/Third_Party/LibJPEG/source/jcarith.c ****  * are not utilized in this portable implementation.
 201:Middlewares/Third_Party/LibJPEG/source/jcarith.c ****  * However, this code should be fairly efficient and
 202:Middlewares/Third_Party/LibJPEG/source/jcarith.c ****  * may be a good base for further optimizations anyway.
 203:Middlewares/Third_Party/LibJPEG/source/jcarith.c ****  *
 204:Middlewares/Third_Party/LibJPEG/source/jcarith.c ****  * Parameter 'val' to be encoded may be 0 or 1 (binary decision).
 205:Middlewares/Third_Party/LibJPEG/source/jcarith.c ****  *
 206:Middlewares/Third_Party/LibJPEG/source/jcarith.c ****  * Note: I've added full "Pacman" termination support to the
 207:Middlewares/Third_Party/LibJPEG/source/jcarith.c ****  * byte output routines, which is equivalent to the optional
 208:Middlewares/Third_Party/LibJPEG/source/jcarith.c ****  * Discard_final_zeros procedure (Figure D.15) in the spec.
 209:Middlewares/Third_Party/LibJPEG/source/jcarith.c ****  * Thus, we always produce the shortest possible output
 210:Middlewares/Third_Party/LibJPEG/source/jcarith.c ****  * stream compliant to the spec (no trailing zero bytes,
 211:Middlewares/Third_Party/LibJPEG/source/jcarith.c ****  * except for FF stuffing).
 212:Middlewares/Third_Party/LibJPEG/source/jcarith.c ****  *
 213:Middlewares/Third_Party/LibJPEG/source/jcarith.c ****  * I've also introduced a new scheme for accessing
 214:Middlewares/Third_Party/LibJPEG/source/jcarith.c ****  * the probability estimation state machine table,
 215:Middlewares/Third_Party/LibJPEG/source/jcarith.c ****  * derived from Markus Kuhn's JBIG implementation.
 216:Middlewares/Third_Party/LibJPEG/source/jcarith.c ****  */
 217:Middlewares/Third_Party/LibJPEG/source/jcarith.c **** 
 218:Middlewares/Third_Party/LibJPEG/source/jcarith.c **** LOCAL(void)
 219:Middlewares/Third_Party/LibJPEG/source/jcarith.c **** arith_encode (j_compress_ptr cinfo, unsigned char *st, int val) 
 220:Middlewares/Third_Party/LibJPEG/source/jcarith.c **** {
 415              		.loc 1 220 1 is_stmt 1 view -0
 416              		.cfi_startproc
 417              		@ args = 0, pretend = 0, frame = 0
 418              		@ frame_needed = 0, uses_anonymous_args = 0
 419              		.loc 1 220 1 is_stmt 0 view .LVU132
 420 0000 F8B5     		push	{r3, r4, r5, r6, r7, lr}
 421              	.LCFI2:
 422              		.cfi_def_cfa_offset 24
 423              		.cfi_offset 3, -24
 424              		.cfi_offset 4, -20
 425              		.cfi_offset 5, -16
 426              		.cfi_offset 6, -12
ARM GAS  /var/folders/mq/wg13gp494590nh4zyt09lxf00000gn/T//ccanc9wU.s 			page 13


 427              		.cfi_offset 7, -8
 428              		.cfi_offset 14, -4
 429 0002 0546     		mov	r5, r0
 221:Middlewares/Third_Party/LibJPEG/source/jcarith.c ****   register arith_entropy_ptr e = (arith_entropy_ptr) cinfo->entropy;
 430              		.loc 1 221 3 is_stmt 1 view .LVU133
 431              		.loc 1 221 30 is_stmt 0 view .LVU134
 432 0004 D0F8A441 		ldr	r4, [r0, #420]
 433              	.LVL34:
 222:Middlewares/Third_Party/LibJPEG/source/jcarith.c ****   register unsigned char nl, nm;
 434              		.loc 1 222 3 is_stmt 1 view .LVU135
 223:Middlewares/Third_Party/LibJPEG/source/jcarith.c ****   register INT32 qe, temp;
 435              		.loc 1 223 3 view .LVU136
 224:Middlewares/Third_Party/LibJPEG/source/jcarith.c ****   register int sv;
 436              		.loc 1 224 3 view .LVU137
 225:Middlewares/Third_Party/LibJPEG/source/jcarith.c **** 
 226:Middlewares/Third_Party/LibJPEG/source/jcarith.c ****   /* Fetch values from our compact representation of Table D.3(D.2):
 227:Middlewares/Third_Party/LibJPEG/source/jcarith.c ****    * Qe values and probability estimation state machine
 228:Middlewares/Third_Party/LibJPEG/source/jcarith.c ****    */
 229:Middlewares/Third_Party/LibJPEG/source/jcarith.c ****   sv = *st;
 437              		.loc 1 229 3 view .LVU138
 438              		.loc 1 229 8 is_stmt 0 view .LVU139
 439 0008 0B78     		ldrb	r3, [r1]	@ zero_extendqisi2
 440              	.LVL35:
 230:Middlewares/Third_Party/LibJPEG/source/jcarith.c ****   qe = jpeg_aritab[sv & 0x7F];	/* => Qe_Value */
 441              		.loc 1 230 3 is_stmt 1 view .LVU140
 442              		.loc 1 230 23 is_stmt 0 view .LVU141
 443 000a 03F07F06 		and	r6, r3, #127
 444              		.loc 1 230 6 view .LVU142
 445 000e 5248     		ldr	r0, .L55
 446              	.LVL36:
 447              		.loc 1 230 6 view .LVU143
 448 0010 50F82660 		ldr	r6, [r0, r6, lsl #2]
 449              	.LVL37:
 231:Middlewares/Third_Party/LibJPEG/source/jcarith.c ****   nl = qe & 0xFF; qe >>= 8;	/* Next_Index_LPS + Switch_MPS */
 450              		.loc 1 231 3 is_stmt 1 view .LVU144
 451              		.loc 1 231 19 view .LVU145
 232:Middlewares/Third_Party/LibJPEG/source/jcarith.c ****   nm = qe & 0xFF; qe >>= 8;	/* Next_Index_MPS */
 452              		.loc 1 232 3 view .LVU146
 453              		.loc 1 232 19 view .LVU147
 454              		.loc 1 232 22 is_stmt 0 view .LVU148
 455 0014 3714     		asrs	r7, r6, #16
 456              	.LVL38:
 233:Middlewares/Third_Party/LibJPEG/source/jcarith.c **** 
 234:Middlewares/Third_Party/LibJPEG/source/jcarith.c ****   /* Encode & estimation procedures per sections D.1.4 & D.1.5 */
 235:Middlewares/Third_Party/LibJPEG/source/jcarith.c ****   e->a -= qe;
 457              		.loc 1 235 3 is_stmt 1 view .LVU149
 458              		.loc 1 235 4 is_stmt 0 view .LVU150
 459 0016 2069     		ldr	r0, [r4, #16]
 460              		.loc 1 235 8 view .LVU151
 461 0018 A0EB2640 		sub	r0, r0, r6, asr #16
 462 001c 2061     		str	r0, [r4, #16]
 236:Middlewares/Third_Party/LibJPEG/source/jcarith.c ****   if (val != (sv >> 7)) {
 463              		.loc 1 236 3 is_stmt 1 view .LVU152
 464              		.loc 1 236 6 is_stmt 0 view .LVU153
 465 001e B2EBE31F 		cmp	r2, r3, asr #7
 466 0022 0AD0     		beq	.L30
 237:Middlewares/Third_Party/LibJPEG/source/jcarith.c ****     /* Encode the less probable symbol */
ARM GAS  /var/folders/mq/wg13gp494590nh4zyt09lxf00000gn/T//ccanc9wU.s 			page 14


 238:Middlewares/Third_Party/LibJPEG/source/jcarith.c ****     if (e->a >= qe) {
 467              		.loc 1 238 5 is_stmt 1 view .LVU154
 468              		.loc 1 238 8 is_stmt 0 view .LVU155
 469 0024 B842     		cmp	r0, r7
 470 0026 03DB     		blt	.L31
 239:Middlewares/Third_Party/LibJPEG/source/jcarith.c ****       /* If the interval size (qe) for the less probable symbol (LPS)
 240:Middlewares/Third_Party/LibJPEG/source/jcarith.c ****        * is larger than the interval size for the MPS, then exchange
 241:Middlewares/Third_Party/LibJPEG/source/jcarith.c ****        * the two symbols for coding efficiency, otherwise code the LPS
 242:Middlewares/Third_Party/LibJPEG/source/jcarith.c ****        * as usual: */
 243:Middlewares/Third_Party/LibJPEG/source/jcarith.c ****       e->c += e->a;
 471              		.loc 1 243 7 is_stmt 1 view .LVU156
 472              		.loc 1 243 8 is_stmt 0 view .LVU157
 473 0028 E268     		ldr	r2, [r4, #12]
 474              	.LVL39:
 475              		.loc 1 243 12 view .LVU158
 476 002a 1044     		add	r0, r0, r2
 477 002c E060     		str	r0, [r4, #12]
 244:Middlewares/Third_Party/LibJPEG/source/jcarith.c ****       e->a = qe;
 478              		.loc 1 244 7 is_stmt 1 view .LVU159
 479              		.loc 1 244 12 is_stmt 0 view .LVU160
 480 002e 2761     		str	r7, [r4, #16]
 481              	.L31:
 245:Middlewares/Third_Party/LibJPEG/source/jcarith.c ****     }
 246:Middlewares/Third_Party/LibJPEG/source/jcarith.c ****     *st = (sv & 0x80) ^ nl;	/* Estimate_after_LPS */
 482              		.loc 1 246 5 is_stmt 1 view .LVU161
 483              		.loc 1 246 23 is_stmt 0 view .LVU162
 484 0030 23F07F03 		bic	r3, r3, #127
 485              	.LVL40:
 486              		.loc 1 246 23 view .LVU163
 487 0034 7340     		eors	r3, r3, r6
 488              		.loc 1 246 9 view .LVU164
 489 0036 0B70     		strb	r3, [r1]
 490 0038 2CE0     		b	.L50
 491              	.LVL41:
 492              	.L30:
 493              		.loc 1 246 9 view .LVU165
 494 003a 4FEA262C 		asr	ip, r6, #8
 247:Middlewares/Third_Party/LibJPEG/source/jcarith.c ****   } else {
 248:Middlewares/Third_Party/LibJPEG/source/jcarith.c ****     /* Encode the more probable symbol */
 249:Middlewares/Third_Party/LibJPEG/source/jcarith.c ****     if (e->a >= 0x8000L)
 495              		.loc 1 249 5 is_stmt 1 view .LVU166
 496              		.loc 1 249 8 is_stmt 0 view .LVU167
 497 003e B0F5004F 		cmp	r0, #32768
 498 0042 80F28880 		bge	.L29
 250:Middlewares/Third_Party/LibJPEG/source/jcarith.c ****       return;  /* A >= 0x8000 -> ready, no renormalization required */
 251:Middlewares/Third_Party/LibJPEG/source/jcarith.c ****     if (e->a < qe) {
 499              		.loc 1 251 5 is_stmt 1 view .LVU168
 500              		.loc 1 251 8 is_stmt 0 view .LVU169
 501 0046 B842     		cmp	r0, r7
 502 0048 03DA     		bge	.L34
 252:Middlewares/Third_Party/LibJPEG/source/jcarith.c ****       /* If the interval size (qe) for the less probable symbol (LPS)
 253:Middlewares/Third_Party/LibJPEG/source/jcarith.c ****        * is larger than the interval size for the MPS, then exchange
 254:Middlewares/Third_Party/LibJPEG/source/jcarith.c ****        * the two symbols for coding efficiency: */
 255:Middlewares/Third_Party/LibJPEG/source/jcarith.c ****       e->c += e->a;
 503              		.loc 1 255 7 is_stmt 1 view .LVU170
 504              		.loc 1 255 8 is_stmt 0 view .LVU171
 505 004a E268     		ldr	r2, [r4, #12]
ARM GAS  /var/folders/mq/wg13gp494590nh4zyt09lxf00000gn/T//ccanc9wU.s 			page 15


 506              	.LVL42:
 507              		.loc 1 255 12 view .LVU172
 508 004c 1044     		add	r0, r0, r2
 509 004e E060     		str	r0, [r4, #12]
 256:Middlewares/Third_Party/LibJPEG/source/jcarith.c ****       e->a = qe;
 510              		.loc 1 256 7 is_stmt 1 view .LVU173
 511              		.loc 1 256 12 is_stmt 0 view .LVU174
 512 0050 2761     		str	r7, [r4, #16]
 513              	.L34:
 257:Middlewares/Third_Party/LibJPEG/source/jcarith.c ****     }
 258:Middlewares/Third_Party/LibJPEG/source/jcarith.c ****     *st = (sv & 0x80) ^ nm;	/* Estimate_after_MPS */
 514              		.loc 1 258 5 is_stmt 1 view .LVU175
 515              		.loc 1 258 23 is_stmt 0 view .LVU176
 516 0052 23F07F03 		bic	r3, r3, #127
 517              	.LVL43:
 518              		.loc 1 258 23 view .LVU177
 519 0056 83EA0C03 		eor	r3, r3, ip
 520              		.loc 1 258 9 view .LVU178
 521 005a 0B70     		strb	r3, [r1]
 522 005c 1AE0     		b	.L50
 523              	.LVL44:
 524              	.L38:
 259:Middlewares/Third_Party/LibJPEG/source/jcarith.c ****   }
 260:Middlewares/Third_Party/LibJPEG/source/jcarith.c **** 
 261:Middlewares/Third_Party/LibJPEG/source/jcarith.c ****   /* Renormalization & data output per section D.1.6 */
 262:Middlewares/Third_Party/LibJPEG/source/jcarith.c ****   do {
 263:Middlewares/Third_Party/LibJPEG/source/jcarith.c ****     e->a <<= 1;
 264:Middlewares/Third_Party/LibJPEG/source/jcarith.c ****     e->c <<= 1;
 265:Middlewares/Third_Party/LibJPEG/source/jcarith.c ****     if (--e->ct == 0) {
 266:Middlewares/Third_Party/LibJPEG/source/jcarith.c ****       /* Another byte is ready for output */
 267:Middlewares/Third_Party/LibJPEG/source/jcarith.c ****       temp = e->c >> 19;
 268:Middlewares/Third_Party/LibJPEG/source/jcarith.c ****       if (temp > 0xFF) {
 269:Middlewares/Third_Party/LibJPEG/source/jcarith.c **** 	/* Handle overflow over all stacked 0xFF bytes */
 270:Middlewares/Third_Party/LibJPEG/source/jcarith.c **** 	if (e->buffer >= 0) {
 271:Middlewares/Third_Party/LibJPEG/source/jcarith.c **** 	  if (e->zc)
 272:Middlewares/Third_Party/LibJPEG/source/jcarith.c **** 	    do emit_byte(0x00, cinfo);
 273:Middlewares/Third_Party/LibJPEG/source/jcarith.c **** 	    while (--e->zc);
 274:Middlewares/Third_Party/LibJPEG/source/jcarith.c **** 	  emit_byte(e->buffer + 1, cinfo);
 525              		.loc 1 274 4 is_stmt 1 view .LVU179
 526              		.loc 1 274 15 is_stmt 0 view .LVU180
 527 005e 206A     		ldr	r0, [r4, #32]
 528              		.loc 1 274 4 view .LVU181
 529 0060 2946     		mov	r1, r5
 530 0062 0130     		adds	r0, r0, #1
 531 0064 FFF7FEFF 		bl	emit_byte
 532              	.LVL45:
 275:Middlewares/Third_Party/LibJPEG/source/jcarith.c **** 	  if (e->buffer + 1 == 0xFF)
 533              		.loc 1 275 4 is_stmt 1 view .LVU182
 534              		.loc 1 275 9 is_stmt 0 view .LVU183
 535 0068 236A     		ldr	r3, [r4, #32]
 536              		.loc 1 275 7 view .LVU184
 537 006a FE2B     		cmp	r3, #254
 538 006c 31D0     		beq	.L52
 539              	.L37:
 276:Middlewares/Third_Party/LibJPEG/source/jcarith.c **** 	    emit_byte(0x00, cinfo);
 277:Middlewares/Third_Party/LibJPEG/source/jcarith.c **** 	}
 278:Middlewares/Third_Party/LibJPEG/source/jcarith.c **** 	e->zc += e->sc;  /* carry-over converts stacked 0xFF bytes to 0x00 */
ARM GAS  /var/folders/mq/wg13gp494590nh4zyt09lxf00000gn/T//ccanc9wU.s 			page 16


 540              		.loc 1 278 2 is_stmt 1 view .LVU185
 541              		.loc 1 278 3 is_stmt 0 view .LVU186
 542 006e A369     		ldr	r3, [r4, #24]
 543              		.loc 1 278 12 view .LVU187
 544 0070 6269     		ldr	r2, [r4, #20]
 545              		.loc 1 278 8 view .LVU188
 546 0072 1344     		add	r3, r3, r2
 547 0074 A361     		str	r3, [r4, #24]
 279:Middlewares/Third_Party/LibJPEG/source/jcarith.c **** 	e->sc = 0;
 548              		.loc 1 279 2 is_stmt 1 view .LVU189
 549              		.loc 1 279 8 is_stmt 0 view .LVU190
 550 0076 0023     		movs	r3, #0
 551 0078 6361     		str	r3, [r4, #20]
 280:Middlewares/Third_Party/LibJPEG/source/jcarith.c **** 	/* Note: The 3 spacer bits in the C register guarantee
 281:Middlewares/Third_Party/LibJPEG/source/jcarith.c **** 	 * that the new buffer byte can't be 0xFF here
 282:Middlewares/Third_Party/LibJPEG/source/jcarith.c **** 	 * (see page 160 in the P&M JPEG book). */
 283:Middlewares/Third_Party/LibJPEG/source/jcarith.c **** 	e->buffer = temp & 0xFF;  /* new output byte, might overflow later */
 552              		.loc 1 283 2 is_stmt 1 view .LVU191
 553              		.loc 1 283 19 is_stmt 0 view .LVU192
 554 007a F6B2     		uxtb	r6, r6
 555              	.LVL46:
 556              		.loc 1 283 12 view .LVU193
 557 007c 2662     		str	r6, [r4, #32]
 558              	.L40:
 284:Middlewares/Third_Party/LibJPEG/source/jcarith.c ****       } else if (temp == 0xFF) {
 285:Middlewares/Third_Party/LibJPEG/source/jcarith.c **** 	++e->sc;  /* stack 0xFF byte (which might overflow later) */
 286:Middlewares/Third_Party/LibJPEG/source/jcarith.c ****       } else {
 287:Middlewares/Third_Party/LibJPEG/source/jcarith.c **** 	/* Output all stacked 0xFF bytes, they will not overflow any more */
 288:Middlewares/Third_Party/LibJPEG/source/jcarith.c **** 	if (e->buffer == 0)
 289:Middlewares/Third_Party/LibJPEG/source/jcarith.c **** 	  ++e->zc;
 290:Middlewares/Third_Party/LibJPEG/source/jcarith.c **** 	else if (e->buffer >= 0) {
 291:Middlewares/Third_Party/LibJPEG/source/jcarith.c **** 	  if (e->zc)
 292:Middlewares/Third_Party/LibJPEG/source/jcarith.c **** 	    do emit_byte(0x00, cinfo);
 293:Middlewares/Third_Party/LibJPEG/source/jcarith.c **** 	    while (--e->zc);
 294:Middlewares/Third_Party/LibJPEG/source/jcarith.c **** 	  emit_byte(e->buffer, cinfo);
 295:Middlewares/Third_Party/LibJPEG/source/jcarith.c **** 	}
 296:Middlewares/Third_Party/LibJPEG/source/jcarith.c **** 	if (e->sc) {
 297:Middlewares/Third_Party/LibJPEG/source/jcarith.c **** 	  if (e->zc)
 298:Middlewares/Third_Party/LibJPEG/source/jcarith.c **** 	    do emit_byte(0x00, cinfo);
 299:Middlewares/Third_Party/LibJPEG/source/jcarith.c **** 	    while (--e->zc);
 300:Middlewares/Third_Party/LibJPEG/source/jcarith.c **** 	  do {
 301:Middlewares/Third_Party/LibJPEG/source/jcarith.c **** 	    emit_byte(0xFF, cinfo);
 302:Middlewares/Third_Party/LibJPEG/source/jcarith.c **** 	    emit_byte(0x00, cinfo);
 303:Middlewares/Third_Party/LibJPEG/source/jcarith.c **** 	  } while (--e->sc);
 304:Middlewares/Third_Party/LibJPEG/source/jcarith.c **** 	}
 305:Middlewares/Third_Party/LibJPEG/source/jcarith.c **** 	e->buffer = temp & 0xFF;  /* new output byte (can still overflow) */
 306:Middlewares/Third_Party/LibJPEG/source/jcarith.c ****       }
 307:Middlewares/Third_Party/LibJPEG/source/jcarith.c ****       e->c &= 0x7FFFFL;
 559              		.loc 1 307 7 is_stmt 1 view .LVU194
 560              		.loc 1 307 8 is_stmt 0 view .LVU195
 561 007e E368     		ldr	r3, [r4, #12]
 562              		.loc 1 307 12 view .LVU196
 563 0080 C3F31203 		ubfx	r3, r3, #0, #19
 564 0084 E360     		str	r3, [r4, #12]
 308:Middlewares/Third_Party/LibJPEG/source/jcarith.c ****       e->ct += 8;
 565              		.loc 1 308 7 is_stmt 1 view .LVU197
 566              		.loc 1 308 8 is_stmt 0 view .LVU198
ARM GAS  /var/folders/mq/wg13gp494590nh4zyt09lxf00000gn/T//ccanc9wU.s 			page 17


 567 0086 E369     		ldr	r3, [r4, #28]
 568              		.loc 1 308 13 view .LVU199
 569 0088 0833     		adds	r3, r3, #8
 570 008a E361     		str	r3, [r4, #28]
 571              	.LVL47:
 572              	.L35:
 309:Middlewares/Third_Party/LibJPEG/source/jcarith.c ****     }
 310:Middlewares/Third_Party/LibJPEG/source/jcarith.c ****   } while (e->a < 0x8000L);
 573              		.loc 1 310 17 is_stmt 1 view .LVU200
 574              		.loc 1 310 13 is_stmt 0 view .LVU201
 575 008c 2369     		ldr	r3, [r4, #16]
 576              		.loc 1 310 17 view .LVU202
 577 008e B3F5004F 		cmp	r3, #32768
 578 0092 60DA     		bge	.L29
 579              	.L50:
 262:Middlewares/Third_Party/LibJPEG/source/jcarith.c ****     e->a <<= 1;
 580              		.loc 1 262 3 is_stmt 1 view .LVU203
 263:Middlewares/Third_Party/LibJPEG/source/jcarith.c ****     e->c <<= 1;
 581              		.loc 1 263 5 view .LVU204
 263:Middlewares/Third_Party/LibJPEG/source/jcarith.c ****     e->c <<= 1;
 582              		.loc 1 263 6 is_stmt 0 view .LVU205
 583 0094 2369     		ldr	r3, [r4, #16]
 263:Middlewares/Third_Party/LibJPEG/source/jcarith.c ****     e->c <<= 1;
 584              		.loc 1 263 10 view .LVU206
 585 0096 5B00     		lsls	r3, r3, #1
 586 0098 2361     		str	r3, [r4, #16]
 264:Middlewares/Third_Party/LibJPEG/source/jcarith.c ****     if (--e->ct == 0) {
 587              		.loc 1 264 5 is_stmt 1 view .LVU207
 264:Middlewares/Third_Party/LibJPEG/source/jcarith.c ****     if (--e->ct == 0) {
 588              		.loc 1 264 6 is_stmt 0 view .LVU208
 589 009a E368     		ldr	r3, [r4, #12]
 264:Middlewares/Third_Party/LibJPEG/source/jcarith.c ****     if (--e->ct == 0) {
 590              		.loc 1 264 10 view .LVU209
 591 009c 5B00     		lsls	r3, r3, #1
 592 009e E360     		str	r3, [r4, #12]
 265:Middlewares/Third_Party/LibJPEG/source/jcarith.c ****       /* Another byte is ready for output */
 593              		.loc 1 265 5 is_stmt 1 view .LVU210
 265:Middlewares/Third_Party/LibJPEG/source/jcarith.c ****       /* Another byte is ready for output */
 594              		.loc 1 265 12 is_stmt 0 view .LVU211
 595 00a0 E269     		ldr	r2, [r4, #28]
 265:Middlewares/Third_Party/LibJPEG/source/jcarith.c ****       /* Another byte is ready for output */
 596              		.loc 1 265 9 view .LVU212
 597 00a2 013A     		subs	r2, r2, #1
 265:Middlewares/Third_Party/LibJPEG/source/jcarith.c ****       /* Another byte is ready for output */
 598              		.loc 1 265 8 view .LVU213
 599 00a4 E261     		str	r2, [r4, #28]
 600 00a6 002A     		cmp	r2, #0
 601 00a8 F0D1     		bne	.L35
 267:Middlewares/Third_Party/LibJPEG/source/jcarith.c ****       if (temp > 0xFF) {
 602              		.loc 1 267 7 is_stmt 1 view .LVU214
 267:Middlewares/Third_Party/LibJPEG/source/jcarith.c ****       if (temp > 0xFF) {
 603              		.loc 1 267 12 is_stmt 0 view .LVU215
 604 00aa DE14     		asrs	r6, r3, #19
 605              	.LVL48:
 268:Middlewares/Third_Party/LibJPEG/source/jcarith.c **** 	/* Handle overflow over all stacked 0xFF bytes */
 606              		.loc 1 268 7 is_stmt 1 view .LVU216
 268:Middlewares/Third_Party/LibJPEG/source/jcarith.c **** 	/* Handle overflow over all stacked 0xFF bytes */
ARM GAS  /var/folders/mq/wg13gp494590nh4zyt09lxf00000gn/T//ccanc9wU.s 			page 18


 607              		.loc 1 268 10 is_stmt 0 view .LVU217
 608 00ac B3F1006F 		cmp	r3, #134217728
 609 00b0 14DB     		blt	.L36
 270:Middlewares/Third_Party/LibJPEG/source/jcarith.c **** 	  if (e->zc)
 610              		.loc 1 270 2 is_stmt 1 view .LVU218
 270:Middlewares/Third_Party/LibJPEG/source/jcarith.c **** 	  if (e->zc)
 611              		.loc 1 270 7 is_stmt 0 view .LVU219
 612 00b2 236A     		ldr	r3, [r4, #32]
 270:Middlewares/Third_Party/LibJPEG/source/jcarith.c **** 	  if (e->zc)
 613              		.loc 1 270 5 view .LVU220
 614 00b4 002B     		cmp	r3, #0
 615 00b6 DADB     		blt	.L37
 271:Middlewares/Third_Party/LibJPEG/source/jcarith.c **** 	    do emit_byte(0x00, cinfo);
 616              		.loc 1 271 4 is_stmt 1 view .LVU221
 271:Middlewares/Third_Party/LibJPEG/source/jcarith.c **** 	    do emit_byte(0x00, cinfo);
 617              		.loc 1 271 9 is_stmt 0 view .LVU222
 618 00b8 A369     		ldr	r3, [r4, #24]
 271:Middlewares/Third_Party/LibJPEG/source/jcarith.c **** 	    do emit_byte(0x00, cinfo);
 619              		.loc 1 271 7 view .LVU223
 620 00ba 002B     		cmp	r3, #0
 621 00bc CFD0     		beq	.L38
 622              	.L39:
 272:Middlewares/Third_Party/LibJPEG/source/jcarith.c **** 	    while (--e->zc);
 623              		.loc 1 272 6 is_stmt 1 view .LVU224
 272:Middlewares/Third_Party/LibJPEG/source/jcarith.c **** 	    while (--e->zc);
 624              		.loc 1 272 9 view .LVU225
 625 00be 2946     		mov	r1, r5
 626 00c0 0020     		movs	r0, #0
 627 00c2 FFF7FEFF 		bl	emit_byte
 628              	.LVL49:
 273:Middlewares/Third_Party/LibJPEG/source/jcarith.c **** 	  emit_byte(e->buffer + 1, cinfo);
 629              		.loc 1 273 13 discriminator 1 view .LVU226
 273:Middlewares/Third_Party/LibJPEG/source/jcarith.c **** 	  emit_byte(e->buffer + 1, cinfo);
 630              		.loc 1 273 16 is_stmt 0 discriminator 1 view .LVU227
 631 00c6 A369     		ldr	r3, [r4, #24]
 273:Middlewares/Third_Party/LibJPEG/source/jcarith.c **** 	  emit_byte(e->buffer + 1, cinfo);
 632              		.loc 1 273 13 discriminator 1 view .LVU228
 633 00c8 013B     		subs	r3, r3, #1
 634 00ca A361     		str	r3, [r4, #24]
 635 00cc 002B     		cmp	r3, #0
 636 00ce F6D1     		bne	.L39
 637 00d0 C5E7     		b	.L38
 638              	.L52:
 276:Middlewares/Third_Party/LibJPEG/source/jcarith.c **** 	}
 639              		.loc 1 276 6 is_stmt 1 view .LVU229
 640 00d2 2946     		mov	r1, r5
 641 00d4 0020     		movs	r0, #0
 642 00d6 FFF7FEFF 		bl	emit_byte
 643              	.LVL50:
 644 00da C8E7     		b	.L37
 645              	.L36:
 284:Middlewares/Third_Party/LibJPEG/source/jcarith.c **** 	++e->sc;  /* stack 0xFF byte (which might overflow later) */
 646              		.loc 1 284 14 view .LVU230
 284:Middlewares/Third_Party/LibJPEG/source/jcarith.c **** 	++e->sc;  /* stack 0xFF byte (which might overflow later) */
 647              		.loc 1 284 17 is_stmt 0 view .LVU231
 648 00dc FF2E     		cmp	r6, #255
 649 00de 09D0     		beq	.L53
ARM GAS  /var/folders/mq/wg13gp494590nh4zyt09lxf00000gn/T//ccanc9wU.s 			page 19


 288:Middlewares/Third_Party/LibJPEG/source/jcarith.c **** 	  ++e->zc;
 650              		.loc 1 288 2 is_stmt 1 view .LVU232
 288:Middlewares/Third_Party/LibJPEG/source/jcarith.c **** 	  ++e->zc;
 651              		.loc 1 288 7 is_stmt 0 view .LVU233
 652 00e0 236A     		ldr	r3, [r4, #32]
 288:Middlewares/Third_Party/LibJPEG/source/jcarith.c **** 	  ++e->zc;
 653              		.loc 1 288 5 view .LVU234
 654 00e2 5BB9     		cbnz	r3, .L42
 289:Middlewares/Third_Party/LibJPEG/source/jcarith.c **** 	else if (e->buffer >= 0) {
 655              		.loc 1 289 4 is_stmt 1 view .LVU235
 289:Middlewares/Third_Party/LibJPEG/source/jcarith.c **** 	else if (e->buffer >= 0) {
 656              		.loc 1 289 7 is_stmt 0 view .LVU236
 657 00e4 A369     		ldr	r3, [r4, #24]
 289:Middlewares/Third_Party/LibJPEG/source/jcarith.c **** 	else if (e->buffer >= 0) {
 658              		.loc 1 289 4 view .LVU237
 659 00e6 0133     		adds	r3, r3, #1
 660 00e8 A361     		str	r3, [r4, #24]
 661              	.L43:
 296:Middlewares/Third_Party/LibJPEG/source/jcarith.c **** 	  if (e->zc)
 662              		.loc 1 296 2 is_stmt 1 view .LVU238
 296:Middlewares/Third_Party/LibJPEG/source/jcarith.c **** 	  if (e->zc)
 663              		.loc 1 296 7 is_stmt 0 view .LVU239
 664 00ea 6369     		ldr	r3, [r4, #20]
 296:Middlewares/Third_Party/LibJPEG/source/jcarith.c **** 	  if (e->zc)
 665              		.loc 1 296 5 view .LVU240
 666 00ec CBB9     		cbnz	r3, .L54
 667              	.L46:
 305:Middlewares/Third_Party/LibJPEG/source/jcarith.c ****       }
 668              		.loc 1 305 2 is_stmt 1 view .LVU241
 305:Middlewares/Third_Party/LibJPEG/source/jcarith.c ****       }
 669              		.loc 1 305 19 is_stmt 0 view .LVU242
 670 00ee F6B2     		uxtb	r6, r6
 671              	.LVL51:
 305:Middlewares/Third_Party/LibJPEG/source/jcarith.c ****       }
 672              		.loc 1 305 12 view .LVU243
 673 00f0 2662     		str	r6, [r4, #32]
 674 00f2 C4E7     		b	.L40
 675              	.LVL52:
 676              	.L53:
 285:Middlewares/Third_Party/LibJPEG/source/jcarith.c ****       } else {
 677              		.loc 1 285 2 is_stmt 1 view .LVU244
 285:Middlewares/Third_Party/LibJPEG/source/jcarith.c ****       } else {
 678              		.loc 1 285 5 is_stmt 0 view .LVU245
 679 00f4 6369     		ldr	r3, [r4, #20]
 285:Middlewares/Third_Party/LibJPEG/source/jcarith.c ****       } else {
 680              		.loc 1 285 2 view .LVU246
 681 00f6 0133     		adds	r3, r3, #1
 682 00f8 6361     		str	r3, [r4, #20]
 683 00fa C0E7     		b	.L40
 684              	.L42:
 290:Middlewares/Third_Party/LibJPEG/source/jcarith.c **** 	  if (e->zc)
 685              		.loc 1 290 7 is_stmt 1 view .LVU247
 290:Middlewares/Third_Party/LibJPEG/source/jcarith.c **** 	  if (e->zc)
 686              		.loc 1 290 10 is_stmt 0 view .LVU248
 687 00fc 002B     		cmp	r3, #0
 688 00fe F4DB     		blt	.L43
 291:Middlewares/Third_Party/LibJPEG/source/jcarith.c **** 	    do emit_byte(0x00, cinfo);
ARM GAS  /var/folders/mq/wg13gp494590nh4zyt09lxf00000gn/T//ccanc9wU.s 			page 20


 689              		.loc 1 291 4 is_stmt 1 view .LVU249
 291:Middlewares/Third_Party/LibJPEG/source/jcarith.c **** 	    do emit_byte(0x00, cinfo);
 690              		.loc 1 291 9 is_stmt 0 view .LVU250
 691 0100 A369     		ldr	r3, [r4, #24]
 291:Middlewares/Third_Party/LibJPEG/source/jcarith.c **** 	    do emit_byte(0x00, cinfo);
 692              		.loc 1 291 7 view .LVU251
 693 0102 23B9     		cbnz	r3, .L45
 694              	.L44:
 294:Middlewares/Third_Party/LibJPEG/source/jcarith.c **** 	}
 695              		.loc 1 294 4 is_stmt 1 view .LVU252
 696 0104 2946     		mov	r1, r5
 697 0106 206A     		ldr	r0, [r4, #32]
 698 0108 FFF7FEFF 		bl	emit_byte
 699              	.LVL53:
 700 010c EDE7     		b	.L43
 701              	.L45:
 292:Middlewares/Third_Party/LibJPEG/source/jcarith.c **** 	    while (--e->zc);
 702              		.loc 1 292 6 view .LVU253
 292:Middlewares/Third_Party/LibJPEG/source/jcarith.c **** 	    while (--e->zc);
 703              		.loc 1 292 9 view .LVU254
 704 010e 2946     		mov	r1, r5
 705 0110 0020     		movs	r0, #0
 706 0112 FFF7FEFF 		bl	emit_byte
 707              	.LVL54:
 293:Middlewares/Third_Party/LibJPEG/source/jcarith.c **** 	  emit_byte(e->buffer, cinfo);
 708              		.loc 1 293 13 discriminator 1 view .LVU255
 293:Middlewares/Third_Party/LibJPEG/source/jcarith.c **** 	  emit_byte(e->buffer, cinfo);
 709              		.loc 1 293 16 is_stmt 0 discriminator 1 view .LVU256
 710 0116 A369     		ldr	r3, [r4, #24]
 293:Middlewares/Third_Party/LibJPEG/source/jcarith.c **** 	  emit_byte(e->buffer, cinfo);
 711              		.loc 1 293 13 discriminator 1 view .LVU257
 712 0118 013B     		subs	r3, r3, #1
 713 011a A361     		str	r3, [r4, #24]
 714 011c 002B     		cmp	r3, #0
 715 011e F6D1     		bne	.L45
 716 0120 F0E7     		b	.L44
 717              	.L54:
 297:Middlewares/Third_Party/LibJPEG/source/jcarith.c **** 	    do emit_byte(0x00, cinfo);
 718              		.loc 1 297 4 is_stmt 1 view .LVU258
 297:Middlewares/Third_Party/LibJPEG/source/jcarith.c **** 	    do emit_byte(0x00, cinfo);
 719              		.loc 1 297 9 is_stmt 0 view .LVU259
 720 0122 A369     		ldr	r3, [r4, #24]
 297:Middlewares/Third_Party/LibJPEG/source/jcarith.c **** 	    do emit_byte(0x00, cinfo);
 721              		.loc 1 297 7 view .LVU260
 722 0124 6BB9     		cbnz	r3, .L48
 723              	.L49:
 300:Middlewares/Third_Party/LibJPEG/source/jcarith.c **** 	    emit_byte(0xFF, cinfo);
 724              		.loc 1 300 4 is_stmt 1 view .LVU261
 301:Middlewares/Third_Party/LibJPEG/source/jcarith.c **** 	    emit_byte(0x00, cinfo);
 725              		.loc 1 301 6 view .LVU262
 726 0126 2946     		mov	r1, r5
 727 0128 FF20     		movs	r0, #255
 728 012a FFF7FEFF 		bl	emit_byte
 729              	.LVL55:
 302:Middlewares/Third_Party/LibJPEG/source/jcarith.c **** 	  } while (--e->sc);
 730              		.loc 1 302 6 view .LVU263
 731 012e 2946     		mov	r1, r5
ARM GAS  /var/folders/mq/wg13gp494590nh4zyt09lxf00000gn/T//ccanc9wU.s 			page 21


 732 0130 0020     		movs	r0, #0
 733 0132 FFF7FEFF 		bl	emit_byte
 734              	.LVL56:
 303:Middlewares/Third_Party/LibJPEG/source/jcarith.c **** 	}
 735              		.loc 1 303 13 discriminator 1 view .LVU264
 303:Middlewares/Third_Party/LibJPEG/source/jcarith.c **** 	}
 736              		.loc 1 303 16 is_stmt 0 discriminator 1 view .LVU265
 737 0136 6369     		ldr	r3, [r4, #20]
 303:Middlewares/Third_Party/LibJPEG/source/jcarith.c **** 	}
 738              		.loc 1 303 13 discriminator 1 view .LVU266
 739 0138 013B     		subs	r3, r3, #1
 740 013a 6361     		str	r3, [r4, #20]
 741 013c 002B     		cmp	r3, #0
 742 013e F2D1     		bne	.L49
 743 0140 D5E7     		b	.L46
 744              	.L48:
 298:Middlewares/Third_Party/LibJPEG/source/jcarith.c **** 	    while (--e->zc);
 745              		.loc 1 298 6 is_stmt 1 view .LVU267
 298:Middlewares/Third_Party/LibJPEG/source/jcarith.c **** 	    while (--e->zc);
 746              		.loc 1 298 9 view .LVU268
 747 0142 2946     		mov	r1, r5
 748 0144 0020     		movs	r0, #0
 749 0146 FFF7FEFF 		bl	emit_byte
 750              	.LVL57:
 299:Middlewares/Third_Party/LibJPEG/source/jcarith.c **** 	  do {
 751              		.loc 1 299 13 discriminator 1 view .LVU269
 299:Middlewares/Third_Party/LibJPEG/source/jcarith.c **** 	  do {
 752              		.loc 1 299 16 is_stmt 0 discriminator 1 view .LVU270
 753 014a A369     		ldr	r3, [r4, #24]
 299:Middlewares/Third_Party/LibJPEG/source/jcarith.c **** 	  do {
 754              		.loc 1 299 13 discriminator 1 view .LVU271
 755 014c 013B     		subs	r3, r3, #1
 756 014e A361     		str	r3, [r4, #24]
 757 0150 002B     		cmp	r3, #0
 758 0152 F6D1     		bne	.L48
 759 0154 E7E7     		b	.L49
 760              	.LVL58:
 761              	.L29:
 311:Middlewares/Third_Party/LibJPEG/source/jcarith.c **** }
 762              		.loc 1 311 1 view .LVU272
 763 0156 F8BD     		pop	{r3, r4, r5, r6, r7, pc}
 764              	.LVL59:
 765              	.L56:
 766              		.loc 1 311 1 view .LVU273
 767              		.align	2
 768              	.L55:
 769 0158 00000000 		.word	jpeg_aritab
 770              		.cfi_endproc
 771              	.LFE149:
 773              		.section	.text.start_pass,"ax",%progbits
 774              		.align	1
 775              		.syntax unified
 776              		.thumb
 777              		.thumb_func
 779              	start_pass:
 780              	.LVL60:
 781              	.LFB156:
ARM GAS  /var/folders/mq/wg13gp494590nh4zyt09lxf00000gn/T//ccanc9wU.s 			page 22


 312:Middlewares/Third_Party/LibJPEG/source/jcarith.c **** 
 313:Middlewares/Third_Party/LibJPEG/source/jcarith.c **** 
 314:Middlewares/Third_Party/LibJPEG/source/jcarith.c **** /*
 315:Middlewares/Third_Party/LibJPEG/source/jcarith.c ****  * Emit a restart marker & resynchronize predictions.
 316:Middlewares/Third_Party/LibJPEG/source/jcarith.c ****  */
 317:Middlewares/Third_Party/LibJPEG/source/jcarith.c **** 
 318:Middlewares/Third_Party/LibJPEG/source/jcarith.c **** LOCAL(void)
 319:Middlewares/Third_Party/LibJPEG/source/jcarith.c **** emit_restart (j_compress_ptr cinfo, int restart_num)
 320:Middlewares/Third_Party/LibJPEG/source/jcarith.c **** {
 321:Middlewares/Third_Party/LibJPEG/source/jcarith.c ****   arith_entropy_ptr entropy = (arith_entropy_ptr) cinfo->entropy;
 322:Middlewares/Third_Party/LibJPEG/source/jcarith.c ****   int ci;
 323:Middlewares/Third_Party/LibJPEG/source/jcarith.c ****   jpeg_component_info * compptr;
 324:Middlewares/Third_Party/LibJPEG/source/jcarith.c **** 
 325:Middlewares/Third_Party/LibJPEG/source/jcarith.c ****   finish_pass(cinfo);
 326:Middlewares/Third_Party/LibJPEG/source/jcarith.c **** 
 327:Middlewares/Third_Party/LibJPEG/source/jcarith.c ****   emit_byte(0xFF, cinfo);
 328:Middlewares/Third_Party/LibJPEG/source/jcarith.c ****   emit_byte(JPEG_RST0 + restart_num, cinfo);
 329:Middlewares/Third_Party/LibJPEG/source/jcarith.c **** 
 330:Middlewares/Third_Party/LibJPEG/source/jcarith.c ****   /* Re-initialize statistics areas */
 331:Middlewares/Third_Party/LibJPEG/source/jcarith.c ****   for (ci = 0; ci < cinfo->comps_in_scan; ci++) {
 332:Middlewares/Third_Party/LibJPEG/source/jcarith.c ****     compptr = cinfo->cur_comp_info[ci];
 333:Middlewares/Third_Party/LibJPEG/source/jcarith.c ****     /* DC needs no table for refinement scan */
 334:Middlewares/Third_Party/LibJPEG/source/jcarith.c ****     if (cinfo->Ss == 0 && cinfo->Ah == 0) {
 335:Middlewares/Third_Party/LibJPEG/source/jcarith.c ****       MEMZERO(entropy->dc_stats[compptr->dc_tbl_no], DC_STAT_BINS);
 336:Middlewares/Third_Party/LibJPEG/source/jcarith.c ****       /* Reset DC predictions to 0 */
 337:Middlewares/Third_Party/LibJPEG/source/jcarith.c ****       entropy->last_dc_val[ci] = 0;
 338:Middlewares/Third_Party/LibJPEG/source/jcarith.c ****       entropy->dc_context[ci] = 0;
 339:Middlewares/Third_Party/LibJPEG/source/jcarith.c ****     }
 340:Middlewares/Third_Party/LibJPEG/source/jcarith.c ****     /* AC needs no table when not present */
 341:Middlewares/Third_Party/LibJPEG/source/jcarith.c ****     if (cinfo->Se) {
 342:Middlewares/Third_Party/LibJPEG/source/jcarith.c ****       MEMZERO(entropy->ac_stats[compptr->ac_tbl_no], AC_STAT_BINS);
 343:Middlewares/Third_Party/LibJPEG/source/jcarith.c ****     }
 344:Middlewares/Third_Party/LibJPEG/source/jcarith.c ****   }
 345:Middlewares/Third_Party/LibJPEG/source/jcarith.c **** 
 346:Middlewares/Third_Party/LibJPEG/source/jcarith.c ****   /* Reset arithmetic encoding variables */
 347:Middlewares/Third_Party/LibJPEG/source/jcarith.c ****   entropy->c = 0;
 348:Middlewares/Third_Party/LibJPEG/source/jcarith.c ****   entropy->a = 0x10000L;
 349:Middlewares/Third_Party/LibJPEG/source/jcarith.c ****   entropy->sc = 0;
 350:Middlewares/Third_Party/LibJPEG/source/jcarith.c ****   entropy->zc = 0;
 351:Middlewares/Third_Party/LibJPEG/source/jcarith.c ****   entropy->ct = 11;
 352:Middlewares/Third_Party/LibJPEG/source/jcarith.c ****   entropy->buffer = -1;  /* empty */
 353:Middlewares/Third_Party/LibJPEG/source/jcarith.c **** }
 354:Middlewares/Third_Party/LibJPEG/source/jcarith.c **** 
 355:Middlewares/Third_Party/LibJPEG/source/jcarith.c **** 
 356:Middlewares/Third_Party/LibJPEG/source/jcarith.c **** /*
 357:Middlewares/Third_Party/LibJPEG/source/jcarith.c ****  * MCU encoding for DC initial scan (either spectral selection,
 358:Middlewares/Third_Party/LibJPEG/source/jcarith.c ****  * or first pass of successive approximation).
 359:Middlewares/Third_Party/LibJPEG/source/jcarith.c ****  */
 360:Middlewares/Third_Party/LibJPEG/source/jcarith.c **** 
 361:Middlewares/Third_Party/LibJPEG/source/jcarith.c **** METHODDEF(boolean)
 362:Middlewares/Third_Party/LibJPEG/source/jcarith.c **** encode_mcu_DC_first (j_compress_ptr cinfo, JBLOCKROW *MCU_data)
 363:Middlewares/Third_Party/LibJPEG/source/jcarith.c **** {
 364:Middlewares/Third_Party/LibJPEG/source/jcarith.c ****   arith_entropy_ptr entropy = (arith_entropy_ptr) cinfo->entropy;
 365:Middlewares/Third_Party/LibJPEG/source/jcarith.c ****   JBLOCKROW block;
 366:Middlewares/Third_Party/LibJPEG/source/jcarith.c ****   unsigned char *st;
 367:Middlewares/Third_Party/LibJPEG/source/jcarith.c ****   int blkn, ci, tbl;
 368:Middlewares/Third_Party/LibJPEG/source/jcarith.c ****   int v, v2, m;
ARM GAS  /var/folders/mq/wg13gp494590nh4zyt09lxf00000gn/T//ccanc9wU.s 			page 23


 369:Middlewares/Third_Party/LibJPEG/source/jcarith.c ****   ISHIFT_TEMPS
 370:Middlewares/Third_Party/LibJPEG/source/jcarith.c **** 
 371:Middlewares/Third_Party/LibJPEG/source/jcarith.c ****   /* Emit restart marker if needed */
 372:Middlewares/Third_Party/LibJPEG/source/jcarith.c ****   if (cinfo->restart_interval) {
 373:Middlewares/Third_Party/LibJPEG/source/jcarith.c ****     if (entropy->restarts_to_go == 0) {
 374:Middlewares/Third_Party/LibJPEG/source/jcarith.c ****       emit_restart(cinfo, entropy->next_restart_num);
 375:Middlewares/Third_Party/LibJPEG/source/jcarith.c ****       entropy->restarts_to_go = cinfo->restart_interval;
 376:Middlewares/Third_Party/LibJPEG/source/jcarith.c ****       entropy->next_restart_num++;
 377:Middlewares/Third_Party/LibJPEG/source/jcarith.c ****       entropy->next_restart_num &= 7;
 378:Middlewares/Third_Party/LibJPEG/source/jcarith.c ****     }
 379:Middlewares/Third_Party/LibJPEG/source/jcarith.c ****     entropy->restarts_to_go--;
 380:Middlewares/Third_Party/LibJPEG/source/jcarith.c ****   }
 381:Middlewares/Third_Party/LibJPEG/source/jcarith.c **** 
 382:Middlewares/Third_Party/LibJPEG/source/jcarith.c ****   /* Encode the MCU data blocks */
 383:Middlewares/Third_Party/LibJPEG/source/jcarith.c ****   for (blkn = 0; blkn < cinfo->blocks_in_MCU; blkn++) {
 384:Middlewares/Third_Party/LibJPEG/source/jcarith.c ****     block = MCU_data[blkn];
 385:Middlewares/Third_Party/LibJPEG/source/jcarith.c ****     ci = cinfo->MCU_membership[blkn];
 386:Middlewares/Third_Party/LibJPEG/source/jcarith.c ****     tbl = cinfo->cur_comp_info[ci]->dc_tbl_no;
 387:Middlewares/Third_Party/LibJPEG/source/jcarith.c **** 
 388:Middlewares/Third_Party/LibJPEG/source/jcarith.c ****     /* Compute the DC value after the required point transform by Al.
 389:Middlewares/Third_Party/LibJPEG/source/jcarith.c ****      * This is simply an arithmetic right shift.
 390:Middlewares/Third_Party/LibJPEG/source/jcarith.c ****      */
 391:Middlewares/Third_Party/LibJPEG/source/jcarith.c ****     m = IRIGHT_SHIFT((int) ((*block)[0]), cinfo->Al);
 392:Middlewares/Third_Party/LibJPEG/source/jcarith.c **** 
 393:Middlewares/Third_Party/LibJPEG/source/jcarith.c ****     /* Sections F.1.4.1 & F.1.4.4.1: Encoding of DC coefficients */
 394:Middlewares/Third_Party/LibJPEG/source/jcarith.c **** 
 395:Middlewares/Third_Party/LibJPEG/source/jcarith.c ****     /* Table F.4: Point to statistics bin S0 for DC coefficient coding */
 396:Middlewares/Third_Party/LibJPEG/source/jcarith.c ****     st = entropy->dc_stats[tbl] + entropy->dc_context[ci];
 397:Middlewares/Third_Party/LibJPEG/source/jcarith.c **** 
 398:Middlewares/Third_Party/LibJPEG/source/jcarith.c ****     /* Figure F.4: Encode_DC_DIFF */
 399:Middlewares/Third_Party/LibJPEG/source/jcarith.c ****     if ((v = m - entropy->last_dc_val[ci]) == 0) {
 400:Middlewares/Third_Party/LibJPEG/source/jcarith.c ****       arith_encode(cinfo, st, 0);
 401:Middlewares/Third_Party/LibJPEG/source/jcarith.c ****       entropy->dc_context[ci] = 0;	/* zero diff category */
 402:Middlewares/Third_Party/LibJPEG/source/jcarith.c ****     } else {
 403:Middlewares/Third_Party/LibJPEG/source/jcarith.c ****       entropy->last_dc_val[ci] = m;
 404:Middlewares/Third_Party/LibJPEG/source/jcarith.c ****       arith_encode(cinfo, st, 1);
 405:Middlewares/Third_Party/LibJPEG/source/jcarith.c ****       /* Figure F.6: Encoding nonzero value v */
 406:Middlewares/Third_Party/LibJPEG/source/jcarith.c ****       /* Figure F.7: Encoding the sign of v */
 407:Middlewares/Third_Party/LibJPEG/source/jcarith.c ****       if (v > 0) {
 408:Middlewares/Third_Party/LibJPEG/source/jcarith.c **** 	arith_encode(cinfo, st + 1, 0);	/* Table F.4: SS = S0 + 1 */
 409:Middlewares/Third_Party/LibJPEG/source/jcarith.c **** 	st += 2;			/* Table F.4: SP = S0 + 2 */
 410:Middlewares/Third_Party/LibJPEG/source/jcarith.c **** 	entropy->dc_context[ci] = 4;	/* small positive diff category */
 411:Middlewares/Third_Party/LibJPEG/source/jcarith.c ****       } else {
 412:Middlewares/Third_Party/LibJPEG/source/jcarith.c **** 	v = -v;
 413:Middlewares/Third_Party/LibJPEG/source/jcarith.c **** 	arith_encode(cinfo, st + 1, 1);	/* Table F.4: SS = S0 + 1 */
 414:Middlewares/Third_Party/LibJPEG/source/jcarith.c **** 	st += 3;			/* Table F.4: SN = S0 + 3 */
 415:Middlewares/Third_Party/LibJPEG/source/jcarith.c **** 	entropy->dc_context[ci] = 8;	/* small negative diff category */
 416:Middlewares/Third_Party/LibJPEG/source/jcarith.c ****       }
 417:Middlewares/Third_Party/LibJPEG/source/jcarith.c ****       /* Figure F.8: Encoding the magnitude category of v */
 418:Middlewares/Third_Party/LibJPEG/source/jcarith.c ****       m = 0;
 419:Middlewares/Third_Party/LibJPEG/source/jcarith.c ****       if (v -= 1) {
 420:Middlewares/Third_Party/LibJPEG/source/jcarith.c **** 	arith_encode(cinfo, st, 1);
 421:Middlewares/Third_Party/LibJPEG/source/jcarith.c **** 	m = 1;
 422:Middlewares/Third_Party/LibJPEG/source/jcarith.c **** 	v2 = v;
 423:Middlewares/Third_Party/LibJPEG/source/jcarith.c **** 	st = entropy->dc_stats[tbl] + 20; /* Table F.4: X1 = 20 */
 424:Middlewares/Third_Party/LibJPEG/source/jcarith.c **** 	while (v2 >>= 1) {
 425:Middlewares/Third_Party/LibJPEG/source/jcarith.c **** 	  arith_encode(cinfo, st, 1);
ARM GAS  /var/folders/mq/wg13gp494590nh4zyt09lxf00000gn/T//ccanc9wU.s 			page 24


 426:Middlewares/Third_Party/LibJPEG/source/jcarith.c **** 	  m <<= 1;
 427:Middlewares/Third_Party/LibJPEG/source/jcarith.c **** 	  st += 1;
 428:Middlewares/Third_Party/LibJPEG/source/jcarith.c **** 	}
 429:Middlewares/Third_Party/LibJPEG/source/jcarith.c ****       }
 430:Middlewares/Third_Party/LibJPEG/source/jcarith.c ****       arith_encode(cinfo, st, 0);
 431:Middlewares/Third_Party/LibJPEG/source/jcarith.c ****       /* Section F.1.4.4.1.2: Establish dc_context conditioning category */
 432:Middlewares/Third_Party/LibJPEG/source/jcarith.c ****       if (m < (int) ((1L << cinfo->arith_dc_L[tbl]) >> 1))
 433:Middlewares/Third_Party/LibJPEG/source/jcarith.c **** 	entropy->dc_context[ci] = 0;	/* zero diff category */
 434:Middlewares/Third_Party/LibJPEG/source/jcarith.c ****       else if (m > (int) ((1L << cinfo->arith_dc_U[tbl]) >> 1))
 435:Middlewares/Third_Party/LibJPEG/source/jcarith.c **** 	entropy->dc_context[ci] += 8;	/* large diff category */
 436:Middlewares/Third_Party/LibJPEG/source/jcarith.c ****       /* Figure F.9: Encoding the magnitude bit pattern of v */
 437:Middlewares/Third_Party/LibJPEG/source/jcarith.c ****       st += 14;
 438:Middlewares/Third_Party/LibJPEG/source/jcarith.c ****       while (m >>= 1)
 439:Middlewares/Third_Party/LibJPEG/source/jcarith.c **** 	arith_encode(cinfo, st, (m & v) ? 1 : 0);
 440:Middlewares/Third_Party/LibJPEG/source/jcarith.c ****     }
 441:Middlewares/Third_Party/LibJPEG/source/jcarith.c ****   }
 442:Middlewares/Third_Party/LibJPEG/source/jcarith.c **** 
 443:Middlewares/Third_Party/LibJPEG/source/jcarith.c ****   return TRUE;
 444:Middlewares/Third_Party/LibJPEG/source/jcarith.c **** }
 445:Middlewares/Third_Party/LibJPEG/source/jcarith.c **** 
 446:Middlewares/Third_Party/LibJPEG/source/jcarith.c **** 
 447:Middlewares/Third_Party/LibJPEG/source/jcarith.c **** /*
 448:Middlewares/Third_Party/LibJPEG/source/jcarith.c ****  * MCU encoding for AC initial scan (either spectral selection,
 449:Middlewares/Third_Party/LibJPEG/source/jcarith.c ****  * or first pass of successive approximation).
 450:Middlewares/Third_Party/LibJPEG/source/jcarith.c ****  */
 451:Middlewares/Third_Party/LibJPEG/source/jcarith.c **** 
 452:Middlewares/Third_Party/LibJPEG/source/jcarith.c **** METHODDEF(boolean)
 453:Middlewares/Third_Party/LibJPEG/source/jcarith.c **** encode_mcu_AC_first (j_compress_ptr cinfo, JBLOCKROW *MCU_data)
 454:Middlewares/Third_Party/LibJPEG/source/jcarith.c **** {
 455:Middlewares/Third_Party/LibJPEG/source/jcarith.c ****   arith_entropy_ptr entropy = (arith_entropy_ptr) cinfo->entropy;
 456:Middlewares/Third_Party/LibJPEG/source/jcarith.c ****   JBLOCKROW block;
 457:Middlewares/Third_Party/LibJPEG/source/jcarith.c ****   unsigned char *st;
 458:Middlewares/Third_Party/LibJPEG/source/jcarith.c ****   int tbl, k, ke;
 459:Middlewares/Third_Party/LibJPEG/source/jcarith.c ****   int v, v2, m;
 460:Middlewares/Third_Party/LibJPEG/source/jcarith.c ****   const int * natural_order;
 461:Middlewares/Third_Party/LibJPEG/source/jcarith.c **** 
 462:Middlewares/Third_Party/LibJPEG/source/jcarith.c ****   /* Emit restart marker if needed */
 463:Middlewares/Third_Party/LibJPEG/source/jcarith.c ****   if (cinfo->restart_interval) {
 464:Middlewares/Third_Party/LibJPEG/source/jcarith.c ****     if (entropy->restarts_to_go == 0) {
 465:Middlewares/Third_Party/LibJPEG/source/jcarith.c ****       emit_restart(cinfo, entropy->next_restart_num);
 466:Middlewares/Third_Party/LibJPEG/source/jcarith.c ****       entropy->restarts_to_go = cinfo->restart_interval;
 467:Middlewares/Third_Party/LibJPEG/source/jcarith.c ****       entropy->next_restart_num++;
 468:Middlewares/Third_Party/LibJPEG/source/jcarith.c ****       entropy->next_restart_num &= 7;
 469:Middlewares/Third_Party/LibJPEG/source/jcarith.c ****     }
 470:Middlewares/Third_Party/LibJPEG/source/jcarith.c ****     entropy->restarts_to_go--;
 471:Middlewares/Third_Party/LibJPEG/source/jcarith.c ****   }
 472:Middlewares/Third_Party/LibJPEG/source/jcarith.c **** 
 473:Middlewares/Third_Party/LibJPEG/source/jcarith.c ****   natural_order = cinfo->natural_order;
 474:Middlewares/Third_Party/LibJPEG/source/jcarith.c **** 
 475:Middlewares/Third_Party/LibJPEG/source/jcarith.c ****   /* Encode the MCU data block */
 476:Middlewares/Third_Party/LibJPEG/source/jcarith.c ****   block = MCU_data[0];
 477:Middlewares/Third_Party/LibJPEG/source/jcarith.c ****   tbl = cinfo->cur_comp_info[0]->ac_tbl_no;
 478:Middlewares/Third_Party/LibJPEG/source/jcarith.c **** 
 479:Middlewares/Third_Party/LibJPEG/source/jcarith.c ****   /* Sections F.1.4.2 & F.1.4.4.2: Encoding of AC coefficients */
 480:Middlewares/Third_Party/LibJPEG/source/jcarith.c **** 
 481:Middlewares/Third_Party/LibJPEG/source/jcarith.c ****   /* Establish EOB (end-of-block) index */
 482:Middlewares/Third_Party/LibJPEG/source/jcarith.c ****   for (ke = cinfo->Se; ke > 0; ke--)
ARM GAS  /var/folders/mq/wg13gp494590nh4zyt09lxf00000gn/T//ccanc9wU.s 			page 25


 483:Middlewares/Third_Party/LibJPEG/source/jcarith.c ****     /* We must apply the point transform by Al.  For AC coefficients this
 484:Middlewares/Third_Party/LibJPEG/source/jcarith.c ****      * is an integer division with rounding towards 0.  To do this portably
 485:Middlewares/Third_Party/LibJPEG/source/jcarith.c ****      * in C, we shift after obtaining the absolute value.
 486:Middlewares/Third_Party/LibJPEG/source/jcarith.c ****      */
 487:Middlewares/Third_Party/LibJPEG/source/jcarith.c ****     if ((v = (*block)[natural_order[ke]]) >= 0) {
 488:Middlewares/Third_Party/LibJPEG/source/jcarith.c ****       if (v >>= cinfo->Al) break;
 489:Middlewares/Third_Party/LibJPEG/source/jcarith.c ****     } else {
 490:Middlewares/Third_Party/LibJPEG/source/jcarith.c ****       v = -v;
 491:Middlewares/Third_Party/LibJPEG/source/jcarith.c ****       if (v >>= cinfo->Al) break;
 492:Middlewares/Third_Party/LibJPEG/source/jcarith.c ****     }
 493:Middlewares/Third_Party/LibJPEG/source/jcarith.c **** 
 494:Middlewares/Third_Party/LibJPEG/source/jcarith.c ****   /* Figure F.5: Encode_AC_Coefficients */
 495:Middlewares/Third_Party/LibJPEG/source/jcarith.c ****   for (k = cinfo->Ss; k <= ke; k++) {
 496:Middlewares/Third_Party/LibJPEG/source/jcarith.c ****     st = entropy->ac_stats[tbl] + 3 * (k - 1);
 497:Middlewares/Third_Party/LibJPEG/source/jcarith.c ****     arith_encode(cinfo, st, 0);		/* EOB decision */
 498:Middlewares/Third_Party/LibJPEG/source/jcarith.c ****     for (;;) {
 499:Middlewares/Third_Party/LibJPEG/source/jcarith.c ****       if ((v = (*block)[natural_order[k]]) >= 0) {
 500:Middlewares/Third_Party/LibJPEG/source/jcarith.c **** 	if (v >>= cinfo->Al) {
 501:Middlewares/Third_Party/LibJPEG/source/jcarith.c **** 	  arith_encode(cinfo, st + 1, 1);
 502:Middlewares/Third_Party/LibJPEG/source/jcarith.c **** 	  arith_encode(cinfo, entropy->fixed_bin, 0);
 503:Middlewares/Third_Party/LibJPEG/source/jcarith.c **** 	  break;
 504:Middlewares/Third_Party/LibJPEG/source/jcarith.c **** 	}
 505:Middlewares/Third_Party/LibJPEG/source/jcarith.c ****       } else {
 506:Middlewares/Third_Party/LibJPEG/source/jcarith.c **** 	v = -v;
 507:Middlewares/Third_Party/LibJPEG/source/jcarith.c **** 	if (v >>= cinfo->Al) {
 508:Middlewares/Third_Party/LibJPEG/source/jcarith.c **** 	  arith_encode(cinfo, st + 1, 1);
 509:Middlewares/Third_Party/LibJPEG/source/jcarith.c **** 	  arith_encode(cinfo, entropy->fixed_bin, 1);
 510:Middlewares/Third_Party/LibJPEG/source/jcarith.c **** 	  break;
 511:Middlewares/Third_Party/LibJPEG/source/jcarith.c **** 	}
 512:Middlewares/Third_Party/LibJPEG/source/jcarith.c ****       }
 513:Middlewares/Third_Party/LibJPEG/source/jcarith.c ****       arith_encode(cinfo, st + 1, 0); st += 3; k++;
 514:Middlewares/Third_Party/LibJPEG/source/jcarith.c ****     }
 515:Middlewares/Third_Party/LibJPEG/source/jcarith.c ****     st += 2;
 516:Middlewares/Third_Party/LibJPEG/source/jcarith.c ****     /* Figure F.8: Encoding the magnitude category of v */
 517:Middlewares/Third_Party/LibJPEG/source/jcarith.c ****     m = 0;
 518:Middlewares/Third_Party/LibJPEG/source/jcarith.c ****     if (v -= 1) {
 519:Middlewares/Third_Party/LibJPEG/source/jcarith.c ****       arith_encode(cinfo, st, 1);
 520:Middlewares/Third_Party/LibJPEG/source/jcarith.c ****       m = 1;
 521:Middlewares/Third_Party/LibJPEG/source/jcarith.c ****       v2 = v;
 522:Middlewares/Third_Party/LibJPEG/source/jcarith.c ****       if (v2 >>= 1) {
 523:Middlewares/Third_Party/LibJPEG/source/jcarith.c **** 	arith_encode(cinfo, st, 1);
 524:Middlewares/Third_Party/LibJPEG/source/jcarith.c **** 	m <<= 1;
 525:Middlewares/Third_Party/LibJPEG/source/jcarith.c **** 	st = entropy->ac_stats[tbl] +
 526:Middlewares/Third_Party/LibJPEG/source/jcarith.c **** 	     (k <= cinfo->arith_ac_K[tbl] ? 189 : 217);
 527:Middlewares/Third_Party/LibJPEG/source/jcarith.c **** 	while (v2 >>= 1) {
 528:Middlewares/Third_Party/LibJPEG/source/jcarith.c **** 	  arith_encode(cinfo, st, 1);
 529:Middlewares/Third_Party/LibJPEG/source/jcarith.c **** 	  m <<= 1;
 530:Middlewares/Third_Party/LibJPEG/source/jcarith.c **** 	  st += 1;
 531:Middlewares/Third_Party/LibJPEG/source/jcarith.c **** 	}
 532:Middlewares/Third_Party/LibJPEG/source/jcarith.c ****       }
 533:Middlewares/Third_Party/LibJPEG/source/jcarith.c ****     }
 534:Middlewares/Third_Party/LibJPEG/source/jcarith.c ****     arith_encode(cinfo, st, 0);
 535:Middlewares/Third_Party/LibJPEG/source/jcarith.c ****     /* Figure F.9: Encoding the magnitude bit pattern of v */
 536:Middlewares/Third_Party/LibJPEG/source/jcarith.c ****     st += 14;
 537:Middlewares/Third_Party/LibJPEG/source/jcarith.c ****     while (m >>= 1)
 538:Middlewares/Third_Party/LibJPEG/source/jcarith.c ****       arith_encode(cinfo, st, (m & v) ? 1 : 0);
 539:Middlewares/Third_Party/LibJPEG/source/jcarith.c ****   }
ARM GAS  /var/folders/mq/wg13gp494590nh4zyt09lxf00000gn/T//ccanc9wU.s 			page 26


 540:Middlewares/Third_Party/LibJPEG/source/jcarith.c ****   /* Encode EOB decision only if k <= cinfo->Se */
 541:Middlewares/Third_Party/LibJPEG/source/jcarith.c ****   if (k <= cinfo->Se) {
 542:Middlewares/Third_Party/LibJPEG/source/jcarith.c ****     st = entropy->ac_stats[tbl] + 3 * (k - 1);
 543:Middlewares/Third_Party/LibJPEG/source/jcarith.c ****     arith_encode(cinfo, st, 1);
 544:Middlewares/Third_Party/LibJPEG/source/jcarith.c ****   }
 545:Middlewares/Third_Party/LibJPEG/source/jcarith.c **** 
 546:Middlewares/Third_Party/LibJPEG/source/jcarith.c ****   return TRUE;
 547:Middlewares/Third_Party/LibJPEG/source/jcarith.c **** }
 548:Middlewares/Third_Party/LibJPEG/source/jcarith.c **** 
 549:Middlewares/Third_Party/LibJPEG/source/jcarith.c **** 
 550:Middlewares/Third_Party/LibJPEG/source/jcarith.c **** /*
 551:Middlewares/Third_Party/LibJPEG/source/jcarith.c ****  * MCU encoding for DC successive approximation refinement scan.
 552:Middlewares/Third_Party/LibJPEG/source/jcarith.c ****  */
 553:Middlewares/Third_Party/LibJPEG/source/jcarith.c **** 
 554:Middlewares/Third_Party/LibJPEG/source/jcarith.c **** METHODDEF(boolean)
 555:Middlewares/Third_Party/LibJPEG/source/jcarith.c **** encode_mcu_DC_refine (j_compress_ptr cinfo, JBLOCKROW *MCU_data)
 556:Middlewares/Third_Party/LibJPEG/source/jcarith.c **** {
 557:Middlewares/Third_Party/LibJPEG/source/jcarith.c ****   arith_entropy_ptr entropy = (arith_entropy_ptr) cinfo->entropy;
 558:Middlewares/Third_Party/LibJPEG/source/jcarith.c ****   unsigned char *st;
 559:Middlewares/Third_Party/LibJPEG/source/jcarith.c ****   int Al, blkn;
 560:Middlewares/Third_Party/LibJPEG/source/jcarith.c **** 
 561:Middlewares/Third_Party/LibJPEG/source/jcarith.c ****   /* Emit restart marker if needed */
 562:Middlewares/Third_Party/LibJPEG/source/jcarith.c ****   if (cinfo->restart_interval) {
 563:Middlewares/Third_Party/LibJPEG/source/jcarith.c ****     if (entropy->restarts_to_go == 0) {
 564:Middlewares/Third_Party/LibJPEG/source/jcarith.c ****       emit_restart(cinfo, entropy->next_restart_num);
 565:Middlewares/Third_Party/LibJPEG/source/jcarith.c ****       entropy->restarts_to_go = cinfo->restart_interval;
 566:Middlewares/Third_Party/LibJPEG/source/jcarith.c ****       entropy->next_restart_num++;
 567:Middlewares/Third_Party/LibJPEG/source/jcarith.c ****       entropy->next_restart_num &= 7;
 568:Middlewares/Third_Party/LibJPEG/source/jcarith.c ****     }
 569:Middlewares/Third_Party/LibJPEG/source/jcarith.c ****     entropy->restarts_to_go--;
 570:Middlewares/Third_Party/LibJPEG/source/jcarith.c ****   }
 571:Middlewares/Third_Party/LibJPEG/source/jcarith.c **** 
 572:Middlewares/Third_Party/LibJPEG/source/jcarith.c ****   st = entropy->fixed_bin;	/* use fixed probability estimation */
 573:Middlewares/Third_Party/LibJPEG/source/jcarith.c ****   Al = cinfo->Al;
 574:Middlewares/Third_Party/LibJPEG/source/jcarith.c **** 
 575:Middlewares/Third_Party/LibJPEG/source/jcarith.c ****   /* Encode the MCU data blocks */
 576:Middlewares/Third_Party/LibJPEG/source/jcarith.c ****   for (blkn = 0; blkn < cinfo->blocks_in_MCU; blkn++) {
 577:Middlewares/Third_Party/LibJPEG/source/jcarith.c ****     /* We simply emit the Al'th bit of the DC coefficient value. */
 578:Middlewares/Third_Party/LibJPEG/source/jcarith.c ****     arith_encode(cinfo, st, (MCU_data[blkn][0][0] >> Al) & 1);
 579:Middlewares/Third_Party/LibJPEG/source/jcarith.c ****   }
 580:Middlewares/Third_Party/LibJPEG/source/jcarith.c **** 
 581:Middlewares/Third_Party/LibJPEG/source/jcarith.c ****   return TRUE;
 582:Middlewares/Third_Party/LibJPEG/source/jcarith.c **** }
 583:Middlewares/Third_Party/LibJPEG/source/jcarith.c **** 
 584:Middlewares/Third_Party/LibJPEG/source/jcarith.c **** 
 585:Middlewares/Third_Party/LibJPEG/source/jcarith.c **** /*
 586:Middlewares/Third_Party/LibJPEG/source/jcarith.c ****  * MCU encoding for AC successive approximation refinement scan.
 587:Middlewares/Third_Party/LibJPEG/source/jcarith.c ****  */
 588:Middlewares/Third_Party/LibJPEG/source/jcarith.c **** 
 589:Middlewares/Third_Party/LibJPEG/source/jcarith.c **** METHODDEF(boolean)
 590:Middlewares/Third_Party/LibJPEG/source/jcarith.c **** encode_mcu_AC_refine (j_compress_ptr cinfo, JBLOCKROW *MCU_data)
 591:Middlewares/Third_Party/LibJPEG/source/jcarith.c **** {
 592:Middlewares/Third_Party/LibJPEG/source/jcarith.c ****   arith_entropy_ptr entropy = (arith_entropy_ptr) cinfo->entropy;
 593:Middlewares/Third_Party/LibJPEG/source/jcarith.c ****   JBLOCKROW block;
 594:Middlewares/Third_Party/LibJPEG/source/jcarith.c ****   unsigned char *st;
 595:Middlewares/Third_Party/LibJPEG/source/jcarith.c ****   int tbl, k, ke, kex;
 596:Middlewares/Third_Party/LibJPEG/source/jcarith.c ****   int v;
ARM GAS  /var/folders/mq/wg13gp494590nh4zyt09lxf00000gn/T//ccanc9wU.s 			page 27


 597:Middlewares/Third_Party/LibJPEG/source/jcarith.c ****   const int * natural_order;
 598:Middlewares/Third_Party/LibJPEG/source/jcarith.c **** 
 599:Middlewares/Third_Party/LibJPEG/source/jcarith.c ****   /* Emit restart marker if needed */
 600:Middlewares/Third_Party/LibJPEG/source/jcarith.c ****   if (cinfo->restart_interval) {
 601:Middlewares/Third_Party/LibJPEG/source/jcarith.c ****     if (entropy->restarts_to_go == 0) {
 602:Middlewares/Third_Party/LibJPEG/source/jcarith.c ****       emit_restart(cinfo, entropy->next_restart_num);
 603:Middlewares/Third_Party/LibJPEG/source/jcarith.c ****       entropy->restarts_to_go = cinfo->restart_interval;
 604:Middlewares/Third_Party/LibJPEG/source/jcarith.c ****       entropy->next_restart_num++;
 605:Middlewares/Third_Party/LibJPEG/source/jcarith.c ****       entropy->next_restart_num &= 7;
 606:Middlewares/Third_Party/LibJPEG/source/jcarith.c ****     }
 607:Middlewares/Third_Party/LibJPEG/source/jcarith.c ****     entropy->restarts_to_go--;
 608:Middlewares/Third_Party/LibJPEG/source/jcarith.c ****   }
 609:Middlewares/Third_Party/LibJPEG/source/jcarith.c **** 
 610:Middlewares/Third_Party/LibJPEG/source/jcarith.c ****   natural_order = cinfo->natural_order;
 611:Middlewares/Third_Party/LibJPEG/source/jcarith.c **** 
 612:Middlewares/Third_Party/LibJPEG/source/jcarith.c ****   /* Encode the MCU data block */
 613:Middlewares/Third_Party/LibJPEG/source/jcarith.c ****   block = MCU_data[0];
 614:Middlewares/Third_Party/LibJPEG/source/jcarith.c ****   tbl = cinfo->cur_comp_info[0]->ac_tbl_no;
 615:Middlewares/Third_Party/LibJPEG/source/jcarith.c **** 
 616:Middlewares/Third_Party/LibJPEG/source/jcarith.c ****   /* Section G.1.3.3: Encoding of AC coefficients */
 617:Middlewares/Third_Party/LibJPEG/source/jcarith.c **** 
 618:Middlewares/Third_Party/LibJPEG/source/jcarith.c ****   /* Establish EOB (end-of-block) index */
 619:Middlewares/Third_Party/LibJPEG/source/jcarith.c ****   for (ke = cinfo->Se; ke > 0; ke--)
 620:Middlewares/Third_Party/LibJPEG/source/jcarith.c ****     /* We must apply the point transform by Al.  For AC coefficients this
 621:Middlewares/Third_Party/LibJPEG/source/jcarith.c ****      * is an integer division with rounding towards 0.  To do this portably
 622:Middlewares/Third_Party/LibJPEG/source/jcarith.c ****      * in C, we shift after obtaining the absolute value.
 623:Middlewares/Third_Party/LibJPEG/source/jcarith.c ****      */
 624:Middlewares/Third_Party/LibJPEG/source/jcarith.c ****     if ((v = (*block)[natural_order[ke]]) >= 0) {
 625:Middlewares/Third_Party/LibJPEG/source/jcarith.c ****       if (v >>= cinfo->Al) break;
 626:Middlewares/Third_Party/LibJPEG/source/jcarith.c ****     } else {
 627:Middlewares/Third_Party/LibJPEG/source/jcarith.c ****       v = -v;
 628:Middlewares/Third_Party/LibJPEG/source/jcarith.c ****       if (v >>= cinfo->Al) break;
 629:Middlewares/Third_Party/LibJPEG/source/jcarith.c ****     }
 630:Middlewares/Third_Party/LibJPEG/source/jcarith.c **** 
 631:Middlewares/Third_Party/LibJPEG/source/jcarith.c ****   /* Establish EOBx (previous stage end-of-block) index */
 632:Middlewares/Third_Party/LibJPEG/source/jcarith.c ****   for (kex = ke; kex > 0; kex--)
 633:Middlewares/Third_Party/LibJPEG/source/jcarith.c ****     if ((v = (*block)[natural_order[kex]]) >= 0) {
 634:Middlewares/Third_Party/LibJPEG/source/jcarith.c ****       if (v >>= cinfo->Ah) break;
 635:Middlewares/Third_Party/LibJPEG/source/jcarith.c ****     } else {
 636:Middlewares/Third_Party/LibJPEG/source/jcarith.c ****       v = -v;
 637:Middlewares/Third_Party/LibJPEG/source/jcarith.c ****       if (v >>= cinfo->Ah) break;
 638:Middlewares/Third_Party/LibJPEG/source/jcarith.c ****     }
 639:Middlewares/Third_Party/LibJPEG/source/jcarith.c **** 
 640:Middlewares/Third_Party/LibJPEG/source/jcarith.c ****   /* Figure G.10: Encode_AC_Coefficients_SA */
 641:Middlewares/Third_Party/LibJPEG/source/jcarith.c ****   for (k = cinfo->Ss; k <= ke; k++) {
 642:Middlewares/Third_Party/LibJPEG/source/jcarith.c ****     st = entropy->ac_stats[tbl] + 3 * (k - 1);
 643:Middlewares/Third_Party/LibJPEG/source/jcarith.c ****     if (k > kex)
 644:Middlewares/Third_Party/LibJPEG/source/jcarith.c ****       arith_encode(cinfo, st, 0);	/* EOB decision */
 645:Middlewares/Third_Party/LibJPEG/source/jcarith.c ****     for (;;) {
 646:Middlewares/Third_Party/LibJPEG/source/jcarith.c ****       if ((v = (*block)[natural_order[k]]) >= 0) {
 647:Middlewares/Third_Party/LibJPEG/source/jcarith.c **** 	if (v >>= cinfo->Al) {
 648:Middlewares/Third_Party/LibJPEG/source/jcarith.c **** 	  if (v >> 1)			/* previously nonzero coef */
 649:Middlewares/Third_Party/LibJPEG/source/jcarith.c **** 	    arith_encode(cinfo, st + 2, (v & 1));
 650:Middlewares/Third_Party/LibJPEG/source/jcarith.c **** 	  else {			/* newly nonzero coef */
 651:Middlewares/Third_Party/LibJPEG/source/jcarith.c **** 	    arith_encode(cinfo, st + 1, 1);
 652:Middlewares/Third_Party/LibJPEG/source/jcarith.c **** 	    arith_encode(cinfo, entropy->fixed_bin, 0);
 653:Middlewares/Third_Party/LibJPEG/source/jcarith.c **** 	  }
ARM GAS  /var/folders/mq/wg13gp494590nh4zyt09lxf00000gn/T//ccanc9wU.s 			page 28


 654:Middlewares/Third_Party/LibJPEG/source/jcarith.c **** 	  break;
 655:Middlewares/Third_Party/LibJPEG/source/jcarith.c **** 	}
 656:Middlewares/Third_Party/LibJPEG/source/jcarith.c ****       } else {
 657:Middlewares/Third_Party/LibJPEG/source/jcarith.c **** 	v = -v;
 658:Middlewares/Third_Party/LibJPEG/source/jcarith.c **** 	if (v >>= cinfo->Al) {
 659:Middlewares/Third_Party/LibJPEG/source/jcarith.c **** 	  if (v >> 1)			/* previously nonzero coef */
 660:Middlewares/Third_Party/LibJPEG/source/jcarith.c **** 	    arith_encode(cinfo, st + 2, (v & 1));
 661:Middlewares/Third_Party/LibJPEG/source/jcarith.c **** 	  else {			/* newly nonzero coef */
 662:Middlewares/Third_Party/LibJPEG/source/jcarith.c **** 	    arith_encode(cinfo, st + 1, 1);
 663:Middlewares/Third_Party/LibJPEG/source/jcarith.c **** 	    arith_encode(cinfo, entropy->fixed_bin, 1);
 664:Middlewares/Third_Party/LibJPEG/source/jcarith.c **** 	  }
 665:Middlewares/Third_Party/LibJPEG/source/jcarith.c **** 	  break;
 666:Middlewares/Third_Party/LibJPEG/source/jcarith.c **** 	}
 667:Middlewares/Third_Party/LibJPEG/source/jcarith.c ****       }
 668:Middlewares/Third_Party/LibJPEG/source/jcarith.c ****       arith_encode(cinfo, st + 1, 0); st += 3; k++;
 669:Middlewares/Third_Party/LibJPEG/source/jcarith.c ****     }
 670:Middlewares/Third_Party/LibJPEG/source/jcarith.c ****   }
 671:Middlewares/Third_Party/LibJPEG/source/jcarith.c ****   /* Encode EOB decision only if k <= cinfo->Se */
 672:Middlewares/Third_Party/LibJPEG/source/jcarith.c ****   if (k <= cinfo->Se) {
 673:Middlewares/Third_Party/LibJPEG/source/jcarith.c ****     st = entropy->ac_stats[tbl] + 3 * (k - 1);
 674:Middlewares/Third_Party/LibJPEG/source/jcarith.c ****     arith_encode(cinfo, st, 1);
 675:Middlewares/Third_Party/LibJPEG/source/jcarith.c ****   }
 676:Middlewares/Third_Party/LibJPEG/source/jcarith.c **** 
 677:Middlewares/Third_Party/LibJPEG/source/jcarith.c ****   return TRUE;
 678:Middlewares/Third_Party/LibJPEG/source/jcarith.c **** }
 679:Middlewares/Third_Party/LibJPEG/source/jcarith.c **** 
 680:Middlewares/Third_Party/LibJPEG/source/jcarith.c **** 
 681:Middlewares/Third_Party/LibJPEG/source/jcarith.c **** /*
 682:Middlewares/Third_Party/LibJPEG/source/jcarith.c ****  * Encode and output one MCU's worth of arithmetic-compressed coefficients.
 683:Middlewares/Third_Party/LibJPEG/source/jcarith.c ****  */
 684:Middlewares/Third_Party/LibJPEG/source/jcarith.c **** 
 685:Middlewares/Third_Party/LibJPEG/source/jcarith.c **** METHODDEF(boolean)
 686:Middlewares/Third_Party/LibJPEG/source/jcarith.c **** encode_mcu (j_compress_ptr cinfo, JBLOCKROW *MCU_data)
 687:Middlewares/Third_Party/LibJPEG/source/jcarith.c **** {
 688:Middlewares/Third_Party/LibJPEG/source/jcarith.c ****   arith_entropy_ptr entropy = (arith_entropy_ptr) cinfo->entropy;
 689:Middlewares/Third_Party/LibJPEG/source/jcarith.c ****   jpeg_component_info * compptr;
 690:Middlewares/Third_Party/LibJPEG/source/jcarith.c ****   JBLOCKROW block;
 691:Middlewares/Third_Party/LibJPEG/source/jcarith.c ****   unsigned char *st;
 692:Middlewares/Third_Party/LibJPEG/source/jcarith.c ****   int blkn, ci, tbl, k, ke;
 693:Middlewares/Third_Party/LibJPEG/source/jcarith.c ****   int v, v2, m;
 694:Middlewares/Third_Party/LibJPEG/source/jcarith.c ****   const int * natural_order;
 695:Middlewares/Third_Party/LibJPEG/source/jcarith.c **** 
 696:Middlewares/Third_Party/LibJPEG/source/jcarith.c ****   /* Emit restart marker if needed */
 697:Middlewares/Third_Party/LibJPEG/source/jcarith.c ****   if (cinfo->restart_interval) {
 698:Middlewares/Third_Party/LibJPEG/source/jcarith.c ****     if (entropy->restarts_to_go == 0) {
 699:Middlewares/Third_Party/LibJPEG/source/jcarith.c ****       emit_restart(cinfo, entropy->next_restart_num);
 700:Middlewares/Third_Party/LibJPEG/source/jcarith.c ****       entropy->restarts_to_go = cinfo->restart_interval;
 701:Middlewares/Third_Party/LibJPEG/source/jcarith.c ****       entropy->next_restart_num++;
 702:Middlewares/Third_Party/LibJPEG/source/jcarith.c ****       entropy->next_restart_num &= 7;
 703:Middlewares/Third_Party/LibJPEG/source/jcarith.c ****     }
 704:Middlewares/Third_Party/LibJPEG/source/jcarith.c ****     entropy->restarts_to_go--;
 705:Middlewares/Third_Party/LibJPEG/source/jcarith.c ****   }
 706:Middlewares/Third_Party/LibJPEG/source/jcarith.c **** 
 707:Middlewares/Third_Party/LibJPEG/source/jcarith.c ****   natural_order = cinfo->natural_order;
 708:Middlewares/Third_Party/LibJPEG/source/jcarith.c **** 
 709:Middlewares/Third_Party/LibJPEG/source/jcarith.c ****   /* Encode the MCU data blocks */
 710:Middlewares/Third_Party/LibJPEG/source/jcarith.c ****   for (blkn = 0; blkn < cinfo->blocks_in_MCU; blkn++) {
ARM GAS  /var/folders/mq/wg13gp494590nh4zyt09lxf00000gn/T//ccanc9wU.s 			page 29


 711:Middlewares/Third_Party/LibJPEG/source/jcarith.c ****     block = MCU_data[blkn];
 712:Middlewares/Third_Party/LibJPEG/source/jcarith.c ****     ci = cinfo->MCU_membership[blkn];
 713:Middlewares/Third_Party/LibJPEG/source/jcarith.c ****     compptr = cinfo->cur_comp_info[ci];
 714:Middlewares/Third_Party/LibJPEG/source/jcarith.c **** 
 715:Middlewares/Third_Party/LibJPEG/source/jcarith.c ****     /* Sections F.1.4.1 & F.1.4.4.1: Encoding of DC coefficients */
 716:Middlewares/Third_Party/LibJPEG/source/jcarith.c **** 
 717:Middlewares/Third_Party/LibJPEG/source/jcarith.c ****     tbl = compptr->dc_tbl_no;
 718:Middlewares/Third_Party/LibJPEG/source/jcarith.c **** 
 719:Middlewares/Third_Party/LibJPEG/source/jcarith.c ****     /* Table F.4: Point to statistics bin S0 for DC coefficient coding */
 720:Middlewares/Third_Party/LibJPEG/source/jcarith.c ****     st = entropy->dc_stats[tbl] + entropy->dc_context[ci];
 721:Middlewares/Third_Party/LibJPEG/source/jcarith.c **** 
 722:Middlewares/Third_Party/LibJPEG/source/jcarith.c ****     /* Figure F.4: Encode_DC_DIFF */
 723:Middlewares/Third_Party/LibJPEG/source/jcarith.c ****     if ((v = (*block)[0] - entropy->last_dc_val[ci]) == 0) {
 724:Middlewares/Third_Party/LibJPEG/source/jcarith.c ****       arith_encode(cinfo, st, 0);
 725:Middlewares/Third_Party/LibJPEG/source/jcarith.c ****       entropy->dc_context[ci] = 0;	/* zero diff category */
 726:Middlewares/Third_Party/LibJPEG/source/jcarith.c ****     } else {
 727:Middlewares/Third_Party/LibJPEG/source/jcarith.c ****       entropy->last_dc_val[ci] = (*block)[0];
 728:Middlewares/Third_Party/LibJPEG/source/jcarith.c ****       arith_encode(cinfo, st, 1);
 729:Middlewares/Third_Party/LibJPEG/source/jcarith.c ****       /* Figure F.6: Encoding nonzero value v */
 730:Middlewares/Third_Party/LibJPEG/source/jcarith.c ****       /* Figure F.7: Encoding the sign of v */
 731:Middlewares/Third_Party/LibJPEG/source/jcarith.c ****       if (v > 0) {
 732:Middlewares/Third_Party/LibJPEG/source/jcarith.c **** 	arith_encode(cinfo, st + 1, 0);	/* Table F.4: SS = S0 + 1 */
 733:Middlewares/Third_Party/LibJPEG/source/jcarith.c **** 	st += 2;			/* Table F.4: SP = S0 + 2 */
 734:Middlewares/Third_Party/LibJPEG/source/jcarith.c **** 	entropy->dc_context[ci] = 4;	/* small positive diff category */
 735:Middlewares/Third_Party/LibJPEG/source/jcarith.c ****       } else {
 736:Middlewares/Third_Party/LibJPEG/source/jcarith.c **** 	v = -v;
 737:Middlewares/Third_Party/LibJPEG/source/jcarith.c **** 	arith_encode(cinfo, st + 1, 1);	/* Table F.4: SS = S0 + 1 */
 738:Middlewares/Third_Party/LibJPEG/source/jcarith.c **** 	st += 3;			/* Table F.4: SN = S0 + 3 */
 739:Middlewares/Third_Party/LibJPEG/source/jcarith.c **** 	entropy->dc_context[ci] = 8;	/* small negative diff category */
 740:Middlewares/Third_Party/LibJPEG/source/jcarith.c ****       }
 741:Middlewares/Third_Party/LibJPEG/source/jcarith.c ****       /* Figure F.8: Encoding the magnitude category of v */
 742:Middlewares/Third_Party/LibJPEG/source/jcarith.c ****       m = 0;
 743:Middlewares/Third_Party/LibJPEG/source/jcarith.c ****       if (v -= 1) {
 744:Middlewares/Third_Party/LibJPEG/source/jcarith.c **** 	arith_encode(cinfo, st, 1);
 745:Middlewares/Third_Party/LibJPEG/source/jcarith.c **** 	m = 1;
 746:Middlewares/Third_Party/LibJPEG/source/jcarith.c **** 	v2 = v;
 747:Middlewares/Third_Party/LibJPEG/source/jcarith.c **** 	st = entropy->dc_stats[tbl] + 20; /* Table F.4: X1 = 20 */
 748:Middlewares/Third_Party/LibJPEG/source/jcarith.c **** 	while (v2 >>= 1) {
 749:Middlewares/Third_Party/LibJPEG/source/jcarith.c **** 	  arith_encode(cinfo, st, 1);
 750:Middlewares/Third_Party/LibJPEG/source/jcarith.c **** 	  m <<= 1;
 751:Middlewares/Third_Party/LibJPEG/source/jcarith.c **** 	  st += 1;
 752:Middlewares/Third_Party/LibJPEG/source/jcarith.c **** 	}
 753:Middlewares/Third_Party/LibJPEG/source/jcarith.c ****       }
 754:Middlewares/Third_Party/LibJPEG/source/jcarith.c ****       arith_encode(cinfo, st, 0);
 755:Middlewares/Third_Party/LibJPEG/source/jcarith.c ****       /* Section F.1.4.4.1.2: Establish dc_context conditioning category */
 756:Middlewares/Third_Party/LibJPEG/source/jcarith.c ****       if (m < (int) ((1L << cinfo->arith_dc_L[tbl]) >> 1))
 757:Middlewares/Third_Party/LibJPEG/source/jcarith.c **** 	entropy->dc_context[ci] = 0;	/* zero diff category */
 758:Middlewares/Third_Party/LibJPEG/source/jcarith.c ****       else if (m > (int) ((1L << cinfo->arith_dc_U[tbl]) >> 1))
 759:Middlewares/Third_Party/LibJPEG/source/jcarith.c **** 	entropy->dc_context[ci] += 8;	/* large diff category */
 760:Middlewares/Third_Party/LibJPEG/source/jcarith.c ****       /* Figure F.9: Encoding the magnitude bit pattern of v */
 761:Middlewares/Third_Party/LibJPEG/source/jcarith.c ****       st += 14;
 762:Middlewares/Third_Party/LibJPEG/source/jcarith.c ****       while (m >>= 1)
 763:Middlewares/Third_Party/LibJPEG/source/jcarith.c **** 	arith_encode(cinfo, st, (m & v) ? 1 : 0);
 764:Middlewares/Third_Party/LibJPEG/source/jcarith.c ****     }
 765:Middlewares/Third_Party/LibJPEG/source/jcarith.c **** 
 766:Middlewares/Third_Party/LibJPEG/source/jcarith.c ****     /* Sections F.1.4.2 & F.1.4.4.2: Encoding of AC coefficients */
 767:Middlewares/Third_Party/LibJPEG/source/jcarith.c **** 
ARM GAS  /var/folders/mq/wg13gp494590nh4zyt09lxf00000gn/T//ccanc9wU.s 			page 30


 768:Middlewares/Third_Party/LibJPEG/source/jcarith.c ****     if ((ke = cinfo->lim_Se) == 0) continue;
 769:Middlewares/Third_Party/LibJPEG/source/jcarith.c ****     tbl = compptr->ac_tbl_no;
 770:Middlewares/Third_Party/LibJPEG/source/jcarith.c **** 
 771:Middlewares/Third_Party/LibJPEG/source/jcarith.c ****     /* Establish EOB (end-of-block) index */
 772:Middlewares/Third_Party/LibJPEG/source/jcarith.c ****     do {
 773:Middlewares/Third_Party/LibJPEG/source/jcarith.c ****       if ((*block)[natural_order[ke]]) break;
 774:Middlewares/Third_Party/LibJPEG/source/jcarith.c ****     } while (--ke);
 775:Middlewares/Third_Party/LibJPEG/source/jcarith.c **** 
 776:Middlewares/Third_Party/LibJPEG/source/jcarith.c ****     /* Figure F.5: Encode_AC_Coefficients */
 777:Middlewares/Third_Party/LibJPEG/source/jcarith.c ****     for (k = 0; k < ke;) {
 778:Middlewares/Third_Party/LibJPEG/source/jcarith.c ****       st = entropy->ac_stats[tbl] + 3 * k;
 779:Middlewares/Third_Party/LibJPEG/source/jcarith.c ****       arith_encode(cinfo, st, 0);	/* EOB decision */
 780:Middlewares/Third_Party/LibJPEG/source/jcarith.c ****       while ((v = (*block)[natural_order[++k]]) == 0) {
 781:Middlewares/Third_Party/LibJPEG/source/jcarith.c **** 	arith_encode(cinfo, st + 1, 0);
 782:Middlewares/Third_Party/LibJPEG/source/jcarith.c **** 	st += 3;
 783:Middlewares/Third_Party/LibJPEG/source/jcarith.c ****       }
 784:Middlewares/Third_Party/LibJPEG/source/jcarith.c ****       arith_encode(cinfo, st + 1, 1);
 785:Middlewares/Third_Party/LibJPEG/source/jcarith.c ****       /* Figure F.6: Encoding nonzero value v */
 786:Middlewares/Third_Party/LibJPEG/source/jcarith.c ****       /* Figure F.7: Encoding the sign of v */
 787:Middlewares/Third_Party/LibJPEG/source/jcarith.c ****       if (v > 0) {
 788:Middlewares/Third_Party/LibJPEG/source/jcarith.c **** 	arith_encode(cinfo, entropy->fixed_bin, 0);
 789:Middlewares/Third_Party/LibJPEG/source/jcarith.c ****       } else {
 790:Middlewares/Third_Party/LibJPEG/source/jcarith.c **** 	v = -v;
 791:Middlewares/Third_Party/LibJPEG/source/jcarith.c **** 	arith_encode(cinfo, entropy->fixed_bin, 1);
 792:Middlewares/Third_Party/LibJPEG/source/jcarith.c ****       }
 793:Middlewares/Third_Party/LibJPEG/source/jcarith.c ****       st += 2;
 794:Middlewares/Third_Party/LibJPEG/source/jcarith.c ****       /* Figure F.8: Encoding the magnitude category of v */
 795:Middlewares/Third_Party/LibJPEG/source/jcarith.c ****       m = 0;
 796:Middlewares/Third_Party/LibJPEG/source/jcarith.c ****       if (v -= 1) {
 797:Middlewares/Third_Party/LibJPEG/source/jcarith.c **** 	arith_encode(cinfo, st, 1);
 798:Middlewares/Third_Party/LibJPEG/source/jcarith.c **** 	m = 1;
 799:Middlewares/Third_Party/LibJPEG/source/jcarith.c **** 	v2 = v;
 800:Middlewares/Third_Party/LibJPEG/source/jcarith.c **** 	if (v2 >>= 1) {
 801:Middlewares/Third_Party/LibJPEG/source/jcarith.c **** 	  arith_encode(cinfo, st, 1);
 802:Middlewares/Third_Party/LibJPEG/source/jcarith.c **** 	  m <<= 1;
 803:Middlewares/Third_Party/LibJPEG/source/jcarith.c **** 	  st = entropy->ac_stats[tbl] +
 804:Middlewares/Third_Party/LibJPEG/source/jcarith.c **** 	       (k <= cinfo->arith_ac_K[tbl] ? 189 : 217);
 805:Middlewares/Third_Party/LibJPEG/source/jcarith.c **** 	  while (v2 >>= 1) {
 806:Middlewares/Third_Party/LibJPEG/source/jcarith.c **** 	    arith_encode(cinfo, st, 1);
 807:Middlewares/Third_Party/LibJPEG/source/jcarith.c **** 	    m <<= 1;
 808:Middlewares/Third_Party/LibJPEG/source/jcarith.c **** 	    st += 1;
 809:Middlewares/Third_Party/LibJPEG/source/jcarith.c **** 	  }
 810:Middlewares/Third_Party/LibJPEG/source/jcarith.c **** 	}
 811:Middlewares/Third_Party/LibJPEG/source/jcarith.c ****       }
 812:Middlewares/Third_Party/LibJPEG/source/jcarith.c ****       arith_encode(cinfo, st, 0);
 813:Middlewares/Third_Party/LibJPEG/source/jcarith.c ****       /* Figure F.9: Encoding the magnitude bit pattern of v */
 814:Middlewares/Third_Party/LibJPEG/source/jcarith.c ****       st += 14;
 815:Middlewares/Third_Party/LibJPEG/source/jcarith.c ****       while (m >>= 1)
 816:Middlewares/Third_Party/LibJPEG/source/jcarith.c **** 	arith_encode(cinfo, st, (m & v) ? 1 : 0);
 817:Middlewares/Third_Party/LibJPEG/source/jcarith.c ****     }
 818:Middlewares/Third_Party/LibJPEG/source/jcarith.c ****     /* Encode EOB decision only if k < cinfo->lim_Se */
 819:Middlewares/Third_Party/LibJPEG/source/jcarith.c ****     if (k < cinfo->lim_Se) {
 820:Middlewares/Third_Party/LibJPEG/source/jcarith.c ****       st = entropy->ac_stats[tbl] + 3 * k;
 821:Middlewares/Third_Party/LibJPEG/source/jcarith.c ****       arith_encode(cinfo, st, 1);
 822:Middlewares/Third_Party/LibJPEG/source/jcarith.c ****     }
 823:Middlewares/Third_Party/LibJPEG/source/jcarith.c ****   }
 824:Middlewares/Third_Party/LibJPEG/source/jcarith.c **** 
ARM GAS  /var/folders/mq/wg13gp494590nh4zyt09lxf00000gn/T//ccanc9wU.s 			page 31


 825:Middlewares/Third_Party/LibJPEG/source/jcarith.c ****   return TRUE;
 826:Middlewares/Third_Party/LibJPEG/source/jcarith.c **** }
 827:Middlewares/Third_Party/LibJPEG/source/jcarith.c **** 
 828:Middlewares/Third_Party/LibJPEG/source/jcarith.c **** 
 829:Middlewares/Third_Party/LibJPEG/source/jcarith.c **** /*
 830:Middlewares/Third_Party/LibJPEG/source/jcarith.c ****  * Initialize for an arithmetic-compressed scan.
 831:Middlewares/Third_Party/LibJPEG/source/jcarith.c ****  */
 832:Middlewares/Third_Party/LibJPEG/source/jcarith.c **** 
 833:Middlewares/Third_Party/LibJPEG/source/jcarith.c **** METHODDEF(void)
 834:Middlewares/Third_Party/LibJPEG/source/jcarith.c **** start_pass (j_compress_ptr cinfo, boolean gather_statistics)
 835:Middlewares/Third_Party/LibJPEG/source/jcarith.c **** {
 782              		.loc 1 835 1 is_stmt 1 view -0
 783              		.cfi_startproc
 784              		@ args = 0, pretend = 0, frame = 0
 785              		@ frame_needed = 0, uses_anonymous_args = 0
 786              		.loc 1 835 1 is_stmt 0 view .LVU275
 787 0000 2DE9F041 		push	{r4, r5, r6, r7, r8, lr}
 788              	.LCFI3:
 789              		.cfi_def_cfa_offset 24
 790              		.cfi_offset 4, -24
 791              		.cfi_offset 5, -20
 792              		.cfi_offset 6, -16
 793              		.cfi_offset 7, -12
 794              		.cfi_offset 8, -8
 795              		.cfi_offset 14, -4
 796 0004 0446     		mov	r4, r0
 836:Middlewares/Third_Party/LibJPEG/source/jcarith.c ****   arith_entropy_ptr entropy = (arith_entropy_ptr) cinfo->entropy;
 797              		.loc 1 836 3 is_stmt 1 view .LVU276
 798              		.loc 1 836 21 is_stmt 0 view .LVU277
 799 0006 D0F8A461 		ldr	r6, [r0, #420]
 800              	.LVL61:
 837:Middlewares/Third_Party/LibJPEG/source/jcarith.c ****   int ci, tbl;
 801              		.loc 1 837 3 is_stmt 1 view .LVU278
 838:Middlewares/Third_Party/LibJPEG/source/jcarith.c ****   jpeg_component_info * compptr;
 802              		.loc 1 838 3 view .LVU279
 839:Middlewares/Third_Party/LibJPEG/source/jcarith.c **** 
 840:Middlewares/Third_Party/LibJPEG/source/jcarith.c ****   if (gather_statistics)
 803              		.loc 1 840 3 view .LVU280
 804              		.loc 1 840 6 is_stmt 0 view .LVU281
 805 000a 29B1     		cbz	r1, .L58
 841:Middlewares/Third_Party/LibJPEG/source/jcarith.c ****     /* Make sure to avoid that in the master control logic!
 842:Middlewares/Third_Party/LibJPEG/source/jcarith.c ****      * We are fully adaptive here and need no extra
 843:Middlewares/Third_Party/LibJPEG/source/jcarith.c ****      * statistics gathering pass!
 844:Middlewares/Third_Party/LibJPEG/source/jcarith.c ****      */
 845:Middlewares/Third_Party/LibJPEG/source/jcarith.c ****     ERREXIT(cinfo, JERR_NOT_COMPILED);
 806              		.loc 1 845 5 is_stmt 1 view .LVU282
 807 000c 0368     		ldr	r3, [r0]
 808 000e 3122     		movs	r2, #49
 809 0010 5A61     		str	r2, [r3, #20]
 810 0012 0368     		ldr	r3, [r0]
 811 0014 1B68     		ldr	r3, [r3]
 812 0016 9847     		blx	r3
 813              	.LVL62:
 814              	.L58:
 846:Middlewares/Third_Party/LibJPEG/source/jcarith.c **** 
 847:Middlewares/Third_Party/LibJPEG/source/jcarith.c ****   /* We assume jcmaster.c already validated the progressive scan parameters. */
 848:Middlewares/Third_Party/LibJPEG/source/jcarith.c **** 
ARM GAS  /var/folders/mq/wg13gp494590nh4zyt09lxf00000gn/T//ccanc9wU.s 			page 32


 849:Middlewares/Third_Party/LibJPEG/source/jcarith.c ****   /* Select execution routines */
 850:Middlewares/Third_Party/LibJPEG/source/jcarith.c ****   if (cinfo->progressive_mode) {
 815              		.loc 1 850 3 view .LVU283
 816              		.loc 1 850 12 is_stmt 0 view .LVU284
 817 0018 D4F80831 		ldr	r3, [r4, #264]
 818              		.loc 1 850 6 view .LVU285
 819 001c A3B1     		cbz	r3, .L59
 851:Middlewares/Third_Party/LibJPEG/source/jcarith.c ****     if (cinfo->Ah == 0) {
 820              		.loc 1 851 5 is_stmt 1 view .LVU286
 821              		.loc 1 851 14 is_stmt 0 view .LVU287
 822 001e D4F87031 		ldr	r3, [r4, #368]
 823              		.loc 1 851 8 view .LVU288
 824 0022 43B9     		cbnz	r3, .L60
 852:Middlewares/Third_Party/LibJPEG/source/jcarith.c ****       if (cinfo->Ss == 0)
 825              		.loc 1 852 7 is_stmt 1 view .LVU289
 826              		.loc 1 852 16 is_stmt 0 view .LVU290
 827 0024 D4F86831 		ldr	r3, [r4, #360]
 828              		.loc 1 852 10 view .LVU291
 829 0028 13B9     		cbnz	r3, .L61
 853:Middlewares/Third_Party/LibJPEG/source/jcarith.c **** 	entropy->pub.encode_mcu = encode_mcu_DC_first;
 830              		.loc 1 853 2 is_stmt 1 view .LVU292
 831              		.loc 1 853 26 is_stmt 0 view .LVU293
 832 002a 4C4B     		ldr	r3, .L76
 833 002c 7360     		str	r3, [r6, #4]
 834 002e 0DE0     		b	.L62
 835              	.L61:
 854:Middlewares/Third_Party/LibJPEG/source/jcarith.c ****       else
 855:Middlewares/Third_Party/LibJPEG/source/jcarith.c **** 	entropy->pub.encode_mcu = encode_mcu_AC_first;
 836              		.loc 1 855 2 is_stmt 1 view .LVU294
 837              		.loc 1 855 26 is_stmt 0 view .LVU295
 838 0030 4B4B     		ldr	r3, .L76+4
 839 0032 7360     		str	r3, [r6, #4]
 840 0034 0AE0     		b	.L62
 841              	.L60:
 856:Middlewares/Third_Party/LibJPEG/source/jcarith.c ****     } else {
 857:Middlewares/Third_Party/LibJPEG/source/jcarith.c ****       if (cinfo->Ss == 0)
 842              		.loc 1 857 7 is_stmt 1 view .LVU296
 843              		.loc 1 857 16 is_stmt 0 view .LVU297
 844 0036 D4F86831 		ldr	r3, [r4, #360]
 845              		.loc 1 857 10 view .LVU298
 846 003a 13B9     		cbnz	r3, .L64
 858:Middlewares/Third_Party/LibJPEG/source/jcarith.c **** 	entropy->pub.encode_mcu = encode_mcu_DC_refine;
 847              		.loc 1 858 2 is_stmt 1 view .LVU299
 848              		.loc 1 858 26 is_stmt 0 view .LVU300
 849 003c 494B     		ldr	r3, .L76+8
 850 003e 7360     		str	r3, [r6, #4]
 851 0040 04E0     		b	.L62
 852              	.L64:
 859:Middlewares/Third_Party/LibJPEG/source/jcarith.c ****       else
 860:Middlewares/Third_Party/LibJPEG/source/jcarith.c **** 	entropy->pub.encode_mcu = encode_mcu_AC_refine;
 853              		.loc 1 860 2 is_stmt 1 view .LVU301
 854              		.loc 1 860 26 is_stmt 0 view .LVU302
 855 0042 494B     		ldr	r3, .L76+12
 856 0044 7360     		str	r3, [r6, #4]
 857 0046 01E0     		b	.L62
 858              	.L59:
 861:Middlewares/Third_Party/LibJPEG/source/jcarith.c ****     }
ARM GAS  /var/folders/mq/wg13gp494590nh4zyt09lxf00000gn/T//ccanc9wU.s 			page 33


 862:Middlewares/Third_Party/LibJPEG/source/jcarith.c ****   } else
 863:Middlewares/Third_Party/LibJPEG/source/jcarith.c ****     entropy->pub.encode_mcu = encode_mcu;
 859              		.loc 1 863 5 is_stmt 1 view .LVU303
 860              		.loc 1 863 29 is_stmt 0 view .LVU304
 861 0048 484B     		ldr	r3, .L76+16
 862 004a 7360     		str	r3, [r6, #4]
 863              	.L62:
 835:Middlewares/Third_Party/LibJPEG/source/jcarith.c ****   arith_entropy_ptr entropy = (arith_entropy_ptr) cinfo->entropy;
 864              		.loc 1 835 1 view .LVU305
 865 004c 0025     		movs	r5, #0
 866 004e 3AE0     		b	.L63
 867              	.LVL63:
 868              	.L66:
 864:Middlewares/Third_Party/LibJPEG/source/jcarith.c **** 
 865:Middlewares/Third_Party/LibJPEG/source/jcarith.c ****   /* Allocate & initialize requested statistics areas */
 866:Middlewares/Third_Party/LibJPEG/source/jcarith.c ****   for (ci = 0; ci < cinfo->comps_in_scan; ci++) {
 867:Middlewares/Third_Party/LibJPEG/source/jcarith.c ****     compptr = cinfo->cur_comp_info[ci];
 868:Middlewares/Third_Party/LibJPEG/source/jcarith.c ****     /* DC needs no table for refinement scan */
 869:Middlewares/Third_Party/LibJPEG/source/jcarith.c ****     if (cinfo->Ss == 0 && cinfo->Ah == 0) {
 870:Middlewares/Third_Party/LibJPEG/source/jcarith.c ****       tbl = compptr->dc_tbl_no;
 871:Middlewares/Third_Party/LibJPEG/source/jcarith.c ****       if (tbl < 0 || tbl >= NUM_ARITH_TBLS)
 872:Middlewares/Third_Party/LibJPEG/source/jcarith.c **** 	ERREXIT1(cinfo, JERR_NO_ARITH_TABLE, tbl);
 873:Middlewares/Third_Party/LibJPEG/source/jcarith.c ****       if (entropy->dc_stats[tbl] == NULL)
 869              		.loc 1 873 7 is_stmt 1 view .LVU306
 870              		.loc 1 873 28 is_stmt 0 view .LVU307
 871 0050 07F11203 		add	r3, r7, #18
 872 0054 06EB8303 		add	r3, r6, r3, lsl #2
 873 0058 5B68     		ldr	r3, [r3, #4]
 874              		.loc 1 873 10 view .LVU308
 875 005a 002B     		cmp	r3, #0
 876 005c 53D0     		beq	.L73
 877              	.L67:
 874:Middlewares/Third_Party/LibJPEG/source/jcarith.c **** 	entropy->dc_stats[tbl] = (unsigned char *) (*cinfo->mem->alloc_small)
 875:Middlewares/Third_Party/LibJPEG/source/jcarith.c **** 	  ((j_common_ptr) cinfo, JPOOL_IMAGE, DC_STAT_BINS);
 876:Middlewares/Third_Party/LibJPEG/source/jcarith.c ****       MEMZERO(entropy->dc_stats[tbl], DC_STAT_BINS);
 878              		.loc 1 876 7 is_stmt 1 view .LVU309
 879 005e 1237     		adds	r7, r7, #18
 880              	.LVL64:
 881              		.loc 1 876 7 is_stmt 0 view .LVU310
 882 0060 06EB8707 		add	r7, r6, r7, lsl #2
 883              	.LVL65:
 884              		.loc 1 876 7 view .LVU311
 885 0064 4022     		movs	r2, #64
 886 0066 0021     		movs	r1, #0
 887 0068 7868     		ldr	r0, [r7, #4]
 888 006a FFF7FEFF 		bl	memset
 889              	.LVL66:
 877:Middlewares/Third_Party/LibJPEG/source/jcarith.c ****       /* Initialize DC predictions to 0 */
 878:Middlewares/Third_Party/LibJPEG/source/jcarith.c ****       entropy->last_dc_val[ci] = 0;
 890              		.loc 1 878 7 is_stmt 1 view .LVU312
 891              		.loc 1 878 32 is_stmt 0 view .LVU313
 892 006e 05F10803 		add	r3, r5, #8
 893 0072 06EB8303 		add	r3, r6, r3, lsl #2
 894 0076 0022     		movs	r2, #0
 895 0078 5A60     		str	r2, [r3, #4]
 879:Middlewares/Third_Party/LibJPEG/source/jcarith.c ****       entropy->dc_context[ci] = 0;
 896              		.loc 1 879 7 is_stmt 1 view .LVU314
ARM GAS  /var/folders/mq/wg13gp494590nh4zyt09lxf00000gn/T//ccanc9wU.s 			page 34


 897              		.loc 1 879 31 is_stmt 0 view .LVU315
 898 007a 05F10C03 		add	r3, r5, #12
 899 007e 06EB8303 		add	r3, r6, r3, lsl #2
 900 0082 5A60     		str	r2, [r3, #4]
 901              	.LVL67:
 902              	.L65:
 880:Middlewares/Third_Party/LibJPEG/source/jcarith.c ****     }
 881:Middlewares/Third_Party/LibJPEG/source/jcarith.c ****     /* AC needs no table when not present */
 882:Middlewares/Third_Party/LibJPEG/source/jcarith.c ****     if (cinfo->Se) {
 903              		.loc 1 882 5 is_stmt 1 view .LVU316
 904              		.loc 1 882 14 is_stmt 0 view .LVU317
 905 0084 D4F86C31 		ldr	r3, [r4, #364]
 906              		.loc 1 882 8 view .LVU318
 907 0088 E3B1     		cbz	r3, .L68
 883:Middlewares/Third_Party/LibJPEG/source/jcarith.c ****       tbl = compptr->ac_tbl_no;
 908              		.loc 1 883 7 is_stmt 1 view .LVU319
 909              		.loc 1 883 11 is_stmt 0 view .LVU320
 910 008a D8F81870 		ldr	r7, [r8, #24]
 911              	.LVL68:
 884:Middlewares/Third_Party/LibJPEG/source/jcarith.c ****       if (tbl < 0 || tbl >= NUM_ARITH_TBLS)
 912              		.loc 1 884 7 is_stmt 1 view .LVU321
 913              		.loc 1 884 10 is_stmt 0 view .LVU322
 914 008e 0F2F     		cmp	r7, #15
 915 0090 08D9     		bls	.L69
 885:Middlewares/Third_Party/LibJPEG/source/jcarith.c **** 	ERREXIT1(cinfo, JERR_NO_ARITH_TABLE, tbl);
 916              		.loc 1 885 2 is_stmt 1 view .LVU323
 917 0092 2368     		ldr	r3, [r4]
 918 0094 3222     		movs	r2, #50
 919 0096 5A61     		str	r2, [r3, #20]
 920 0098 2368     		ldr	r3, [r4]
 921 009a 9F61     		str	r7, [r3, #24]
 922 009c 2368     		ldr	r3, [r4]
 923 009e 1B68     		ldr	r3, [r3]
 924 00a0 2046     		mov	r0, r4
 925 00a2 9847     		blx	r3
 926              	.LVL69:
 927              	.L69:
 886:Middlewares/Third_Party/LibJPEG/source/jcarith.c ****       if (entropy->ac_stats[tbl] == NULL)
 928              		.loc 1 886 7 view .LVU324
 929              		.loc 1 886 28 is_stmt 0 view .LVU325
 930 00a4 07F12203 		add	r3, r7, #34
 931 00a8 06EB8303 		add	r3, r6, r3, lsl #2
 932 00ac 5B68     		ldr	r3, [r3, #4]
 933              		.loc 1 886 10 view .LVU326
 934 00ae 002B     		cmp	r3, #0
 935 00b0 35D0     		beq	.L74
 936              	.L70:
 887:Middlewares/Third_Party/LibJPEG/source/jcarith.c **** 	entropy->ac_stats[tbl] = (unsigned char *) (*cinfo->mem->alloc_small)
 888:Middlewares/Third_Party/LibJPEG/source/jcarith.c **** 	  ((j_common_ptr) cinfo, JPOOL_IMAGE, AC_STAT_BINS);
 889:Middlewares/Third_Party/LibJPEG/source/jcarith.c ****       MEMZERO(entropy->ac_stats[tbl], AC_STAT_BINS);
 937              		.loc 1 889 7 is_stmt 1 view .LVU327
 938 00b2 2237     		adds	r7, r7, #34
 939              	.LVL70:
 940              		.loc 1 889 7 is_stmt 0 view .LVU328
 941 00b4 06EB8707 		add	r7, r6, r7, lsl #2
 942              	.LVL71:
 943              		.loc 1 889 7 view .LVU329
ARM GAS  /var/folders/mq/wg13gp494590nh4zyt09lxf00000gn/T//ccanc9wU.s 			page 35


 944 00b8 4FF48072 		mov	r2, #256
 945 00bc 0021     		movs	r1, #0
 946 00be 7868     		ldr	r0, [r7, #4]
 947 00c0 FFF7FEFF 		bl	memset
 948              	.LVL72:
 949              	.L68:
 866:Middlewares/Third_Party/LibJPEG/source/jcarith.c ****     compptr = cinfo->cur_comp_info[ci];
 950              		.loc 1 866 45 is_stmt 1 discriminator 2 view .LVU330
 951 00c4 0135     		adds	r5, r5, #1
 952              	.LVL73:
 953              	.L63:
 866:Middlewares/Third_Party/LibJPEG/source/jcarith.c ****     compptr = cinfo->cur_comp_info[ci];
 954              		.loc 1 866 19 discriminator 1 view .LVU331
 866:Middlewares/Third_Party/LibJPEG/source/jcarith.c ****     compptr = cinfo->cur_comp_info[ci];
 955              		.loc 1 866 26 is_stmt 0 discriminator 1 view .LVU332
 956 00c6 D4F82031 		ldr	r3, [r4, #288]
 866:Middlewares/Third_Party/LibJPEG/source/jcarith.c ****     compptr = cinfo->cur_comp_info[ci];
 957              		.loc 1 866 19 discriminator 1 view .LVU333
 958 00ca AB42     		cmp	r3, r5
 959 00cc 34DD     		ble	.L75
 867:Middlewares/Third_Party/LibJPEG/source/jcarith.c ****     /* DC needs no table for refinement scan */
 960              		.loc 1 867 5 is_stmt 1 view .LVU334
 867:Middlewares/Third_Party/LibJPEG/source/jcarith.c ****     /* DC needs no table for refinement scan */
 961              		.loc 1 867 13 is_stmt 0 view .LVU335
 962 00ce 05F14803 		add	r3, r5, #72
 963 00d2 04EB8303 		add	r3, r4, r3, lsl #2
 964 00d6 D3F80480 		ldr	r8, [r3, #4]
 965              	.LVL74:
 869:Middlewares/Third_Party/LibJPEG/source/jcarith.c ****       tbl = compptr->dc_tbl_no;
 966              		.loc 1 869 5 is_stmt 1 view .LVU336
 869:Middlewares/Third_Party/LibJPEG/source/jcarith.c ****       tbl = compptr->dc_tbl_no;
 967              		.loc 1 869 14 is_stmt 0 view .LVU337
 968 00da D4F86831 		ldr	r3, [r4, #360]
 869:Middlewares/Third_Party/LibJPEG/source/jcarith.c ****       tbl = compptr->dc_tbl_no;
 969              		.loc 1 869 8 view .LVU338
 970 00de 002B     		cmp	r3, #0
 971 00e0 D0D1     		bne	.L65
 869:Middlewares/Third_Party/LibJPEG/source/jcarith.c ****       tbl = compptr->dc_tbl_no;
 972              		.loc 1 869 32 discriminator 1 view .LVU339
 973 00e2 D4F87031 		ldr	r3, [r4, #368]
 869:Middlewares/Third_Party/LibJPEG/source/jcarith.c ****       tbl = compptr->dc_tbl_no;
 974              		.loc 1 869 24 discriminator 1 view .LVU340
 975 00e6 002B     		cmp	r3, #0
 976 00e8 CCD1     		bne	.L65
 870:Middlewares/Third_Party/LibJPEG/source/jcarith.c ****       if (tbl < 0 || tbl >= NUM_ARITH_TBLS)
 977              		.loc 1 870 7 is_stmt 1 view .LVU341
 870:Middlewares/Third_Party/LibJPEG/source/jcarith.c ****       if (tbl < 0 || tbl >= NUM_ARITH_TBLS)
 978              		.loc 1 870 11 is_stmt 0 view .LVU342
 979 00ea D8F81470 		ldr	r7, [r8, #20]
 980              	.LVL75:
 871:Middlewares/Third_Party/LibJPEG/source/jcarith.c **** 	ERREXIT1(cinfo, JERR_NO_ARITH_TABLE, tbl);
 981              		.loc 1 871 7 is_stmt 1 view .LVU343
 871:Middlewares/Third_Party/LibJPEG/source/jcarith.c **** 	ERREXIT1(cinfo, JERR_NO_ARITH_TABLE, tbl);
 982              		.loc 1 871 10 is_stmt 0 view .LVU344
 983 00ee 0F2F     		cmp	r7, #15
 984 00f0 AED9     		bls	.L66
 872:Middlewares/Third_Party/LibJPEG/source/jcarith.c ****       if (entropy->dc_stats[tbl] == NULL)
ARM GAS  /var/folders/mq/wg13gp494590nh4zyt09lxf00000gn/T//ccanc9wU.s 			page 36


 985              		.loc 1 872 2 is_stmt 1 view .LVU345
 986 00f2 2368     		ldr	r3, [r4]
 987 00f4 3222     		movs	r2, #50
 988 00f6 5A61     		str	r2, [r3, #20]
 989 00f8 2368     		ldr	r3, [r4]
 990 00fa 9F61     		str	r7, [r3, #24]
 991 00fc 2368     		ldr	r3, [r4]
 992 00fe 1B68     		ldr	r3, [r3]
 993 0100 2046     		mov	r0, r4
 994 0102 9847     		blx	r3
 995              	.LVL76:
 996 0104 A4E7     		b	.L66
 997              	.L73:
 874:Middlewares/Third_Party/LibJPEG/source/jcarith.c **** 	  ((j_common_ptr) cinfo, JPOOL_IMAGE, DC_STAT_BINS);
 998              		.loc 1 874 2 view .LVU346
 874:Middlewares/Third_Party/LibJPEG/source/jcarith.c **** 	  ((j_common_ptr) cinfo, JPOOL_IMAGE, DC_STAT_BINS);
 999              		.loc 1 874 52 is_stmt 0 view .LVU347
 1000 0106 6368     		ldr	r3, [r4, #4]
 874:Middlewares/Third_Party/LibJPEG/source/jcarith.c **** 	  ((j_common_ptr) cinfo, JPOOL_IMAGE, DC_STAT_BINS);
 1001              		.loc 1 874 46 view .LVU348
 1002 0108 1B68     		ldr	r3, [r3]
 1003 010a 4022     		movs	r2, #64
 1004 010c 0121     		movs	r1, #1
 1005 010e 2046     		mov	r0, r4
 1006 0110 9847     		blx	r3
 1007              	.LVL77:
 874:Middlewares/Third_Party/LibJPEG/source/jcarith.c **** 	  ((j_common_ptr) cinfo, JPOOL_IMAGE, DC_STAT_BINS);
 1008              		.loc 1 874 25 discriminator 1 view .LVU349
 1009 0112 07F11203 		add	r3, r7, #18
 1010 0116 06EB8303 		add	r3, r6, r3, lsl #2
 1011 011a 5860     		str	r0, [r3, #4]
 1012 011c 9FE7     		b	.L67
 1013              	.L74:
 887:Middlewares/Third_Party/LibJPEG/source/jcarith.c **** 	  ((j_common_ptr) cinfo, JPOOL_IMAGE, AC_STAT_BINS);
 1014              		.loc 1 887 2 is_stmt 1 view .LVU350
 887:Middlewares/Third_Party/LibJPEG/source/jcarith.c **** 	  ((j_common_ptr) cinfo, JPOOL_IMAGE, AC_STAT_BINS);
 1015              		.loc 1 887 52 is_stmt 0 view .LVU351
 1016 011e 6368     		ldr	r3, [r4, #4]
 887:Middlewares/Third_Party/LibJPEG/source/jcarith.c **** 	  ((j_common_ptr) cinfo, JPOOL_IMAGE, AC_STAT_BINS);
 1017              		.loc 1 887 46 view .LVU352
 1018 0120 1B68     		ldr	r3, [r3]
 1019 0122 4FF48072 		mov	r2, #256
 1020 0126 0121     		movs	r1, #1
 1021 0128 2046     		mov	r0, r4
 1022 012a 9847     		blx	r3
 1023              	.LVL78:
 887:Middlewares/Third_Party/LibJPEG/source/jcarith.c **** 	  ((j_common_ptr) cinfo, JPOOL_IMAGE, AC_STAT_BINS);
 1024              		.loc 1 887 25 discriminator 1 view .LVU353
 1025 012c 07F12203 		add	r3, r7, #34
 1026 0130 06EB8303 		add	r3, r6, r3, lsl #2
 1027 0134 5860     		str	r0, [r3, #4]
 1028 0136 BCE7     		b	.L70
 1029              	.LVL79:
 1030              	.L75:
 890:Middlewares/Third_Party/LibJPEG/source/jcarith.c **** #ifdef CALCULATE_SPECTRAL_CONDITIONING
 891:Middlewares/Third_Party/LibJPEG/source/jcarith.c ****       if (cinfo->progressive_mode)
 892:Middlewares/Third_Party/LibJPEG/source/jcarith.c **** 	/* Section G.1.3.2: Set appropriate arithmetic conditioning value Kx */
ARM GAS  /var/folders/mq/wg13gp494590nh4zyt09lxf00000gn/T//ccanc9wU.s 			page 37


 893:Middlewares/Third_Party/LibJPEG/source/jcarith.c **** 	cinfo->arith_ac_K[tbl] = cinfo->Ss + ((8 + cinfo->Se - cinfo->Ss) >> 4);
 894:Middlewares/Third_Party/LibJPEG/source/jcarith.c **** #endif
 895:Middlewares/Third_Party/LibJPEG/source/jcarith.c ****     }
 896:Middlewares/Third_Party/LibJPEG/source/jcarith.c ****   }
 897:Middlewares/Third_Party/LibJPEG/source/jcarith.c **** 
 898:Middlewares/Third_Party/LibJPEG/source/jcarith.c ****   /* Initialize arithmetic encoding variables */
 899:Middlewares/Third_Party/LibJPEG/source/jcarith.c ****   entropy->c = 0;
 1031              		.loc 1 899 3 is_stmt 1 view .LVU354
 1032              		.loc 1 899 14 is_stmt 0 view .LVU355
 1033 0138 0023     		movs	r3, #0
 1034 013a F360     		str	r3, [r6, #12]
 900:Middlewares/Third_Party/LibJPEG/source/jcarith.c ****   entropy->a = 0x10000L;
 1035              		.loc 1 900 3 is_stmt 1 view .LVU356
 1036              		.loc 1 900 14 is_stmt 0 view .LVU357
 1037 013c 4FF48032 		mov	r2, #65536
 1038 0140 3261     		str	r2, [r6, #16]
 901:Middlewares/Third_Party/LibJPEG/source/jcarith.c ****   entropy->sc = 0;
 1039              		.loc 1 901 3 is_stmt 1 view .LVU358
 1040              		.loc 1 901 15 is_stmt 0 view .LVU359
 1041 0142 7361     		str	r3, [r6, #20]
 902:Middlewares/Third_Party/LibJPEG/source/jcarith.c ****   entropy->zc = 0;
 1042              		.loc 1 902 3 is_stmt 1 view .LVU360
 1043              		.loc 1 902 15 is_stmt 0 view .LVU361
 1044 0144 B361     		str	r3, [r6, #24]
 903:Middlewares/Third_Party/LibJPEG/source/jcarith.c ****   entropy->ct = 11;
 1045              		.loc 1 903 3 is_stmt 1 view .LVU362
 1046              		.loc 1 903 15 is_stmt 0 view .LVU363
 1047 0146 0B22     		movs	r2, #11
 1048 0148 F261     		str	r2, [r6, #28]
 904:Middlewares/Third_Party/LibJPEG/source/jcarith.c ****   entropy->buffer = -1;  /* empty */
 1049              		.loc 1 904 3 is_stmt 1 view .LVU364
 1050              		.loc 1 904 19 is_stmt 0 view .LVU365
 1051 014a 4FF0FF32 		mov	r2, #-1
 1052 014e 3262     		str	r2, [r6, #32]
 905:Middlewares/Third_Party/LibJPEG/source/jcarith.c **** 
 906:Middlewares/Third_Party/LibJPEG/source/jcarith.c ****   /* Initialize restart stuff */
 907:Middlewares/Third_Party/LibJPEG/source/jcarith.c ****   entropy->restarts_to_go = cinfo->restart_interval;
 1053              		.loc 1 907 3 is_stmt 1 view .LVU366
 1054              		.loc 1 907 34 is_stmt 0 view .LVU367
 1055 0150 D4F8EC20 		ldr	r2, [r4, #236]
 1056              		.loc 1 907 27 view .LVU368
 1057 0154 7264     		str	r2, [r6, #68]
 908:Middlewares/Third_Party/LibJPEG/source/jcarith.c ****   entropy->next_restart_num = 0;
 1058              		.loc 1 908 3 is_stmt 1 view .LVU369
 1059              		.loc 1 908 29 is_stmt 0 view .LVU370
 1060 0156 B364     		str	r3, [r6, #72]
 909:Middlewares/Third_Party/LibJPEG/source/jcarith.c **** }
 1061              		.loc 1 909 1 view .LVU371
 1062 0158 BDE8F081 		pop	{r4, r5, r6, r7, r8, pc}
 1063              	.LVL80:
 1064              	.L77:
 1065              		.loc 1 909 1 view .LVU372
 1066              		.align	2
 1067              	.L76:
 1068 015c 00000000 		.word	encode_mcu_DC_first
 1069 0160 00000000 		.word	encode_mcu_AC_first
 1070 0164 00000000 		.word	encode_mcu_DC_refine
ARM GAS  /var/folders/mq/wg13gp494590nh4zyt09lxf00000gn/T//ccanc9wU.s 			page 38


 1071 0168 00000000 		.word	encode_mcu_AC_refine
 1072 016c 00000000 		.word	encode_mcu
 1073              		.cfi_endproc
 1074              	.LFE156:
 1076              		.section	.text.emit_restart,"ax",%progbits
 1077              		.align	1
 1078              		.syntax unified
 1079              		.thumb
 1080              		.thumb_func
 1082              	emit_restart:
 1083              	.LVL81:
 1084              	.LFB150:
 320:Middlewares/Third_Party/LibJPEG/source/jcarith.c ****   arith_entropy_ptr entropy = (arith_entropy_ptr) cinfo->entropy;
 1085              		.loc 1 320 1 is_stmt 1 view -0
 1086              		.cfi_startproc
 1087              		@ args = 0, pretend = 0, frame = 0
 1088              		@ frame_needed = 0, uses_anonymous_args = 0
 320:Middlewares/Third_Party/LibJPEG/source/jcarith.c ****   arith_entropy_ptr entropy = (arith_entropy_ptr) cinfo->entropy;
 1089              		.loc 1 320 1 is_stmt 0 view .LVU374
 1090 0000 F8B5     		push	{r3, r4, r5, r6, r7, lr}
 1091              	.LCFI4:
 1092              		.cfi_def_cfa_offset 24
 1093              		.cfi_offset 3, -24
 1094              		.cfi_offset 4, -20
 1095              		.cfi_offset 5, -16
 1096              		.cfi_offset 6, -12
 1097              		.cfi_offset 7, -8
 1098              		.cfi_offset 14, -4
 1099 0002 0446     		mov	r4, r0
 1100 0004 0D46     		mov	r5, r1
 321:Middlewares/Third_Party/LibJPEG/source/jcarith.c ****   int ci;
 1101              		.loc 1 321 3 is_stmt 1 view .LVU375
 321:Middlewares/Third_Party/LibJPEG/source/jcarith.c ****   int ci;
 1102              		.loc 1 321 21 is_stmt 0 view .LVU376
 1103 0006 D0F8A461 		ldr	r6, [r0, #420]
 1104              	.LVL82:
 322:Middlewares/Third_Party/LibJPEG/source/jcarith.c ****   jpeg_component_info * compptr;
 1105              		.loc 1 322 3 is_stmt 1 view .LVU377
 323:Middlewares/Third_Party/LibJPEG/source/jcarith.c **** 
 1106              		.loc 1 323 3 view .LVU378
 325:Middlewares/Third_Party/LibJPEG/source/jcarith.c **** 
 1107              		.loc 1 325 3 view .LVU379
 1108 000a FFF7FEFF 		bl	finish_pass
 1109              	.LVL83:
 327:Middlewares/Third_Party/LibJPEG/source/jcarith.c ****   emit_byte(JPEG_RST0 + restart_num, cinfo);
 1110              		.loc 1 327 3 view .LVU380
 1111 000e 2146     		mov	r1, r4
 1112 0010 FF20     		movs	r0, #255
 1113 0012 FFF7FEFF 		bl	emit_byte
 1114              	.LVL84:
 328:Middlewares/Third_Party/LibJPEG/source/jcarith.c **** 
 1115              		.loc 1 328 3 view .LVU381
 1116 0016 2146     		mov	r1, r4
 1117 0018 05F1D000 		add	r0, r5, #208
 1118 001c FFF7FEFF 		bl	emit_byte
 1119              	.LVL85:
 331:Middlewares/Third_Party/LibJPEG/source/jcarith.c ****     compptr = cinfo->cur_comp_info[ci];
ARM GAS  /var/folders/mq/wg13gp494590nh4zyt09lxf00000gn/T//ccanc9wU.s 			page 39


 1120              		.loc 1 331 3 view .LVU382
 331:Middlewares/Third_Party/LibJPEG/source/jcarith.c ****     compptr = cinfo->cur_comp_info[ci];
 1121              		.loc 1 331 11 is_stmt 0 view .LVU383
 1122 0020 0025     		movs	r5, #0
 1123              	.LVL86:
 331:Middlewares/Third_Party/LibJPEG/source/jcarith.c ****     compptr = cinfo->cur_comp_info[ci];
 1124              		.loc 1 331 3 view .LVU384
 1125 0022 17E0     		b	.L79
 1126              	.LVL87:
 1127              	.L86:
 335:Middlewares/Third_Party/LibJPEG/source/jcarith.c ****       /* Reset DC predictions to 0 */
 1128              		.loc 1 335 7 is_stmt 1 view .LVU385
 1129 0024 7B69     		ldr	r3, [r7, #20]
 1130 0026 1233     		adds	r3, r3, #18
 1131 0028 06EB8303 		add	r3, r6, r3, lsl #2
 1132 002c 4022     		movs	r2, #64
 1133 002e 0021     		movs	r1, #0
 1134 0030 5868     		ldr	r0, [r3, #4]
 1135 0032 FFF7FEFF 		bl	memset
 1136              	.LVL88:
 337:Middlewares/Third_Party/LibJPEG/source/jcarith.c ****       entropy->dc_context[ci] = 0;
 1137              		.loc 1 337 7 view .LVU386
 337:Middlewares/Third_Party/LibJPEG/source/jcarith.c ****       entropy->dc_context[ci] = 0;
 1138              		.loc 1 337 32 is_stmt 0 view .LVU387
 1139 0036 05F10803 		add	r3, r5, #8
 1140 003a 06EB8303 		add	r3, r6, r3, lsl #2
 1141 003e 0022     		movs	r2, #0
 1142 0040 5A60     		str	r2, [r3, #4]
 338:Middlewares/Third_Party/LibJPEG/source/jcarith.c ****     }
 1143              		.loc 1 338 7 is_stmt 1 view .LVU388
 338:Middlewares/Third_Party/LibJPEG/source/jcarith.c ****     }
 1144              		.loc 1 338 31 is_stmt 0 view .LVU389
 1145 0042 05F10C03 		add	r3, r5, #12
 1146 0046 06EB8303 		add	r3, r6, r3, lsl #2
 1147 004a 5A60     		str	r2, [r3, #4]
 1148              	.L80:
 341:Middlewares/Third_Party/LibJPEG/source/jcarith.c ****       MEMZERO(entropy->ac_stats[compptr->ac_tbl_no], AC_STAT_BINS);
 1149              		.loc 1 341 5 is_stmt 1 view .LVU390
 341:Middlewares/Third_Party/LibJPEG/source/jcarith.c ****       MEMZERO(entropy->ac_stats[compptr->ac_tbl_no], AC_STAT_BINS);
 1150              		.loc 1 341 14 is_stmt 0 view .LVU391
 1151 004c D4F86C31 		ldr	r3, [r4, #364]
 341:Middlewares/Third_Party/LibJPEG/source/jcarith.c ****       MEMZERO(entropy->ac_stats[compptr->ac_tbl_no], AC_STAT_BINS);
 1152              		.loc 1 341 8 view .LVU392
 1153 0050 93B9     		cbnz	r3, .L84
 1154              	.L81:
 331:Middlewares/Third_Party/LibJPEG/source/jcarith.c ****     compptr = cinfo->cur_comp_info[ci];
 1155              		.loc 1 331 45 is_stmt 1 discriminator 2 view .LVU393
 1156 0052 0135     		adds	r5, r5, #1
 1157              	.LVL89:
 1158              	.L79:
 331:Middlewares/Third_Party/LibJPEG/source/jcarith.c ****     compptr = cinfo->cur_comp_info[ci];
 1159              		.loc 1 331 19 discriminator 1 view .LVU394
 331:Middlewares/Third_Party/LibJPEG/source/jcarith.c ****     compptr = cinfo->cur_comp_info[ci];
 1160              		.loc 1 331 26 is_stmt 0 discriminator 1 view .LVU395
 1161 0054 D4F82031 		ldr	r3, [r4, #288]
 331:Middlewares/Third_Party/LibJPEG/source/jcarith.c ****     compptr = cinfo->cur_comp_info[ci];
 1162              		.loc 1 331 19 discriminator 1 view .LVU396
ARM GAS  /var/folders/mq/wg13gp494590nh4zyt09lxf00000gn/T//ccanc9wU.s 			page 40


 1163 0058 AB42     		cmp	r3, r5
 1164 005a 18DD     		ble	.L85
 332:Middlewares/Third_Party/LibJPEG/source/jcarith.c ****     /* DC needs no table for refinement scan */
 1165              		.loc 1 332 5 is_stmt 1 view .LVU397
 332:Middlewares/Third_Party/LibJPEG/source/jcarith.c ****     /* DC needs no table for refinement scan */
 1166              		.loc 1 332 13 is_stmt 0 view .LVU398
 1167 005c 05F14803 		add	r3, r5, #72
 1168 0060 04EB8303 		add	r3, r4, r3, lsl #2
 1169 0064 5F68     		ldr	r7, [r3, #4]
 1170              	.LVL90:
 334:Middlewares/Third_Party/LibJPEG/source/jcarith.c ****       MEMZERO(entropy->dc_stats[compptr->dc_tbl_no], DC_STAT_BINS);
 1171              		.loc 1 334 5 is_stmt 1 view .LVU399
 334:Middlewares/Third_Party/LibJPEG/source/jcarith.c ****       MEMZERO(entropy->dc_stats[compptr->dc_tbl_no], DC_STAT_BINS);
 1172              		.loc 1 334 14 is_stmt 0 view .LVU400
 1173 0066 D4F86831 		ldr	r3, [r4, #360]
 334:Middlewares/Third_Party/LibJPEG/source/jcarith.c ****       MEMZERO(entropy->dc_stats[compptr->dc_tbl_no], DC_STAT_BINS);
 1174              		.loc 1 334 8 view .LVU401
 1175 006a 002B     		cmp	r3, #0
 1176 006c EED1     		bne	.L80
 334:Middlewares/Third_Party/LibJPEG/source/jcarith.c ****       MEMZERO(entropy->dc_stats[compptr->dc_tbl_no], DC_STAT_BINS);
 1177              		.loc 1 334 32 discriminator 1 view .LVU402
 1178 006e D4F87031 		ldr	r3, [r4, #368]
 334:Middlewares/Third_Party/LibJPEG/source/jcarith.c ****       MEMZERO(entropy->dc_stats[compptr->dc_tbl_no], DC_STAT_BINS);
 1179              		.loc 1 334 24 discriminator 1 view .LVU403
 1180 0072 002B     		cmp	r3, #0
 1181 0074 EAD1     		bne	.L80
 1182 0076 D5E7     		b	.L86
 1183              	.L84:
 342:Middlewares/Third_Party/LibJPEG/source/jcarith.c ****     }
 1184              		.loc 1 342 7 is_stmt 1 view .LVU404
 1185 0078 BB69     		ldr	r3, [r7, #24]
 1186 007a 2233     		adds	r3, r3, #34
 1187 007c 06EB8303 		add	r3, r6, r3, lsl #2
 1188 0080 4FF48072 		mov	r2, #256
 1189 0084 0021     		movs	r1, #0
 1190 0086 5868     		ldr	r0, [r3, #4]
 1191 0088 FFF7FEFF 		bl	memset
 1192              	.LVL91:
 1193 008c E1E7     		b	.L81
 1194              	.LVL92:
 1195              	.L85:
 347:Middlewares/Third_Party/LibJPEG/source/jcarith.c ****   entropy->a = 0x10000L;
 1196              		.loc 1 347 3 view .LVU405
 347:Middlewares/Third_Party/LibJPEG/source/jcarith.c ****   entropy->a = 0x10000L;
 1197              		.loc 1 347 14 is_stmt 0 view .LVU406
 1198 008e 0023     		movs	r3, #0
 1199 0090 F360     		str	r3, [r6, #12]
 348:Middlewares/Third_Party/LibJPEG/source/jcarith.c ****   entropy->sc = 0;
 1200              		.loc 1 348 3 is_stmt 1 view .LVU407
 348:Middlewares/Third_Party/LibJPEG/source/jcarith.c ****   entropy->sc = 0;
 1201              		.loc 1 348 14 is_stmt 0 view .LVU408
 1202 0092 4FF48032 		mov	r2, #65536
 1203 0096 3261     		str	r2, [r6, #16]
 349:Middlewares/Third_Party/LibJPEG/source/jcarith.c ****   entropy->zc = 0;
 1204              		.loc 1 349 3 is_stmt 1 view .LVU409
 349:Middlewares/Third_Party/LibJPEG/source/jcarith.c ****   entropy->zc = 0;
 1205              		.loc 1 349 15 is_stmt 0 view .LVU410
ARM GAS  /var/folders/mq/wg13gp494590nh4zyt09lxf00000gn/T//ccanc9wU.s 			page 41


 1206 0098 7361     		str	r3, [r6, #20]
 350:Middlewares/Third_Party/LibJPEG/source/jcarith.c ****   entropy->ct = 11;
 1207              		.loc 1 350 3 is_stmt 1 view .LVU411
 350:Middlewares/Third_Party/LibJPEG/source/jcarith.c ****   entropy->ct = 11;
 1208              		.loc 1 350 15 is_stmt 0 view .LVU412
 1209 009a B361     		str	r3, [r6, #24]
 351:Middlewares/Third_Party/LibJPEG/source/jcarith.c ****   entropy->buffer = -1;  /* empty */
 1210              		.loc 1 351 3 is_stmt 1 view .LVU413
 351:Middlewares/Third_Party/LibJPEG/source/jcarith.c ****   entropy->buffer = -1;  /* empty */
 1211              		.loc 1 351 15 is_stmt 0 view .LVU414
 1212 009c 0B23     		movs	r3, #11
 1213 009e F361     		str	r3, [r6, #28]
 352:Middlewares/Third_Party/LibJPEG/source/jcarith.c **** }
 1214              		.loc 1 352 3 is_stmt 1 view .LVU415
 352:Middlewares/Third_Party/LibJPEG/source/jcarith.c **** }
 1215              		.loc 1 352 19 is_stmt 0 view .LVU416
 1216 00a0 4FF0FF33 		mov	r3, #-1
 1217 00a4 3362     		str	r3, [r6, #32]
 353:Middlewares/Third_Party/LibJPEG/source/jcarith.c **** 
 1218              		.loc 1 353 1 view .LVU417
 1219 00a6 F8BD     		pop	{r3, r4, r5, r6, r7, pc}
 353:Middlewares/Third_Party/LibJPEG/source/jcarith.c **** 
 1220              		.loc 1 353 1 view .LVU418
 1221              		.cfi_endproc
 1222              	.LFE150:
 1224              		.section	.text.encode_mcu,"ax",%progbits
 1225              		.align	1
 1226              		.syntax unified
 1227              		.thumb
 1228              		.thumb_func
 1230              	encode_mcu:
 1231              	.LVL93:
 1232              	.LFB155:
 687:Middlewares/Third_Party/LibJPEG/source/jcarith.c ****   arith_entropy_ptr entropy = (arith_entropy_ptr) cinfo->entropy;
 1233              		.loc 1 687 1 is_stmt 1 view -0
 1234              		.cfi_startproc
 1235              		@ args = 0, pretend = 0, frame = 24
 1236              		@ frame_needed = 0, uses_anonymous_args = 0
 687:Middlewares/Third_Party/LibJPEG/source/jcarith.c ****   arith_entropy_ptr entropy = (arith_entropy_ptr) cinfo->entropy;
 1237              		.loc 1 687 1 is_stmt 0 view .LVU420
 1238 0000 2DE9F04F 		push	{r4, r5, r6, r7, r8, r9, r10, fp, lr}
 1239              	.LCFI5:
 1240              		.cfi_def_cfa_offset 36
 1241              		.cfi_offset 4, -36
 1242              		.cfi_offset 5, -32
 1243              		.cfi_offset 6, -28
 1244              		.cfi_offset 7, -24
 1245              		.cfi_offset 8, -20
 1246              		.cfi_offset 9, -16
 1247              		.cfi_offset 10, -12
 1248              		.cfi_offset 11, -8
 1249              		.cfi_offset 14, -4
 1250 0004 87B0     		sub	sp, sp, #28
 1251              	.LCFI6:
 1252              		.cfi_def_cfa_offset 64
 1253 0006 8246     		mov	r10, r0
 1254 0008 0491     		str	r1, [sp, #16]
ARM GAS  /var/folders/mq/wg13gp494590nh4zyt09lxf00000gn/T//ccanc9wU.s 			page 42


 688:Middlewares/Third_Party/LibJPEG/source/jcarith.c ****   jpeg_component_info * compptr;
 1255              		.loc 1 688 3 is_stmt 1 view .LVU421
 688:Middlewares/Third_Party/LibJPEG/source/jcarith.c ****   jpeg_component_info * compptr;
 1256              		.loc 1 688 21 is_stmt 0 view .LVU422
 1257 000a D0F8A4B1 		ldr	fp, [r0, #420]
 1258              	.LVL94:
 689:Middlewares/Third_Party/LibJPEG/source/jcarith.c ****   JBLOCKROW block;
 1259              		.loc 1 689 3 is_stmt 1 view .LVU423
 690:Middlewares/Third_Party/LibJPEG/source/jcarith.c ****   unsigned char *st;
 1260              		.loc 1 690 3 view .LVU424
 691:Middlewares/Third_Party/LibJPEG/source/jcarith.c ****   int blkn, ci, tbl, k, ke;
 1261              		.loc 1 691 3 view .LVU425
 692:Middlewares/Third_Party/LibJPEG/source/jcarith.c ****   int v, v2, m;
 1262              		.loc 1 692 3 view .LVU426
 693:Middlewares/Third_Party/LibJPEG/source/jcarith.c ****   const int * natural_order;
 1263              		.loc 1 693 3 view .LVU427
 694:Middlewares/Third_Party/LibJPEG/source/jcarith.c **** 
 1264              		.loc 1 694 3 view .LVU428
 697:Middlewares/Third_Party/LibJPEG/source/jcarith.c ****     if (entropy->restarts_to_go == 0) {
 1265              		.loc 1 697 3 view .LVU429
 697:Middlewares/Third_Party/LibJPEG/source/jcarith.c ****     if (entropy->restarts_to_go == 0) {
 1266              		.loc 1 697 12 is_stmt 0 view .LVU430
 1267 000e D0F8EC30 		ldr	r3, [r0, #236]
 697:Middlewares/Third_Party/LibJPEG/source/jcarith.c ****     if (entropy->restarts_to_go == 0) {
 1268              		.loc 1 697 6 view .LVU431
 1269 0012 3BB1     		cbz	r3, .L88
 698:Middlewares/Third_Party/LibJPEG/source/jcarith.c ****       emit_restart(cinfo, entropy->next_restart_num);
 1270              		.loc 1 698 5 is_stmt 1 view .LVU432
 698:Middlewares/Third_Party/LibJPEG/source/jcarith.c ****       emit_restart(cinfo, entropy->next_restart_num);
 1271              		.loc 1 698 16 is_stmt 0 view .LVU433
 1272 0014 DBF84430 		ldr	r3, [fp, #68]
 698:Middlewares/Third_Party/LibJPEG/source/jcarith.c ****       emit_restart(cinfo, entropy->next_restart_num);
 1273              		.loc 1 698 8 view .LVU434
 1274 0018 4BB1     		cbz	r3, .L123
 1275              	.LVL95:
 1276              	.L89:
 704:Middlewares/Third_Party/LibJPEG/source/jcarith.c ****   }
 1277              		.loc 1 704 5 is_stmt 1 view .LVU435
 704:Middlewares/Third_Party/LibJPEG/source/jcarith.c ****   }
 1278              		.loc 1 704 12 is_stmt 0 view .LVU436
 1279 001a DBF84430 		ldr	r3, [fp, #68]
 704:Middlewares/Third_Party/LibJPEG/source/jcarith.c ****   }
 1280              		.loc 1 704 28 view .LVU437
 1281 001e 013B     		subs	r3, r3, #1
 1282 0020 CBF84430 		str	r3, [fp, #68]
 1283              	.L88:
 707:Middlewares/Third_Party/LibJPEG/source/jcarith.c **** 
 1284              		.loc 1 707 3 is_stmt 1 view .LVU438
 707:Middlewares/Third_Party/LibJPEG/source/jcarith.c **** 
 1285              		.loc 1 707 17 is_stmt 0 view .LVU439
 1286 0024 DAF87C91 		ldr	r9, [r10, #380]
 1287              	.LVL96:
 710:Middlewares/Third_Party/LibJPEG/source/jcarith.c ****     block = MCU_data[blkn];
 1288              		.loc 1 710 3 is_stmt 1 view .LVU440
 710:Middlewares/Third_Party/LibJPEG/source/jcarith.c ****     block = MCU_data[blkn];
 1289              		.loc 1 710 13 is_stmt 0 view .LVU441
 1290 0028 0023     		movs	r3, #0
ARM GAS  /var/folders/mq/wg13gp494590nh4zyt09lxf00000gn/T//ccanc9wU.s 			page 43


 1291 002a 0293     		str	r3, [sp, #8]
 710:Middlewares/Third_Party/LibJPEG/source/jcarith.c ****     block = MCU_data[blkn];
 1292              		.loc 1 710 3 view .LVU442
 1293 002c 09E1     		b	.L90
 1294              	.LVL97:
 1295              	.L123:
 699:Middlewares/Third_Party/LibJPEG/source/jcarith.c ****       entropy->restarts_to_go = cinfo->restart_interval;
 1296              		.loc 1 699 7 is_stmt 1 view .LVU443
 1297 002e DBF84810 		ldr	r1, [fp, #72]
 1298              	.LVL98:
 699:Middlewares/Third_Party/LibJPEG/source/jcarith.c ****       entropy->restarts_to_go = cinfo->restart_interval;
 1299              		.loc 1 699 7 is_stmt 0 view .LVU444
 1300 0032 FFF7FEFF 		bl	emit_restart
 1301              	.LVL99:
 700:Middlewares/Third_Party/LibJPEG/source/jcarith.c ****       entropy->next_restart_num++;
 1302              		.loc 1 700 7 is_stmt 1 view .LVU445
 700:Middlewares/Third_Party/LibJPEG/source/jcarith.c ****       entropy->next_restart_num++;
 1303              		.loc 1 700 38 is_stmt 0 view .LVU446
 1304 0036 DAF8EC30 		ldr	r3, [r10, #236]
 700:Middlewares/Third_Party/LibJPEG/source/jcarith.c ****       entropy->next_restart_num++;
 1305              		.loc 1 700 31 view .LVU447
 1306 003a CBF84430 		str	r3, [fp, #68]
 701:Middlewares/Third_Party/LibJPEG/source/jcarith.c ****       entropy->next_restart_num &= 7;
 1307              		.loc 1 701 7 is_stmt 1 view .LVU448
 701:Middlewares/Third_Party/LibJPEG/source/jcarith.c ****       entropy->next_restart_num &= 7;
 1308              		.loc 1 701 14 is_stmt 0 view .LVU449
 1309 003e DBF84830 		ldr	r3, [fp, #72]
 701:Middlewares/Third_Party/LibJPEG/source/jcarith.c ****       entropy->next_restart_num &= 7;
 1310              		.loc 1 701 32 view .LVU450
 1311 0042 0133     		adds	r3, r3, #1
 1312 0044 CBF84830 		str	r3, [fp, #72]
 702:Middlewares/Third_Party/LibJPEG/source/jcarith.c ****     }
 1313              		.loc 1 702 7 is_stmt 1 view .LVU451
 702:Middlewares/Third_Party/LibJPEG/source/jcarith.c ****     }
 1314              		.loc 1 702 33 is_stmt 0 view .LVU452
 1315 0048 03F00703 		and	r3, r3, #7
 1316 004c CBF84830 		str	r3, [fp, #72]
 1317 0050 E3E7     		b	.L89
 1318              	.LVL100:
 1319              	.L91:
 727:Middlewares/Third_Party/LibJPEG/source/jcarith.c ****       arith_encode(cinfo, st, 1);
 1320              		.loc 1 727 7 is_stmt 1 view .LVU453
 727:Middlewares/Third_Party/LibJPEG/source/jcarith.c ****       arith_encode(cinfo, st, 1);
 1321              		.loc 1 727 32 is_stmt 0 view .LVU454
 1322 0052 04F10803 		add	r3, r4, #8
 1323              	.LVL101:
 727:Middlewares/Third_Party/LibJPEG/source/jcarith.c ****       arith_encode(cinfo, st, 1);
 1324              		.loc 1 727 32 view .LVU455
 1325 0056 0BEB8303 		add	r3, fp, r3, lsl #2
 1326 005a 5E60     		str	r6, [r3, #4]
 728:Middlewares/Third_Party/LibJPEG/source/jcarith.c ****       /* Figure F.6: Encoding nonzero value v */
 1327              		.loc 1 728 7 is_stmt 1 view .LVU456
 1328 005c 0122     		movs	r2, #1
 1329 005e 2946     		mov	r1, r5
 1330 0060 5046     		mov	r0, r10
 1331 0062 FFF7FEFF 		bl	arith_encode
 1332              	.LVL102:
ARM GAS  /var/folders/mq/wg13gp494590nh4zyt09lxf00000gn/T//ccanc9wU.s 			page 44


 731:Middlewares/Third_Party/LibJPEG/source/jcarith.c **** 	arith_encode(cinfo, st + 1, 0);	/* Table F.4: SS = S0 + 1 */
 1333              		.loc 1 731 7 view .LVU457
 731:Middlewares/Third_Party/LibJPEG/source/jcarith.c **** 	arith_encode(cinfo, st + 1, 0);	/* Table F.4: SS = S0 + 1 */
 1334              		.loc 1 731 10 is_stmt 0 view .LVU458
 1335 0066 009B     		ldr	r3, [sp]
 1336 0068 002B     		cmp	r3, #0
 1337 006a 25DD     		ble	.L93
 732:Middlewares/Third_Party/LibJPEG/source/jcarith.c **** 	st += 2;			/* Table F.4: SP = S0 + 2 */
 1338              		.loc 1 732 2 is_stmt 1 view .LVU459
 1339 006c 0022     		movs	r2, #0
 1340 006e 691C     		adds	r1, r5, #1
 1341 0070 5046     		mov	r0, r10
 1342 0072 FFF7FEFF 		bl	arith_encode
 1343              	.LVL103:
 733:Middlewares/Third_Party/LibJPEG/source/jcarith.c **** 	entropy->dc_context[ci] = 4;	/* small positive diff category */
 1344              		.loc 1 733 2 view .LVU460
 733:Middlewares/Third_Party/LibJPEG/source/jcarith.c **** 	entropy->dc_context[ci] = 4;	/* small positive diff category */
 1345              		.loc 1 733 5 is_stmt 0 view .LVU461
 1346 0076 0235     		adds	r5, r5, #2
 1347              	.LVL104:
 734:Middlewares/Third_Party/LibJPEG/source/jcarith.c ****       } else {
 1348              		.loc 1 734 2 is_stmt 1 view .LVU462
 734:Middlewares/Third_Party/LibJPEG/source/jcarith.c ****       } else {
 1349              		.loc 1 734 26 is_stmt 0 view .LVU463
 1350 0078 04F10C03 		add	r3, r4, #12
 1351 007c 0BEB8303 		add	r3, fp, r3, lsl #2
 1352 0080 0422     		movs	r2, #4
 1353 0082 5A60     		str	r2, [r3, #4]
 1354              	.LVL105:
 1355              	.L94:
 742:Middlewares/Third_Party/LibJPEG/source/jcarith.c ****       if (v -= 1) {
 1356              		.loc 1 742 7 is_stmt 1 view .LVU464
 743:Middlewares/Third_Party/LibJPEG/source/jcarith.c **** 	arith_encode(cinfo, st, 1);
 1357              		.loc 1 743 7 view .LVU465
 743:Middlewares/Third_Party/LibJPEG/source/jcarith.c **** 	arith_encode(cinfo, st, 1);
 1358              		.loc 1 743 10 is_stmt 0 view .LVU466
 1359 0084 009B     		ldr	r3, [sp]
 1360 0086 5F1E     		subs	r7, r3, #1
 1361              	.LVL106:
 743:Middlewares/Third_Party/LibJPEG/source/jcarith.c **** 	arith_encode(cinfo, st, 1);
 1362              		.loc 1 743 10 view .LVU467
 1363 0088 25D1     		bne	.L124
 742:Middlewares/Third_Party/LibJPEG/source/jcarith.c ****       if (v -= 1) {
 1364              		.loc 1 742 9 view .LVU468
 1365 008a 3E46     		mov	r6, r7
 1366              	.LVL107:
 1367              	.L95:
 754:Middlewares/Third_Party/LibJPEG/source/jcarith.c ****       /* Section F.1.4.4.1.2: Establish dc_context conditioning category */
 1368              		.loc 1 754 7 is_stmt 1 view .LVU469
 1369 008c 0022     		movs	r2, #0
 1370 008e 2946     		mov	r1, r5
 1371 0090 5046     		mov	r0, r10
 1372 0092 FFF7FEFF 		bl	arith_encode
 1373              	.LVL108:
 756:Middlewares/Third_Party/LibJPEG/source/jcarith.c **** 	entropy->dc_context[ci] = 0;	/* zero diff category */
 1374              		.loc 1 756 7 view .LVU470
 756:Middlewares/Third_Party/LibJPEG/source/jcarith.c **** 	entropy->dc_context[ci] = 0;	/* zero diff category */
ARM GAS  /var/folders/mq/wg13gp494590nh4zyt09lxf00000gn/T//ccanc9wU.s 			page 45


 1375              		.loc 1 756 46 is_stmt 0 view .LVU471
 1376 0096 039B     		ldr	r3, [sp, #12]
 1377 0098 5344     		add	r3, r10, r3
 1378 009a 93F89820 		ldrb	r2, [r3, #152]	@ zero_extendqisi2
 756:Middlewares/Third_Party/LibJPEG/source/jcarith.c **** 	entropy->dc_context[ci] = 0;	/* zero diff category */
 1379              		.loc 1 756 26 view .LVU472
 1380 009e 0123     		movs	r3, #1
 1381 00a0 9340     		lsls	r3, r3, r2
 756:Middlewares/Third_Party/LibJPEG/source/jcarith.c **** 	entropy->dc_context[ci] = 0;	/* zero diff category */
 1382              		.loc 1 756 10 view .LVU473
 1383 00a2 B6EB630F 		cmp	r6, r3, asr #1
 1384 00a6 33DA     		bge	.L98
 757:Middlewares/Third_Party/LibJPEG/source/jcarith.c ****       else if (m > (int) ((1L << cinfo->arith_dc_U[tbl]) >> 1))
 1385              		.loc 1 757 2 is_stmt 1 view .LVU474
 757:Middlewares/Third_Party/LibJPEG/source/jcarith.c ****       else if (m > (int) ((1L << cinfo->arith_dc_U[tbl]) >> 1))
 1386              		.loc 1 757 26 is_stmt 0 view .LVU475
 1387 00a8 04F10C03 		add	r3, r4, #12
 1388 00ac 0BEB8303 		add	r3, fp, r3, lsl #2
 1389 00b0 0022     		movs	r2, #0
 1390 00b2 5A60     		str	r2, [r3, #4]
 1391              	.L99:
 761:Middlewares/Third_Party/LibJPEG/source/jcarith.c ****       while (m >>= 1)
 1392              		.loc 1 761 7 is_stmt 1 view .LVU476
 761:Middlewares/Third_Party/LibJPEG/source/jcarith.c ****       while (m >>= 1)
 1393              		.loc 1 761 10 is_stmt 0 view .LVU477
 1394 00b4 0E35     		adds	r5, r5, #14
 1395              	.LVL109:
 762:Middlewares/Third_Party/LibJPEG/source/jcarith.c **** 	arith_encode(cinfo, st, (m & v) ? 1 : 0);
 1396              		.loc 1 762 7 is_stmt 1 view .LVU478
 762:Middlewares/Third_Party/LibJPEG/source/jcarith.c **** 	arith_encode(cinfo, st, (m & v) ? 1 : 0);
 1397              		.loc 1 762 13 is_stmt 0 view .LVU479
 1398 00b6 44E0     		b	.L100
 1399              	.LVL110:
 1400              	.L93:
 736:Middlewares/Third_Party/LibJPEG/source/jcarith.c **** 	arith_encode(cinfo, st + 1, 1);	/* Table F.4: SS = S0 + 1 */
 1401              		.loc 1 736 2 is_stmt 1 view .LVU480
 736:Middlewares/Third_Party/LibJPEG/source/jcarith.c **** 	arith_encode(cinfo, st + 1, 1);	/* Table F.4: SS = S0 + 1 */
 1402              		.loc 1 736 4 is_stmt 0 view .LVU481
 1403 00b8 BB1B     		subs	r3, r7, r6
 1404 00ba 0093     		str	r3, [sp]
 1405              	.LVL111:
 737:Middlewares/Third_Party/LibJPEG/source/jcarith.c **** 	st += 3;			/* Table F.4: SN = S0 + 3 */
 1406              		.loc 1 737 2 is_stmt 1 view .LVU482
 1407 00bc 0122     		movs	r2, #1
 1408 00be A918     		adds	r1, r5, r2
 1409 00c0 5046     		mov	r0, r10
 1410 00c2 FFF7FEFF 		bl	arith_encode
 1411              	.LVL112:
 738:Middlewares/Third_Party/LibJPEG/source/jcarith.c **** 	entropy->dc_context[ci] = 8;	/* small negative diff category */
 1412              		.loc 1 738 2 view .LVU483
 738:Middlewares/Third_Party/LibJPEG/source/jcarith.c **** 	entropy->dc_context[ci] = 8;	/* small negative diff category */
 1413              		.loc 1 738 5 is_stmt 0 view .LVU484
 1414 00c6 0335     		adds	r5, r5, #3
 1415              	.LVL113:
 739:Middlewares/Third_Party/LibJPEG/source/jcarith.c ****       }
 1416              		.loc 1 739 2 is_stmt 1 view .LVU485
 739:Middlewares/Third_Party/LibJPEG/source/jcarith.c ****       }
ARM GAS  /var/folders/mq/wg13gp494590nh4zyt09lxf00000gn/T//ccanc9wU.s 			page 46


 1417              		.loc 1 739 26 is_stmt 0 view .LVU486
 1418 00c8 04F10C03 		add	r3, r4, #12
 1419 00cc 0BEB8303 		add	r3, fp, r3, lsl #2
 1420 00d0 0822     		movs	r2, #8
 1421 00d2 5A60     		str	r2, [r3, #4]
 1422 00d4 D6E7     		b	.L94
 1423              	.LVL114:
 1424              	.L124:
 744:Middlewares/Third_Party/LibJPEG/source/jcarith.c **** 	m = 1;
 1425              		.loc 1 744 2 is_stmt 1 view .LVU487
 1426 00d6 0122     		movs	r2, #1
 1427 00d8 2946     		mov	r1, r5
 1428 00da 5046     		mov	r0, r10
 1429 00dc FFF7FEFF 		bl	arith_encode
 1430              	.LVL115:
 745:Middlewares/Third_Party/LibJPEG/source/jcarith.c **** 	v2 = v;
 1431              		.loc 1 745 2 view .LVU488
 746:Middlewares/Third_Party/LibJPEG/source/jcarith.c **** 	st = entropy->dc_stats[tbl] + 20; /* Table F.4: X1 = 20 */
 1432              		.loc 1 746 2 view .LVU489
 747:Middlewares/Third_Party/LibJPEG/source/jcarith.c **** 	while (v2 >>= 1) {
 1433              		.loc 1 747 2 view .LVU490
 747:Middlewares/Third_Party/LibJPEG/source/jcarith.c **** 	while (v2 >>= 1) {
 1434              		.loc 1 747 24 is_stmt 0 view .LVU491
 1435 00e0 039B     		ldr	r3, [sp, #12]
 1436 00e2 1233     		adds	r3, r3, #18
 1437 00e4 0BEB8303 		add	r3, fp, r3, lsl #2
 1438 00e8 5D68     		ldr	r5, [r3, #4]
 1439              	.LVL116:
 747:Middlewares/Third_Party/LibJPEG/source/jcarith.c **** 	while (v2 >>= 1) {
 1440              		.loc 1 747 5 view .LVU492
 1441 00ea 1435     		adds	r5, r5, #20
 1442              	.LVL117:
 748:Middlewares/Third_Party/LibJPEG/source/jcarith.c **** 	  arith_encode(cinfo, st, 1);
 1443              		.loc 1 748 2 is_stmt 1 view .LVU493
 745:Middlewares/Third_Party/LibJPEG/source/jcarith.c **** 	v2 = v;
 1444              		.loc 1 745 4 is_stmt 0 view .LVU494
 1445 00ec 0126     		movs	r6, #1
 1446 00ee CDF800B0 		str	fp, [sp]
 1447 00f2 BB46     		mov	fp, r7
 748:Middlewares/Third_Party/LibJPEG/source/jcarith.c **** 	  arith_encode(cinfo, st, 1);
 1448              		.loc 1 748 8 view .LVU495
 1449 00f4 06E0     		b	.L96
 1450              	.LVL118:
 1451              	.L97:
 749:Middlewares/Third_Party/LibJPEG/source/jcarith.c **** 	  m <<= 1;
 1452              		.loc 1 749 4 is_stmt 1 view .LVU496
 1453 00f6 0122     		movs	r2, #1
 1454 00f8 2946     		mov	r1, r5
 1455 00fa 5046     		mov	r0, r10
 1456 00fc FFF7FEFF 		bl	arith_encode
 1457              	.LVL119:
 750:Middlewares/Third_Party/LibJPEG/source/jcarith.c **** 	  st += 1;
 1458              		.loc 1 750 4 view .LVU497
 750:Middlewares/Third_Party/LibJPEG/source/jcarith.c **** 	  st += 1;
 1459              		.loc 1 750 6 is_stmt 0 view .LVU498
 1460 0100 7600     		lsls	r6, r6, #1
 1461              	.LVL120:
ARM GAS  /var/folders/mq/wg13gp494590nh4zyt09lxf00000gn/T//ccanc9wU.s 			page 47


 751:Middlewares/Third_Party/LibJPEG/source/jcarith.c **** 	}
 1462              		.loc 1 751 4 is_stmt 1 view .LVU499
 751:Middlewares/Third_Party/LibJPEG/source/jcarith.c **** 	}
 1463              		.loc 1 751 7 is_stmt 0 view .LVU500
 1464 0102 0135     		adds	r5, r5, #1
 1465              	.LVL121:
 1466              	.L96:
 748:Middlewares/Third_Party/LibJPEG/source/jcarith.c **** 	  arith_encode(cinfo, st, 1);
 1467              		.loc 1 748 9 is_stmt 1 view .LVU501
 748:Middlewares/Third_Party/LibJPEG/source/jcarith.c **** 	  arith_encode(cinfo, st, 1);
 1468              		.loc 1 748 9 is_stmt 0 view .LVU502
 1469 0104 5FEA6B0B 		asrs	fp, fp, #1
 1470              	.LVL122:
 748:Middlewares/Third_Party/LibJPEG/source/jcarith.c **** 	  arith_encode(cinfo, st, 1);
 1471              		.loc 1 748 9 view .LVU503
 1472 0108 F5D1     		bne	.L97
 748:Middlewares/Third_Party/LibJPEG/source/jcarith.c **** 	  arith_encode(cinfo, st, 1);
 1473              		.loc 1 748 9 view .LVU504
 1474 010a DDF800B0 		ldr	fp, [sp]
 1475              	.LVL123:
 748:Middlewares/Third_Party/LibJPEG/source/jcarith.c **** 	  arith_encode(cinfo, st, 1);
 1476              		.loc 1 748 9 view .LVU505
 1477 010e BDE7     		b	.L95
 1478              	.LVL124:
 1479              	.L98:
 758:Middlewares/Third_Party/LibJPEG/source/jcarith.c **** 	entropy->dc_context[ci] += 8;	/* large diff category */
 1480              		.loc 1 758 12 is_stmt 1 view .LVU506
 758:Middlewares/Third_Party/LibJPEG/source/jcarith.c **** 	entropy->dc_context[ci] += 8;	/* large diff category */
 1481              		.loc 1 758 51 is_stmt 0 view .LVU507
 1482 0110 039B     		ldr	r3, [sp, #12]
 1483 0112 5344     		add	r3, r3, r10
 1484 0114 93F8A820 		ldrb	r2, [r3, #168]	@ zero_extendqisi2
 758:Middlewares/Third_Party/LibJPEG/source/jcarith.c **** 	entropy->dc_context[ci] += 8;	/* large diff category */
 1485              		.loc 1 758 31 view .LVU508
 1486 0118 0123     		movs	r3, #1
 1487 011a 9340     		lsls	r3, r3, r2
 758:Middlewares/Third_Party/LibJPEG/source/jcarith.c **** 	entropy->dc_context[ci] += 8;	/* large diff category */
 1488              		.loc 1 758 15 view .LVU509
 1489 011c B6EB630F 		cmp	r6, r3, asr #1
 1490 0120 C8DD     		ble	.L99
 759:Middlewares/Third_Party/LibJPEG/source/jcarith.c ****       /* Figure F.9: Encoding the magnitude bit pattern of v */
 1491              		.loc 1 759 2 is_stmt 1 view .LVU510
 759:Middlewares/Third_Party/LibJPEG/source/jcarith.c ****       /* Figure F.9: Encoding the magnitude bit pattern of v */
 1492              		.loc 1 759 21 is_stmt 0 view .LVU511
 1493 0122 04F10C03 		add	r3, r4, #12
 1494 0126 0BEB8303 		add	r3, fp, r3, lsl #2
 1495 012a 5A68     		ldr	r2, [r3, #4]
 759:Middlewares/Third_Party/LibJPEG/source/jcarith.c ****       /* Figure F.9: Encoding the magnitude bit pattern of v */
 1496              		.loc 1 759 26 view .LVU512
 1497 012c 0832     		adds	r2, r2, #8
 1498 012e 5A60     		str	r2, [r3, #4]
 1499 0130 C0E7     		b	.L99
 1500              	.L101:
 763:Middlewares/Third_Party/LibJPEG/source/jcarith.c ****     }
 1501              		.loc 1 763 2 is_stmt 1 view .LVU513
 1502 0132 3742     		tst	r7, r6
 1503 0134 14BF     		ite	ne
ARM GAS  /var/folders/mq/wg13gp494590nh4zyt09lxf00000gn/T//ccanc9wU.s 			page 48


 1504 0136 0122     		movne	r2, #1
 1505 0138 0022     		moveq	r2, #0
 1506 013a 2946     		mov	r1, r5
 1507 013c 5046     		mov	r0, r10
 1508 013e FFF7FEFF 		bl	arith_encode
 1509              	.LVL125:
 1510              	.L100:
 762:Middlewares/Third_Party/LibJPEG/source/jcarith.c **** 	arith_encode(cinfo, st, (m & v) ? 1 : 0);
 1511              		.loc 1 762 14 view .LVU514
 762:Middlewares/Third_Party/LibJPEG/source/jcarith.c **** 	arith_encode(cinfo, st, (m & v) ? 1 : 0);
 1512              		.loc 1 762 14 is_stmt 0 view .LVU515
 1513 0142 7610     		asrs	r6, r6, #1
 1514              	.LVL126:
 762:Middlewares/Third_Party/LibJPEG/source/jcarith.c **** 	arith_encode(cinfo, st, (m & v) ? 1 : 0);
 1515              		.loc 1 762 14 view .LVU516
 1516 0144 F5D1     		bne	.L101
 1517 0146 AFE0     		b	.L92
 1518              	.LVL127:
 1519              	.L107:
 781:Middlewares/Third_Party/LibJPEG/source/jcarith.c **** 	st += 3;
 1520              		.loc 1 781 2 is_stmt 1 view .LVU517
 1521 0148 0022     		movs	r2, #0
 1522 014a 611C     		adds	r1, r4, #1
 1523 014c 5046     		mov	r0, r10
 1524 014e FFF7FEFF 		bl	arith_encode
 1525              	.LVL128:
 782:Middlewares/Third_Party/LibJPEG/source/jcarith.c ****       }
 1526              		.loc 1 782 2 view .LVU518
 782:Middlewares/Third_Party/LibJPEG/source/jcarith.c ****       }
 1527              		.loc 1 782 5 is_stmt 0 view .LVU519
 1528 0152 0334     		adds	r4, r4, #3
 1529              	.LVL129:
 1530              	.L106:
 780:Middlewares/Third_Party/LibJPEG/source/jcarith.c **** 	arith_encode(cinfo, st + 1, 0);
 1531              		.loc 1 780 49 is_stmt 1 view .LVU520
 1532 0154 0137     		adds	r7, r7, #1
 1533              	.LVL130:
 780:Middlewares/Third_Party/LibJPEG/source/jcarith.c **** 	arith_encode(cinfo, st + 1, 0);
 1534              		.loc 1 780 41 is_stmt 0 view .LVU521
 1535 0156 59F82730 		ldr	r3, [r9, r7, lsl #2]
 780:Middlewares/Third_Party/LibJPEG/source/jcarith.c **** 	arith_encode(cinfo, st + 1, 0);
 1536              		.loc 1 780 27 view .LVU522
 1537 015a 38F91360 		ldrsh	r6, [r8, r3, lsl #1]
 1538              	.LVL131:
 780:Middlewares/Third_Party/LibJPEG/source/jcarith.c **** 	arith_encode(cinfo, st + 1, 0);
 1539              		.loc 1 780 49 view .LVU523
 1540 015e 002E     		cmp	r6, #0
 1541 0160 F2D0     		beq	.L107
 784:Middlewares/Third_Party/LibJPEG/source/jcarith.c ****       /* Figure F.6: Encoding nonzero value v */
 1542              		.loc 1 784 7 is_stmt 1 view .LVU524
 1543 0162 0122     		movs	r2, #1
 1544 0164 A118     		adds	r1, r4, r2
 1545 0166 5046     		mov	r0, r10
 1546 0168 FFF7FEFF 		bl	arith_encode
 1547              	.LVL132:
 787:Middlewares/Third_Party/LibJPEG/source/jcarith.c **** 	arith_encode(cinfo, entropy->fixed_bin, 0);
 1548              		.loc 1 787 7 view .LVU525
ARM GAS  /var/folders/mq/wg13gp494590nh4zyt09lxf00000gn/T//ccanc9wU.s 			page 49


 787:Middlewares/Third_Party/LibJPEG/source/jcarith.c **** 	arith_encode(cinfo, entropy->fixed_bin, 0);
 1549              		.loc 1 787 10 is_stmt 0 view .LVU526
 1550 016c 002E     		cmp	r6, #0
 1551 016e 10DD     		ble	.L108
 788:Middlewares/Third_Party/LibJPEG/source/jcarith.c ****       } else {
 1552              		.loc 1 788 2 is_stmt 1 view .LVU527
 1553 0170 0022     		movs	r2, #0
 1554 0172 0BF1CC01 		add	r1, fp, #204
 1555 0176 5046     		mov	r0, r10
 1556 0178 FFF7FEFF 		bl	arith_encode
 1557              	.LVL133:
 1558              	.L109:
 793:Middlewares/Third_Party/LibJPEG/source/jcarith.c ****       /* Figure F.8: Encoding the magnitude category of v */
 1559              		.loc 1 793 7 view .LVU528
 793:Middlewares/Third_Party/LibJPEG/source/jcarith.c ****       /* Figure F.8: Encoding the magnitude category of v */
 1560              		.loc 1 793 10 is_stmt 0 view .LVU529
 1561 017c 0234     		adds	r4, r4, #2
 1562              	.LVL134:
 795:Middlewares/Third_Party/LibJPEG/source/jcarith.c ****       if (v -= 1) {
 1563              		.loc 1 795 7 is_stmt 1 view .LVU530
 796:Middlewares/Third_Party/LibJPEG/source/jcarith.c **** 	arith_encode(cinfo, st, 1);
 1564              		.loc 1 796 7 view .LVU531
 796:Middlewares/Third_Party/LibJPEG/source/jcarith.c **** 	arith_encode(cinfo, st, 1);
 1565              		.loc 1 796 10 is_stmt 0 view .LVU532
 1566 017e 013E     		subs	r6, r6, #1
 1567              	.LVL135:
 796:Middlewares/Third_Party/LibJPEG/source/jcarith.c **** 	arith_encode(cinfo, st, 1);
 1568              		.loc 1 796 10 view .LVU533
 1569 0180 0FD1     		bne	.L125
 795:Middlewares/Third_Party/LibJPEG/source/jcarith.c ****       if (v -= 1) {
 1570              		.loc 1 795 9 view .LVU534
 1571 0182 3546     		mov	r5, r6
 1572              	.LVL136:
 1573              	.L110:
 812:Middlewares/Third_Party/LibJPEG/source/jcarith.c ****       /* Figure F.9: Encoding the magnitude bit pattern of v */
 1574              		.loc 1 812 7 is_stmt 1 view .LVU535
 1575 0184 0022     		movs	r2, #0
 1576 0186 2146     		mov	r1, r4
 1577 0188 5046     		mov	r0, r10
 1578 018a FFF7FEFF 		bl	arith_encode
 1579              	.LVL137:
 814:Middlewares/Third_Party/LibJPEG/source/jcarith.c ****       while (m >>= 1)
 1580              		.loc 1 814 7 view .LVU536
 814:Middlewares/Third_Party/LibJPEG/source/jcarith.c ****       while (m >>= 1)
 1581              		.loc 1 814 10 is_stmt 0 view .LVU537
 1582 018e 0E34     		adds	r4, r4, #14
 1583              	.LVL138:
 815:Middlewares/Third_Party/LibJPEG/source/jcarith.c **** 	arith_encode(cinfo, st, (m & v) ? 1 : 0);
 1584              		.loc 1 815 7 is_stmt 1 view .LVU538
 815:Middlewares/Third_Party/LibJPEG/source/jcarith.c **** 	arith_encode(cinfo, st, (m & v) ? 1 : 0);
 1585              		.loc 1 815 13 is_stmt 0 view .LVU539
 1586 0190 3DE0     		b	.L114
 1587              	.LVL139:
 1588              	.L108:
 790:Middlewares/Third_Party/LibJPEG/source/jcarith.c **** 	arith_encode(cinfo, entropy->fixed_bin, 1);
 1589              		.loc 1 790 2 is_stmt 1 view .LVU540
 790:Middlewares/Third_Party/LibJPEG/source/jcarith.c **** 	arith_encode(cinfo, entropy->fixed_bin, 1);
ARM GAS  /var/folders/mq/wg13gp494590nh4zyt09lxf00000gn/T//ccanc9wU.s 			page 50


 1590              		.loc 1 790 4 is_stmt 0 view .LVU541
 1591 0192 7642     		rsbs	r6, r6, #0
 1592              	.LVL140:
 791:Middlewares/Third_Party/LibJPEG/source/jcarith.c ****       }
 1593              		.loc 1 791 2 is_stmt 1 view .LVU542
 1594 0194 0122     		movs	r2, #1
 1595 0196 0BF1CC01 		add	r1, fp, #204
 1596 019a 5046     		mov	r0, r10
 1597 019c FFF7FEFF 		bl	arith_encode
 1598              	.LVL141:
 1599 01a0 ECE7     		b	.L109
 1600              	.LVL142:
 1601              	.L125:
 797:Middlewares/Third_Party/LibJPEG/source/jcarith.c **** 	m = 1;
 1602              		.loc 1 797 2 view .LVU543
 1603 01a2 0122     		movs	r2, #1
 1604 01a4 2146     		mov	r1, r4
 1605 01a6 5046     		mov	r0, r10
 1606 01a8 FFF7FEFF 		bl	arith_encode
 1607              	.LVL143:
 798:Middlewares/Third_Party/LibJPEG/source/jcarith.c **** 	v2 = v;
 1608              		.loc 1 798 2 view .LVU544
 799:Middlewares/Third_Party/LibJPEG/source/jcarith.c **** 	if (v2 >>= 1) {
 1609              		.loc 1 799 2 view .LVU545
 800:Middlewares/Third_Party/LibJPEG/source/jcarith.c **** 	  arith_encode(cinfo, st, 1);
 1610              		.loc 1 800 2 view .LVU546
 800:Middlewares/Third_Party/LibJPEG/source/jcarith.c **** 	  arith_encode(cinfo, st, 1);
 1611              		.loc 1 800 5 is_stmt 0 view .LVU547
 1612 01ac 7310     		asrs	r3, r6, #1
 1613              	.LVL144:
 800:Middlewares/Third_Party/LibJPEG/source/jcarith.c **** 	  arith_encode(cinfo, st, 1);
 1614              		.loc 1 800 5 view .LVU548
 1615 01ae 0393     		str	r3, [sp, #12]
 1616 01b0 01D1     		bne	.L126
 798:Middlewares/Third_Party/LibJPEG/source/jcarith.c **** 	v2 = v;
 1617              		.loc 1 798 4 view .LVU549
 1618 01b2 0125     		movs	r5, #1
 1619 01b4 E6E7     		b	.L110
 1620              	.L126:
 801:Middlewares/Third_Party/LibJPEG/source/jcarith.c **** 	  m <<= 1;
 1621              		.loc 1 801 4 is_stmt 1 view .LVU550
 1622 01b6 0122     		movs	r2, #1
 1623 01b8 2146     		mov	r1, r4
 1624 01ba 5046     		mov	r0, r10
 1625 01bc FFF7FEFF 		bl	arith_encode
 1626              	.LVL145:
 802:Middlewares/Third_Party/LibJPEG/source/jcarith.c **** 	  st = entropy->ac_stats[tbl] +
 1627              		.loc 1 802 4 view .LVU551
 803:Middlewares/Third_Party/LibJPEG/source/jcarith.c **** 	       (k <= cinfo->arith_ac_K[tbl] ? 189 : 217);
 1628              		.loc 1 803 4 view .LVU552
 803:Middlewares/Third_Party/LibJPEG/source/jcarith.c **** 	       (k <= cinfo->arith_ac_K[tbl] ? 189 : 217);
 1629              		.loc 1 803 26 is_stmt 0 view .LVU553
 1630 01c0 019A     		ldr	r2, [sp, #4]
 1631 01c2 02F12203 		add	r3, r2, #34
 1632 01c6 0BEB8303 		add	r3, fp, r3, lsl #2
 1633 01ca 5C68     		ldr	r4, [r3, #4]
 1634              	.LVL146:
ARM GAS  /var/folders/mq/wg13gp494590nh4zyt09lxf00000gn/T//ccanc9wU.s 			page 51


 804:Middlewares/Third_Party/LibJPEG/source/jcarith.c **** 	  while (v2 >>= 1) {
 1635              		.loc 1 804 32 view .LVU554
 1636 01cc 0AEB0203 		add	r3, r10, r2
 1637 01d0 93F8B830 		ldrb	r3, [r3, #184]	@ zero_extendqisi2
 804:Middlewares/Third_Party/LibJPEG/source/jcarith.c **** 	  while (v2 >>= 1) {
 1638              		.loc 1 804 44 view .LVU555
 1639 01d4 BB42     		cmp	r3, r7
 1640 01d6 05DB     		blt	.L121
 804:Middlewares/Third_Party/LibJPEG/source/jcarith.c **** 	  while (v2 >>= 1) {
 1641              		.loc 1 804 44 discriminator 1 view .LVU556
 1642 01d8 BD23     		movs	r3, #189
 1643              	.L111:
 803:Middlewares/Third_Party/LibJPEG/source/jcarith.c **** 	       (k <= cinfo->arith_ac_K[tbl] ? 189 : 217);
 1644              		.loc 1 803 7 view .LVU557
 1645 01da 1C44     		add	r4, r4, r3
 1646              	.LVL147:
 805:Middlewares/Third_Party/LibJPEG/source/jcarith.c **** 	    arith_encode(cinfo, st, 1);
 1647              		.loc 1 805 4 is_stmt 1 view .LVU558
 802:Middlewares/Third_Party/LibJPEG/source/jcarith.c **** 	  st = entropy->ac_stats[tbl] +
 1648              		.loc 1 802 6 is_stmt 0 view .LVU559
 1649 01dc 0225     		movs	r5, #2
 1650 01de 0597     		str	r7, [sp, #20]
 1651 01e0 039F     		ldr	r7, [sp, #12]
 1652              	.LVL148:
 805:Middlewares/Third_Party/LibJPEG/source/jcarith.c **** 	    arith_encode(cinfo, st, 1);
 1653              		.loc 1 805 10 view .LVU560
 1654 01e2 08E0     		b	.L112
 1655              	.LVL149:
 1656              	.L121:
 804:Middlewares/Third_Party/LibJPEG/source/jcarith.c **** 	  while (v2 >>= 1) {
 1657              		.loc 1 804 44 discriminator 2 view .LVU561
 1658 01e4 D923     		movs	r3, #217
 1659 01e6 F8E7     		b	.L111
 1660              	.LVL150:
 1661              	.L113:
 806:Middlewares/Third_Party/LibJPEG/source/jcarith.c **** 	    m <<= 1;
 1662              		.loc 1 806 6 is_stmt 1 view .LVU562
 1663 01e8 0122     		movs	r2, #1
 1664 01ea 2146     		mov	r1, r4
 1665 01ec 5046     		mov	r0, r10
 1666 01ee FFF7FEFF 		bl	arith_encode
 1667              	.LVL151:
 807:Middlewares/Third_Party/LibJPEG/source/jcarith.c **** 	    st += 1;
 1668              		.loc 1 807 6 view .LVU563
 807:Middlewares/Third_Party/LibJPEG/source/jcarith.c **** 	    st += 1;
 1669              		.loc 1 807 8 is_stmt 0 view .LVU564
 1670 01f2 6D00     		lsls	r5, r5, #1
 1671              	.LVL152:
 808:Middlewares/Third_Party/LibJPEG/source/jcarith.c **** 	  }
 1672              		.loc 1 808 6 is_stmt 1 view .LVU565
 808:Middlewares/Third_Party/LibJPEG/source/jcarith.c **** 	  }
 1673              		.loc 1 808 9 is_stmt 0 view .LVU566
 1674 01f4 0134     		adds	r4, r4, #1
 1675              	.LVL153:
 1676              	.L112:
 805:Middlewares/Third_Party/LibJPEG/source/jcarith.c **** 	    arith_encode(cinfo, st, 1);
 1677              		.loc 1 805 11 is_stmt 1 view .LVU567
ARM GAS  /var/folders/mq/wg13gp494590nh4zyt09lxf00000gn/T//ccanc9wU.s 			page 52


 805:Middlewares/Third_Party/LibJPEG/source/jcarith.c **** 	    arith_encode(cinfo, st, 1);
 1678              		.loc 1 805 11 is_stmt 0 view .LVU568
 1679 01f6 7F10     		asrs	r7, r7, #1
 1680              	.LVL154:
 805:Middlewares/Third_Party/LibJPEG/source/jcarith.c **** 	    arith_encode(cinfo, st, 1);
 1681              		.loc 1 805 11 view .LVU569
 1682 01f8 F6D1     		bne	.L113
 805:Middlewares/Third_Party/LibJPEG/source/jcarith.c **** 	    arith_encode(cinfo, st, 1);
 1683              		.loc 1 805 11 view .LVU570
 1684 01fa 059F     		ldr	r7, [sp, #20]
 1685              	.LVL155:
 805:Middlewares/Third_Party/LibJPEG/source/jcarith.c **** 	    arith_encode(cinfo, st, 1);
 1686              		.loc 1 805 11 view .LVU571
 1687 01fc C2E7     		b	.L110
 1688              	.LVL156:
 1689              	.L115:
 816:Middlewares/Third_Party/LibJPEG/source/jcarith.c ****     }
 1690              		.loc 1 816 2 is_stmt 1 view .LVU572
 1691 01fe 2E42     		tst	r6, r5
 1692 0200 14BF     		ite	ne
 1693 0202 0122     		movne	r2, #1
 1694 0204 0022     		moveq	r2, #0
 1695 0206 2146     		mov	r1, r4
 1696 0208 5046     		mov	r0, r10
 1697 020a FFF7FEFF 		bl	arith_encode
 1698              	.LVL157:
 1699              	.L114:
 815:Middlewares/Third_Party/LibJPEG/source/jcarith.c **** 	arith_encode(cinfo, st, (m & v) ? 1 : 0);
 1700              		.loc 1 815 14 view .LVU573
 815:Middlewares/Third_Party/LibJPEG/source/jcarith.c **** 	arith_encode(cinfo, st, (m & v) ? 1 : 0);
 1701              		.loc 1 815 14 is_stmt 0 view .LVU574
 1702 020e 6D10     		asrs	r5, r5, #1
 1703              	.LVL158:
 815:Middlewares/Third_Party/LibJPEG/source/jcarith.c **** 	arith_encode(cinfo, st, (m & v) ? 1 : 0);
 1704              		.loc 1 815 14 view .LVU575
 1705 0210 F5D1     		bne	.L115
 1706              	.LVL159:
 1707              	.L105:
 777:Middlewares/Third_Party/LibJPEG/source/jcarith.c ****       st = entropy->ac_stats[tbl] + 3 * k;
 1708              		.loc 1 777 19 is_stmt 1 discriminator 1 view .LVU576
 1709 0212 009B     		ldr	r3, [sp]
 1710 0214 9F42     		cmp	r7, r3
 1711 0216 0DDA     		bge	.L127
 778:Middlewares/Third_Party/LibJPEG/source/jcarith.c ****       arith_encode(cinfo, st, 0);	/* EOB decision */
 1712              		.loc 1 778 7 view .LVU577
 778:Middlewares/Third_Party/LibJPEG/source/jcarith.c ****       arith_encode(cinfo, st, 0);	/* EOB decision */
 1713              		.loc 1 778 29 is_stmt 0 view .LVU578
 1714 0218 019B     		ldr	r3, [sp, #4]
 1715 021a 2233     		adds	r3, r3, #34
 1716 021c 0BEB8303 		add	r3, fp, r3, lsl #2
 1717 0220 5C68     		ldr	r4, [r3, #4]
 778:Middlewares/Third_Party/LibJPEG/source/jcarith.c ****       arith_encode(cinfo, st, 0);	/* EOB decision */
 1718              		.loc 1 778 39 view .LVU579
 1719 0222 07EB4703 		add	r3, r7, r7, lsl #1
 778:Middlewares/Third_Party/LibJPEG/source/jcarith.c ****       arith_encode(cinfo, st, 0);	/* EOB decision */
 1720              		.loc 1 778 10 view .LVU580
 1721 0226 1C44     		add	r4, r4, r3
ARM GAS  /var/folders/mq/wg13gp494590nh4zyt09lxf00000gn/T//ccanc9wU.s 			page 53


 1722              	.LVL160:
 779:Middlewares/Third_Party/LibJPEG/source/jcarith.c ****       while ((v = (*block)[natural_order[++k]]) == 0) {
 1723              		.loc 1 779 7 is_stmt 1 view .LVU581
 1724 0228 0022     		movs	r2, #0
 1725 022a 2146     		mov	r1, r4
 1726 022c 5046     		mov	r0, r10
 1727 022e FFF7FEFF 		bl	arith_encode
 1728              	.LVL161:
 780:Middlewares/Third_Party/LibJPEG/source/jcarith.c **** 	arith_encode(cinfo, st + 1, 0);
 1729              		.loc 1 780 7 view .LVU582
 780:Middlewares/Third_Party/LibJPEG/source/jcarith.c **** 	arith_encode(cinfo, st + 1, 0);
 1730              		.loc 1 780 13 is_stmt 0 view .LVU583
 1731 0232 8FE7     		b	.L106
 1732              	.LVL162:
 1733              	.L127:
 819:Middlewares/Third_Party/LibJPEG/source/jcarith.c ****       st = entropy->ac_stats[tbl] + 3 * k;
 1734              		.loc 1 819 5 is_stmt 1 view .LVU584
 819:Middlewares/Third_Party/LibJPEG/source/jcarith.c ****       st = entropy->ac_stats[tbl] + 3 * k;
 1735              		.loc 1 819 18 is_stmt 0 view .LVU585
 1736 0234 DAF88031 		ldr	r3, [r10, #384]
 819:Middlewares/Third_Party/LibJPEG/source/jcarith.c ****       st = entropy->ac_stats[tbl] + 3 * k;
 1737              		.loc 1 819 8 view .LVU586
 1738 0238 BB42     		cmp	r3, r7
 1739 023a 46DC     		bgt	.L128
 1740              	.LVL163:
 1741              	.L102:
 710:Middlewares/Third_Party/LibJPEG/source/jcarith.c ****     block = MCU_data[blkn];
 1742              		.loc 1 710 51 is_stmt 1 discriminator 2 view .LVU587
 1743 023c 029B     		ldr	r3, [sp, #8]
 1744 023e 0133     		adds	r3, r3, #1
 1745 0240 0293     		str	r3, [sp, #8]
 1746              	.LVL164:
 1747              	.L90:
 710:Middlewares/Third_Party/LibJPEG/source/jcarith.c ****     block = MCU_data[blkn];
 1748              		.loc 1 710 23 discriminator 1 view .LVU588
 710:Middlewares/Third_Party/LibJPEG/source/jcarith.c ****     block = MCU_data[blkn];
 1749              		.loc 1 710 30 is_stmt 0 discriminator 1 view .LVU589
 1750 0242 DAF83C31 		ldr	r3, [r10, #316]
 710:Middlewares/Third_Party/LibJPEG/source/jcarith.c ****     block = MCU_data[blkn];
 1751              		.loc 1 710 23 discriminator 1 view .LVU590
 1752 0246 029A     		ldr	r2, [sp, #8]
 1753 0248 9342     		cmp	r3, r2
 1754 024a 4BDD     		ble	.L129
 711:Middlewares/Third_Party/LibJPEG/source/jcarith.c ****     ci = cinfo->MCU_membership[blkn];
 1755              		.loc 1 711 5 is_stmt 1 view .LVU591
 711:Middlewares/Third_Party/LibJPEG/source/jcarith.c ****     ci = cinfo->MCU_membership[blkn];
 1756              		.loc 1 711 11 is_stmt 0 view .LVU592
 1757 024c 049A     		ldr	r2, [sp, #16]
 1758 024e 029B     		ldr	r3, [sp, #8]
 1759 0250 52F82380 		ldr	r8, [r2, r3, lsl #2]
 1760              	.LVL165:
 712:Middlewares/Third_Party/LibJPEG/source/jcarith.c ****     compptr = cinfo->cur_comp_info[ci];
 1761              		.loc 1 712 5 is_stmt 1 view .LVU593
 712:Middlewares/Third_Party/LibJPEG/source/jcarith.c ****     compptr = cinfo->cur_comp_info[ci];
 1762              		.loc 1 712 8 is_stmt 0 view .LVU594
 1763 0254 5033     		adds	r3, r3, #80
 1764 0256 5AF82340 		ldr	r4, [r10, r3, lsl #2]
ARM GAS  /var/folders/mq/wg13gp494590nh4zyt09lxf00000gn/T//ccanc9wU.s 			page 54


 1765              	.LVL166:
 713:Middlewares/Third_Party/LibJPEG/source/jcarith.c **** 
 1766              		.loc 1 713 5 is_stmt 1 view .LVU595
 713:Middlewares/Third_Party/LibJPEG/source/jcarith.c **** 
 1767              		.loc 1 713 13 is_stmt 0 view .LVU596
 1768 025a 04F14803 		add	r3, r4, #72
 1769 025e 0AEB8303 		add	r3, r10, r3, lsl #2
 1770 0262 5B68     		ldr	r3, [r3, #4]
 1771 0264 0193     		str	r3, [sp, #4]
 1772              	.LVL167:
 717:Middlewares/Third_Party/LibJPEG/source/jcarith.c **** 
 1773              		.loc 1 717 5 is_stmt 1 view .LVU597
 717:Middlewares/Third_Party/LibJPEG/source/jcarith.c **** 
 1774              		.loc 1 717 9 is_stmt 0 view .LVU598
 1775 0266 5B69     		ldr	r3, [r3, #20]
 1776              	.LVL168:
 717:Middlewares/Third_Party/LibJPEG/source/jcarith.c **** 
 1777              		.loc 1 717 9 view .LVU599
 1778 0268 0393     		str	r3, [sp, #12]
 1779              	.LVL169:
 720:Middlewares/Third_Party/LibJPEG/source/jcarith.c **** 
 1780              		.loc 1 720 5 is_stmt 1 view .LVU600
 720:Middlewares/Third_Party/LibJPEG/source/jcarith.c **** 
 1781              		.loc 1 720 27 is_stmt 0 view .LVU601
 1782 026a 1233     		adds	r3, r3, #18
 1783              	.LVL170:
 720:Middlewares/Third_Party/LibJPEG/source/jcarith.c **** 
 1784              		.loc 1 720 27 view .LVU602
 1785 026c 0BEB8303 		add	r3, fp, r3, lsl #2
 1786 0270 5D68     		ldr	r5, [r3, #4]
 720:Middlewares/Third_Party/LibJPEG/source/jcarith.c **** 
 1787              		.loc 1 720 54 view .LVU603
 1788 0272 04F10C03 		add	r3, r4, #12
 1789 0276 0BEB8303 		add	r3, fp, r3, lsl #2
 1790 027a 5B68     		ldr	r3, [r3, #4]
 720:Middlewares/Third_Party/LibJPEG/source/jcarith.c **** 
 1791              		.loc 1 720 8 view .LVU604
 1792 027c 1D44     		add	r5, r5, r3
 1793              	.LVL171:
 723:Middlewares/Third_Party/LibJPEG/source/jcarith.c ****       arith_encode(cinfo, st, 0);
 1794              		.loc 1 723 5 is_stmt 1 view .LVU605
 723:Middlewares/Third_Party/LibJPEG/source/jcarith.c ****       arith_encode(cinfo, st, 0);
 1795              		.loc 1 723 22 is_stmt 0 view .LVU606
 1796 027e B8F90060 		ldrsh	r6, [r8]
 723:Middlewares/Third_Party/LibJPEG/source/jcarith.c ****       arith_encode(cinfo, st, 0);
 1797              		.loc 1 723 48 view .LVU607
 1798 0282 04F10803 		add	r3, r4, #8
 1799 0286 0BEB8303 		add	r3, fp, r3, lsl #2
 1800 028a 5F68     		ldr	r7, [r3, #4]
 1801              	.LVL172:
 723:Middlewares/Third_Party/LibJPEG/source/jcarith.c ****       arith_encode(cinfo, st, 0);
 1802              		.loc 1 723 8 view .LVU608
 1803 028c F31B     		subs	r3, r6, r7
 1804              	.LVL173:
 723:Middlewares/Third_Party/LibJPEG/source/jcarith.c ****       arith_encode(cinfo, st, 0);
 1805              		.loc 1 723 8 view .LVU609
 1806 028e 0093     		str	r3, [sp]
ARM GAS  /var/folders/mq/wg13gp494590nh4zyt09lxf00000gn/T//ccanc9wU.s 			page 55


 1807 0290 7FF4DFAE 		bne	.L91
 724:Middlewares/Third_Party/LibJPEG/source/jcarith.c ****       entropy->dc_context[ci] = 0;	/* zero diff category */
 1808              		.loc 1 724 7 is_stmt 1 view .LVU610
 1809 0294 0022     		movs	r2, #0
 1810 0296 2946     		mov	r1, r5
 1811 0298 5046     		mov	r0, r10
 1812 029a FFF7FEFF 		bl	arith_encode
 1813              	.LVL174:
 725:Middlewares/Third_Party/LibJPEG/source/jcarith.c ****     } else {
 1814              		.loc 1 725 7 view .LVU611
 725:Middlewares/Third_Party/LibJPEG/source/jcarith.c ****     } else {
 1815              		.loc 1 725 31 is_stmt 0 view .LVU612
 1816 029e 0C34     		adds	r4, r4, #12
 1817              	.LVL175:
 725:Middlewares/Third_Party/LibJPEG/source/jcarith.c ****     } else {
 1818              		.loc 1 725 31 view .LVU613
 1819 02a0 0BEB8404 		add	r4, fp, r4, lsl #2
 1820              	.LVL176:
 725:Middlewares/Third_Party/LibJPEG/source/jcarith.c ****     } else {
 1821              		.loc 1 725 31 view .LVU614
 1822 02a4 0023     		movs	r3, #0
 1823 02a6 6360     		str	r3, [r4, #4]
 1824              	.LVL177:
 1825              	.L92:
 768:Middlewares/Third_Party/LibJPEG/source/jcarith.c ****     tbl = compptr->ac_tbl_no;
 1826              		.loc 1 768 5 is_stmt 1 view .LVU615
 768:Middlewares/Third_Party/LibJPEG/source/jcarith.c ****     tbl = compptr->ac_tbl_no;
 1827              		.loc 1 768 13 is_stmt 0 view .LVU616
 1828 02a8 DAF88021 		ldr	r2, [r10, #384]
 1829              	.LVL178:
 768:Middlewares/Third_Party/LibJPEG/source/jcarith.c ****     tbl = compptr->ac_tbl_no;
 1830              		.loc 1 768 8 view .LVU617
 1831 02ac 002A     		cmp	r2, #0
 1832 02ae C5D0     		beq	.L102
 769:Middlewares/Third_Party/LibJPEG/source/jcarith.c **** 
 1833              		.loc 1 769 5 is_stmt 1 view .LVU618
 769:Middlewares/Third_Party/LibJPEG/source/jcarith.c **** 
 1834              		.loc 1 769 9 is_stmt 0 view .LVU619
 1835 02b0 019B     		ldr	r3, [sp, #4]
 1836 02b2 9B69     		ldr	r3, [r3, #24]
 1837 02b4 0193     		str	r3, [sp, #4]
 1838              	.LVL179:
 1839              	.L104:
 772:Middlewares/Third_Party/LibJPEG/source/jcarith.c ****       if ((*block)[natural_order[ke]]) break;
 1840              		.loc 1 772 5 is_stmt 1 view .LVU620
 773:Middlewares/Third_Party/LibJPEG/source/jcarith.c ****     } while (--ke);
 1841              		.loc 1 773 7 view .LVU621
 773:Middlewares/Third_Party/LibJPEG/source/jcarith.c ****     } while (--ke);
 1842              		.loc 1 773 33 is_stmt 0 view .LVU622
 1843 02b6 59F82230 		ldr	r3, [r9, r2, lsl #2]
 773:Middlewares/Third_Party/LibJPEG/source/jcarith.c ****     } while (--ke);
 1844              		.loc 1 773 19 view .LVU623
 1845 02ba 38F91330 		ldrsh	r3, [r8, r3, lsl #1]
 773:Middlewares/Third_Party/LibJPEG/source/jcarith.c ****     } while (--ke);
 1846              		.loc 1 773 10 view .LVU624
 1847 02be 0BB9     		cbnz	r3, .L103
 774:Middlewares/Third_Party/LibJPEG/source/jcarith.c **** 
ARM GAS  /var/folders/mq/wg13gp494590nh4zyt09lxf00000gn/T//ccanc9wU.s 			page 56


 1848              		.loc 1 774 14 is_stmt 1 view .LVU625
 1849              	.LVL180:
 774:Middlewares/Third_Party/LibJPEG/source/jcarith.c **** 
 1850              		.loc 1 774 14 is_stmt 0 view .LVU626
 1851 02c0 013A     		subs	r2, r2, #1
 1852              	.LVL181:
 774:Middlewares/Third_Party/LibJPEG/source/jcarith.c **** 
 1853              		.loc 1 774 14 view .LVU627
 1854 02c2 F8D1     		bne	.L104
 1855              	.L103:
 777:Middlewares/Third_Party/LibJPEG/source/jcarith.c ****       st = entropy->ac_stats[tbl] + 3 * k;
 1856              		.loc 1 777 5 is_stmt 1 view .LVU628
 1857              	.LVL182:
 777:Middlewares/Third_Party/LibJPEG/source/jcarith.c ****       st = entropy->ac_stats[tbl] + 3 * k;
 1858              		.loc 1 777 12 is_stmt 0 view .LVU629
 1859 02c4 0027     		movs	r7, #0
 1860 02c6 0092     		str	r2, [sp]
 777:Middlewares/Third_Party/LibJPEG/source/jcarith.c ****       st = entropy->ac_stats[tbl] + 3 * k;
 1861              		.loc 1 777 5 view .LVU630
 1862 02c8 A3E7     		b	.L105
 1863              	.LVL183:
 1864              	.L128:
 820:Middlewares/Third_Party/LibJPEG/source/jcarith.c ****       arith_encode(cinfo, st, 1);
 1865              		.loc 1 820 7 is_stmt 1 view .LVU631
 820:Middlewares/Third_Party/LibJPEG/source/jcarith.c ****       arith_encode(cinfo, st, 1);
 1866              		.loc 1 820 29 is_stmt 0 view .LVU632
 1867 02ca 019B     		ldr	r3, [sp, #4]
 1868 02cc 2233     		adds	r3, r3, #34
 1869 02ce 0BEB8303 		add	r3, fp, r3, lsl #2
 1870 02d2 5968     		ldr	r1, [r3, #4]
 820:Middlewares/Third_Party/LibJPEG/source/jcarith.c ****       arith_encode(cinfo, st, 1);
 1871              		.loc 1 820 39 view .LVU633
 1872 02d4 07EB4707 		add	r7, r7, r7, lsl #1
 1873              	.LVL184:
 821:Middlewares/Third_Party/LibJPEG/source/jcarith.c ****     }
 1874              		.loc 1 821 7 is_stmt 1 view .LVU634
 1875 02d8 0122     		movs	r2, #1
 1876 02da 3944     		add	r1, r1, r7
 1877              	.LVL185:
 821:Middlewares/Third_Party/LibJPEG/source/jcarith.c ****     }
 1878              		.loc 1 821 7 is_stmt 0 view .LVU635
 1879 02dc 5046     		mov	r0, r10
 1880 02de FFF7FEFF 		bl	arith_encode
 1881              	.LVL186:
 821:Middlewares/Third_Party/LibJPEG/source/jcarith.c ****     }
 1882              		.loc 1 821 7 view .LVU636
 1883 02e2 ABE7     		b	.L102
 1884              	.LVL187:
 1885              	.L129:
 825:Middlewares/Third_Party/LibJPEG/source/jcarith.c **** }
 1886              		.loc 1 825 3 is_stmt 1 view .LVU637
 826:Middlewares/Third_Party/LibJPEG/source/jcarith.c **** 
 1887              		.loc 1 826 1 is_stmt 0 view .LVU638
 1888 02e4 0120     		movs	r0, #1
 1889 02e6 07B0     		add	sp, sp, #28
 1890              	.LCFI7:
 1891              		.cfi_def_cfa_offset 36
ARM GAS  /var/folders/mq/wg13gp494590nh4zyt09lxf00000gn/T//ccanc9wU.s 			page 57


 1892              		@ sp needed
 1893 02e8 BDE8F08F 		pop	{r4, r5, r6, r7, r8, r9, r10, fp, pc}
 826:Middlewares/Third_Party/LibJPEG/source/jcarith.c **** 
 1894              		.loc 1 826 1 view .LVU639
 1895              		.cfi_endproc
 1896              	.LFE155:
 1898              		.section	.text.encode_mcu_AC_refine,"ax",%progbits
 1899              		.align	1
 1900              		.syntax unified
 1901              		.thumb
 1902              		.thumb_func
 1904              	encode_mcu_AC_refine:
 1905              	.LVL188:
 1906              	.LFB154:
 591:Middlewares/Third_Party/LibJPEG/source/jcarith.c ****   arith_entropy_ptr entropy = (arith_entropy_ptr) cinfo->entropy;
 1907              		.loc 1 591 1 is_stmt 1 view -0
 1908              		.cfi_startproc
 1909              		@ args = 0, pretend = 0, frame = 8
 1910              		@ frame_needed = 0, uses_anonymous_args = 0
 591:Middlewares/Third_Party/LibJPEG/source/jcarith.c ****   arith_entropy_ptr entropy = (arith_entropy_ptr) cinfo->entropy;
 1911              		.loc 1 591 1 is_stmt 0 view .LVU641
 1912 0000 2DE9F04F 		push	{r4, r5, r6, r7, r8, r9, r10, fp, lr}
 1913              	.LCFI8:
 1914              		.cfi_def_cfa_offset 36
 1915              		.cfi_offset 4, -36
 1916              		.cfi_offset 5, -32
 1917              		.cfi_offset 6, -28
 1918              		.cfi_offset 7, -24
 1919              		.cfi_offset 8, -20
 1920              		.cfi_offset 9, -16
 1921              		.cfi_offset 10, -12
 1922              		.cfi_offset 11, -8
 1923              		.cfi_offset 14, -4
 1924 0004 83B0     		sub	sp, sp, #12
 1925              	.LCFI9:
 1926              		.cfi_def_cfa_offset 48
 1927 0006 0646     		mov	r6, r0
 1928 0008 0C46     		mov	r4, r1
 592:Middlewares/Third_Party/LibJPEG/source/jcarith.c ****   JBLOCKROW block;
 1929              		.loc 1 592 3 is_stmt 1 view .LVU642
 592:Middlewares/Third_Party/LibJPEG/source/jcarith.c ****   JBLOCKROW block;
 1930              		.loc 1 592 21 is_stmt 0 view .LVU643
 1931 000a D0F8A4B1 		ldr	fp, [r0, #420]
 1932              	.LVL189:
 593:Middlewares/Third_Party/LibJPEG/source/jcarith.c ****   unsigned char *st;
 1933              		.loc 1 593 3 is_stmt 1 view .LVU644
 594:Middlewares/Third_Party/LibJPEG/source/jcarith.c ****   int tbl, k, ke, kex;
 1934              		.loc 1 594 3 view .LVU645
 595:Middlewares/Third_Party/LibJPEG/source/jcarith.c ****   int v;
 1935              		.loc 1 595 3 view .LVU646
 596:Middlewares/Third_Party/LibJPEG/source/jcarith.c ****   const int * natural_order;
 1936              		.loc 1 596 3 view .LVU647
 597:Middlewares/Third_Party/LibJPEG/source/jcarith.c **** 
 1937              		.loc 1 597 3 view .LVU648
 600:Middlewares/Third_Party/LibJPEG/source/jcarith.c ****     if (entropy->restarts_to_go == 0) {
 1938              		.loc 1 600 3 view .LVU649
 600:Middlewares/Third_Party/LibJPEG/source/jcarith.c ****     if (entropy->restarts_to_go == 0) {
ARM GAS  /var/folders/mq/wg13gp494590nh4zyt09lxf00000gn/T//ccanc9wU.s 			page 58


 1939              		.loc 1 600 12 is_stmt 0 view .LVU650
 1940 000e D0F8EC30 		ldr	r3, [r0, #236]
 600:Middlewares/Third_Party/LibJPEG/source/jcarith.c ****     if (entropy->restarts_to_go == 0) {
 1941              		.loc 1 600 6 view .LVU651
 1942 0012 3BB1     		cbz	r3, .L131
 601:Middlewares/Third_Party/LibJPEG/source/jcarith.c ****       emit_restart(cinfo, entropy->next_restart_num);
 1943              		.loc 1 601 5 is_stmt 1 view .LVU652
 601:Middlewares/Third_Party/LibJPEG/source/jcarith.c ****       emit_restart(cinfo, entropy->next_restart_num);
 1944              		.loc 1 601 16 is_stmt 0 view .LVU653
 1945 0014 DBF84430 		ldr	r3, [fp, #68]
 601:Middlewares/Third_Party/LibJPEG/source/jcarith.c ****       emit_restart(cinfo, entropy->next_restart_num);
 1946              		.loc 1 601 8 view .LVU654
 1947 0018 7BB1     		cbz	r3, .L156
 1948              	.LVL190:
 1949              	.L132:
 607:Middlewares/Third_Party/LibJPEG/source/jcarith.c ****   }
 1950              		.loc 1 607 5 is_stmt 1 view .LVU655
 607:Middlewares/Third_Party/LibJPEG/source/jcarith.c ****   }
 1951              		.loc 1 607 12 is_stmt 0 view .LVU656
 1952 001a DBF84430 		ldr	r3, [fp, #68]
 607:Middlewares/Third_Party/LibJPEG/source/jcarith.c ****   }
 1953              		.loc 1 607 28 view .LVU657
 1954 001e 013B     		subs	r3, r3, #1
 1955 0020 CBF84430 		str	r3, [fp, #68]
 1956              	.L131:
 610:Middlewares/Third_Party/LibJPEG/source/jcarith.c **** 
 1957              		.loc 1 610 3 is_stmt 1 view .LVU658
 610:Middlewares/Third_Party/LibJPEG/source/jcarith.c **** 
 1958              		.loc 1 610 17 is_stmt 0 view .LVU659
 1959 0024 D6F87C71 		ldr	r7, [r6, #380]
 1960              	.LVL191:
 613:Middlewares/Third_Party/LibJPEG/source/jcarith.c ****   tbl = cinfo->cur_comp_info[0]->ac_tbl_no;
 1961              		.loc 1 613 3 is_stmt 1 view .LVU660
 613:Middlewares/Third_Party/LibJPEG/source/jcarith.c ****   tbl = cinfo->cur_comp_info[0]->ac_tbl_no;
 1962              		.loc 1 613 9 is_stmt 0 view .LVU661
 1963 0028 D4F80080 		ldr	r8, [r4]
 1964              	.LVL192:
 614:Middlewares/Third_Party/LibJPEG/source/jcarith.c **** 
 1965              		.loc 1 614 3 is_stmt 1 view .LVU662
 614:Middlewares/Third_Party/LibJPEG/source/jcarith.c **** 
 1966              		.loc 1 614 29 is_stmt 0 view .LVU663
 1967 002c D6F82431 		ldr	r3, [r6, #292]
 614:Middlewares/Third_Party/LibJPEG/source/jcarith.c **** 
 1968              		.loc 1 614 7 view .LVU664
 1969 0030 9B69     		ldr	r3, [r3, #24]
 1970 0032 0193     		str	r3, [sp, #4]
 1971              	.LVL193:
 619:Middlewares/Third_Party/LibJPEG/source/jcarith.c ****     /* We must apply the point transform by Al.  For AC coefficients this
 1972              		.loc 1 619 3 is_stmt 1 view .LVU665
 619:Middlewares/Third_Party/LibJPEG/source/jcarith.c ****     /* We must apply the point transform by Al.  For AC coefficients this
 1973              		.loc 1 619 11 is_stmt 0 view .LVU666
 1974 0034 D6F86C91 		ldr	r9, [r6, #364]
 1975              	.LVL194:
 619:Middlewares/Third_Party/LibJPEG/source/jcarith.c ****     /* We must apply the point transform by Al.  For AC coefficients this
 1976              		.loc 1 619 3 view .LVU667
 1977 0038 18E0     		b	.L133
 1978              	.LVL195:
ARM GAS  /var/folders/mq/wg13gp494590nh4zyt09lxf00000gn/T//ccanc9wU.s 			page 59


 1979              	.L156:
 602:Middlewares/Third_Party/LibJPEG/source/jcarith.c ****       entropy->restarts_to_go = cinfo->restart_interval;
 1980              		.loc 1 602 7 is_stmt 1 view .LVU668
 1981 003a DBF84810 		ldr	r1, [fp, #72]
 1982              	.LVL196:
 602:Middlewares/Third_Party/LibJPEG/source/jcarith.c ****       entropy->restarts_to_go = cinfo->restart_interval;
 1983              		.loc 1 602 7 is_stmt 0 view .LVU669
 1984 003e FFF7FEFF 		bl	emit_restart
 1985              	.LVL197:
 603:Middlewares/Third_Party/LibJPEG/source/jcarith.c ****       entropy->next_restart_num++;
 1986              		.loc 1 603 7 is_stmt 1 view .LVU670
 603:Middlewares/Third_Party/LibJPEG/source/jcarith.c ****       entropy->next_restart_num++;
 1987              		.loc 1 603 38 is_stmt 0 view .LVU671
 1988 0042 D6F8EC30 		ldr	r3, [r6, #236]
 603:Middlewares/Third_Party/LibJPEG/source/jcarith.c ****       entropy->next_restart_num++;
 1989              		.loc 1 603 31 view .LVU672
 1990 0046 CBF84430 		str	r3, [fp, #68]
 604:Middlewares/Third_Party/LibJPEG/source/jcarith.c ****       entropy->next_restart_num &= 7;
 1991              		.loc 1 604 7 is_stmt 1 view .LVU673
 604:Middlewares/Third_Party/LibJPEG/source/jcarith.c ****       entropy->next_restart_num &= 7;
 1992              		.loc 1 604 14 is_stmt 0 view .LVU674
 1993 004a DBF84830 		ldr	r3, [fp, #72]
 604:Middlewares/Third_Party/LibJPEG/source/jcarith.c ****       entropy->next_restart_num &= 7;
 1994              		.loc 1 604 32 view .LVU675
 1995 004e 0133     		adds	r3, r3, #1
 1996 0050 CBF84830 		str	r3, [fp, #72]
 605:Middlewares/Third_Party/LibJPEG/source/jcarith.c ****     }
 1997              		.loc 1 605 7 is_stmt 1 view .LVU676
 605:Middlewares/Third_Party/LibJPEG/source/jcarith.c ****     }
 1998              		.loc 1 605 33 is_stmt 0 view .LVU677
 1999 0054 03F00703 		and	r3, r3, #7
 2000 0058 CBF84830 		str	r3, [fp, #72]
 2001 005c DDE7     		b	.L132
 2002              	.LVL198:
 2003              	.L134:
 627:Middlewares/Third_Party/LibJPEG/source/jcarith.c ****       if (v >>= cinfo->Al) break;
 2004              		.loc 1 627 7 is_stmt 1 view .LVU678
 627:Middlewares/Third_Party/LibJPEG/source/jcarith.c ****       if (v >>= cinfo->Al) break;
 2005              		.loc 1 627 9 is_stmt 0 view .LVU679
 2006 005e 5B42     		rsbs	r3, r3, #0
 2007              	.LVL199:
 628:Middlewares/Third_Party/LibJPEG/source/jcarith.c ****     }
 2008              		.loc 1 628 7 is_stmt 1 view .LVU680
 628:Middlewares/Third_Party/LibJPEG/source/jcarith.c ****     }
 2009              		.loc 1 628 22 is_stmt 0 view .LVU681
 2010 0060 D6F87421 		ldr	r2, [r6, #372]
 2011              	.LVL200:
 628:Middlewares/Third_Party/LibJPEG/source/jcarith.c ****     }
 2012              		.loc 1 628 10 view .LVU682
 2013 0064 1341     		asrs	r3, r3, r2
 2014              	.LVL201:
 628:Middlewares/Third_Party/LibJPEG/source/jcarith.c ****     }
 2015              		.loc 1 628 10 view .LVU683
 2016 0066 29D1     		bne	.L154
 2017              	.LVL202:
 2018              	.L136:
 619:Middlewares/Third_Party/LibJPEG/source/jcarith.c ****     /* We must apply the point transform by Al.  For AC coefficients this
ARM GAS  /var/folders/mq/wg13gp494590nh4zyt09lxf00000gn/T//ccanc9wU.s 			page 60


 2019              		.loc 1 619 34 is_stmt 1 discriminator 2 view .LVU684
 2020 0068 09F1FF39 		add	r9, r9, #-1
 2021              	.LVL203:
 2022              	.L133:
 619:Middlewares/Third_Party/LibJPEG/source/jcarith.c ****     /* We must apply the point transform by Al.  For AC coefficients this
 2023              		.loc 1 619 27 discriminator 1 view .LVU685
 2024 006c B9F1000F 		cmp	r9, #0
 2025 0070 0BDD     		ble	.L157
 624:Middlewares/Third_Party/LibJPEG/source/jcarith.c ****       if (v >>= cinfo->Al) break;
 2026              		.loc 1 624 5 view .LVU686
 624:Middlewares/Third_Party/LibJPEG/source/jcarith.c ****       if (v >>= cinfo->Al) break;
 2027              		.loc 1 624 36 is_stmt 0 view .LVU687
 2028 0072 57F82930 		ldr	r3, [r7, r9, lsl #2]
 624:Middlewares/Third_Party/LibJPEG/source/jcarith.c ****       if (v >>= cinfo->Al) break;
 2029              		.loc 1 624 22 view .LVU688
 2030 0076 38F91330 		ldrsh	r3, [r8, r3, lsl #1]
 2031              	.LVL204:
 624:Middlewares/Third_Party/LibJPEG/source/jcarith.c ****       if (v >>= cinfo->Al) break;
 2032              		.loc 1 624 8 view .LVU689
 2033 007a 002B     		cmp	r3, #0
 2034 007c EFDB     		blt	.L134
 625:Middlewares/Third_Party/LibJPEG/source/jcarith.c ****     } else {
 2035              		.loc 1 625 7 is_stmt 1 view .LVU690
 625:Middlewares/Third_Party/LibJPEG/source/jcarith.c ****     } else {
 2036              		.loc 1 625 22 is_stmt 0 view .LVU691
 2037 007e D6F87421 		ldr	r2, [r6, #372]
 2038              	.LVL205:
 625:Middlewares/Third_Party/LibJPEG/source/jcarith.c ****     } else {
 2039              		.loc 1 625 10 view .LVU692
 2040 0082 1341     		asrs	r3, r3, r2
 2041              	.LVL206:
 625:Middlewares/Third_Party/LibJPEG/source/jcarith.c ****     } else {
 2042              		.loc 1 625 10 view .LVU693
 2043 0084 F0D0     		beq	.L136
 2044 0086 CA46     		mov	r10, r9
 2045 0088 08E0     		b	.L141
 2046              	.LVL207:
 2047              	.L157:
 625:Middlewares/Third_Party/LibJPEG/source/jcarith.c ****     } else {
 2048              		.loc 1 625 10 view .LVU694
 2049 008a CA46     		mov	r10, r9
 2050 008c 06E0     		b	.L141
 2051              	.LVL208:
 2052              	.L138:
 636:Middlewares/Third_Party/LibJPEG/source/jcarith.c ****       if (v >>= cinfo->Ah) break;
 2053              		.loc 1 636 7 is_stmt 1 view .LVU695
 636:Middlewares/Third_Party/LibJPEG/source/jcarith.c ****       if (v >>= cinfo->Ah) break;
 2054              		.loc 1 636 9 is_stmt 0 view .LVU696
 2055 008e 5B42     		rsbs	r3, r3, #0
 2056              	.LVL209:
 637:Middlewares/Third_Party/LibJPEG/source/jcarith.c ****     }
 2057              		.loc 1 637 7 is_stmt 1 view .LVU697
 637:Middlewares/Third_Party/LibJPEG/source/jcarith.c ****     }
 2058              		.loc 1 637 22 is_stmt 0 view .LVU698
 2059 0090 D6F87021 		ldr	r2, [r6, #368]
 2060              	.LVL210:
 637:Middlewares/Third_Party/LibJPEG/source/jcarith.c ****     }
ARM GAS  /var/folders/mq/wg13gp494590nh4zyt09lxf00000gn/T//ccanc9wU.s 			page 61


 2061              		.loc 1 637 10 view .LVU699
 2062 0094 1341     		asrs	r3, r3, r2
 2063              	.LVL211:
 637:Middlewares/Third_Party/LibJPEG/source/jcarith.c ****     }
 2064              		.loc 1 637 10 view .LVU700
 2065 0096 0ED1     		bne	.L139
 2066              	.LVL212:
 2067              	.L140:
 632:Middlewares/Third_Party/LibJPEG/source/jcarith.c ****     if ((v = (*block)[natural_order[kex]]) >= 0) {
 2068              		.loc 1 632 30 is_stmt 1 discriminator 2 view .LVU701
 2069 0098 0AF1FF3A 		add	r10, r10, #-1
 2070              	.LVL213:
 2071              	.L141:
 632:Middlewares/Third_Party/LibJPEG/source/jcarith.c ****     if ((v = (*block)[natural_order[kex]]) >= 0) {
 2072              		.loc 1 632 22 discriminator 1 view .LVU702
 2073 009c BAF1000F 		cmp	r10, #0
 2074 00a0 09DD     		ble	.L139
 633:Middlewares/Third_Party/LibJPEG/source/jcarith.c ****       if (v >>= cinfo->Ah) break;
 2075              		.loc 1 633 5 view .LVU703
 633:Middlewares/Third_Party/LibJPEG/source/jcarith.c ****       if (v >>= cinfo->Ah) break;
 2076              		.loc 1 633 36 is_stmt 0 view .LVU704
 2077 00a2 57F82A30 		ldr	r3, [r7, r10, lsl #2]
 633:Middlewares/Third_Party/LibJPEG/source/jcarith.c ****       if (v >>= cinfo->Ah) break;
 2078              		.loc 1 633 22 view .LVU705
 2079 00a6 38F91330 		ldrsh	r3, [r8, r3, lsl #1]
 2080              	.LVL214:
 633:Middlewares/Third_Party/LibJPEG/source/jcarith.c ****       if (v >>= cinfo->Ah) break;
 2081              		.loc 1 633 8 view .LVU706
 2082 00aa 002B     		cmp	r3, #0
 2083 00ac EFDB     		blt	.L138
 634:Middlewares/Third_Party/LibJPEG/source/jcarith.c ****     } else {
 2084              		.loc 1 634 7 is_stmt 1 view .LVU707
 634:Middlewares/Third_Party/LibJPEG/source/jcarith.c ****     } else {
 2085              		.loc 1 634 22 is_stmt 0 view .LVU708
 2086 00ae D6F87021 		ldr	r2, [r6, #368]
 2087              	.LVL215:
 634:Middlewares/Third_Party/LibJPEG/source/jcarith.c ****     } else {
 2088              		.loc 1 634 10 view .LVU709
 2089 00b2 1341     		asrs	r3, r3, r2
 2090              	.LVL216:
 634:Middlewares/Third_Party/LibJPEG/source/jcarith.c ****     } else {
 2091              		.loc 1 634 10 view .LVU710
 2092 00b4 F0D0     		beq	.L140
 2093              	.LVL217:
 2094              	.L139:
 641:Middlewares/Third_Party/LibJPEG/source/jcarith.c ****     st = entropy->ac_stats[tbl] + 3 * (k - 1);
 2095              		.loc 1 641 3 is_stmt 1 view .LVU711
 641:Middlewares/Third_Party/LibJPEG/source/jcarith.c ****     st = entropy->ac_stats[tbl] + 3 * (k - 1);
 2096              		.loc 1 641 10 is_stmt 0 view .LVU712
 2097 00b6 D6F86841 		ldr	r4, [r6, #360]
 2098              	.LVL218:
 641:Middlewares/Third_Party/LibJPEG/source/jcarith.c ****     st = entropy->ac_stats[tbl] + 3 * (k - 1);
 2099              		.loc 1 641 3 view .LVU713
 2100 00ba 2CE0     		b	.L143
 2101              	.LVL219:
 2102              	.L154:
 641:Middlewares/Third_Party/LibJPEG/source/jcarith.c ****     st = entropy->ac_stats[tbl] + 3 * (k - 1);
ARM GAS  /var/folders/mq/wg13gp494590nh4zyt09lxf00000gn/T//ccanc9wU.s 			page 62


 2103              		.loc 1 641 3 view .LVU714
 2104 00bc CA46     		mov	r10, r9
 2105 00be EDE7     		b	.L141
 2106              	.LVL220:
 2107              	.L147:
 651:Middlewares/Third_Party/LibJPEG/source/jcarith.c **** 	    arith_encode(cinfo, entropy->fixed_bin, 0);
 2108              		.loc 1 651 6 is_stmt 1 view .LVU715
 2109 00c0 0122     		movs	r2, #1
 2110              	.LVL221:
 651:Middlewares/Third_Party/LibJPEG/source/jcarith.c **** 	    arith_encode(cinfo, entropy->fixed_bin, 0);
 2111              		.loc 1 651 6 is_stmt 0 view .LVU716
 2112 00c2 A918     		adds	r1, r5, r2
 2113 00c4 3046     		mov	r0, r6
 2114 00c6 FFF7FEFF 		bl	arith_encode
 2115              	.LVL222:
 652:Middlewares/Third_Party/LibJPEG/source/jcarith.c **** 	  }
 2116              		.loc 1 652 6 is_stmt 1 view .LVU717
 2117 00ca 0022     		movs	r2, #0
 2118 00cc 0BF1CC01 		add	r1, fp, #204
 2119 00d0 3046     		mov	r0, r6
 2120 00d2 FFF7FEFF 		bl	arith_encode
 2121              	.LVL223:
 2122 00d6 1DE0     		b	.L148
 2123              	.LVL224:
 2124              	.L145:
 657:Middlewares/Third_Party/LibJPEG/source/jcarith.c **** 	if (v >>= cinfo->Al) {
 2125              		.loc 1 657 2 view .LVU718
 657:Middlewares/Third_Party/LibJPEG/source/jcarith.c **** 	if (v >>= cinfo->Al) {
 2126              		.loc 1 657 4 is_stmt 0 view .LVU719
 2127 00d8 5242     		rsbs	r2, r2, #0
 2128              	.LVL225:
 658:Middlewares/Third_Party/LibJPEG/source/jcarith.c **** 	  if (v >> 1)			/* previously nonzero coef */
 2129              		.loc 1 658 2 is_stmt 1 view .LVU720
 658:Middlewares/Third_Party/LibJPEG/source/jcarith.c **** 	  if (v >> 1)			/* previously nonzero coef */
 2130              		.loc 1 658 17 is_stmt 0 view .LVU721
 2131 00da D6F87431 		ldr	r3, [r6, #372]
 2132              	.LVL226:
 658:Middlewares/Third_Party/LibJPEG/source/jcarith.c **** 	  if (v >> 1)			/* previously nonzero coef */
 2133              		.loc 1 658 5 view .LVU722
 2134 00de 1A41     		asrs	r2, r2, r3
 2135              	.LVL227:
 658:Middlewares/Third_Party/LibJPEG/source/jcarith.c **** 	  if (v >> 1)			/* previously nonzero coef */
 2136              		.loc 1 658 5 view .LVU723
 2137 00e0 2CD1     		bne	.L158
 2138              	.LVL228:
 2139              	.L146:
 668:Middlewares/Third_Party/LibJPEG/source/jcarith.c ****     }
 2140              		.loc 1 668 7 is_stmt 1 view .LVU724
 2141 00e2 0022     		movs	r2, #0
 2142 00e4 691C     		adds	r1, r5, #1
 2143 00e6 3046     		mov	r0, r6
 2144 00e8 FFF7FEFF 		bl	arith_encode
 2145              	.LVL229:
 668:Middlewares/Third_Party/LibJPEG/source/jcarith.c ****     }
 2146              		.loc 1 668 39 discriminator 1 view .LVU725
 668:Middlewares/Third_Party/LibJPEG/source/jcarith.c ****     }
 2147              		.loc 1 668 42 is_stmt 0 discriminator 1 view .LVU726
ARM GAS  /var/folders/mq/wg13gp494590nh4zyt09lxf00000gn/T//ccanc9wU.s 			page 63


 2148 00ec 0335     		adds	r5, r5, #3
 2149              	.LVL230:
 668:Middlewares/Third_Party/LibJPEG/source/jcarith.c ****     }
 2150              		.loc 1 668 48 is_stmt 1 discriminator 1 view .LVU727
 668:Middlewares/Third_Party/LibJPEG/source/jcarith.c ****     }
 2151              		.loc 1 668 49 is_stmt 0 discriminator 1 view .LVU728
 2152 00ee 0134     		adds	r4, r4, #1
 2153              	.LVL231:
 645:Middlewares/Third_Party/LibJPEG/source/jcarith.c ****       if ((v = (*block)[natural_order[k]]) >= 0) {
 2154              		.loc 1 645 5 is_stmt 1 view .LVU729
 2155              	.L150:
 645:Middlewares/Third_Party/LibJPEG/source/jcarith.c ****       if ((v = (*block)[natural_order[k]]) >= 0) {
 2156              		.loc 1 645 5 view .LVU730
 646:Middlewares/Third_Party/LibJPEG/source/jcarith.c **** 	if (v >>= cinfo->Al) {
 2157              		.loc 1 646 7 view .LVU731
 646:Middlewares/Third_Party/LibJPEG/source/jcarith.c **** 	if (v >>= cinfo->Al) {
 2158              		.loc 1 646 38 is_stmt 0 view .LVU732
 2159 00f0 57F82430 		ldr	r3, [r7, r4, lsl #2]
 646:Middlewares/Third_Party/LibJPEG/source/jcarith.c **** 	if (v >>= cinfo->Al) {
 2160              		.loc 1 646 24 view .LVU733
 2161 00f4 38F91320 		ldrsh	r2, [r8, r3, lsl #1]
 2162              	.LVL232:
 646:Middlewares/Third_Party/LibJPEG/source/jcarith.c **** 	if (v >>= cinfo->Al) {
 2163              		.loc 1 646 10 view .LVU734
 2164 00f8 002A     		cmp	r2, #0
 2165 00fa EDDB     		blt	.L145
 647:Middlewares/Third_Party/LibJPEG/source/jcarith.c **** 	  if (v >> 1)			/* previously nonzero coef */
 2166              		.loc 1 647 2 is_stmt 1 view .LVU735
 647:Middlewares/Third_Party/LibJPEG/source/jcarith.c **** 	  if (v >> 1)			/* previously nonzero coef */
 2167              		.loc 1 647 17 is_stmt 0 view .LVU736
 2168 00fc D6F87431 		ldr	r3, [r6, #372]
 2169              	.LVL233:
 647:Middlewares/Third_Party/LibJPEG/source/jcarith.c **** 	  if (v >> 1)			/* previously nonzero coef */
 2170              		.loc 1 647 5 view .LVU737
 2171 0100 1A41     		asrs	r2, r2, r3
 2172              	.LVL234:
 647:Middlewares/Third_Party/LibJPEG/source/jcarith.c **** 	  if (v >> 1)			/* previously nonzero coef */
 2173              		.loc 1 647 5 view .LVU738
 2174 0102 EED0     		beq	.L146
 648:Middlewares/Third_Party/LibJPEG/source/jcarith.c **** 	    arith_encode(cinfo, st + 2, (v & 1));
 2175              		.loc 1 648 4 is_stmt 1 view .LVU739
 648:Middlewares/Third_Party/LibJPEG/source/jcarith.c **** 	    arith_encode(cinfo, st + 2, (v & 1));
 2176              		.loc 1 648 7 is_stmt 0 view .LVU740
 2177 0104 5308     		lsrs	r3, r2, #1
 2178 0106 DBD0     		beq	.L147
 649:Middlewares/Third_Party/LibJPEG/source/jcarith.c **** 	  else {			/* newly nonzero coef */
 2179              		.loc 1 649 6 is_stmt 1 view .LVU741
 2180 0108 02F00102 		and	r2, r2, #1
 2181              	.LVL235:
 649:Middlewares/Third_Party/LibJPEG/source/jcarith.c **** 	  else {			/* newly nonzero coef */
 2182              		.loc 1 649 6 is_stmt 0 view .LVU742
 2183 010c A91C     		adds	r1, r5, #2
 2184 010e 3046     		mov	r0, r6
 2185 0110 FFF7FEFF 		bl	arith_encode
 2186              	.LVL236:
 2187              	.L148:
 641:Middlewares/Third_Party/LibJPEG/source/jcarith.c ****     st = entropy->ac_stats[tbl] + 3 * (k - 1);
ARM GAS  /var/folders/mq/wg13gp494590nh4zyt09lxf00000gn/T//ccanc9wU.s 			page 64


 2188              		.loc 1 641 33 is_stmt 1 discriminator 2 view .LVU743
 2189 0114 0134     		adds	r4, r4, #1
 2190              	.LVL237:
 2191              	.L143:
 641:Middlewares/Third_Party/LibJPEG/source/jcarith.c ****     st = entropy->ac_stats[tbl] + 3 * (k - 1);
 2192              		.loc 1 641 25 discriminator 1 view .LVU744
 2193 0116 4C45     		cmp	r4, r9
 2194 0118 25DC     		bgt	.L159
 642:Middlewares/Third_Party/LibJPEG/source/jcarith.c ****     if (k > kex)
 2195              		.loc 1 642 5 view .LVU745
 642:Middlewares/Third_Party/LibJPEG/source/jcarith.c ****     if (k > kex)
 2196              		.loc 1 642 27 is_stmt 0 view .LVU746
 2197 011a 019B     		ldr	r3, [sp, #4]
 2198 011c 2233     		adds	r3, r3, #34
 2199 011e 0BEB8303 		add	r3, fp, r3, lsl #2
 2200 0122 5D68     		ldr	r5, [r3, #4]
 642:Middlewares/Third_Party/LibJPEG/source/jcarith.c ****     if (k > kex)
 2201              		.loc 1 642 42 view .LVU747
 2202 0124 631E     		subs	r3, r4, #1
 642:Middlewares/Third_Party/LibJPEG/source/jcarith.c ****     if (k > kex)
 2203              		.loc 1 642 37 view .LVU748
 2204 0126 03EB4303 		add	r3, r3, r3, lsl #1
 642:Middlewares/Third_Party/LibJPEG/source/jcarith.c ****     if (k > kex)
 2205              		.loc 1 642 8 view .LVU749
 2206 012a 1D44     		add	r5, r5, r3
 2207              	.LVL238:
 643:Middlewares/Third_Party/LibJPEG/source/jcarith.c ****       arith_encode(cinfo, st, 0);	/* EOB decision */
 2208              		.loc 1 643 5 is_stmt 1 view .LVU750
 643:Middlewares/Third_Party/LibJPEG/source/jcarith.c ****       arith_encode(cinfo, st, 0);	/* EOB decision */
 2209              		.loc 1 643 8 is_stmt 0 view .LVU751
 2210 012c 5445     		cmp	r4, r10
 2211 012e DFDD     		ble	.L150
 644:Middlewares/Third_Party/LibJPEG/source/jcarith.c ****     for (;;) {
 2212              		.loc 1 644 7 is_stmt 1 view .LVU752
 2213 0130 0022     		movs	r2, #0
 2214 0132 2946     		mov	r1, r5
 2215 0134 3046     		mov	r0, r6
 2216 0136 FFF7FEFF 		bl	arith_encode
 2217              	.LVL239:
 2218 013a D9E7     		b	.L150
 2219              	.LVL240:
 2220              	.L158:
 659:Middlewares/Third_Party/LibJPEG/source/jcarith.c **** 	    arith_encode(cinfo, st + 2, (v & 1));
 2221              		.loc 1 659 4 view .LVU753
 659:Middlewares/Third_Party/LibJPEG/source/jcarith.c **** 	    arith_encode(cinfo, st + 2, (v & 1));
 2222              		.loc 1 659 7 is_stmt 0 view .LVU754
 2223 013c 5308     		lsrs	r3, r2, #1
 2224 013e 06D0     		beq	.L149
 660:Middlewares/Third_Party/LibJPEG/source/jcarith.c **** 	  else {			/* newly nonzero coef */
 2225              		.loc 1 660 6 is_stmt 1 view .LVU755
 2226 0140 02F00102 		and	r2, r2, #1
 2227              	.LVL241:
 660:Middlewares/Third_Party/LibJPEG/source/jcarith.c **** 	  else {			/* newly nonzero coef */
 2228              		.loc 1 660 6 is_stmt 0 view .LVU756
 2229 0144 A91C     		adds	r1, r5, #2
 2230 0146 3046     		mov	r0, r6
 2231 0148 FFF7FEFF 		bl	arith_encode
ARM GAS  /var/folders/mq/wg13gp494590nh4zyt09lxf00000gn/T//ccanc9wU.s 			page 65


 2232              	.LVL242:
 660:Middlewares/Third_Party/LibJPEG/source/jcarith.c **** 	  else {			/* newly nonzero coef */
 2233              		.loc 1 660 6 view .LVU757
 2234 014c E2E7     		b	.L148
 2235              	.LVL243:
 2236              	.L149:
 662:Middlewares/Third_Party/LibJPEG/source/jcarith.c **** 	    arith_encode(cinfo, entropy->fixed_bin, 1);
 2237              		.loc 1 662 6 is_stmt 1 view .LVU758
 2238 014e 0122     		movs	r2, #1
 2239              	.LVL244:
 662:Middlewares/Third_Party/LibJPEG/source/jcarith.c **** 	    arith_encode(cinfo, entropy->fixed_bin, 1);
 2240              		.loc 1 662 6 is_stmt 0 view .LVU759
 2241 0150 A918     		adds	r1, r5, r2
 2242 0152 3046     		mov	r0, r6
 2243 0154 FFF7FEFF 		bl	arith_encode
 2244              	.LVL245:
 663:Middlewares/Third_Party/LibJPEG/source/jcarith.c **** 	  }
 2245              		.loc 1 663 6 is_stmt 1 view .LVU760
 2246 0158 0122     		movs	r2, #1
 2247 015a 0BF1CC01 		add	r1, fp, #204
 2248 015e 3046     		mov	r0, r6
 2249 0160 FFF7FEFF 		bl	arith_encode
 2250              	.LVL246:
 2251 0164 D6E7     		b	.L148
 2252              	.LVL247:
 2253              	.L159:
 672:Middlewares/Third_Party/LibJPEG/source/jcarith.c ****     st = entropy->ac_stats[tbl] + 3 * (k - 1);
 2254              		.loc 1 672 3 view .LVU761
 672:Middlewares/Third_Party/LibJPEG/source/jcarith.c ****     st = entropy->ac_stats[tbl] + 3 * (k - 1);
 2255              		.loc 1 672 17 is_stmt 0 view .LVU762
 2256 0166 D6F86C31 		ldr	r3, [r6, #364]
 672:Middlewares/Third_Party/LibJPEG/source/jcarith.c ****     st = entropy->ac_stats[tbl] + 3 * (k - 1);
 2257              		.loc 1 672 6 view .LVU763
 2258 016a A342     		cmp	r3, r4
 2259 016c 03DA     		bge	.L160
 2260              	.LVL248:
 2261              	.L152:
 677:Middlewares/Third_Party/LibJPEG/source/jcarith.c **** }
 2262              		.loc 1 677 3 is_stmt 1 view .LVU764
 678:Middlewares/Third_Party/LibJPEG/source/jcarith.c **** 
 2263              		.loc 1 678 1 is_stmt 0 view .LVU765
 2264 016e 0120     		movs	r0, #1
 2265 0170 03B0     		add	sp, sp, #12
 2266              	.LCFI10:
 2267              		.cfi_remember_state
 2268              		.cfi_def_cfa_offset 36
 2269              		@ sp needed
 2270 0172 BDE8F08F 		pop	{r4, r5, r6, r7, r8, r9, r10, fp, pc}
 2271              	.LVL249:
 2272              	.L160:
 2273              	.LCFI11:
 2274              		.cfi_restore_state
 673:Middlewares/Third_Party/LibJPEG/source/jcarith.c ****     arith_encode(cinfo, st, 1);
 2275              		.loc 1 673 5 is_stmt 1 view .LVU766
 673:Middlewares/Third_Party/LibJPEG/source/jcarith.c ****     arith_encode(cinfo, st, 1);
 2276              		.loc 1 673 27 is_stmt 0 view .LVU767
 2277 0176 019B     		ldr	r3, [sp, #4]
ARM GAS  /var/folders/mq/wg13gp494590nh4zyt09lxf00000gn/T//ccanc9wU.s 			page 66


 2278 0178 2233     		adds	r3, r3, #34
 2279 017a 0BEB830B 		add	fp, fp, r3, lsl #2
 2280              	.LVL250:
 673:Middlewares/Third_Party/LibJPEG/source/jcarith.c ****     arith_encode(cinfo, st, 1);
 2281              		.loc 1 673 27 view .LVU768
 2282 017e DBF80410 		ldr	r1, [fp, #4]
 673:Middlewares/Third_Party/LibJPEG/source/jcarith.c ****     arith_encode(cinfo, st, 1);
 2283              		.loc 1 673 42 view .LVU769
 2284 0182 013C     		subs	r4, r4, #1
 2285              	.LVL251:
 673:Middlewares/Third_Party/LibJPEG/source/jcarith.c ****     arith_encode(cinfo, st, 1);
 2286              		.loc 1 673 37 view .LVU770
 2287 0184 04EB4404 		add	r4, r4, r4, lsl #1
 2288              	.LVL252:
 674:Middlewares/Third_Party/LibJPEG/source/jcarith.c ****   }
 2289              		.loc 1 674 5 is_stmt 1 view .LVU771
 2290 0188 0122     		movs	r2, #1
 2291 018a 2144     		add	r1, r1, r4
 2292              	.LVL253:
 674:Middlewares/Third_Party/LibJPEG/source/jcarith.c ****   }
 2293              		.loc 1 674 5 is_stmt 0 view .LVU772
 2294 018c 3046     		mov	r0, r6
 2295 018e FFF7FEFF 		bl	arith_encode
 2296              	.LVL254:
 674:Middlewares/Third_Party/LibJPEG/source/jcarith.c ****   }
 2297              		.loc 1 674 5 view .LVU773
 2298 0192 ECE7     		b	.L152
 2299              		.cfi_endproc
 2300              	.LFE154:
 2302              		.section	.text.encode_mcu_DC_refine,"ax",%progbits
 2303              		.align	1
 2304              		.syntax unified
 2305              		.thumb
 2306              		.thumb_func
 2308              	encode_mcu_DC_refine:
 2309              	.LVL255:
 2310              	.LFB153:
 556:Middlewares/Third_Party/LibJPEG/source/jcarith.c ****   arith_entropy_ptr entropy = (arith_entropy_ptr) cinfo->entropy;
 2311              		.loc 1 556 1 is_stmt 1 view -0
 2312              		.cfi_startproc
 2313              		@ args = 0, pretend = 0, frame = 0
 2314              		@ frame_needed = 0, uses_anonymous_args = 0
 556:Middlewares/Third_Party/LibJPEG/source/jcarith.c ****   arith_entropy_ptr entropy = (arith_entropy_ptr) cinfo->entropy;
 2315              		.loc 1 556 1 is_stmt 0 view .LVU775
 2316 0000 2DE9F041 		push	{r4, r5, r6, r7, r8, lr}
 2317              	.LCFI12:
 2318              		.cfi_def_cfa_offset 24
 2319              		.cfi_offset 4, -24
 2320              		.cfi_offset 5, -20
 2321              		.cfi_offset 6, -16
 2322              		.cfi_offset 7, -12
 2323              		.cfi_offset 8, -8
 2324              		.cfi_offset 14, -4
 2325 0004 0546     		mov	r5, r0
 2326 0006 0F46     		mov	r7, r1
 557:Middlewares/Third_Party/LibJPEG/source/jcarith.c ****   unsigned char *st;
 2327              		.loc 1 557 3 is_stmt 1 view .LVU776
ARM GAS  /var/folders/mq/wg13gp494590nh4zyt09lxf00000gn/T//ccanc9wU.s 			page 67


 557:Middlewares/Third_Party/LibJPEG/source/jcarith.c ****   unsigned char *st;
 2328              		.loc 1 557 21 is_stmt 0 view .LVU777
 2329 0008 D0F8A461 		ldr	r6, [r0, #420]
 2330              	.LVL256:
 558:Middlewares/Third_Party/LibJPEG/source/jcarith.c ****   int Al, blkn;
 2331              		.loc 1 558 3 is_stmt 1 view .LVU778
 559:Middlewares/Third_Party/LibJPEG/source/jcarith.c **** 
 2332              		.loc 1 559 3 view .LVU779
 562:Middlewares/Third_Party/LibJPEG/source/jcarith.c ****     if (entropy->restarts_to_go == 0) {
 2333              		.loc 1 562 3 view .LVU780
 562:Middlewares/Third_Party/LibJPEG/source/jcarith.c ****     if (entropy->restarts_to_go == 0) {
 2334              		.loc 1 562 12 is_stmt 0 view .LVU781
 2335 000c D0F8EC30 		ldr	r3, [r0, #236]
 562:Middlewares/Third_Party/LibJPEG/source/jcarith.c ****     if (entropy->restarts_to_go == 0) {
 2336              		.loc 1 562 6 view .LVU782
 2337 0010 23B1     		cbz	r3, .L162
 563:Middlewares/Third_Party/LibJPEG/source/jcarith.c ****       emit_restart(cinfo, entropy->next_restart_num);
 2338              		.loc 1 563 5 is_stmt 1 view .LVU783
 563:Middlewares/Third_Party/LibJPEG/source/jcarith.c ****       emit_restart(cinfo, entropy->next_restart_num);
 2339              		.loc 1 563 16 is_stmt 0 view .LVU784
 2340 0012 736C     		ldr	r3, [r6, #68]
 563:Middlewares/Third_Party/LibJPEG/source/jcarith.c ****       emit_restart(cinfo, entropy->next_restart_num);
 2341              		.loc 1 563 8 view .LVU785
 2342 0014 3BB1     		cbz	r3, .L167
 2343              	.LVL257:
 2344              	.L163:
 569:Middlewares/Third_Party/LibJPEG/source/jcarith.c ****   }
 2345              		.loc 1 569 5 is_stmt 1 view .LVU786
 569:Middlewares/Third_Party/LibJPEG/source/jcarith.c ****   }
 2346              		.loc 1 569 12 is_stmt 0 view .LVU787
 2347 0016 736C     		ldr	r3, [r6, #68]
 569:Middlewares/Third_Party/LibJPEG/source/jcarith.c ****   }
 2348              		.loc 1 569 28 view .LVU788
 2349 0018 013B     		subs	r3, r3, #1
 2350 001a 7364     		str	r3, [r6, #68]
 2351              	.L162:
 572:Middlewares/Third_Party/LibJPEG/source/jcarith.c ****   Al = cinfo->Al;
 2352              		.loc 1 572 3 is_stmt 1 view .LVU789
 572:Middlewares/Third_Party/LibJPEG/source/jcarith.c ****   Al = cinfo->Al;
 2353              		.loc 1 572 6 is_stmt 0 view .LVU790
 2354 001c CC36     		adds	r6, r6, #204
 2355              	.LVL258:
 573:Middlewares/Third_Party/LibJPEG/source/jcarith.c **** 
 2356              		.loc 1 573 3 is_stmt 1 view .LVU791
 573:Middlewares/Third_Party/LibJPEG/source/jcarith.c **** 
 2357              		.loc 1 573 6 is_stmt 0 view .LVU792
 2358 001e D5F87481 		ldr	r8, [r5, #372]
 2359              	.LVL259:
 576:Middlewares/Third_Party/LibJPEG/source/jcarith.c ****     /* We simply emit the Al'th bit of the DC coefficient value. */
 2360              		.loc 1 576 3 is_stmt 1 view .LVU793
 576:Middlewares/Third_Party/LibJPEG/source/jcarith.c ****     /* We simply emit the Al'th bit of the DC coefficient value. */
 2361              		.loc 1 576 13 is_stmt 0 view .LVU794
 2362 0022 0024     		movs	r4, #0
 576:Middlewares/Third_Party/LibJPEG/source/jcarith.c ****     /* We simply emit the Al'th bit of the DC coefficient value. */
 2363              		.loc 1 576 3 view .LVU795
 2364 0024 19E0     		b	.L164
 2365              	.LVL260:
ARM GAS  /var/folders/mq/wg13gp494590nh4zyt09lxf00000gn/T//ccanc9wU.s 			page 68


 2366              	.L167:
 564:Middlewares/Third_Party/LibJPEG/source/jcarith.c ****       entropy->restarts_to_go = cinfo->restart_interval;
 2367              		.loc 1 564 7 is_stmt 1 view .LVU796
 2368 0026 B16C     		ldr	r1, [r6, #72]
 2369              	.LVL261:
 564:Middlewares/Third_Party/LibJPEG/source/jcarith.c ****       entropy->restarts_to_go = cinfo->restart_interval;
 2370              		.loc 1 564 7 is_stmt 0 view .LVU797
 2371 0028 FFF7FEFF 		bl	emit_restart
 2372              	.LVL262:
 565:Middlewares/Third_Party/LibJPEG/source/jcarith.c ****       entropy->next_restart_num++;
 2373              		.loc 1 565 7 is_stmt 1 view .LVU798
 565:Middlewares/Third_Party/LibJPEG/source/jcarith.c ****       entropy->next_restart_num++;
 2374              		.loc 1 565 38 is_stmt 0 view .LVU799
 2375 002c D5F8EC30 		ldr	r3, [r5, #236]
 565:Middlewares/Third_Party/LibJPEG/source/jcarith.c ****       entropy->next_restart_num++;
 2376              		.loc 1 565 31 view .LVU800
 2377 0030 7364     		str	r3, [r6, #68]
 566:Middlewares/Third_Party/LibJPEG/source/jcarith.c ****       entropy->next_restart_num &= 7;
 2378              		.loc 1 566 7 is_stmt 1 view .LVU801
 566:Middlewares/Third_Party/LibJPEG/source/jcarith.c ****       entropy->next_restart_num &= 7;
 2379              		.loc 1 566 14 is_stmt 0 view .LVU802
 2380 0032 B36C     		ldr	r3, [r6, #72]
 566:Middlewares/Third_Party/LibJPEG/source/jcarith.c ****       entropy->next_restart_num &= 7;
 2381              		.loc 1 566 32 view .LVU803
 2382 0034 0133     		adds	r3, r3, #1
 2383 0036 B364     		str	r3, [r6, #72]
 567:Middlewares/Third_Party/LibJPEG/source/jcarith.c ****     }
 2384              		.loc 1 567 7 is_stmt 1 view .LVU804
 567:Middlewares/Third_Party/LibJPEG/source/jcarith.c ****     }
 2385              		.loc 1 567 33 is_stmt 0 view .LVU805
 2386 0038 03F00703 		and	r3, r3, #7
 2387 003c B364     		str	r3, [r6, #72]
 2388 003e EAE7     		b	.L163
 2389              	.LVL263:
 2390              	.L165:
 578:Middlewares/Third_Party/LibJPEG/source/jcarith.c ****   }
 2391              		.loc 1 578 5 is_stmt 1 view .LVU806
 578:Middlewares/Third_Party/LibJPEG/source/jcarith.c ****   }
 2392              		.loc 1 578 38 is_stmt 0 view .LVU807
 2393 0040 57F82430 		ldr	r3, [r7, r4, lsl #2]
 578:Middlewares/Third_Party/LibJPEG/source/jcarith.c ****   }
 2394              		.loc 1 578 47 view .LVU808
 2395 0044 B3F90020 		ldrsh	r2, [r3]
 578:Middlewares/Third_Party/LibJPEG/source/jcarith.c ****   }
 2396              		.loc 1 578 51 view .LVU809
 2397 0048 42FA08F2 		asr	r2, r2, r8
 578:Middlewares/Third_Party/LibJPEG/source/jcarith.c ****   }
 2398              		.loc 1 578 5 view .LVU810
 2399 004c 02F00102 		and	r2, r2, #1
 2400 0050 3146     		mov	r1, r6
 2401 0052 2846     		mov	r0, r5
 2402 0054 FFF7FEFF 		bl	arith_encode
 2403              	.LVL264:
 576:Middlewares/Third_Party/LibJPEG/source/jcarith.c ****     /* We simply emit the Al'th bit of the DC coefficient value. */
 2404              		.loc 1 576 51 is_stmt 1 discriminator 3 view .LVU811
 2405 0058 0134     		adds	r4, r4, #1
 2406              	.LVL265:
ARM GAS  /var/folders/mq/wg13gp494590nh4zyt09lxf00000gn/T//ccanc9wU.s 			page 69


 2407              	.L164:
 576:Middlewares/Third_Party/LibJPEG/source/jcarith.c ****     /* We simply emit the Al'th bit of the DC coefficient value. */
 2408              		.loc 1 576 23 discriminator 1 view .LVU812
 576:Middlewares/Third_Party/LibJPEG/source/jcarith.c ****     /* We simply emit the Al'th bit of the DC coefficient value. */
 2409              		.loc 1 576 30 is_stmt 0 discriminator 1 view .LVU813
 2410 005a D5F83C31 		ldr	r3, [r5, #316]
 576:Middlewares/Third_Party/LibJPEG/source/jcarith.c ****     /* We simply emit the Al'th bit of the DC coefficient value. */
 2411              		.loc 1 576 23 discriminator 1 view .LVU814
 2412 005e A342     		cmp	r3, r4
 2413 0060 EEDC     		bgt	.L165
 581:Middlewares/Third_Party/LibJPEG/source/jcarith.c **** }
 2414              		.loc 1 581 3 is_stmt 1 view .LVU815
 582:Middlewares/Third_Party/LibJPEG/source/jcarith.c **** 
 2415              		.loc 1 582 1 is_stmt 0 view .LVU816
 2416 0062 0120     		movs	r0, #1
 2417 0064 BDE8F081 		pop	{r4, r5, r6, r7, r8, pc}
 582:Middlewares/Third_Party/LibJPEG/source/jcarith.c **** 
 2418              		.loc 1 582 1 view .LVU817
 2419              		.cfi_endproc
 2420              	.LFE153:
 2422              		.section	.text.encode_mcu_AC_first,"ax",%progbits
 2423              		.align	1
 2424              		.syntax unified
 2425              		.thumb
 2426              		.thumb_func
 2428              	encode_mcu_AC_first:
 2429              	.LVL266:
 2430              	.LFB152:
 454:Middlewares/Third_Party/LibJPEG/source/jcarith.c ****   arith_entropy_ptr entropy = (arith_entropy_ptr) cinfo->entropy;
 2431              		.loc 1 454 1 is_stmt 1 view -0
 2432              		.cfi_startproc
 2433              		@ args = 0, pretend = 0, frame = 16
 2434              		@ frame_needed = 0, uses_anonymous_args = 0
 454:Middlewares/Third_Party/LibJPEG/source/jcarith.c ****   arith_entropy_ptr entropy = (arith_entropy_ptr) cinfo->entropy;
 2435              		.loc 1 454 1 is_stmt 0 view .LVU819
 2436 0000 2DE9F04F 		push	{r4, r5, r6, r7, r8, r9, r10, fp, lr}
 2437              	.LCFI13:
 2438              		.cfi_def_cfa_offset 36
 2439              		.cfi_offset 4, -36
 2440              		.cfi_offset 5, -32
 2441              		.cfi_offset 6, -28
 2442              		.cfi_offset 7, -24
 2443              		.cfi_offset 8, -20
 2444              		.cfi_offset 9, -16
 2445              		.cfi_offset 10, -12
 2446              		.cfi_offset 11, -8
 2447              		.cfi_offset 14, -4
 2448 0004 85B0     		sub	sp, sp, #20
 2449              	.LCFI14:
 2450              		.cfi_def_cfa_offset 56
 2451 0006 0746     		mov	r7, r0
 2452 0008 0C46     		mov	r4, r1
 455:Middlewares/Third_Party/LibJPEG/source/jcarith.c ****   JBLOCKROW block;
 2453              		.loc 1 455 3 is_stmt 1 view .LVU820
 455:Middlewares/Third_Party/LibJPEG/source/jcarith.c ****   JBLOCKROW block;
 2454              		.loc 1 455 21 is_stmt 0 view .LVU821
 2455 000a D0F8A4A1 		ldr	r10, [r0, #420]
ARM GAS  /var/folders/mq/wg13gp494590nh4zyt09lxf00000gn/T//ccanc9wU.s 			page 70


 2456              	.LVL267:
 456:Middlewares/Third_Party/LibJPEG/source/jcarith.c ****   unsigned char *st;
 2457              		.loc 1 456 3 is_stmt 1 view .LVU822
 457:Middlewares/Third_Party/LibJPEG/source/jcarith.c ****   int tbl, k, ke;
 2458              		.loc 1 457 3 view .LVU823
 458:Middlewares/Third_Party/LibJPEG/source/jcarith.c ****   int v, v2, m;
 2459              		.loc 1 458 3 view .LVU824
 459:Middlewares/Third_Party/LibJPEG/source/jcarith.c ****   const int * natural_order;
 2460              		.loc 1 459 3 view .LVU825
 460:Middlewares/Third_Party/LibJPEG/source/jcarith.c **** 
 2461              		.loc 1 460 3 view .LVU826
 463:Middlewares/Third_Party/LibJPEG/source/jcarith.c ****     if (entropy->restarts_to_go == 0) {
 2462              		.loc 1 463 3 view .LVU827
 463:Middlewares/Third_Party/LibJPEG/source/jcarith.c ****     if (entropy->restarts_to_go == 0) {
 2463              		.loc 1 463 12 is_stmt 0 view .LVU828
 2464 000e D0F8EC30 		ldr	r3, [r0, #236]
 463:Middlewares/Third_Party/LibJPEG/source/jcarith.c ****     if (entropy->restarts_to_go == 0) {
 2465              		.loc 1 463 6 view .LVU829
 2466 0012 3BB1     		cbz	r3, .L169
 464:Middlewares/Third_Party/LibJPEG/source/jcarith.c ****       emit_restart(cinfo, entropy->next_restart_num);
 2467              		.loc 1 464 5 is_stmt 1 view .LVU830
 464:Middlewares/Third_Party/LibJPEG/source/jcarith.c ****       emit_restart(cinfo, entropy->next_restart_num);
 2468              		.loc 1 464 16 is_stmt 0 view .LVU831
 2469 0014 DAF84430 		ldr	r3, [r10, #68]
 464:Middlewares/Third_Party/LibJPEG/source/jcarith.c ****       emit_restart(cinfo, entropy->next_restart_num);
 2470              		.loc 1 464 8 view .LVU832
 2471 0018 7BB1     		cbz	r3, .L194
 2472              	.LVL268:
 2473              	.L170:
 470:Middlewares/Third_Party/LibJPEG/source/jcarith.c ****   }
 2474              		.loc 1 470 5 is_stmt 1 view .LVU833
 470:Middlewares/Third_Party/LibJPEG/source/jcarith.c ****   }
 2475              		.loc 1 470 12 is_stmt 0 view .LVU834
 2476 001a DAF84430 		ldr	r3, [r10, #68]
 470:Middlewares/Third_Party/LibJPEG/source/jcarith.c ****   }
 2477              		.loc 1 470 28 view .LVU835
 2478 001e 013B     		subs	r3, r3, #1
 2479 0020 CAF84430 		str	r3, [r10, #68]
 2480              	.L169:
 473:Middlewares/Third_Party/LibJPEG/source/jcarith.c **** 
 2481              		.loc 1 473 3 is_stmt 1 view .LVU836
 473:Middlewares/Third_Party/LibJPEG/source/jcarith.c **** 
 2482              		.loc 1 473 17 is_stmt 0 view .LVU837
 2483 0024 D7F87CB1 		ldr	fp, [r7, #380]
 2484              	.LVL269:
 476:Middlewares/Third_Party/LibJPEG/source/jcarith.c ****   tbl = cinfo->cur_comp_info[0]->ac_tbl_no;
 2485              		.loc 1 476 3 is_stmt 1 view .LVU838
 476:Middlewares/Third_Party/LibJPEG/source/jcarith.c ****   tbl = cinfo->cur_comp_info[0]->ac_tbl_no;
 2486              		.loc 1 476 9 is_stmt 0 view .LVU839
 2487 0028 D4F80090 		ldr	r9, [r4]
 2488              	.LVL270:
 477:Middlewares/Third_Party/LibJPEG/source/jcarith.c **** 
 2489              		.loc 1 477 3 is_stmt 1 view .LVU840
 477:Middlewares/Third_Party/LibJPEG/source/jcarith.c **** 
 2490              		.loc 1 477 29 is_stmt 0 view .LVU841
 2491 002c D7F82431 		ldr	r3, [r7, #292]
 477:Middlewares/Third_Party/LibJPEG/source/jcarith.c **** 
ARM GAS  /var/folders/mq/wg13gp494590nh4zyt09lxf00000gn/T//ccanc9wU.s 			page 71


 2492              		.loc 1 477 7 view .LVU842
 2493 0030 9B69     		ldr	r3, [r3, #24]
 2494 0032 0193     		str	r3, [sp, #4]
 2495              	.LVL271:
 482:Middlewares/Third_Party/LibJPEG/source/jcarith.c ****     /* We must apply the point transform by Al.  For AC coefficients this
 2496              		.loc 1 482 3 is_stmt 1 view .LVU843
 482:Middlewares/Third_Party/LibJPEG/source/jcarith.c ****     /* We must apply the point transform by Al.  For AC coefficients this
 2497              		.loc 1 482 11 is_stmt 0 view .LVU844
 2498 0034 D7F86C31 		ldr	r3, [r7, #364]
 2499              	.LVL272:
 482:Middlewares/Third_Party/LibJPEG/source/jcarith.c ****     /* We must apply the point transform by Al.  For AC coefficients this
 2500              		.loc 1 482 3 view .LVU845
 2501 0038 17E0     		b	.L171
 2502              	.LVL273:
 2503              	.L194:
 465:Middlewares/Third_Party/LibJPEG/source/jcarith.c ****       entropy->restarts_to_go = cinfo->restart_interval;
 2504              		.loc 1 465 7 is_stmt 1 view .LVU846
 2505 003a DAF84810 		ldr	r1, [r10, #72]
 2506              	.LVL274:
 465:Middlewares/Third_Party/LibJPEG/source/jcarith.c ****       entropy->restarts_to_go = cinfo->restart_interval;
 2507              		.loc 1 465 7 is_stmt 0 view .LVU847
 2508 003e FFF7FEFF 		bl	emit_restart
 2509              	.LVL275:
 466:Middlewares/Third_Party/LibJPEG/source/jcarith.c ****       entropy->next_restart_num++;
 2510              		.loc 1 466 7 is_stmt 1 view .LVU848
 466:Middlewares/Third_Party/LibJPEG/source/jcarith.c ****       entropy->next_restart_num++;
 2511              		.loc 1 466 38 is_stmt 0 view .LVU849
 2512 0042 D7F8EC30 		ldr	r3, [r7, #236]
 466:Middlewares/Third_Party/LibJPEG/source/jcarith.c ****       entropy->next_restart_num++;
 2513              		.loc 1 466 31 view .LVU850
 2514 0046 CAF84430 		str	r3, [r10, #68]
 467:Middlewares/Third_Party/LibJPEG/source/jcarith.c ****       entropy->next_restart_num &= 7;
 2515              		.loc 1 467 7 is_stmt 1 view .LVU851
 467:Middlewares/Third_Party/LibJPEG/source/jcarith.c ****       entropy->next_restart_num &= 7;
 2516              		.loc 1 467 14 is_stmt 0 view .LVU852
 2517 004a DAF84830 		ldr	r3, [r10, #72]
 467:Middlewares/Third_Party/LibJPEG/source/jcarith.c ****       entropy->next_restart_num &= 7;
 2518              		.loc 1 467 32 view .LVU853
 2519 004e 0133     		adds	r3, r3, #1
 2520 0050 CAF84830 		str	r3, [r10, #72]
 468:Middlewares/Third_Party/LibJPEG/source/jcarith.c ****     }
 2521              		.loc 1 468 7 is_stmt 1 view .LVU854
 468:Middlewares/Third_Party/LibJPEG/source/jcarith.c ****     }
 2522              		.loc 1 468 33 is_stmt 0 view .LVU855
 2523 0054 03F00703 		and	r3, r3, #7
 2524 0058 CAF84830 		str	r3, [r10, #72]
 2525 005c DDE7     		b	.L170
 2526              	.LVL276:
 2527              	.L172:
 490:Middlewares/Third_Party/LibJPEG/source/jcarith.c ****       if (v >>= cinfo->Al) break;
 2528              		.loc 1 490 7 is_stmt 1 view .LVU856
 490:Middlewares/Third_Party/LibJPEG/source/jcarith.c ****       if (v >>= cinfo->Al) break;
 2529              		.loc 1 490 9 is_stmt 0 view .LVU857
 2530 005e 5242     		rsbs	r2, r2, #0
 2531              	.LVL277:
 491:Middlewares/Third_Party/LibJPEG/source/jcarith.c ****     }
 2532              		.loc 1 491 7 is_stmt 1 view .LVU858
ARM GAS  /var/folders/mq/wg13gp494590nh4zyt09lxf00000gn/T//ccanc9wU.s 			page 72


 491:Middlewares/Third_Party/LibJPEG/source/jcarith.c ****     }
 2533              		.loc 1 491 22 is_stmt 0 view .LVU859
 2534 0060 D7F87411 		ldr	r1, [r7, #372]
 2535              	.LVL278:
 491:Middlewares/Third_Party/LibJPEG/source/jcarith.c ****     }
 2536              		.loc 1 491 10 view .LVU860
 2537 0064 0A41     		asrs	r2, r2, r1
 2538              	.LVL279:
 491:Middlewares/Third_Party/LibJPEG/source/jcarith.c ****     }
 2539              		.loc 1 491 10 view .LVU861
 2540 0066 0CD1     		bne	.L173
 2541              	.LVL280:
 2542              	.L174:
 482:Middlewares/Third_Party/LibJPEG/source/jcarith.c ****     /* We must apply the point transform by Al.  For AC coefficients this
 2543              		.loc 1 482 34 is_stmt 1 discriminator 2 view .LVU862
 2544 0068 013B     		subs	r3, r3, #1
 2545              	.LVL281:
 2546              	.L171:
 482:Middlewares/Third_Party/LibJPEG/source/jcarith.c ****     /* We must apply the point transform by Al.  For AC coefficients this
 2547              		.loc 1 482 27 discriminator 1 view .LVU863
 2548 006a 002B     		cmp	r3, #0
 2549 006c 09DD     		ble	.L173
 487:Middlewares/Third_Party/LibJPEG/source/jcarith.c ****       if (v >>= cinfo->Al) break;
 2550              		.loc 1 487 5 view .LVU864
 487:Middlewares/Third_Party/LibJPEG/source/jcarith.c ****       if (v >>= cinfo->Al) break;
 2551              		.loc 1 487 36 is_stmt 0 view .LVU865
 2552 006e 5BF82320 		ldr	r2, [fp, r3, lsl #2]
 487:Middlewares/Third_Party/LibJPEG/source/jcarith.c ****       if (v >>= cinfo->Al) break;
 2553              		.loc 1 487 22 view .LVU866
 2554 0072 39F91220 		ldrsh	r2, [r9, r2, lsl #1]
 2555              	.LVL282:
 487:Middlewares/Third_Party/LibJPEG/source/jcarith.c ****       if (v >>= cinfo->Al) break;
 2556              		.loc 1 487 8 view .LVU867
 2557 0076 002A     		cmp	r2, #0
 2558 0078 F1DB     		blt	.L172
 488:Middlewares/Third_Party/LibJPEG/source/jcarith.c ****     } else {
 2559              		.loc 1 488 7 is_stmt 1 view .LVU868
 488:Middlewares/Third_Party/LibJPEG/source/jcarith.c ****     } else {
 2560              		.loc 1 488 22 is_stmt 0 view .LVU869
 2561 007a D7F87411 		ldr	r1, [r7, #372]
 2562              	.LVL283:
 488:Middlewares/Third_Party/LibJPEG/source/jcarith.c ****     } else {
 2563              		.loc 1 488 10 view .LVU870
 2564 007e 0A41     		asrs	r2, r2, r1
 2565              	.LVL284:
 488:Middlewares/Third_Party/LibJPEG/source/jcarith.c ****     } else {
 2566              		.loc 1 488 10 view .LVU871
 2567 0080 F2D0     		beq	.L174
 2568              	.LVL285:
 2569              	.L173:
 495:Middlewares/Third_Party/LibJPEG/source/jcarith.c ****     st = entropy->ac_stats[tbl] + 3 * (k - 1);
 2570              		.loc 1 495 3 is_stmt 1 view .LVU872
 495:Middlewares/Third_Party/LibJPEG/source/jcarith.c ****     st = entropy->ac_stats[tbl] + 3 * (k - 1);
 2571              		.loc 1 495 10 is_stmt 0 view .LVU873
 2572 0082 D7F86861 		ldr	r6, [r7, #360]
 2573              	.LVL286:
 495:Middlewares/Third_Party/LibJPEG/source/jcarith.c ****     st = entropy->ac_stats[tbl] + 3 * (k - 1);
ARM GAS  /var/folders/mq/wg13gp494590nh4zyt09lxf00000gn/T//ccanc9wU.s 			page 73


 2574              		.loc 1 495 10 view .LVU874
 2575 0086 0093     		str	r3, [sp]
 495:Middlewares/Third_Party/LibJPEG/source/jcarith.c ****     st = entropy->ac_stats[tbl] + 3 * (k - 1);
 2576              		.loc 1 495 3 view .LVU875
 2577 0088 76E0     		b	.L176
 2578              	.LVL287:
 2579              	.L177:
