ARM GAS  /var/folders/mq/wg13gp494590nh4zyt09lxf00000gn/T//ccSIaohd.s 			page 1


   1              		.cpu cortex-m7
   2              		.arch armv7e-m
   3              		.fpu fpv5-d16
   4              		.eabi_attribute 28, 1
   5              		.eabi_attribute 20, 1
   6              		.eabi_attribute 21, 1
   7              		.eabi_attribute 23, 3
   8              		.eabi_attribute 24, 1
   9              		.eabi_attribute 25, 1
  10              		.eabi_attribute 26, 1
  11              		.eabi_attribute 30, 1
  12              		.eabi_attribute 34, 1
  13              		.eabi_attribute 18, 4
  14              		.file	"jdarith.c"
  15              		.text
  16              	.Ltext0:
  17              		.cfi_sections	.debug_frame
  18              		.file 1 "Middlewares/Third_Party/LibJPEG/source/jdarith.c"
  19              		.section	.text.get_byte,"ax",%progbits
  20              		.align	1
  21              		.syntax unified
  22              		.thumb
  23              		.thumb_func
  25              	get_byte:
  26              	.LVL0:
  27              	.LFB147:
   1:Middlewares/Third_Party/LibJPEG/source/jdarith.c **** /*
   2:Middlewares/Third_Party/LibJPEG/source/jdarith.c ****  * jdarith.c
   3:Middlewares/Third_Party/LibJPEG/source/jdarith.c ****  *
   4:Middlewares/Third_Party/LibJPEG/source/jdarith.c ****  * Developed 1997-2011 by Guido Vollbeding.
   5:Middlewares/Third_Party/LibJPEG/source/jdarith.c ****  * This file is part of the Independent JPEG Group's software.
   6:Middlewares/Third_Party/LibJPEG/source/jdarith.c ****  * For conditions of distribution and use, see the accompanying README file.
   7:Middlewares/Third_Party/LibJPEG/source/jdarith.c ****  *
   8:Middlewares/Third_Party/LibJPEG/source/jdarith.c ****  * This file contains portable arithmetic entropy decoding routines for JPEG
   9:Middlewares/Third_Party/LibJPEG/source/jdarith.c ****  * (implementing the ISO/IEC IS 10918-1 and CCITT Recommendation ITU-T T.81).
  10:Middlewares/Third_Party/LibJPEG/source/jdarith.c ****  *
  11:Middlewares/Third_Party/LibJPEG/source/jdarith.c ****  * Both sequential and progressive modes are supported in this single module.
  12:Middlewares/Third_Party/LibJPEG/source/jdarith.c ****  *
  13:Middlewares/Third_Party/LibJPEG/source/jdarith.c ****  * Suspension is not currently supported in this module.
  14:Middlewares/Third_Party/LibJPEG/source/jdarith.c ****  */
  15:Middlewares/Third_Party/LibJPEG/source/jdarith.c **** 
  16:Middlewares/Third_Party/LibJPEG/source/jdarith.c **** #define JPEG_INTERNALS
  17:Middlewares/Third_Party/LibJPEG/source/jdarith.c **** #include "jinclude.h"
  18:Middlewares/Third_Party/LibJPEG/source/jdarith.c **** #include "jpeglib.h"
  19:Middlewares/Third_Party/LibJPEG/source/jdarith.c **** 
  20:Middlewares/Third_Party/LibJPEG/source/jdarith.c **** 
  21:Middlewares/Third_Party/LibJPEG/source/jdarith.c **** /* Expanded entropy decoder object for arithmetic decoding. */
  22:Middlewares/Third_Party/LibJPEG/source/jdarith.c **** 
  23:Middlewares/Third_Party/LibJPEG/source/jdarith.c **** typedef struct {
  24:Middlewares/Third_Party/LibJPEG/source/jdarith.c ****   struct jpeg_entropy_decoder pub; /* public fields */
  25:Middlewares/Third_Party/LibJPEG/source/jdarith.c **** 
  26:Middlewares/Third_Party/LibJPEG/source/jdarith.c ****   INT32 c;       /* C register, base of coding interval + input bit buffer */
  27:Middlewares/Third_Party/LibJPEG/source/jdarith.c ****   INT32 a;               /* A register, normalized size of coding interval */
  28:Middlewares/Third_Party/LibJPEG/source/jdarith.c ****   int ct;     /* bit shift counter, # of bits left in bit buffer part of C */
  29:Middlewares/Third_Party/LibJPEG/source/jdarith.c ****                                                          /* init: ct = -16 */
  30:Middlewares/Third_Party/LibJPEG/source/jdarith.c ****                                                          /* run: ct = 0..7 */
  31:Middlewares/Third_Party/LibJPEG/source/jdarith.c ****                                                          /* error: ct = -1 */
ARM GAS  /var/folders/mq/wg13gp494590nh4zyt09lxf00000gn/T//ccSIaohd.s 			page 2


  32:Middlewares/Third_Party/LibJPEG/source/jdarith.c ****   int last_dc_val[MAX_COMPS_IN_SCAN]; /* last DC coef for each component */
  33:Middlewares/Third_Party/LibJPEG/source/jdarith.c ****   int dc_context[MAX_COMPS_IN_SCAN]; /* context index for DC conditioning */
  34:Middlewares/Third_Party/LibJPEG/source/jdarith.c **** 
  35:Middlewares/Third_Party/LibJPEG/source/jdarith.c ****   unsigned int restarts_to_go;	/* MCUs left in this restart interval */
  36:Middlewares/Third_Party/LibJPEG/source/jdarith.c **** 
  37:Middlewares/Third_Party/LibJPEG/source/jdarith.c ****   /* Pointers to statistics areas (these workspaces have image lifespan) */
  38:Middlewares/Third_Party/LibJPEG/source/jdarith.c ****   unsigned char * dc_stats[NUM_ARITH_TBLS];
  39:Middlewares/Third_Party/LibJPEG/source/jdarith.c ****   unsigned char * ac_stats[NUM_ARITH_TBLS];
  40:Middlewares/Third_Party/LibJPEG/source/jdarith.c **** 
  41:Middlewares/Third_Party/LibJPEG/source/jdarith.c ****   /* Statistics bin for coding with fixed probability 0.5 */
  42:Middlewares/Third_Party/LibJPEG/source/jdarith.c ****   unsigned char fixed_bin[4];
  43:Middlewares/Third_Party/LibJPEG/source/jdarith.c **** } arith_entropy_decoder;
  44:Middlewares/Third_Party/LibJPEG/source/jdarith.c **** 
  45:Middlewares/Third_Party/LibJPEG/source/jdarith.c **** typedef arith_entropy_decoder * arith_entropy_ptr;
  46:Middlewares/Third_Party/LibJPEG/source/jdarith.c **** 
  47:Middlewares/Third_Party/LibJPEG/source/jdarith.c **** /* The following two definitions specify the allocation chunk size
  48:Middlewares/Third_Party/LibJPEG/source/jdarith.c ****  * for the statistics area.
  49:Middlewares/Third_Party/LibJPEG/source/jdarith.c ****  * According to sections F.1.4.4.1.3 and F.1.4.4.2, we need at least
  50:Middlewares/Third_Party/LibJPEG/source/jdarith.c ****  * 49 statistics bins for DC, and 245 statistics bins for AC coding.
  51:Middlewares/Third_Party/LibJPEG/source/jdarith.c ****  *
  52:Middlewares/Third_Party/LibJPEG/source/jdarith.c ****  * We use a compact representation with 1 byte per statistics bin,
  53:Middlewares/Third_Party/LibJPEG/source/jdarith.c ****  * thus the numbers directly represent byte sizes.
  54:Middlewares/Third_Party/LibJPEG/source/jdarith.c ****  * This 1 byte per statistics bin contains the meaning of the MPS
  55:Middlewares/Third_Party/LibJPEG/source/jdarith.c ****  * (more probable symbol) in the highest bit (mask 0x80), and the
  56:Middlewares/Third_Party/LibJPEG/source/jdarith.c ****  * index into the probability estimation state machine table
  57:Middlewares/Third_Party/LibJPEG/source/jdarith.c ****  * in the lower bits (mask 0x7F).
  58:Middlewares/Third_Party/LibJPEG/source/jdarith.c ****  */
  59:Middlewares/Third_Party/LibJPEG/source/jdarith.c **** 
  60:Middlewares/Third_Party/LibJPEG/source/jdarith.c **** #define DC_STAT_BINS 64
  61:Middlewares/Third_Party/LibJPEG/source/jdarith.c **** #define AC_STAT_BINS 256
  62:Middlewares/Third_Party/LibJPEG/source/jdarith.c **** 
  63:Middlewares/Third_Party/LibJPEG/source/jdarith.c **** 
  64:Middlewares/Third_Party/LibJPEG/source/jdarith.c **** LOCAL(int)
  65:Middlewares/Third_Party/LibJPEG/source/jdarith.c **** get_byte (j_decompress_ptr cinfo)
  66:Middlewares/Third_Party/LibJPEG/source/jdarith.c **** /* Read next input byte; we do not support suspension in this module. */
  67:Middlewares/Third_Party/LibJPEG/source/jdarith.c **** {
  28              		.loc 1 67 1 view -0
  29              		.cfi_startproc
  30              		@ args = 0, pretend = 0, frame = 0
  31              		@ frame_needed = 0, uses_anonymous_args = 0
  32              		.loc 1 67 1 is_stmt 0 view .LVU1
  33 0000 38B5     		push	{r3, r4, r5, lr}
  34              	.LCFI0:
  35              		.cfi_def_cfa_offset 16
  36              		.cfi_offset 3, -16
  37              		.cfi_offset 4, -12
  38              		.cfi_offset 5, -8
  39              		.cfi_offset 14, -4
  68:Middlewares/Third_Party/LibJPEG/source/jdarith.c ****   struct jpeg_source_mgr * src = cinfo->src;
  40              		.loc 1 68 3 is_stmt 1 view .LVU2
  41              		.loc 1 68 28 is_stmt 0 view .LVU3
  42 0002 8469     		ldr	r4, [r0, #24]
  43              	.LVL1:
  69:Middlewares/Third_Party/LibJPEG/source/jdarith.c **** 
  70:Middlewares/Third_Party/LibJPEG/source/jdarith.c ****   if (src->bytes_in_buffer == 0)
  44              		.loc 1 70 3 is_stmt 1 view .LVU4
  45              		.loc 1 70 10 is_stmt 0 view .LVU5
ARM GAS  /var/folders/mq/wg13gp494590nh4zyt09lxf00000gn/T//ccSIaohd.s 			page 3


  46 0004 6368     		ldr	r3, [r4, #4]
  47              		.loc 1 70 6 view .LVU6
  48 0006 53B9     		cbnz	r3, .L2
  49 0008 0546     		mov	r5, r0
  71:Middlewares/Third_Party/LibJPEG/source/jdarith.c ****     if (! (*src->fill_input_buffer) (cinfo))
  50              		.loc 1 71 5 is_stmt 1 view .LVU7
  51              		.loc 1 71 12 is_stmt 0 view .LVU8
  52 000a E368     		ldr	r3, [r4, #12]
  53 000c 9847     		blx	r3
  54              	.LVL2:
  55              		.loc 1 71 8 discriminator 1 view .LVU9
  56 000e 30B9     		cbnz	r0, .L2
  72:Middlewares/Third_Party/LibJPEG/source/jdarith.c ****       ERREXIT(cinfo, JERR_CANT_SUSPEND);
  57              		.loc 1 72 7 is_stmt 1 view .LVU10
  58 0010 2B68     		ldr	r3, [r5]
  59 0012 1922     		movs	r2, #25
  60 0014 5A61     		str	r2, [r3, #20]
  61 0016 2B68     		ldr	r3, [r5]
  62 0018 1B68     		ldr	r3, [r3]
  63 001a 2846     		mov	r0, r5
  64 001c 9847     		blx	r3
  65              	.LVL3:
  66              	.L2:
  73:Middlewares/Third_Party/LibJPEG/source/jdarith.c ****   src->bytes_in_buffer--;
  67              		.loc 1 73 3 view .LVU11
  68              		.loc 1 73 6 is_stmt 0 view .LVU12
  69 001e 6368     		ldr	r3, [r4, #4]
  70              		.loc 1 73 23 view .LVU13
  71 0020 013B     		subs	r3, r3, #1
  72 0022 6360     		str	r3, [r4, #4]
  74:Middlewares/Third_Party/LibJPEG/source/jdarith.c ****   return GETJOCTET(*src->next_input_byte++);
  73              		.loc 1 74 3 is_stmt 1 view .LVU14
  74              		.loc 1 74 10 is_stmt 0 view .LVU15
  75 0024 2368     		ldr	r3, [r4]
  76 0026 5A1C     		adds	r2, r3, #1
  77 0028 2260     		str	r2, [r4]
  75:Middlewares/Third_Party/LibJPEG/source/jdarith.c **** }
  78              		.loc 1 75 1 view .LVU16
  79 002a 1878     		ldrb	r0, [r3]	@ zero_extendqisi2
  80 002c 38BD     		pop	{r3, r4, r5, pc}
  81              		.loc 1 75 1 view .LVU17
  82              		.cfi_endproc
  83              	.LFE147:
  85              		.section	.text.arith_decode,"ax",%progbits
  86              		.align	1
  87              		.syntax unified
  88              		.thumb
  89              		.thumb_func
  91              	arith_decode:
  92              	.LVL4:
  93              	.LFB148:
  76:Middlewares/Third_Party/LibJPEG/source/jdarith.c **** 
  77:Middlewares/Third_Party/LibJPEG/source/jdarith.c **** 
  78:Middlewares/Third_Party/LibJPEG/source/jdarith.c **** /*
  79:Middlewares/Third_Party/LibJPEG/source/jdarith.c ****  * The core arithmetic decoding routine (common in JPEG and JBIG).
  80:Middlewares/Third_Party/LibJPEG/source/jdarith.c ****  * This needs to go as fast as possible.
  81:Middlewares/Third_Party/LibJPEG/source/jdarith.c ****  * Machine-dependent optimization facilities
ARM GAS  /var/folders/mq/wg13gp494590nh4zyt09lxf00000gn/T//ccSIaohd.s 			page 4


  82:Middlewares/Third_Party/LibJPEG/source/jdarith.c ****  * are not utilized in this portable implementation.
  83:Middlewares/Third_Party/LibJPEG/source/jdarith.c ****  * However, this code should be fairly efficient and
  84:Middlewares/Third_Party/LibJPEG/source/jdarith.c ****  * may be a good base for further optimizations anyway.
  85:Middlewares/Third_Party/LibJPEG/source/jdarith.c ****  *
  86:Middlewares/Third_Party/LibJPEG/source/jdarith.c ****  * Return value is 0 or 1 (binary decision).
  87:Middlewares/Third_Party/LibJPEG/source/jdarith.c ****  *
  88:Middlewares/Third_Party/LibJPEG/source/jdarith.c ****  * Note: I've changed the handling of the code base & bit
  89:Middlewares/Third_Party/LibJPEG/source/jdarith.c ****  * buffer register C compared to other implementations
  90:Middlewares/Third_Party/LibJPEG/source/jdarith.c ****  * based on the standards layout & procedures.
  91:Middlewares/Third_Party/LibJPEG/source/jdarith.c ****  * While it also contains both the actual base of the
  92:Middlewares/Third_Party/LibJPEG/source/jdarith.c ****  * coding interval (16 bits) and the next-bits buffer,
  93:Middlewares/Third_Party/LibJPEG/source/jdarith.c ****  * the cut-point between these two parts is floating
  94:Middlewares/Third_Party/LibJPEG/source/jdarith.c ****  * (instead of fixed) with the bit shift counter CT.
  95:Middlewares/Third_Party/LibJPEG/source/jdarith.c ****  * Thus, we also need only one (variable instead of
  96:Middlewares/Third_Party/LibJPEG/source/jdarith.c ****  * fixed size) shift for the LPS/MPS decision, and
  97:Middlewares/Third_Party/LibJPEG/source/jdarith.c ****  * we can get away with any renormalization update
  98:Middlewares/Third_Party/LibJPEG/source/jdarith.c ****  * of C (except for new data insertion, of course).
  99:Middlewares/Third_Party/LibJPEG/source/jdarith.c ****  *
 100:Middlewares/Third_Party/LibJPEG/source/jdarith.c ****  * I've also introduced a new scheme for accessing
 101:Middlewares/Third_Party/LibJPEG/source/jdarith.c ****  * the probability estimation state machine table,
 102:Middlewares/Third_Party/LibJPEG/source/jdarith.c ****  * derived from Markus Kuhn's JBIG implementation.
 103:Middlewares/Third_Party/LibJPEG/source/jdarith.c ****  */
 104:Middlewares/Third_Party/LibJPEG/source/jdarith.c **** 
 105:Middlewares/Third_Party/LibJPEG/source/jdarith.c **** LOCAL(int)
 106:Middlewares/Third_Party/LibJPEG/source/jdarith.c **** arith_decode (j_decompress_ptr cinfo, unsigned char *st)
 107:Middlewares/Third_Party/LibJPEG/source/jdarith.c **** {
  94              		.loc 1 107 1 is_stmt 1 view -0
  95              		.cfi_startproc
  96              		@ args = 0, pretend = 0, frame = 0
  97              		@ frame_needed = 0, uses_anonymous_args = 0
  98              		.loc 1 107 1 is_stmt 0 view .LVU19
  99 0000 2DE9F041 		push	{r4, r5, r6, r7, r8, lr}
 100              	.LCFI1:
 101              		.cfi_def_cfa_offset 24
 102              		.cfi_offset 4, -24
 103              		.cfi_offset 5, -20
 104              		.cfi_offset 6, -16
 105              		.cfi_offset 7, -12
 106              		.cfi_offset 8, -8
 107              		.cfi_offset 14, -4
 108 0004 0646     		mov	r6, r0
 109 0006 0D46     		mov	r5, r1
 108:Middlewares/Third_Party/LibJPEG/source/jdarith.c ****   register arith_entropy_ptr e = (arith_entropy_ptr) cinfo->entropy;
 110              		.loc 1 108 3 is_stmt 1 view .LVU20
 111              		.loc 1 108 30 is_stmt 0 view .LVU21
 112 0008 D0F8D041 		ldr	r4, [r0, #464]
 113              	.LVL5:
 109:Middlewares/Third_Party/LibJPEG/source/jdarith.c ****   register unsigned char nl, nm;
 114              		.loc 1 109 3 is_stmt 1 view .LVU22
 110:Middlewares/Third_Party/LibJPEG/source/jdarith.c ****   register INT32 qe, temp;
 115              		.loc 1 110 3 view .LVU23
 111:Middlewares/Third_Party/LibJPEG/source/jdarith.c ****   register int sv, data;
 116              		.loc 1 111 3 view .LVU24
 112:Middlewares/Third_Party/LibJPEG/source/jdarith.c **** 
 113:Middlewares/Third_Party/LibJPEG/source/jdarith.c ****   /* Renormalization & data input per section D.2.6 */
 114:Middlewares/Third_Party/LibJPEG/source/jdarith.c ****   while (e->a < 0x8000L) {
 117              		.loc 1 114 3 view .LVU25
ARM GAS  /var/folders/mq/wg13gp494590nh4zyt09lxf00000gn/T//ccSIaohd.s 			page 5


 118              		.loc 1 114 9 is_stmt 0 view .LVU26
 119 000c 12E0     		b	.L5
 120              	.LVL6:
 121              	.L17:
 115:Middlewares/Third_Party/LibJPEG/source/jdarith.c ****     if (--e->ct < 0) {
 116:Middlewares/Third_Party/LibJPEG/source/jdarith.c ****       /* Need to fetch next data byte */
 117:Middlewares/Third_Party/LibJPEG/source/jdarith.c ****       if (cinfo->unread_marker)
 118:Middlewares/Third_Party/LibJPEG/source/jdarith.c **** 	data = 0;		/* stuff zero data */
 119:Middlewares/Third_Party/LibJPEG/source/jdarith.c ****       else {
 120:Middlewares/Third_Party/LibJPEG/source/jdarith.c **** 	data = get_byte(cinfo);	/* read next input byte */
 122              		.loc 1 120 2 is_stmt 1 view .LVU27
 123              		.loc 1 120 9 is_stmt 0 view .LVU28
 124 000e 3046     		mov	r0, r6
 125 0010 FFF7FEFF 		bl	get_byte
 126              	.LVL7:
 127 0014 0746     		mov	r7, r0
 128              	.LVL8:
 121:Middlewares/Third_Party/LibJPEG/source/jdarith.c **** 	if (data == 0xFF) {	/* zero stuff or marker code */
 129              		.loc 1 121 2 is_stmt 1 view .LVU29
 130              		.loc 1 121 5 is_stmt 0 view .LVU30
 131 0016 FF28     		cmp	r0, #255
 132 0018 1BD1     		bne	.L7
 133              	.L8:
 122:Middlewares/Third_Party/LibJPEG/source/jdarith.c **** 	  do data = get_byte(cinfo);
 134              		.loc 1 122 4 is_stmt 1 view .LVU31
 135              		.loc 1 122 7 view .LVU32
 136              		.loc 1 122 14 is_stmt 0 view .LVU33
 137 001a 3046     		mov	r0, r6
 138              	.LVL9:
 139              		.loc 1 122 14 view .LVU34
 140 001c FFF7FEFF 		bl	get_byte
 141              	.LVL10:
 123:Middlewares/Third_Party/LibJPEG/source/jdarith.c **** 	  while (data == 0xFF);	/* swallow extra 0xFF bytes */
 142              		.loc 1 123 16 is_stmt 1 discriminator 1 view .LVU35
 143 0020 FF28     		cmp	r0, #255
 144 0022 FAD0     		beq	.L8
 124:Middlewares/Third_Party/LibJPEG/source/jdarith.c **** 	  if (data == 0)
 145              		.loc 1 124 4 view .LVU36
 146              		.loc 1 124 7 is_stmt 0 view .LVU37
 147 0024 A8B1     		cbz	r0, .L7
 125:Middlewares/Third_Party/LibJPEG/source/jdarith.c **** 	    data = 0xFF;	/* discard stuffed zero byte */
 126:Middlewares/Third_Party/LibJPEG/source/jdarith.c **** 	  else {
 127:Middlewares/Third_Party/LibJPEG/source/jdarith.c **** 	    /* Note: Different from the Huffman decoder, hitting
 128:Middlewares/Third_Party/LibJPEG/source/jdarith.c **** 	     * a marker while processing the compressed data
 129:Middlewares/Third_Party/LibJPEG/source/jdarith.c **** 	     * segment is legal in arithmetic coding.
 130:Middlewares/Third_Party/LibJPEG/source/jdarith.c **** 	     * The convention is to supply zero data
 131:Middlewares/Third_Party/LibJPEG/source/jdarith.c **** 	     * then until decoding is complete.
 132:Middlewares/Third_Party/LibJPEG/source/jdarith.c **** 	     */
 133:Middlewares/Third_Party/LibJPEG/source/jdarith.c **** 	    cinfo->unread_marker = data;
 148              		.loc 1 133 6 is_stmt 1 view .LVU38
 149              		.loc 1 133 27 is_stmt 0 view .LVU39
 150 0026 C6F8B401 		str	r0, [r6, #436]
 134:Middlewares/Third_Party/LibJPEG/source/jdarith.c **** 	    data = 0;
 151              		.loc 1 134 6 is_stmt 1 view .LVU40
 152              	.LVL11:
 153              		.loc 1 134 11 is_stmt 0 view .LVU41
 154 002a 4746     		mov	r7, r8
ARM GAS  /var/folders/mq/wg13gp494590nh4zyt09lxf00000gn/T//ccSIaohd.s 			page 6


 155 002c 11E0     		b	.L7
 156              	.LVL12:
 157              	.L6:
 135:Middlewares/Third_Party/LibJPEG/source/jdarith.c **** 	  }
 136:Middlewares/Third_Party/LibJPEG/source/jdarith.c **** 	}
 137:Middlewares/Third_Party/LibJPEG/source/jdarith.c ****       }
 138:Middlewares/Third_Party/LibJPEG/source/jdarith.c ****       e->c = (e->c << 8) | data; /* insert data into C register */
 139:Middlewares/Third_Party/LibJPEG/source/jdarith.c ****       if ((e->ct += 8) < 0)	 /* update bit shift counter */
 140:Middlewares/Third_Party/LibJPEG/source/jdarith.c **** 	/* Need more initial bytes */
 141:Middlewares/Third_Party/LibJPEG/source/jdarith.c **** 	if (++e->ct == 0)
 142:Middlewares/Third_Party/LibJPEG/source/jdarith.c **** 	  /* Got 2 initial bytes -> re-init A and exit loop */
 143:Middlewares/Third_Party/LibJPEG/source/jdarith.c **** 	  e->a = 0x8000L; /* => e->a = 0x10000L after loop exit */
 144:Middlewares/Third_Party/LibJPEG/source/jdarith.c ****     }
 145:Middlewares/Third_Party/LibJPEG/source/jdarith.c ****     e->a <<= 1;
 158              		.loc 1 145 5 is_stmt 1 view .LVU42
 159              		.loc 1 145 6 is_stmt 0 view .LVU43
 160 002e E368     		ldr	r3, [r4, #12]
 161              		.loc 1 145 10 view .LVU44
 162 0030 5B00     		lsls	r3, r3, #1
 163 0032 E360     		str	r3, [r4, #12]
 164              	.L5:
 114:Middlewares/Third_Party/LibJPEG/source/jdarith.c ****     if (--e->ct < 0) {
 165              		.loc 1 114 15 is_stmt 1 view .LVU45
 114:Middlewares/Third_Party/LibJPEG/source/jdarith.c ****     if (--e->ct < 0) {
 166              		.loc 1 114 11 is_stmt 0 view .LVU46
 167 0034 E368     		ldr	r3, [r4, #12]
 114:Middlewares/Third_Party/LibJPEG/source/jdarith.c ****     if (--e->ct < 0) {
 168              		.loc 1 114 15 view .LVU47
 169 0036 B3F5004F 		cmp	r3, #32768
 170 003a 1CDA     		bge	.L16
 115:Middlewares/Third_Party/LibJPEG/source/jdarith.c ****       /* Need to fetch next data byte */
 171              		.loc 1 115 5 is_stmt 1 view .LVU48
 115:Middlewares/Third_Party/LibJPEG/source/jdarith.c ****       /* Need to fetch next data byte */
 172              		.loc 1 115 12 is_stmt 0 view .LVU49
 173 003c 2369     		ldr	r3, [r4, #16]
 115:Middlewares/Third_Party/LibJPEG/source/jdarith.c ****       /* Need to fetch next data byte */
 174              		.loc 1 115 9 view .LVU50
 175 003e 013B     		subs	r3, r3, #1
 115:Middlewares/Third_Party/LibJPEG/source/jdarith.c ****       /* Need to fetch next data byte */
 176              		.loc 1 115 8 view .LVU51
 177 0040 2361     		str	r3, [r4, #16]
 178 0042 002B     		cmp	r3, #0
 179 0044 F3DA     		bge	.L6
 117:Middlewares/Third_Party/LibJPEG/source/jdarith.c **** 	data = 0;		/* stuff zero data */
 180              		.loc 1 117 7 is_stmt 1 view .LVU52
 117:Middlewares/Third_Party/LibJPEG/source/jdarith.c **** 	data = 0;		/* stuff zero data */
 181              		.loc 1 117 16 is_stmt 0 view .LVU53
 182 0046 D6F8B481 		ldr	r8, [r6, #436]
 117:Middlewares/Third_Party/LibJPEG/source/jdarith.c **** 	data = 0;		/* stuff zero data */
 183              		.loc 1 117 10 view .LVU54
 184 004a B8F1000F 		cmp	r8, #0
 185 004e DED0     		beq	.L17
 118:Middlewares/Third_Party/LibJPEG/source/jdarith.c ****       else {
 186              		.loc 1 118 7 view .LVU55
 187 0050 0027     		movs	r7, #0
 188              	.L7:
 189              	.LVL13:
ARM GAS  /var/folders/mq/wg13gp494590nh4zyt09lxf00000gn/T//ccSIaohd.s 			page 7


 138:Middlewares/Third_Party/LibJPEG/source/jdarith.c ****       if ((e->ct += 8) < 0)	 /* update bit shift counter */
 190              		.loc 1 138 7 is_stmt 1 view .LVU56
 138:Middlewares/Third_Party/LibJPEG/source/jdarith.c ****       if ((e->ct += 8) < 0)	 /* update bit shift counter */
 191              		.loc 1 138 16 is_stmt 0 view .LVU57
 192 0052 A368     		ldr	r3, [r4, #8]
 138:Middlewares/Third_Party/LibJPEG/source/jdarith.c ****       if ((e->ct += 8) < 0)	 /* update bit shift counter */
 193              		.loc 1 138 26 view .LVU58
 194 0054 47EA0327 		orr	r7, r7, r3, lsl #8
 195              	.LVL14:
 138:Middlewares/Third_Party/LibJPEG/source/jdarith.c ****       if ((e->ct += 8) < 0)	 /* update bit shift counter */
 196              		.loc 1 138 12 view .LVU59
 197 0058 A760     		str	r7, [r4, #8]
 139:Middlewares/Third_Party/LibJPEG/source/jdarith.c **** 	/* Need more initial bytes */
 198              		.loc 1 139 7 is_stmt 1 view .LVU60
 139:Middlewares/Third_Party/LibJPEG/source/jdarith.c **** 	/* Need more initial bytes */
 199              		.loc 1 139 13 is_stmt 0 view .LVU61
 200 005a 2369     		ldr	r3, [r4, #16]
 139:Middlewares/Third_Party/LibJPEG/source/jdarith.c **** 	/* Need more initial bytes */
 201              		.loc 1 139 18 view .LVU62
 202 005c 03F10802 		add	r2, r3, #8
 203 0060 2261     		str	r2, [r4, #16]
 139:Middlewares/Third_Party/LibJPEG/source/jdarith.c **** 	/* Need more initial bytes */
 204              		.loc 1 139 10 view .LVU63
 205 0062 002A     		cmp	r2, #0
 206 0064 E3DA     		bge	.L6
 141:Middlewares/Third_Party/LibJPEG/source/jdarith.c **** 	  /* Got 2 initial bytes -> re-init A and exit loop */
 207              		.loc 1 141 2 is_stmt 1 view .LVU64
 141:Middlewares/Third_Party/LibJPEG/source/jdarith.c **** 	  /* Got 2 initial bytes -> re-init A and exit loop */
 208              		.loc 1 141 6 is_stmt 0 view .LVU65
 209 0066 0933     		adds	r3, r3, #9
 141:Middlewares/Third_Party/LibJPEG/source/jdarith.c **** 	  /* Got 2 initial bytes -> re-init A and exit loop */
 210              		.loc 1 141 5 view .LVU66
 211 0068 2361     		str	r3, [r4, #16]
 212 006a 002B     		cmp	r3, #0
 213 006c DFD1     		bne	.L6
 143:Middlewares/Third_Party/LibJPEG/source/jdarith.c ****     }
 214              		.loc 1 143 4 is_stmt 1 view .LVU67
 143:Middlewares/Third_Party/LibJPEG/source/jdarith.c ****     }
 215              		.loc 1 143 9 is_stmt 0 view .LVU68
 216 006e 4FF40043 		mov	r3, #32768
 217 0072 E360     		str	r3, [r4, #12]
 218 0074 DBE7     		b	.L6
 219              	.LVL15:
 220              	.L16:
 146:Middlewares/Third_Party/LibJPEG/source/jdarith.c ****   }
 147:Middlewares/Third_Party/LibJPEG/source/jdarith.c **** 
 148:Middlewares/Third_Party/LibJPEG/source/jdarith.c ****   /* Fetch values from our compact representation of Table D.3(D.2):
 149:Middlewares/Third_Party/LibJPEG/source/jdarith.c ****    * Qe values and probability estimation state machine
 150:Middlewares/Third_Party/LibJPEG/source/jdarith.c ****    */
 151:Middlewares/Third_Party/LibJPEG/source/jdarith.c ****   sv = *st;
 221              		.loc 1 151 3 is_stmt 1 view .LVU69
 222              		.loc 1 151 8 is_stmt 0 view .LVU70
 223 0076 2A78     		ldrb	r2, [r5]	@ zero_extendqisi2
 224              		.loc 1 151 6 view .LVU71
 225 0078 1046     		mov	r0, r2
 226              	.LVL16:
 152:Middlewares/Third_Party/LibJPEG/source/jdarith.c ****   qe = jpeg_aritab[sv & 0x7F];	/* => Qe_Value */
ARM GAS  /var/folders/mq/wg13gp494590nh4zyt09lxf00000gn/T//ccSIaohd.s 			page 8


 227              		.loc 1 152 3 is_stmt 1 view .LVU72
 228              		.loc 1 152 23 is_stmt 0 view .LVU73
 229 007a 02F07F06 		and	r6, r2, #127
 230              	.LVL17:
 231              		.loc 1 152 6 view .LVU74
 232 007e 1C49     		ldr	r1, .L18
 233 0080 51F82660 		ldr	r6, [r1, r6, lsl #2]
 234              	.LVL18:
 153:Middlewares/Third_Party/LibJPEG/source/jdarith.c ****   nl = qe & 0xFF; qe >>= 8;	/* Next_Index_LPS + Switch_MPS */
 235              		.loc 1 153 3 is_stmt 1 view .LVU75
 236              		.loc 1 153 19 view .LVU76
 237              		.loc 1 153 22 is_stmt 0 view .LVU77
 238 0084 4FEA262E 		asr	lr, r6, #8
 239              	.LVL19:
 154:Middlewares/Third_Party/LibJPEG/source/jdarith.c ****   nm = qe & 0xFF; qe >>= 8;	/* Next_Index_MPS */
 240              		.loc 1 154 3 is_stmt 1 view .LVU78
 241              		.loc 1 154 19 view .LVU79
 242              		.loc 1 154 22 is_stmt 0 view .LVU80
 243 0088 4FEA264C 		asr	ip, r6, #16
 244              	.LVL20:
 155:Middlewares/Third_Party/LibJPEG/source/jdarith.c **** 
 156:Middlewares/Third_Party/LibJPEG/source/jdarith.c ****   /* Decode & estimation procedures per sections D.2.4 & D.2.5 */
 157:Middlewares/Third_Party/LibJPEG/source/jdarith.c ****   temp = e->a - qe;
 245              		.loc 1 157 3 is_stmt 1 view .LVU81
 246              		.loc 1 157 8 is_stmt 0 view .LVU82
 247 008c A3EB2643 		sub	r3, r3, r6, asr #16
 248              	.LVL21:
 158:Middlewares/Third_Party/LibJPEG/source/jdarith.c ****   e->a = temp;
 249              		.loc 1 158 3 is_stmt 1 view .LVU83
 250              		.loc 1 158 8 is_stmt 0 view .LVU84
 251 0090 E360     		str	r3, [r4, #12]
 159:Middlewares/Third_Party/LibJPEG/source/jdarith.c ****   temp <<= e->ct;
 252              		.loc 1 159 3 is_stmt 1 view .LVU85
 253              		.loc 1 159 13 is_stmt 0 view .LVU86
 254 0092 2169     		ldr	r1, [r4, #16]
 255              		.loc 1 159 8 view .LVU87
 256 0094 03FA01F1 		lsl	r1, r3, r1
 257              	.LVL22:
 160:Middlewares/Third_Party/LibJPEG/source/jdarith.c ****   if (e->c >= temp) {
 258              		.loc 1 160 3 is_stmt 1 view .LVU88
 259              		.loc 1 160 8 is_stmt 0 view .LVU89
 260 0098 A768     		ldr	r7, [r4, #8]
 261              		.loc 1 160 6 view .LVU90
 262 009a 8F42     		cmp	r7, r1
 263 009c 16DB     		blt	.L10
 161:Middlewares/Third_Party/LibJPEG/source/jdarith.c ****     e->c -= temp;
 264              		.loc 1 161 5 is_stmt 1 view .LVU91
 265              		.loc 1 161 10 is_stmt 0 view .LVU92
 266 009e 7F1A     		subs	r7, r7, r1
 267 00a0 A760     		str	r7, [r4, #8]
 162:Middlewares/Third_Party/LibJPEG/source/jdarith.c ****     /* Conditional LPS (less probable symbol) exchange */
 163:Middlewares/Third_Party/LibJPEG/source/jdarith.c ****     if (e->a < qe) {
 268              		.loc 1 163 5 is_stmt 1 view .LVU93
 269              		.loc 1 163 8 is_stmt 0 view .LVU94
 270 00a2 9C45     		cmp	ip, r3
 271 00a4 09DD     		ble	.L11
 164:Middlewares/Third_Party/LibJPEG/source/jdarith.c ****       e->a = qe;
ARM GAS  /var/folders/mq/wg13gp494590nh4zyt09lxf00000gn/T//ccSIaohd.s 			page 9


 272              		.loc 1 164 7 is_stmt 1 view .LVU95
 273              		.loc 1 164 12 is_stmt 0 view .LVU96
 274 00a6 C4F80CC0 		str	ip, [r4, #12]
 165:Middlewares/Third_Party/LibJPEG/source/jdarith.c ****       *st = (sv & 0x80) ^ nm;	/* Estimate_after_MPS */
 275              		.loc 1 165 7 is_stmt 1 view .LVU97
 276              		.loc 1 165 25 is_stmt 0 view .LVU98
 277 00aa 22F07F02 		bic	r2, r2, #127
 278 00ae 82EA0E02 		eor	r2, r2, lr
 279              		.loc 1 165 11 view .LVU99
 280 00b2 2A70     		strb	r2, [r5]
 281              	.L12:
 166:Middlewares/Third_Party/LibJPEG/source/jdarith.c ****     } else {
 167:Middlewares/Third_Party/LibJPEG/source/jdarith.c ****       e->a = qe;
 168:Middlewares/Third_Party/LibJPEG/source/jdarith.c ****       *st = (sv & 0x80) ^ nl;	/* Estimate_after_LPS */
 169:Middlewares/Third_Party/LibJPEG/source/jdarith.c ****       sv ^= 0x80;		/* Exchange LPS/MPS */
 170:Middlewares/Third_Party/LibJPEG/source/jdarith.c ****     }
 171:Middlewares/Third_Party/LibJPEG/source/jdarith.c ****   } else if (e->a < 0x8000L) {
 172:Middlewares/Third_Party/LibJPEG/source/jdarith.c ****     /* Conditional MPS (more probable symbol) exchange */
 173:Middlewares/Third_Party/LibJPEG/source/jdarith.c ****     if (e->a < qe) {
 174:Middlewares/Third_Party/LibJPEG/source/jdarith.c ****       *st = (sv & 0x80) ^ nl;	/* Estimate_after_LPS */
 175:Middlewares/Third_Party/LibJPEG/source/jdarith.c ****       sv ^= 0x80;		/* Exchange LPS/MPS */
 176:Middlewares/Third_Party/LibJPEG/source/jdarith.c ****     } else {
 177:Middlewares/Third_Party/LibJPEG/source/jdarith.c ****       *st = (sv & 0x80) ^ nm;	/* Estimate_after_MPS */
 178:Middlewares/Third_Party/LibJPEG/source/jdarith.c ****     }
 179:Middlewares/Third_Party/LibJPEG/source/jdarith.c ****   }
 180:Middlewares/Third_Party/LibJPEG/source/jdarith.c **** 
 181:Middlewares/Third_Party/LibJPEG/source/jdarith.c ****   return sv >> 7;
 282              		.loc 1 181 3 is_stmt 1 view .LVU100
 182:Middlewares/Third_Party/LibJPEG/source/jdarith.c **** }
 283              		.loc 1 182 1 is_stmt 0 view .LVU101
 284 00b4 C011     		asrs	r0, r0, #7
 285              	.LVL23:
 286              		.loc 1 182 1 view .LVU102
 287 00b6 BDE8F081 		pop	{r4, r5, r6, r7, r8, pc}
 288              	.LVL24:
 289              	.L11:
 167:Middlewares/Third_Party/LibJPEG/source/jdarith.c ****       *st = (sv & 0x80) ^ nl;	/* Estimate_after_LPS */
 290              		.loc 1 167 7 is_stmt 1 view .LVU103
 167:Middlewares/Third_Party/LibJPEG/source/jdarith.c ****       *st = (sv & 0x80) ^ nl;	/* Estimate_after_LPS */
 291              		.loc 1 167 12 is_stmt 0 view .LVU104
 292 00ba C4F80CC0 		str	ip, [r4, #12]
 168:Middlewares/Third_Party/LibJPEG/source/jdarith.c ****       sv ^= 0x80;		/* Exchange LPS/MPS */
 293              		.loc 1 168 7 is_stmt 1 view .LVU105
 168:Middlewares/Third_Party/LibJPEG/source/jdarith.c ****       sv ^= 0x80;		/* Exchange LPS/MPS */
 294              		.loc 1 168 25 is_stmt 0 view .LVU106
 295 00be 22F07F03 		bic	r3, r2, #127
 296 00c2 7340     		eors	r3, r3, r6
 168:Middlewares/Third_Party/LibJPEG/source/jdarith.c ****       sv ^= 0x80;		/* Exchange LPS/MPS */
 297              		.loc 1 168 11 view .LVU107
 298 00c4 2B70     		strb	r3, [r5]
 169:Middlewares/Third_Party/LibJPEG/source/jdarith.c ****     }
 299              		.loc 1 169 7 is_stmt 1 view .LVU108
 169:Middlewares/Third_Party/LibJPEG/source/jdarith.c ****     }
 300              		.loc 1 169 10 is_stmt 0 view .LVU109
 301 00c6 82F08000 		eor	r0, r2, #128
 302              	.LVL25:
 169:Middlewares/Third_Party/LibJPEG/source/jdarith.c ****     }
ARM GAS  /var/folders/mq/wg13gp494590nh4zyt09lxf00000gn/T//ccSIaohd.s 			page 10


 303              		.loc 1 169 10 view .LVU110
 304 00ca F3E7     		b	.L12
 305              	.L10:
 171:Middlewares/Third_Party/LibJPEG/source/jdarith.c ****     /* Conditional MPS (more probable symbol) exchange */
 306              		.loc 1 171 10 is_stmt 1 view .LVU111
 171:Middlewares/Third_Party/LibJPEG/source/jdarith.c ****     /* Conditional MPS (more probable symbol) exchange */
 307              		.loc 1 171 13 is_stmt 0 view .LVU112
 308 00cc B3F5004F 		cmp	r3, #32768
 309 00d0 F0DA     		bge	.L12
 173:Middlewares/Third_Party/LibJPEG/source/jdarith.c ****       *st = (sv & 0x80) ^ nl;	/* Estimate_after_LPS */
 310              		.loc 1 173 5 is_stmt 1 view .LVU113
 173:Middlewares/Third_Party/LibJPEG/source/jdarith.c ****       *st = (sv & 0x80) ^ nl;	/* Estimate_after_LPS */
 311              		.loc 1 173 8 is_stmt 0 view .LVU114
 312 00d2 9C45     		cmp	ip, r3
 313 00d4 06DD     		ble	.L13
 174:Middlewares/Third_Party/LibJPEG/source/jdarith.c ****       sv ^= 0x80;		/* Exchange LPS/MPS */
 314              		.loc 1 174 7 is_stmt 1 view .LVU115
 174:Middlewares/Third_Party/LibJPEG/source/jdarith.c ****       sv ^= 0x80;		/* Exchange LPS/MPS */
 315              		.loc 1 174 25 is_stmt 0 view .LVU116
 316 00d6 22F07F03 		bic	r3, r2, #127
 317 00da 7340     		eors	r3, r3, r6
 174:Middlewares/Third_Party/LibJPEG/source/jdarith.c ****       sv ^= 0x80;		/* Exchange LPS/MPS */
 318              		.loc 1 174 11 view .LVU117
 319 00dc 2B70     		strb	r3, [r5]
 175:Middlewares/Third_Party/LibJPEG/source/jdarith.c ****     } else {
 320              		.loc 1 175 7 is_stmt 1 view .LVU118
 175:Middlewares/Third_Party/LibJPEG/source/jdarith.c ****     } else {
 321              		.loc 1 175 10 is_stmt 0 view .LVU119
 322 00de 82F08000 		eor	r0, r2, #128
 323              	.LVL26:
 175:Middlewares/Third_Party/LibJPEG/source/jdarith.c ****     } else {
 324              		.loc 1 175 10 view .LVU120
 325 00e2 E7E7     		b	.L12
 326              	.L13:
 177:Middlewares/Third_Party/LibJPEG/source/jdarith.c ****     }
 327              		.loc 1 177 7 is_stmt 1 view .LVU121
 177:Middlewares/Third_Party/LibJPEG/source/jdarith.c ****     }
 328              		.loc 1 177 25 is_stmt 0 view .LVU122
 329 00e4 22F07F03 		bic	r3, r2, #127
 330 00e8 83EA0E03 		eor	r3, r3, lr
 177:Middlewares/Third_Party/LibJPEG/source/jdarith.c ****     }
 331              		.loc 1 177 11 view .LVU123
 332 00ec 2B70     		strb	r3, [r5]
 333 00ee E1E7     		b	.L12
 334              	.L19:
 335              		.align	2
 336              	.L18:
 337 00f0 00000000 		.word	jpeg_aritab
 338              		.cfi_endproc
 339              	.LFE148:
 341              		.section	.text.start_pass,"ax",%progbits
 342              		.align	1
 343              		.syntax unified
 344              		.thumb
 345              		.thumb_func
 347              	start_pass:
 348              	.LVL27:
ARM GAS  /var/folders/mq/wg13gp494590nh4zyt09lxf00000gn/T//ccSIaohd.s 			page 11


 349              	.LFB155:
 183:Middlewares/Third_Party/LibJPEG/source/jdarith.c **** 
 184:Middlewares/Third_Party/LibJPEG/source/jdarith.c **** 
 185:Middlewares/Third_Party/LibJPEG/source/jdarith.c **** /*
 186:Middlewares/Third_Party/LibJPEG/source/jdarith.c ****  * Check for a restart marker & resynchronize decoder.
 187:Middlewares/Third_Party/LibJPEG/source/jdarith.c ****  */
 188:Middlewares/Third_Party/LibJPEG/source/jdarith.c **** 
 189:Middlewares/Third_Party/LibJPEG/source/jdarith.c **** LOCAL(void)
 190:Middlewares/Third_Party/LibJPEG/source/jdarith.c **** process_restart (j_decompress_ptr cinfo)
 191:Middlewares/Third_Party/LibJPEG/source/jdarith.c **** {
 192:Middlewares/Third_Party/LibJPEG/source/jdarith.c ****   arith_entropy_ptr entropy = (arith_entropy_ptr) cinfo->entropy;
 193:Middlewares/Third_Party/LibJPEG/source/jdarith.c ****   int ci;
 194:Middlewares/Third_Party/LibJPEG/source/jdarith.c ****   jpeg_component_info * compptr;
 195:Middlewares/Third_Party/LibJPEG/source/jdarith.c **** 
 196:Middlewares/Third_Party/LibJPEG/source/jdarith.c ****   /* Advance past the RSTn marker */
 197:Middlewares/Third_Party/LibJPEG/source/jdarith.c ****   if (! (*cinfo->marker->read_restart_marker) (cinfo))
 198:Middlewares/Third_Party/LibJPEG/source/jdarith.c ****     ERREXIT(cinfo, JERR_CANT_SUSPEND);
 199:Middlewares/Third_Party/LibJPEG/source/jdarith.c **** 
 200:Middlewares/Third_Party/LibJPEG/source/jdarith.c ****   /* Re-initialize statistics areas */
 201:Middlewares/Third_Party/LibJPEG/source/jdarith.c ****   for (ci = 0; ci < cinfo->comps_in_scan; ci++) {
 202:Middlewares/Third_Party/LibJPEG/source/jdarith.c ****     compptr = cinfo->cur_comp_info[ci];
 203:Middlewares/Third_Party/LibJPEG/source/jdarith.c ****     if (! cinfo->progressive_mode || (cinfo->Ss == 0 && cinfo->Ah == 0)) {
 204:Middlewares/Third_Party/LibJPEG/source/jdarith.c ****       MEMZERO(entropy->dc_stats[compptr->dc_tbl_no], DC_STAT_BINS);
 205:Middlewares/Third_Party/LibJPEG/source/jdarith.c ****       /* Reset DC predictions to 0 */
 206:Middlewares/Third_Party/LibJPEG/source/jdarith.c ****       entropy->last_dc_val[ci] = 0;
 207:Middlewares/Third_Party/LibJPEG/source/jdarith.c ****       entropy->dc_context[ci] = 0;
 208:Middlewares/Third_Party/LibJPEG/source/jdarith.c ****     }
 209:Middlewares/Third_Party/LibJPEG/source/jdarith.c ****     if ((! cinfo->progressive_mode && cinfo->lim_Se) ||
 210:Middlewares/Third_Party/LibJPEG/source/jdarith.c **** 	(cinfo->progressive_mode && cinfo->Ss)) {
 211:Middlewares/Third_Party/LibJPEG/source/jdarith.c ****       MEMZERO(entropy->ac_stats[compptr->ac_tbl_no], AC_STAT_BINS);
 212:Middlewares/Third_Party/LibJPEG/source/jdarith.c ****     }
 213:Middlewares/Third_Party/LibJPEG/source/jdarith.c ****   }
 214:Middlewares/Third_Party/LibJPEG/source/jdarith.c **** 
 215:Middlewares/Third_Party/LibJPEG/source/jdarith.c ****   /* Reset arithmetic decoding variables */
 216:Middlewares/Third_Party/LibJPEG/source/jdarith.c ****   entropy->c = 0;
 217:Middlewares/Third_Party/LibJPEG/source/jdarith.c ****   entropy->a = 0;
 218:Middlewares/Third_Party/LibJPEG/source/jdarith.c ****   entropy->ct = -16;	/* force reading 2 initial bytes to fill C */
 219:Middlewares/Third_Party/LibJPEG/source/jdarith.c **** 
 220:Middlewares/Third_Party/LibJPEG/source/jdarith.c ****   /* Reset restart counter */
 221:Middlewares/Third_Party/LibJPEG/source/jdarith.c ****   entropy->restarts_to_go = cinfo->restart_interval;
 222:Middlewares/Third_Party/LibJPEG/source/jdarith.c **** }
 223:Middlewares/Third_Party/LibJPEG/source/jdarith.c **** 
 224:Middlewares/Third_Party/LibJPEG/source/jdarith.c **** 
 225:Middlewares/Third_Party/LibJPEG/source/jdarith.c **** /*
 226:Middlewares/Third_Party/LibJPEG/source/jdarith.c ****  * Arithmetic MCU decoding.
 227:Middlewares/Third_Party/LibJPEG/source/jdarith.c ****  * Each of these routines decodes and returns one MCU's worth of
 228:Middlewares/Third_Party/LibJPEG/source/jdarith.c ****  * arithmetic-compressed coefficients.
 229:Middlewares/Third_Party/LibJPEG/source/jdarith.c ****  * The coefficients are reordered from zigzag order into natural array order,
 230:Middlewares/Third_Party/LibJPEG/source/jdarith.c ****  * but are not dequantized.
 231:Middlewares/Third_Party/LibJPEG/source/jdarith.c ****  *
 232:Middlewares/Third_Party/LibJPEG/source/jdarith.c ****  * The i'th block of the MCU is stored into the block pointed to by
 233:Middlewares/Third_Party/LibJPEG/source/jdarith.c ****  * MCU_data[i].  WE ASSUME THIS AREA IS INITIALLY ZEROED BY THE CALLER.
 234:Middlewares/Third_Party/LibJPEG/source/jdarith.c ****  */
 235:Middlewares/Third_Party/LibJPEG/source/jdarith.c **** 
 236:Middlewares/Third_Party/LibJPEG/source/jdarith.c **** /*
 237:Middlewares/Third_Party/LibJPEG/source/jdarith.c ****  * MCU decoding for DC initial scan (either spectral selection,
 238:Middlewares/Third_Party/LibJPEG/source/jdarith.c ****  * or first pass of successive approximation).
ARM GAS  /var/folders/mq/wg13gp494590nh4zyt09lxf00000gn/T//ccSIaohd.s 			page 12


 239:Middlewares/Third_Party/LibJPEG/source/jdarith.c ****  */
 240:Middlewares/Third_Party/LibJPEG/source/jdarith.c **** 
 241:Middlewares/Third_Party/LibJPEG/source/jdarith.c **** METHODDEF(boolean)
 242:Middlewares/Third_Party/LibJPEG/source/jdarith.c **** decode_mcu_DC_first (j_decompress_ptr cinfo, JBLOCKROW *MCU_data)
 243:Middlewares/Third_Party/LibJPEG/source/jdarith.c **** {
 244:Middlewares/Third_Party/LibJPEG/source/jdarith.c ****   arith_entropy_ptr entropy = (arith_entropy_ptr) cinfo->entropy;
 245:Middlewares/Third_Party/LibJPEG/source/jdarith.c ****   JBLOCKROW block;
 246:Middlewares/Third_Party/LibJPEG/source/jdarith.c ****   unsigned char *st;
 247:Middlewares/Third_Party/LibJPEG/source/jdarith.c ****   int blkn, ci, tbl, sign;
 248:Middlewares/Third_Party/LibJPEG/source/jdarith.c ****   int v, m;
 249:Middlewares/Third_Party/LibJPEG/source/jdarith.c **** 
 250:Middlewares/Third_Party/LibJPEG/source/jdarith.c ****   /* Process restart marker if needed */
 251:Middlewares/Third_Party/LibJPEG/source/jdarith.c ****   if (cinfo->restart_interval) {
 252:Middlewares/Third_Party/LibJPEG/source/jdarith.c ****     if (entropy->restarts_to_go == 0)
 253:Middlewares/Third_Party/LibJPEG/source/jdarith.c ****       process_restart(cinfo);
 254:Middlewares/Third_Party/LibJPEG/source/jdarith.c ****     entropy->restarts_to_go--;
 255:Middlewares/Third_Party/LibJPEG/source/jdarith.c ****   }
 256:Middlewares/Third_Party/LibJPEG/source/jdarith.c **** 
 257:Middlewares/Third_Party/LibJPEG/source/jdarith.c ****   if (entropy->ct == -1) return TRUE;	/* if error do nothing */
 258:Middlewares/Third_Party/LibJPEG/source/jdarith.c **** 
 259:Middlewares/Third_Party/LibJPEG/source/jdarith.c ****   /* Outer loop handles each block in the MCU */
 260:Middlewares/Third_Party/LibJPEG/source/jdarith.c **** 
 261:Middlewares/Third_Party/LibJPEG/source/jdarith.c ****   for (blkn = 0; blkn < cinfo->blocks_in_MCU; blkn++) {
 262:Middlewares/Third_Party/LibJPEG/source/jdarith.c ****     block = MCU_data[blkn];
 263:Middlewares/Third_Party/LibJPEG/source/jdarith.c ****     ci = cinfo->MCU_membership[blkn];
 264:Middlewares/Third_Party/LibJPEG/source/jdarith.c ****     tbl = cinfo->cur_comp_info[ci]->dc_tbl_no;
 265:Middlewares/Third_Party/LibJPEG/source/jdarith.c **** 
 266:Middlewares/Third_Party/LibJPEG/source/jdarith.c ****     /* Sections F.2.4.1 & F.1.4.4.1: Decoding of DC coefficients */
 267:Middlewares/Third_Party/LibJPEG/source/jdarith.c **** 
 268:Middlewares/Third_Party/LibJPEG/source/jdarith.c ****     /* Table F.4: Point to statistics bin S0 for DC coefficient coding */
 269:Middlewares/Third_Party/LibJPEG/source/jdarith.c ****     st = entropy->dc_stats[tbl] + entropy->dc_context[ci];
 270:Middlewares/Third_Party/LibJPEG/source/jdarith.c **** 
 271:Middlewares/Third_Party/LibJPEG/source/jdarith.c ****     /* Figure F.19: Decode_DC_DIFF */
 272:Middlewares/Third_Party/LibJPEG/source/jdarith.c ****     if (arith_decode(cinfo, st) == 0)
 273:Middlewares/Third_Party/LibJPEG/source/jdarith.c ****       entropy->dc_context[ci] = 0;
 274:Middlewares/Third_Party/LibJPEG/source/jdarith.c ****     else {
 275:Middlewares/Third_Party/LibJPEG/source/jdarith.c ****       /* Figure F.21: Decoding nonzero value v */
 276:Middlewares/Third_Party/LibJPEG/source/jdarith.c ****       /* Figure F.22: Decoding the sign of v */
 277:Middlewares/Third_Party/LibJPEG/source/jdarith.c ****       sign = arith_decode(cinfo, st + 1);
 278:Middlewares/Third_Party/LibJPEG/source/jdarith.c ****       st += 2; st += sign;
 279:Middlewares/Third_Party/LibJPEG/source/jdarith.c ****       /* Figure F.23: Decoding the magnitude category of v */
 280:Middlewares/Third_Party/LibJPEG/source/jdarith.c ****       if ((m = arith_decode(cinfo, st)) != 0) {
 281:Middlewares/Third_Party/LibJPEG/source/jdarith.c **** 	st = entropy->dc_stats[tbl] + 20;	/* Table F.4: X1 = 20 */
 282:Middlewares/Third_Party/LibJPEG/source/jdarith.c **** 	while (arith_decode(cinfo, st)) {
 283:Middlewares/Third_Party/LibJPEG/source/jdarith.c **** 	  if ((m <<= 1) == 0x8000) {
 284:Middlewares/Third_Party/LibJPEG/source/jdarith.c **** 	    WARNMS(cinfo, JWRN_ARITH_BAD_CODE);
 285:Middlewares/Third_Party/LibJPEG/source/jdarith.c **** 	    entropy->ct = -1;			/* magnitude overflow */
 286:Middlewares/Third_Party/LibJPEG/source/jdarith.c **** 	    return TRUE;
 287:Middlewares/Third_Party/LibJPEG/source/jdarith.c **** 	  }
 288:Middlewares/Third_Party/LibJPEG/source/jdarith.c **** 	  st += 1;
 289:Middlewares/Third_Party/LibJPEG/source/jdarith.c **** 	}
 290:Middlewares/Third_Party/LibJPEG/source/jdarith.c ****       }
 291:Middlewares/Third_Party/LibJPEG/source/jdarith.c ****       /* Section F.1.4.4.1.2: Establish dc_context conditioning category */
 292:Middlewares/Third_Party/LibJPEG/source/jdarith.c ****       if (m < (int) ((1L << cinfo->arith_dc_L[tbl]) >> 1))
 293:Middlewares/Third_Party/LibJPEG/source/jdarith.c **** 	entropy->dc_context[ci] = 0;		   /* zero diff category */
 294:Middlewares/Third_Party/LibJPEG/source/jdarith.c ****       else if (m > (int) ((1L << cinfo->arith_dc_U[tbl]) >> 1))
 295:Middlewares/Third_Party/LibJPEG/source/jdarith.c **** 	entropy->dc_context[ci] = 12 + (sign * 4); /* large diff category */
ARM GAS  /var/folders/mq/wg13gp494590nh4zyt09lxf00000gn/T//ccSIaohd.s 			page 13


 296:Middlewares/Third_Party/LibJPEG/source/jdarith.c ****       else
 297:Middlewares/Third_Party/LibJPEG/source/jdarith.c **** 	entropy->dc_context[ci] = 4 + (sign * 4);  /* small diff category */
 298:Middlewares/Third_Party/LibJPEG/source/jdarith.c ****       v = m;
 299:Middlewares/Third_Party/LibJPEG/source/jdarith.c ****       /* Figure F.24: Decoding the magnitude bit pattern of v */
 300:Middlewares/Third_Party/LibJPEG/source/jdarith.c ****       st += 14;
 301:Middlewares/Third_Party/LibJPEG/source/jdarith.c ****       while (m >>= 1)
 302:Middlewares/Third_Party/LibJPEG/source/jdarith.c **** 	if (arith_decode(cinfo, st)) v |= m;
 303:Middlewares/Third_Party/LibJPEG/source/jdarith.c ****       v += 1; if (sign) v = -v;
 304:Middlewares/Third_Party/LibJPEG/source/jdarith.c ****       entropy->last_dc_val[ci] += v;
 305:Middlewares/Third_Party/LibJPEG/source/jdarith.c ****     }
 306:Middlewares/Third_Party/LibJPEG/source/jdarith.c **** 
 307:Middlewares/Third_Party/LibJPEG/source/jdarith.c ****     /* Scale and output the DC coefficient (assumes jpeg_natural_order[0]=0) */
 308:Middlewares/Third_Party/LibJPEG/source/jdarith.c ****     (*block)[0] = (JCOEF) (entropy->last_dc_val[ci] << cinfo->Al);
 309:Middlewares/Third_Party/LibJPEG/source/jdarith.c ****   }
 310:Middlewares/Third_Party/LibJPEG/source/jdarith.c **** 
 311:Middlewares/Third_Party/LibJPEG/source/jdarith.c ****   return TRUE;
 312:Middlewares/Third_Party/LibJPEG/source/jdarith.c **** }
 313:Middlewares/Third_Party/LibJPEG/source/jdarith.c **** 
 314:Middlewares/Third_Party/LibJPEG/source/jdarith.c **** 
 315:Middlewares/Third_Party/LibJPEG/source/jdarith.c **** /*
 316:Middlewares/Third_Party/LibJPEG/source/jdarith.c ****  * MCU decoding for AC initial scan (either spectral selection,
 317:Middlewares/Third_Party/LibJPEG/source/jdarith.c ****  * or first pass of successive approximation).
 318:Middlewares/Third_Party/LibJPEG/source/jdarith.c ****  */
 319:Middlewares/Third_Party/LibJPEG/source/jdarith.c **** 
 320:Middlewares/Third_Party/LibJPEG/source/jdarith.c **** METHODDEF(boolean)
 321:Middlewares/Third_Party/LibJPEG/source/jdarith.c **** decode_mcu_AC_first (j_decompress_ptr cinfo, JBLOCKROW *MCU_data)
 322:Middlewares/Third_Party/LibJPEG/source/jdarith.c **** {
 323:Middlewares/Third_Party/LibJPEG/source/jdarith.c ****   arith_entropy_ptr entropy = (arith_entropy_ptr) cinfo->entropy;
 324:Middlewares/Third_Party/LibJPEG/source/jdarith.c ****   JBLOCKROW block;
 325:Middlewares/Third_Party/LibJPEG/source/jdarith.c ****   unsigned char *st;
 326:Middlewares/Third_Party/LibJPEG/source/jdarith.c ****   int tbl, sign, k;
 327:Middlewares/Third_Party/LibJPEG/source/jdarith.c ****   int v, m;
 328:Middlewares/Third_Party/LibJPEG/source/jdarith.c ****   const int * natural_order;
 329:Middlewares/Third_Party/LibJPEG/source/jdarith.c **** 
 330:Middlewares/Third_Party/LibJPEG/source/jdarith.c ****   /* Process restart marker if needed */
 331:Middlewares/Third_Party/LibJPEG/source/jdarith.c ****   if (cinfo->restart_interval) {
 332:Middlewares/Third_Party/LibJPEG/source/jdarith.c ****     if (entropy->restarts_to_go == 0)
 333:Middlewares/Third_Party/LibJPEG/source/jdarith.c ****       process_restart(cinfo);
 334:Middlewares/Third_Party/LibJPEG/source/jdarith.c ****     entropy->restarts_to_go--;
 335:Middlewares/Third_Party/LibJPEG/source/jdarith.c ****   }
 336:Middlewares/Third_Party/LibJPEG/source/jdarith.c **** 
 337:Middlewares/Third_Party/LibJPEG/source/jdarith.c ****   if (entropy->ct == -1) return TRUE;	/* if error do nothing */
 338:Middlewares/Third_Party/LibJPEG/source/jdarith.c **** 
 339:Middlewares/Third_Party/LibJPEG/source/jdarith.c ****   natural_order = cinfo->natural_order;
 340:Middlewares/Third_Party/LibJPEG/source/jdarith.c **** 
 341:Middlewares/Third_Party/LibJPEG/source/jdarith.c ****   /* There is always only one block per MCU */
 342:Middlewares/Third_Party/LibJPEG/source/jdarith.c ****   block = MCU_data[0];
 343:Middlewares/Third_Party/LibJPEG/source/jdarith.c ****   tbl = cinfo->cur_comp_info[0]->ac_tbl_no;
 344:Middlewares/Third_Party/LibJPEG/source/jdarith.c **** 
 345:Middlewares/Third_Party/LibJPEG/source/jdarith.c ****   /* Sections F.2.4.2 & F.1.4.4.2: Decoding of AC coefficients */
 346:Middlewares/Third_Party/LibJPEG/source/jdarith.c **** 
 347:Middlewares/Third_Party/LibJPEG/source/jdarith.c ****   /* Figure F.20: Decode_AC_coefficients */
 348:Middlewares/Third_Party/LibJPEG/source/jdarith.c ****   for (k = cinfo->Ss; k <= cinfo->Se; k++) {
 349:Middlewares/Third_Party/LibJPEG/source/jdarith.c ****     st = entropy->ac_stats[tbl] + 3 * (k - 1);
 350:Middlewares/Third_Party/LibJPEG/source/jdarith.c ****     if (arith_decode(cinfo, st)) break;		/* EOB flag */
 351:Middlewares/Third_Party/LibJPEG/source/jdarith.c ****     while (arith_decode(cinfo, st + 1) == 0) {
 352:Middlewares/Third_Party/LibJPEG/source/jdarith.c ****       st += 3; k++;
ARM GAS  /var/folders/mq/wg13gp494590nh4zyt09lxf00000gn/T//ccSIaohd.s 			page 14


 353:Middlewares/Third_Party/LibJPEG/source/jdarith.c ****       if (k > cinfo->Se) {
 354:Middlewares/Third_Party/LibJPEG/source/jdarith.c **** 	WARNMS(cinfo, JWRN_ARITH_BAD_CODE);
 355:Middlewares/Third_Party/LibJPEG/source/jdarith.c **** 	entropy->ct = -1;			/* spectral overflow */
 356:Middlewares/Third_Party/LibJPEG/source/jdarith.c **** 	return TRUE;
 357:Middlewares/Third_Party/LibJPEG/source/jdarith.c ****       }
 358:Middlewares/Third_Party/LibJPEG/source/jdarith.c ****     }
 359:Middlewares/Third_Party/LibJPEG/source/jdarith.c ****     /* Figure F.21: Decoding nonzero value v */
 360:Middlewares/Third_Party/LibJPEG/source/jdarith.c ****     /* Figure F.22: Decoding the sign of v */
 361:Middlewares/Third_Party/LibJPEG/source/jdarith.c ****     sign = arith_decode(cinfo, entropy->fixed_bin);
 362:Middlewares/Third_Party/LibJPEG/source/jdarith.c ****     st += 2;
 363:Middlewares/Third_Party/LibJPEG/source/jdarith.c ****     /* Figure F.23: Decoding the magnitude category of v */
 364:Middlewares/Third_Party/LibJPEG/source/jdarith.c ****     if ((m = arith_decode(cinfo, st)) != 0) {
 365:Middlewares/Third_Party/LibJPEG/source/jdarith.c ****       if (arith_decode(cinfo, st)) {
 366:Middlewares/Third_Party/LibJPEG/source/jdarith.c **** 	m <<= 1;
 367:Middlewares/Third_Party/LibJPEG/source/jdarith.c **** 	st = entropy->ac_stats[tbl] +
 368:Middlewares/Third_Party/LibJPEG/source/jdarith.c **** 	     (k <= cinfo->arith_ac_K[tbl] ? 189 : 217);
 369:Middlewares/Third_Party/LibJPEG/source/jdarith.c **** 	while (arith_decode(cinfo, st)) {
 370:Middlewares/Third_Party/LibJPEG/source/jdarith.c **** 	  if ((m <<= 1) == 0x8000) {
 371:Middlewares/Third_Party/LibJPEG/source/jdarith.c **** 	    WARNMS(cinfo, JWRN_ARITH_BAD_CODE);
 372:Middlewares/Third_Party/LibJPEG/source/jdarith.c **** 	    entropy->ct = -1;			/* magnitude overflow */
 373:Middlewares/Third_Party/LibJPEG/source/jdarith.c **** 	    return TRUE;
 374:Middlewares/Third_Party/LibJPEG/source/jdarith.c **** 	  }
 375:Middlewares/Third_Party/LibJPEG/source/jdarith.c **** 	  st += 1;
 376:Middlewares/Third_Party/LibJPEG/source/jdarith.c **** 	}
 377:Middlewares/Third_Party/LibJPEG/source/jdarith.c ****       }
 378:Middlewares/Third_Party/LibJPEG/source/jdarith.c ****     }
 379:Middlewares/Third_Party/LibJPEG/source/jdarith.c ****     v = m;
 380:Middlewares/Third_Party/LibJPEG/source/jdarith.c ****     /* Figure F.24: Decoding the magnitude bit pattern of v */
 381:Middlewares/Third_Party/LibJPEG/source/jdarith.c ****     st += 14;
 382:Middlewares/Third_Party/LibJPEG/source/jdarith.c ****     while (m >>= 1)
 383:Middlewares/Third_Party/LibJPEG/source/jdarith.c ****       if (arith_decode(cinfo, st)) v |= m;
 384:Middlewares/Third_Party/LibJPEG/source/jdarith.c ****     v += 1; if (sign) v = -v;
 385:Middlewares/Third_Party/LibJPEG/source/jdarith.c ****     /* Scale and output coefficient in natural (dezigzagged) order */
 386:Middlewares/Third_Party/LibJPEG/source/jdarith.c ****     (*block)[natural_order[k]] = (JCOEF) (v << cinfo->Al);
 387:Middlewares/Third_Party/LibJPEG/source/jdarith.c ****   }
 388:Middlewares/Third_Party/LibJPEG/source/jdarith.c **** 
 389:Middlewares/Third_Party/LibJPEG/source/jdarith.c ****   return TRUE;
 390:Middlewares/Third_Party/LibJPEG/source/jdarith.c **** }
 391:Middlewares/Third_Party/LibJPEG/source/jdarith.c **** 
 392:Middlewares/Third_Party/LibJPEG/source/jdarith.c **** 
 393:Middlewares/Third_Party/LibJPEG/source/jdarith.c **** /*
 394:Middlewares/Third_Party/LibJPEG/source/jdarith.c ****  * MCU decoding for DC successive approximation refinement scan.
 395:Middlewares/Third_Party/LibJPEG/source/jdarith.c ****  */
 396:Middlewares/Third_Party/LibJPEG/source/jdarith.c **** 
 397:Middlewares/Third_Party/LibJPEG/source/jdarith.c **** METHODDEF(boolean)
 398:Middlewares/Third_Party/LibJPEG/source/jdarith.c **** decode_mcu_DC_refine (j_decompress_ptr cinfo, JBLOCKROW *MCU_data)
 399:Middlewares/Third_Party/LibJPEG/source/jdarith.c **** {
 400:Middlewares/Third_Party/LibJPEG/source/jdarith.c ****   arith_entropy_ptr entropy = (arith_entropy_ptr) cinfo->entropy;
 401:Middlewares/Third_Party/LibJPEG/source/jdarith.c ****   unsigned char *st;
 402:Middlewares/Third_Party/LibJPEG/source/jdarith.c ****   int p1, blkn;
 403:Middlewares/Third_Party/LibJPEG/source/jdarith.c **** 
 404:Middlewares/Third_Party/LibJPEG/source/jdarith.c ****   /* Process restart marker if needed */
 405:Middlewares/Third_Party/LibJPEG/source/jdarith.c ****   if (cinfo->restart_interval) {
 406:Middlewares/Third_Party/LibJPEG/source/jdarith.c ****     if (entropy->restarts_to_go == 0)
 407:Middlewares/Third_Party/LibJPEG/source/jdarith.c ****       process_restart(cinfo);
 408:Middlewares/Third_Party/LibJPEG/source/jdarith.c ****     entropy->restarts_to_go--;
 409:Middlewares/Third_Party/LibJPEG/source/jdarith.c ****   }
ARM GAS  /var/folders/mq/wg13gp494590nh4zyt09lxf00000gn/T//ccSIaohd.s 			page 15


 410:Middlewares/Third_Party/LibJPEG/source/jdarith.c **** 
 411:Middlewares/Third_Party/LibJPEG/source/jdarith.c ****   st = entropy->fixed_bin;	/* use fixed probability estimation */
 412:Middlewares/Third_Party/LibJPEG/source/jdarith.c ****   p1 = 1 << cinfo->Al;		/* 1 in the bit position being coded */
 413:Middlewares/Third_Party/LibJPEG/source/jdarith.c **** 
 414:Middlewares/Third_Party/LibJPEG/source/jdarith.c ****   /* Outer loop handles each block in the MCU */
 415:Middlewares/Third_Party/LibJPEG/source/jdarith.c **** 
 416:Middlewares/Third_Party/LibJPEG/source/jdarith.c ****   for (blkn = 0; blkn < cinfo->blocks_in_MCU; blkn++) {
 417:Middlewares/Third_Party/LibJPEG/source/jdarith.c ****     /* Encoded data is simply the next bit of the two's-complement DC value */
 418:Middlewares/Third_Party/LibJPEG/source/jdarith.c ****     if (arith_decode(cinfo, st))
 419:Middlewares/Third_Party/LibJPEG/source/jdarith.c ****       MCU_data[blkn][0][0] |= p1;
 420:Middlewares/Third_Party/LibJPEG/source/jdarith.c ****   }
 421:Middlewares/Third_Party/LibJPEG/source/jdarith.c **** 
 422:Middlewares/Third_Party/LibJPEG/source/jdarith.c ****   return TRUE;
 423:Middlewares/Third_Party/LibJPEG/source/jdarith.c **** }
 424:Middlewares/Third_Party/LibJPEG/source/jdarith.c **** 
 425:Middlewares/Third_Party/LibJPEG/source/jdarith.c **** 
 426:Middlewares/Third_Party/LibJPEG/source/jdarith.c **** /*
 427:Middlewares/Third_Party/LibJPEG/source/jdarith.c ****  * MCU decoding for AC successive approximation refinement scan.
 428:Middlewares/Third_Party/LibJPEG/source/jdarith.c ****  */
 429:Middlewares/Third_Party/LibJPEG/source/jdarith.c **** 
 430:Middlewares/Third_Party/LibJPEG/source/jdarith.c **** METHODDEF(boolean)
 431:Middlewares/Third_Party/LibJPEG/source/jdarith.c **** decode_mcu_AC_refine (j_decompress_ptr cinfo, JBLOCKROW *MCU_data)
 432:Middlewares/Third_Party/LibJPEG/source/jdarith.c **** {
 433:Middlewares/Third_Party/LibJPEG/source/jdarith.c ****   arith_entropy_ptr entropy = (arith_entropy_ptr) cinfo->entropy;
 434:Middlewares/Third_Party/LibJPEG/source/jdarith.c ****   JBLOCKROW block;
 435:Middlewares/Third_Party/LibJPEG/source/jdarith.c ****   JCOEFPTR thiscoef;
 436:Middlewares/Third_Party/LibJPEG/source/jdarith.c ****   unsigned char *st;
 437:Middlewares/Third_Party/LibJPEG/source/jdarith.c ****   int tbl, k, kex;
 438:Middlewares/Third_Party/LibJPEG/source/jdarith.c ****   int p1, m1;
 439:Middlewares/Third_Party/LibJPEG/source/jdarith.c ****   const int * natural_order;
 440:Middlewares/Third_Party/LibJPEG/source/jdarith.c **** 
 441:Middlewares/Third_Party/LibJPEG/source/jdarith.c ****   /* Process restart marker if needed */
 442:Middlewares/Third_Party/LibJPEG/source/jdarith.c ****   if (cinfo->restart_interval) {
 443:Middlewares/Third_Party/LibJPEG/source/jdarith.c ****     if (entropy->restarts_to_go == 0)
 444:Middlewares/Third_Party/LibJPEG/source/jdarith.c ****       process_restart(cinfo);
 445:Middlewares/Third_Party/LibJPEG/source/jdarith.c ****     entropy->restarts_to_go--;
 446:Middlewares/Third_Party/LibJPEG/source/jdarith.c ****   }
 447:Middlewares/Third_Party/LibJPEG/source/jdarith.c **** 
 448:Middlewares/Third_Party/LibJPEG/source/jdarith.c ****   if (entropy->ct == -1) return TRUE;	/* if error do nothing */
 449:Middlewares/Third_Party/LibJPEG/source/jdarith.c **** 
 450:Middlewares/Third_Party/LibJPEG/source/jdarith.c ****   natural_order = cinfo->natural_order;
 451:Middlewares/Third_Party/LibJPEG/source/jdarith.c **** 
 452:Middlewares/Third_Party/LibJPEG/source/jdarith.c ****   /* There is always only one block per MCU */
 453:Middlewares/Third_Party/LibJPEG/source/jdarith.c ****   block = MCU_data[0];
 454:Middlewares/Third_Party/LibJPEG/source/jdarith.c ****   tbl = cinfo->cur_comp_info[0]->ac_tbl_no;
 455:Middlewares/Third_Party/LibJPEG/source/jdarith.c **** 
 456:Middlewares/Third_Party/LibJPEG/source/jdarith.c ****   p1 = 1 << cinfo->Al;		/* 1 in the bit position being coded */
 457:Middlewares/Third_Party/LibJPEG/source/jdarith.c ****   m1 = (-1) << cinfo->Al;	/* -1 in the bit position being coded */
 458:Middlewares/Third_Party/LibJPEG/source/jdarith.c **** 
 459:Middlewares/Third_Party/LibJPEG/source/jdarith.c ****   /* Establish EOBx (previous stage end-of-block) index */
 460:Middlewares/Third_Party/LibJPEG/source/jdarith.c ****   for (kex = cinfo->Se; kex > 0; kex--)
 461:Middlewares/Third_Party/LibJPEG/source/jdarith.c ****     if ((*block)[natural_order[kex]]) break;
 462:Middlewares/Third_Party/LibJPEG/source/jdarith.c **** 
 463:Middlewares/Third_Party/LibJPEG/source/jdarith.c ****   for (k = cinfo->Ss; k <= cinfo->Se; k++) {
 464:Middlewares/Third_Party/LibJPEG/source/jdarith.c ****     st = entropy->ac_stats[tbl] + 3 * (k - 1);
 465:Middlewares/Third_Party/LibJPEG/source/jdarith.c ****     if (k > kex)
 466:Middlewares/Third_Party/LibJPEG/source/jdarith.c ****       if (arith_decode(cinfo, st)) break;	/* EOB flag */
ARM GAS  /var/folders/mq/wg13gp494590nh4zyt09lxf00000gn/T//ccSIaohd.s 			page 16


 467:Middlewares/Third_Party/LibJPEG/source/jdarith.c ****     for (;;) {
 468:Middlewares/Third_Party/LibJPEG/source/jdarith.c ****       thiscoef = *block + natural_order[k];
 469:Middlewares/Third_Party/LibJPEG/source/jdarith.c ****       if (*thiscoef) {				/* previously nonzero coef */
 470:Middlewares/Third_Party/LibJPEG/source/jdarith.c **** 	if (arith_decode(cinfo, st + 2)) {
 471:Middlewares/Third_Party/LibJPEG/source/jdarith.c **** 	  if (*thiscoef < 0)
 472:Middlewares/Third_Party/LibJPEG/source/jdarith.c **** 	    *thiscoef += m1;
 473:Middlewares/Third_Party/LibJPEG/source/jdarith.c **** 	  else
 474:Middlewares/Third_Party/LibJPEG/source/jdarith.c **** 	    *thiscoef += p1;
 475:Middlewares/Third_Party/LibJPEG/source/jdarith.c **** 	}
 476:Middlewares/Third_Party/LibJPEG/source/jdarith.c **** 	break;
 477:Middlewares/Third_Party/LibJPEG/source/jdarith.c ****       }
 478:Middlewares/Third_Party/LibJPEG/source/jdarith.c ****       if (arith_decode(cinfo, st + 1)) {	/* newly nonzero coef */
 479:Middlewares/Third_Party/LibJPEG/source/jdarith.c **** 	if (arith_decode(cinfo, entropy->fixed_bin))
 480:Middlewares/Third_Party/LibJPEG/source/jdarith.c **** 	  *thiscoef = m1;
 481:Middlewares/Third_Party/LibJPEG/source/jdarith.c **** 	else
 482:Middlewares/Third_Party/LibJPEG/source/jdarith.c **** 	  *thiscoef = p1;
 483:Middlewares/Third_Party/LibJPEG/source/jdarith.c **** 	break;
 484:Middlewares/Third_Party/LibJPEG/source/jdarith.c ****       }
 485:Middlewares/Third_Party/LibJPEG/source/jdarith.c ****       st += 3; k++;
 486:Middlewares/Third_Party/LibJPEG/source/jdarith.c ****       if (k > cinfo->Se) {
 487:Middlewares/Third_Party/LibJPEG/source/jdarith.c **** 	WARNMS(cinfo, JWRN_ARITH_BAD_CODE);
 488:Middlewares/Third_Party/LibJPEG/source/jdarith.c **** 	entropy->ct = -1;			/* spectral overflow */
 489:Middlewares/Third_Party/LibJPEG/source/jdarith.c **** 	return TRUE;
 490:Middlewares/Third_Party/LibJPEG/source/jdarith.c ****       }
 491:Middlewares/Third_Party/LibJPEG/source/jdarith.c ****     }
 492:Middlewares/Third_Party/LibJPEG/source/jdarith.c ****   }
 493:Middlewares/Third_Party/LibJPEG/source/jdarith.c **** 
 494:Middlewares/Third_Party/LibJPEG/source/jdarith.c ****   return TRUE;
 495:Middlewares/Third_Party/LibJPEG/source/jdarith.c **** }
 496:Middlewares/Third_Party/LibJPEG/source/jdarith.c **** 
 497:Middlewares/Third_Party/LibJPEG/source/jdarith.c **** 
 498:Middlewares/Third_Party/LibJPEG/source/jdarith.c **** /*
 499:Middlewares/Third_Party/LibJPEG/source/jdarith.c ****  * Decode one MCU's worth of arithmetic-compressed coefficients.
 500:Middlewares/Third_Party/LibJPEG/source/jdarith.c ****  */
 501:Middlewares/Third_Party/LibJPEG/source/jdarith.c **** 
 502:Middlewares/Third_Party/LibJPEG/source/jdarith.c **** METHODDEF(boolean)
 503:Middlewares/Third_Party/LibJPEG/source/jdarith.c **** decode_mcu (j_decompress_ptr cinfo, JBLOCKROW *MCU_data)
 504:Middlewares/Third_Party/LibJPEG/source/jdarith.c **** {
 505:Middlewares/Third_Party/LibJPEG/source/jdarith.c ****   arith_entropy_ptr entropy = (arith_entropy_ptr) cinfo->entropy;
 506:Middlewares/Third_Party/LibJPEG/source/jdarith.c ****   jpeg_component_info * compptr;
 507:Middlewares/Third_Party/LibJPEG/source/jdarith.c ****   JBLOCKROW block;
 508:Middlewares/Third_Party/LibJPEG/source/jdarith.c ****   unsigned char *st;
 509:Middlewares/Third_Party/LibJPEG/source/jdarith.c ****   int blkn, ci, tbl, sign, k;
 510:Middlewares/Third_Party/LibJPEG/source/jdarith.c ****   int v, m;
 511:Middlewares/Third_Party/LibJPEG/source/jdarith.c ****   const int * natural_order;
 512:Middlewares/Third_Party/LibJPEG/source/jdarith.c **** 
 513:Middlewares/Third_Party/LibJPEG/source/jdarith.c ****   /* Process restart marker if needed */
 514:Middlewares/Third_Party/LibJPEG/source/jdarith.c ****   if (cinfo->restart_interval) {
 515:Middlewares/Third_Party/LibJPEG/source/jdarith.c ****     if (entropy->restarts_to_go == 0)
 516:Middlewares/Third_Party/LibJPEG/source/jdarith.c ****       process_restart(cinfo);
 517:Middlewares/Third_Party/LibJPEG/source/jdarith.c ****     entropy->restarts_to_go--;
 518:Middlewares/Third_Party/LibJPEG/source/jdarith.c ****   }
 519:Middlewares/Third_Party/LibJPEG/source/jdarith.c **** 
 520:Middlewares/Third_Party/LibJPEG/source/jdarith.c ****   if (entropy->ct == -1) return TRUE;	/* if error do nothing */
 521:Middlewares/Third_Party/LibJPEG/source/jdarith.c **** 
 522:Middlewares/Third_Party/LibJPEG/source/jdarith.c ****   natural_order = cinfo->natural_order;
 523:Middlewares/Third_Party/LibJPEG/source/jdarith.c **** 
ARM GAS  /var/folders/mq/wg13gp494590nh4zyt09lxf00000gn/T//ccSIaohd.s 			page 17


 524:Middlewares/Third_Party/LibJPEG/source/jdarith.c ****   /* Outer loop handles each block in the MCU */
 525:Middlewares/Third_Party/LibJPEG/source/jdarith.c **** 
 526:Middlewares/Third_Party/LibJPEG/source/jdarith.c ****   for (blkn = 0; blkn < cinfo->blocks_in_MCU; blkn++) {
 527:Middlewares/Third_Party/LibJPEG/source/jdarith.c ****     block = MCU_data[blkn];
 528:Middlewares/Third_Party/LibJPEG/source/jdarith.c ****     ci = cinfo->MCU_membership[blkn];
 529:Middlewares/Third_Party/LibJPEG/source/jdarith.c ****     compptr = cinfo->cur_comp_info[ci];
 530:Middlewares/Third_Party/LibJPEG/source/jdarith.c **** 
 531:Middlewares/Third_Party/LibJPEG/source/jdarith.c ****     /* Sections F.2.4.1 & F.1.4.4.1: Decoding of DC coefficients */
 532:Middlewares/Third_Party/LibJPEG/source/jdarith.c **** 
 533:Middlewares/Third_Party/LibJPEG/source/jdarith.c ****     tbl = compptr->dc_tbl_no;
 534:Middlewares/Third_Party/LibJPEG/source/jdarith.c **** 
 535:Middlewares/Third_Party/LibJPEG/source/jdarith.c ****     /* Table F.4: Point to statistics bin S0 for DC coefficient coding */
 536:Middlewares/Third_Party/LibJPEG/source/jdarith.c ****     st = entropy->dc_stats[tbl] + entropy->dc_context[ci];
 537:Middlewares/Third_Party/LibJPEG/source/jdarith.c **** 
 538:Middlewares/Third_Party/LibJPEG/source/jdarith.c ****     /* Figure F.19: Decode_DC_DIFF */
 539:Middlewares/Third_Party/LibJPEG/source/jdarith.c ****     if (arith_decode(cinfo, st) == 0)
 540:Middlewares/Third_Party/LibJPEG/source/jdarith.c ****       entropy->dc_context[ci] = 0;
 541:Middlewares/Third_Party/LibJPEG/source/jdarith.c ****     else {
 542:Middlewares/Third_Party/LibJPEG/source/jdarith.c ****       /* Figure F.21: Decoding nonzero value v */
 543:Middlewares/Third_Party/LibJPEG/source/jdarith.c ****       /* Figure F.22: Decoding the sign of v */
 544:Middlewares/Third_Party/LibJPEG/source/jdarith.c ****       sign = arith_decode(cinfo, st + 1);
 545:Middlewares/Third_Party/LibJPEG/source/jdarith.c ****       st += 2; st += sign;
 546:Middlewares/Third_Party/LibJPEG/source/jdarith.c ****       /* Figure F.23: Decoding the magnitude category of v */
 547:Middlewares/Third_Party/LibJPEG/source/jdarith.c ****       if ((m = arith_decode(cinfo, st)) != 0) {
 548:Middlewares/Third_Party/LibJPEG/source/jdarith.c **** 	st = entropy->dc_stats[tbl] + 20;	/* Table F.4: X1 = 20 */
 549:Middlewares/Third_Party/LibJPEG/source/jdarith.c **** 	while (arith_decode(cinfo, st)) {
 550:Middlewares/Third_Party/LibJPEG/source/jdarith.c **** 	  if ((m <<= 1) == 0x8000) {
 551:Middlewares/Third_Party/LibJPEG/source/jdarith.c **** 	    WARNMS(cinfo, JWRN_ARITH_BAD_CODE);
 552:Middlewares/Third_Party/LibJPEG/source/jdarith.c **** 	    entropy->ct = -1;			/* magnitude overflow */
 553:Middlewares/Third_Party/LibJPEG/source/jdarith.c **** 	    return TRUE;
 554:Middlewares/Third_Party/LibJPEG/source/jdarith.c **** 	  }
 555:Middlewares/Third_Party/LibJPEG/source/jdarith.c **** 	  st += 1;
 556:Middlewares/Third_Party/LibJPEG/source/jdarith.c **** 	}
 557:Middlewares/Third_Party/LibJPEG/source/jdarith.c ****       }
 558:Middlewares/Third_Party/LibJPEG/source/jdarith.c ****       /* Section F.1.4.4.1.2: Establish dc_context conditioning category */
 559:Middlewares/Third_Party/LibJPEG/source/jdarith.c ****       if (m < (int) ((1L << cinfo->arith_dc_L[tbl]) >> 1))
 560:Middlewares/Third_Party/LibJPEG/source/jdarith.c **** 	entropy->dc_context[ci] = 0;		   /* zero diff category */
 561:Middlewares/Third_Party/LibJPEG/source/jdarith.c ****       else if (m > (int) ((1L << cinfo->arith_dc_U[tbl]) >> 1))
 562:Middlewares/Third_Party/LibJPEG/source/jdarith.c **** 	entropy->dc_context[ci] = 12 + (sign * 4); /* large diff category */
 563:Middlewares/Third_Party/LibJPEG/source/jdarith.c ****       else
 564:Middlewares/Third_Party/LibJPEG/source/jdarith.c **** 	entropy->dc_context[ci] = 4 + (sign * 4);  /* small diff category */
 565:Middlewares/Third_Party/LibJPEG/source/jdarith.c ****       v = m;
 566:Middlewares/Third_Party/LibJPEG/source/jdarith.c ****       /* Figure F.24: Decoding the magnitude bit pattern of v */
 567:Middlewares/Third_Party/LibJPEG/source/jdarith.c ****       st += 14;
 568:Middlewares/Third_Party/LibJPEG/source/jdarith.c ****       while (m >>= 1)
 569:Middlewares/Third_Party/LibJPEG/source/jdarith.c **** 	if (arith_decode(cinfo, st)) v |= m;
 570:Middlewares/Third_Party/LibJPEG/source/jdarith.c ****       v += 1; if (sign) v = -v;
 571:Middlewares/Third_Party/LibJPEG/source/jdarith.c ****       entropy->last_dc_val[ci] += v;
 572:Middlewares/Third_Party/LibJPEG/source/jdarith.c ****     }
 573:Middlewares/Third_Party/LibJPEG/source/jdarith.c **** 
 574:Middlewares/Third_Party/LibJPEG/source/jdarith.c ****     (*block)[0] = (JCOEF) entropy->last_dc_val[ci];
 575:Middlewares/Third_Party/LibJPEG/source/jdarith.c **** 
 576:Middlewares/Third_Party/LibJPEG/source/jdarith.c ****     /* Sections F.2.4.2 & F.1.4.4.2: Decoding of AC coefficients */
 577:Middlewares/Third_Party/LibJPEG/source/jdarith.c **** 
 578:Middlewares/Third_Party/LibJPEG/source/jdarith.c ****     if (cinfo->lim_Se == 0) continue;
 579:Middlewares/Third_Party/LibJPEG/source/jdarith.c ****     tbl = compptr->ac_tbl_no;
 580:Middlewares/Third_Party/LibJPEG/source/jdarith.c ****     k = 0;
ARM GAS  /var/folders/mq/wg13gp494590nh4zyt09lxf00000gn/T//ccSIaohd.s 			page 18


 581:Middlewares/Third_Party/LibJPEG/source/jdarith.c **** 
 582:Middlewares/Third_Party/LibJPEG/source/jdarith.c ****     /* Figure F.20: Decode_AC_coefficients */
 583:Middlewares/Third_Party/LibJPEG/source/jdarith.c ****     do {
 584:Middlewares/Third_Party/LibJPEG/source/jdarith.c ****       st = entropy->ac_stats[tbl] + 3 * k;
 585:Middlewares/Third_Party/LibJPEG/source/jdarith.c ****       if (arith_decode(cinfo, st)) break;	/* EOB flag */
 586:Middlewares/Third_Party/LibJPEG/source/jdarith.c ****       for (;;) {
 587:Middlewares/Third_Party/LibJPEG/source/jdarith.c **** 	k++;
 588:Middlewares/Third_Party/LibJPEG/source/jdarith.c **** 	if (arith_decode(cinfo, st + 1)) break;
 589:Middlewares/Third_Party/LibJPEG/source/jdarith.c **** 	st += 3;
 590:Middlewares/Third_Party/LibJPEG/source/jdarith.c **** 	if (k >= cinfo->lim_Se) {
 591:Middlewares/Third_Party/LibJPEG/source/jdarith.c **** 	  WARNMS(cinfo, JWRN_ARITH_BAD_CODE);
 592:Middlewares/Third_Party/LibJPEG/source/jdarith.c **** 	  entropy->ct = -1;			/* spectral overflow */
 593:Middlewares/Third_Party/LibJPEG/source/jdarith.c **** 	  return TRUE;
 594:Middlewares/Third_Party/LibJPEG/source/jdarith.c **** 	}
 595:Middlewares/Third_Party/LibJPEG/source/jdarith.c ****       }
 596:Middlewares/Third_Party/LibJPEG/source/jdarith.c ****       /* Figure F.21: Decoding nonzero value v */
 597:Middlewares/Third_Party/LibJPEG/source/jdarith.c ****       /* Figure F.22: Decoding the sign of v */
 598:Middlewares/Third_Party/LibJPEG/source/jdarith.c ****       sign = arith_decode(cinfo, entropy->fixed_bin);
 599:Middlewares/Third_Party/LibJPEG/source/jdarith.c ****       st += 2;
 600:Middlewares/Third_Party/LibJPEG/source/jdarith.c ****       /* Figure F.23: Decoding the magnitude category of v */
 601:Middlewares/Third_Party/LibJPEG/source/jdarith.c ****       if ((m = arith_decode(cinfo, st)) != 0) {
 602:Middlewares/Third_Party/LibJPEG/source/jdarith.c **** 	if (arith_decode(cinfo, st)) {
 603:Middlewares/Third_Party/LibJPEG/source/jdarith.c **** 	  m <<= 1;
 604:Middlewares/Third_Party/LibJPEG/source/jdarith.c **** 	  st = entropy->ac_stats[tbl] +
 605:Middlewares/Third_Party/LibJPEG/source/jdarith.c **** 	       (k <= cinfo->arith_ac_K[tbl] ? 189 : 217);
 606:Middlewares/Third_Party/LibJPEG/source/jdarith.c **** 	  while (arith_decode(cinfo, st)) {
 607:Middlewares/Third_Party/LibJPEG/source/jdarith.c **** 	    if ((m <<= 1) == 0x8000) {
 608:Middlewares/Third_Party/LibJPEG/source/jdarith.c **** 	      WARNMS(cinfo, JWRN_ARITH_BAD_CODE);
 609:Middlewares/Third_Party/LibJPEG/source/jdarith.c **** 	      entropy->ct = -1;			/* magnitude overflow */
 610:Middlewares/Third_Party/LibJPEG/source/jdarith.c **** 	      return TRUE;
 611:Middlewares/Third_Party/LibJPEG/source/jdarith.c **** 	    }
 612:Middlewares/Third_Party/LibJPEG/source/jdarith.c **** 	    st += 1;
 613:Middlewares/Third_Party/LibJPEG/source/jdarith.c **** 	  }
 614:Middlewares/Third_Party/LibJPEG/source/jdarith.c **** 	}
 615:Middlewares/Third_Party/LibJPEG/source/jdarith.c ****       }
 616:Middlewares/Third_Party/LibJPEG/source/jdarith.c ****       v = m;
 617:Middlewares/Third_Party/LibJPEG/source/jdarith.c ****       /* Figure F.24: Decoding the magnitude bit pattern of v */
 618:Middlewares/Third_Party/LibJPEG/source/jdarith.c ****       st += 14;
 619:Middlewares/Third_Party/LibJPEG/source/jdarith.c ****       while (m >>= 1)
 620:Middlewares/Third_Party/LibJPEG/source/jdarith.c **** 	if (arith_decode(cinfo, st)) v |= m;
 621:Middlewares/Third_Party/LibJPEG/source/jdarith.c ****       v += 1; if (sign) v = -v;
 622:Middlewares/Third_Party/LibJPEG/source/jdarith.c ****       (*block)[natural_order[k]] = (JCOEF) v;
 623:Middlewares/Third_Party/LibJPEG/source/jdarith.c ****     } while (k < cinfo->lim_Se);
 624:Middlewares/Third_Party/LibJPEG/source/jdarith.c ****   }
 625:Middlewares/Third_Party/LibJPEG/source/jdarith.c **** 
 626:Middlewares/Third_Party/LibJPEG/source/jdarith.c ****   return TRUE;
 627:Middlewares/Third_Party/LibJPEG/source/jdarith.c **** }
 628:Middlewares/Third_Party/LibJPEG/source/jdarith.c **** 
 629:Middlewares/Third_Party/LibJPEG/source/jdarith.c **** 
 630:Middlewares/Third_Party/LibJPEG/source/jdarith.c **** /*
 631:Middlewares/Third_Party/LibJPEG/source/jdarith.c ****  * Initialize for an arithmetic-compressed scan.
 632:Middlewares/Third_Party/LibJPEG/source/jdarith.c ****  */
 633:Middlewares/Third_Party/LibJPEG/source/jdarith.c **** 
 634:Middlewares/Third_Party/LibJPEG/source/jdarith.c **** METHODDEF(void)
 635:Middlewares/Third_Party/LibJPEG/source/jdarith.c **** start_pass (j_decompress_ptr cinfo)
 636:Middlewares/Third_Party/LibJPEG/source/jdarith.c **** {
 350              		.loc 1 636 1 is_stmt 1 view -0
ARM GAS  /var/folders/mq/wg13gp494590nh4zyt09lxf00000gn/T//ccSIaohd.s 			page 19


 351              		.cfi_startproc
 352              		@ args = 0, pretend = 0, frame = 0
 353              		@ frame_needed = 0, uses_anonymous_args = 0
 354              		.loc 1 636 1 is_stmt 0 view .LVU125
 355 0000 2DE9F047 		push	{r4, r5, r6, r7, r8, r9, r10, lr}
 356              	.LCFI2:
 357              		.cfi_def_cfa_offset 32
 358              		.cfi_offset 4, -32
 359              		.cfi_offset 5, -28
 360              		.cfi_offset 6, -24
 361              		.cfi_offset 7, -20
 362              		.cfi_offset 8, -16
 363              		.cfi_offset 9, -12
 364              		.cfi_offset 10, -8
 365              		.cfi_offset 14, -4
 366 0004 0446     		mov	r4, r0
 637:Middlewares/Third_Party/LibJPEG/source/jdarith.c ****   arith_entropy_ptr entropy = (arith_entropy_ptr) cinfo->entropy;
 367              		.loc 1 637 3 is_stmt 1 view .LVU126
 368              		.loc 1 637 21 is_stmt 0 view .LVU127
 369 0006 D0F8D081 		ldr	r8, [r0, #464]
 370              	.LVL28:
 638:Middlewares/Third_Party/LibJPEG/source/jdarith.c ****   int ci, tbl;
 371              		.loc 1 638 3 is_stmt 1 view .LVU128
 639:Middlewares/Third_Party/LibJPEG/source/jdarith.c ****   jpeg_component_info * compptr;
 372              		.loc 1 639 3 view .LVU129
 640:Middlewares/Third_Party/LibJPEG/source/jdarith.c **** 
 641:Middlewares/Third_Party/LibJPEG/source/jdarith.c ****   if (cinfo->progressive_mode) {
 373              		.loc 1 641 3 view .LVU130
 374              		.loc 1 641 12 is_stmt 0 view .LVU131
 375 000a D0F8E030 		ldr	r3, [r0, #224]
 376              		.loc 1 641 6 view .LVU132
 377 000e 002B     		cmp	r3, #0
 378 0010 00F09E80 		beq	.L21
 642:Middlewares/Third_Party/LibJPEG/source/jdarith.c ****     /* Validate progressive scan parameters */
 643:Middlewares/Third_Party/LibJPEG/source/jdarith.c ****     if (cinfo->Ss == 0) {
 379              		.loc 1 643 5 is_stmt 1 view .LVU133
 380              		.loc 1 643 14 is_stmt 0 view .LVU134
 381 0014 D0F89831 		ldr	r3, [r0, #408]
 382              		.loc 1 643 8 view .LVU135
 383 0018 43BB     		cbnz	r3, .L22
 644:Middlewares/Third_Party/LibJPEG/source/jdarith.c ****       if (cinfo->Se != 0)
 384              		.loc 1 644 7 is_stmt 1 view .LVU136
 385              		.loc 1 644 16 is_stmt 0 view .LVU137
 386 001a D0F89C31 		ldr	r3, [r0, #412]
 387              		.loc 1 644 10 view .LVU138
 388 001e 5BB9     		cbnz	r3, .L23
 389              	.L24:
 645:Middlewares/Third_Party/LibJPEG/source/jdarith.c **** 	goto bad;
 646:Middlewares/Third_Party/LibJPEG/source/jdarith.c ****     } else {
 647:Middlewares/Third_Party/LibJPEG/source/jdarith.c ****       /* need not check Ss/Se < 0 since they came from unsigned bytes */
 648:Middlewares/Third_Party/LibJPEG/source/jdarith.c ****       if (cinfo->Se < cinfo->Ss || cinfo->Se > cinfo->lim_Se)
 649:Middlewares/Third_Party/LibJPEG/source/jdarith.c **** 	goto bad;
 650:Middlewares/Third_Party/LibJPEG/source/jdarith.c ****       /* AC scans may have only one component */
 651:Middlewares/Third_Party/LibJPEG/source/jdarith.c ****       if (cinfo->comps_in_scan != 1)
 652:Middlewares/Third_Party/LibJPEG/source/jdarith.c **** 	goto bad;
 653:Middlewares/Third_Party/LibJPEG/source/jdarith.c ****     }
 654:Middlewares/Third_Party/LibJPEG/source/jdarith.c ****     if (cinfo->Ah != 0) {
ARM GAS  /var/folders/mq/wg13gp494590nh4zyt09lxf00000gn/T//ccSIaohd.s 			page 20


 390              		.loc 1 654 5 is_stmt 1 view .LVU139
 391              		.loc 1 654 14 is_stmt 0 view .LVU140
 392 0020 D4F8A031 		ldr	r3, [r4, #416]
 393              		.loc 1 654 8 view .LVU141
 394 0024 23B1     		cbz	r3, .L25
 655:Middlewares/Third_Party/LibJPEG/source/jdarith.c ****       /* Successive approximation refinement scan: must have Al = Ah-1. */
 656:Middlewares/Third_Party/LibJPEG/source/jdarith.c ****       if (cinfo->Ah-1 != cinfo->Al)
 395              		.loc 1 656 7 is_stmt 1 view .LVU142
 396              		.loc 1 656 20 is_stmt 0 view .LVU143
 397 0026 013B     		subs	r3, r3, #1
 398              		.loc 1 656 31 view .LVU144
 399 0028 D4F8A421 		ldr	r2, [r4, #420]
 400              		.loc 1 656 10 view .LVU145
 401 002c 9342     		cmp	r3, r2
 402 002e 03D1     		bne	.L23
 403              	.L25:
 657:Middlewares/Third_Party/LibJPEG/source/jdarith.c **** 	goto bad;
 658:Middlewares/Third_Party/LibJPEG/source/jdarith.c ****     }
 659:Middlewares/Third_Party/LibJPEG/source/jdarith.c ****     if (cinfo->Al > 13) {	/* need not check for < 0 */
 404              		.loc 1 659 5 is_stmt 1 view .LVU146
 405              		.loc 1 659 14 is_stmt 0 view .LVU147
 406 0030 D4F8A431 		ldr	r3, [r4, #420]
 407              		.loc 1 659 8 view .LVU148
 408 0034 0D2B     		cmp	r3, #13
 409 0036 16DD     		ble	.L26
 410              	.L23:
 660:Middlewares/Third_Party/LibJPEG/source/jdarith.c ****       bad:
 661:Middlewares/Third_Party/LibJPEG/source/jdarith.c ****       ERREXIT4(cinfo, JERR_BAD_PROGRESSION,
 411              		.loc 1 661 7 is_stmt 1 view .LVU149
 412 0038 2368     		ldr	r3, [r4]
 413 003a 1122     		movs	r2, #17
 414 003c 5A61     		str	r2, [r3, #20]
 415 003e 2368     		ldr	r3, [r4]
 416 0040 D4F89821 		ldr	r2, [r4, #408]
 417 0044 9A61     		str	r2, [r3, #24]
 418 0046 2368     		ldr	r3, [r4]
 419 0048 D4F89C21 		ldr	r2, [r4, #412]
 420 004c DA61     		str	r2, [r3, #28]
 421 004e 2368     		ldr	r3, [r4]
 422 0050 D4F8A021 		ldr	r2, [r4, #416]
 423 0054 1A62     		str	r2, [r3, #32]
 424 0056 2368     		ldr	r3, [r4]
 425 0058 D4F8A421 		ldr	r2, [r4, #420]
 426 005c 5A62     		str	r2, [r3, #36]
 427 005e 2368     		ldr	r3, [r4]
 428 0060 1B68     		ldr	r3, [r3]
 429 0062 2046     		mov	r0, r4
 430              	.LVL29:
 431              		.loc 1 661 7 is_stmt 0 view .LVU150
 432 0064 9847     		blx	r3
 433              	.LVL30:
 434              	.L26:
 636:Middlewares/Third_Party/LibJPEG/source/jdarith.c ****   arith_entropy_ptr entropy = (arith_entropy_ptr) cinfo->entropy;
 435              		.loc 1 636 1 view .LVU151
 436 0066 4FF0000A 		mov	r10, #0
 437 006a 3EE0     		b	.L27
 438              	.LVL31:
ARM GAS  /var/folders/mq/wg13gp494590nh4zyt09lxf00000gn/T//ccSIaohd.s 			page 21


 439              	.L22:
 648:Middlewares/Third_Party/LibJPEG/source/jdarith.c **** 	goto bad;
 440              		.loc 1 648 7 is_stmt 1 view .LVU152
 648:Middlewares/Third_Party/LibJPEG/source/jdarith.c **** 	goto bad;
 441              		.loc 1 648 16 is_stmt 0 view .LVU153
 442 006c D0F89C21 		ldr	r2, [r0, #412]
 648:Middlewares/Third_Party/LibJPEG/source/jdarith.c **** 	goto bad;
 443              		.loc 1 648 10 view .LVU154
 444 0070 9342     		cmp	r3, r2
 445 0072 E1DC     		bgt	.L23
 648:Middlewares/Third_Party/LibJPEG/source/jdarith.c **** 	goto bad;
 446              		.loc 1 648 53 discriminator 1 view .LVU155
 447 0074 D0F8B031 		ldr	r3, [r0, #432]
 648:Middlewares/Third_Party/LibJPEG/source/jdarith.c **** 	goto bad;
 448              		.loc 1 648 33 discriminator 1 view .LVU156
 449 0078 9A42     		cmp	r2, r3
 450 007a DDDC     		bgt	.L23
 651:Middlewares/Third_Party/LibJPEG/source/jdarith.c **** 	goto bad;
 451              		.loc 1 651 7 is_stmt 1 view .LVU157
 651:Middlewares/Third_Party/LibJPEG/source/jdarith.c **** 	goto bad;
 452              		.loc 1 651 16 is_stmt 0 view .LVU158
 453 007c D0F85031 		ldr	r3, [r0, #336]
 651:Middlewares/Third_Party/LibJPEG/source/jdarith.c **** 	goto bad;
 454              		.loc 1 651 10 view .LVU159
 455 0080 012B     		cmp	r3, #1
 456 0082 D9D1     		bne	.L23
 457 0084 CCE7     		b	.L24
 458              	.LVL32:
 459              	.L54:
 460              	.LBB2:
 662:Middlewares/Third_Party/LibJPEG/source/jdarith.c **** 	       cinfo->Ss, cinfo->Se, cinfo->Ah, cinfo->Al);
 663:Middlewares/Third_Party/LibJPEG/source/jdarith.c ****     }
 664:Middlewares/Third_Party/LibJPEG/source/jdarith.c ****     /* Update progression status, and verify that scan order is legal.
 665:Middlewares/Third_Party/LibJPEG/source/jdarith.c ****      * Note that inter-scan inconsistencies are treated as warnings
 666:Middlewares/Third_Party/LibJPEG/source/jdarith.c ****      * not fatal errors ... not clear if this is right way to behave.
 667:Middlewares/Third_Party/LibJPEG/source/jdarith.c ****      */
 668:Middlewares/Third_Party/LibJPEG/source/jdarith.c ****     for (ci = 0; ci < cinfo->comps_in_scan; ci++) {
 669:Middlewares/Third_Party/LibJPEG/source/jdarith.c ****       int coefi, cindex = cinfo->cur_comp_info[ci]->component_index;
 670:Middlewares/Third_Party/LibJPEG/source/jdarith.c ****       int *coef_bit_ptr = & cinfo->coef_bits[cindex][0];
 671:Middlewares/Third_Party/LibJPEG/source/jdarith.c ****       if (cinfo->Ss && coef_bit_ptr[0] < 0) /* AC without prior DC scan */
 672:Middlewares/Third_Party/LibJPEG/source/jdarith.c **** 	WARNMS2(cinfo, JWRN_BOGUS_PROGRESSION, cindex, 0);
 461              		.loc 1 672 2 is_stmt 1 view .LVU160
 462 0086 2368     		ldr	r3, [r4]
 463 0088 7622     		movs	r2, #118
 464 008a 5A61     		str	r2, [r3, #20]
 465 008c 2368     		ldr	r3, [r4]
 466 008e C3F81890 		str	r9, [r3, #24]
 467 0092 2368     		ldr	r3, [r4]
 468 0094 0022     		movs	r2, #0
 469 0096 DA61     		str	r2, [r3, #28]
 470 0098 2368     		ldr	r3, [r4]
 471 009a 5B68     		ldr	r3, [r3, #4]
 472 009c 4FF0FF31 		mov	r1, #-1
 473 00a0 2046     		mov	r0, r4
 474 00a2 9847     		blx	r3
 475              	.LVL33:
 476 00a4 38E0     		b	.L28
ARM GAS  /var/folders/mq/wg13gp494590nh4zyt09lxf00000gn/T//ccSIaohd.s 			page 22


 477              	.LVL34:
 478              	.L52:
 479              	.LBB3:
 673:Middlewares/Third_Party/LibJPEG/source/jdarith.c ****       for (coefi = cinfo->Ss; coefi <= cinfo->Se; coefi++) {
 674:Middlewares/Third_Party/LibJPEG/source/jdarith.c **** 	int expected = (coef_bit_ptr[coefi] < 0) ? 0 : coef_bit_ptr[coefi];
 675:Middlewares/Third_Party/LibJPEG/source/jdarith.c **** 	if (cinfo->Ah != expected)
 676:Middlewares/Third_Party/LibJPEG/source/jdarith.c **** 	  WARNMS2(cinfo, JWRN_BOGUS_PROGRESSION, cindex, coefi);
 480              		.loc 1 676 4 view .LVU161
 481 00a6 2368     		ldr	r3, [r4]
 482              	.LVL35:
 483              		.loc 1 676 4 is_stmt 0 view .LVU162
 484 00a8 7622     		movs	r2, #118
 485 00aa 5A61     		str	r2, [r3, #20]
 486              	.LVL36:
 487              		.loc 1 676 4 view .LVU163
 488 00ac 2368     		ldr	r3, [r4]
 489 00ae C3F81890 		str	r9, [r3, #24]
 490 00b2 2368     		ldr	r3, [r4]
 491 00b4 DD61     		str	r5, [r3, #28]
 492 00b6 2368     		ldr	r3, [r4]
 493 00b8 5B68     		ldr	r3, [r3, #4]
 494 00ba 4FF0FF31 		mov	r1, #-1
 495 00be 2046     		mov	r0, r4
 496 00c0 9847     		blx	r3
 497              	.LVL37:
 498              	.L30:
 677:Middlewares/Third_Party/LibJPEG/source/jdarith.c **** 	coef_bit_ptr[coefi] = cinfo->Al;
 499              		.loc 1 677 2 is_stmt 1 view .LVU164
 500              		.loc 1 677 29 is_stmt 0 view .LVU165
 501 00c2 D4F8A431 		ldr	r3, [r4, #420]
 502              		.loc 1 677 22 view .LVU166
 503 00c6 F351     		str	r3, [r6, r7]
 504              	.LBE3:
 673:Middlewares/Third_Party/LibJPEG/source/jdarith.c ****       for (coefi = cinfo->Ss; coefi <= cinfo->Se; coefi++) {
 505              		.loc 1 673 56 is_stmt 1 discriminator 2 view .LVU167
 506 00c8 0135     		adds	r5, r5, #1
 507              	.LVL38:
 508              	.L29:
 673:Middlewares/Third_Party/LibJPEG/source/jdarith.c ****       for (coefi = cinfo->Ss; coefi <= cinfo->Se; coefi++) {
 509              		.loc 1 673 37 discriminator 1 view .LVU168
 673:Middlewares/Third_Party/LibJPEG/source/jdarith.c ****       for (coefi = cinfo->Ss; coefi <= cinfo->Se; coefi++) {
 510              		.loc 1 673 45 is_stmt 0 discriminator 1 view .LVU169
 511 00ca D4F89C31 		ldr	r3, [r4, #412]
 673:Middlewares/Third_Party/LibJPEG/source/jdarith.c ****       for (coefi = cinfo->Ss; coefi <= cinfo->Se; coefi++) {
 512              		.loc 1 673 37 discriminator 1 view .LVU170
 513 00ce AB42     		cmp	r3, r5
 514 00d0 09DB     		blt	.L51
 515              	.LBB4:
 674:Middlewares/Third_Party/LibJPEG/source/jdarith.c **** 	if (cinfo->Ah != expected)
 516              		.loc 1 674 2 is_stmt 1 view .LVU171
 674:Middlewares/Third_Party/LibJPEG/source/jdarith.c **** 	if (cinfo->Ah != expected)
 517              		.loc 1 674 30 is_stmt 0 view .LVU172
 518 00d2 AF00     		lsls	r7, r5, #2
 519 00d4 56F82530 		ldr	r3, [r6, r5, lsl #2]
 674:Middlewares/Third_Party/LibJPEG/source/jdarith.c **** 	if (cinfo->Ah != expected)
 520              		.loc 1 674 6 view .LVU173
 521 00d8 23EAE373 		bic	r3, r3, r3, asr #31
ARM GAS  /var/folders/mq/wg13gp494590nh4zyt09lxf00000gn/T//ccSIaohd.s 			page 23


 522              	.LVL39:
 675:Middlewares/Third_Party/LibJPEG/source/jdarith.c **** 	  WARNMS2(cinfo, JWRN_BOGUS_PROGRESSION, cindex, coefi);
 523              		.loc 1 675 2 is_stmt 1 view .LVU174
 675:Middlewares/Third_Party/LibJPEG/source/jdarith.c **** 	  WARNMS2(cinfo, JWRN_BOGUS_PROGRESSION, cindex, coefi);
 524              		.loc 1 675 11 is_stmt 0 view .LVU175
 525 00dc D4F8A021 		ldr	r2, [r4, #416]
 675:Middlewares/Third_Party/LibJPEG/source/jdarith.c **** 	  WARNMS2(cinfo, JWRN_BOGUS_PROGRESSION, cindex, coefi);
 526              		.loc 1 675 5 view .LVU176
 527 00e0 9A42     		cmp	r2, r3
 528 00e2 E0D1     		bne	.L52
 675:Middlewares/Third_Party/LibJPEG/source/jdarith.c **** 	  WARNMS2(cinfo, JWRN_BOGUS_PROGRESSION, cindex, coefi);
 529              		.loc 1 675 5 view .LVU177
 530 00e4 EDE7     		b	.L30
 531              	.LVL40:
 532              	.L51:
 675:Middlewares/Third_Party/LibJPEG/source/jdarith.c **** 	  WARNMS2(cinfo, JWRN_BOGUS_PROGRESSION, cindex, coefi);
 533              		.loc 1 675 5 view .LVU178
 534              	.LBE4:
 535              	.LBE2:
 668:Middlewares/Third_Party/LibJPEG/source/jdarith.c ****       int coefi, cindex = cinfo->cur_comp_info[ci]->component_index;
 536              		.loc 1 668 47 is_stmt 1 discriminator 2 view .LVU179
 537 00e6 0AF1010A 		add	r10, r10, #1
 538              	.LVL41:
 539              	.L27:
 668:Middlewares/Third_Party/LibJPEG/source/jdarith.c ****       int coefi, cindex = cinfo->cur_comp_info[ci]->component_index;
 540              		.loc 1 668 21 discriminator 1 view .LVU180
 668:Middlewares/Third_Party/LibJPEG/source/jdarith.c ****       int coefi, cindex = cinfo->cur_comp_info[ci]->component_index;
 541              		.loc 1 668 28 is_stmt 0 discriminator 1 view .LVU181
 542 00ea D4F85031 		ldr	r3, [r4, #336]
 668:Middlewares/Third_Party/LibJPEG/source/jdarith.c ****       int coefi, cindex = cinfo->cur_comp_info[ci]->component_index;
 543              		.loc 1 668 21 discriminator 1 view .LVU182
 544 00ee 5345     		cmp	r3, r10
 545 00f0 15DD     		ble	.L53
 546              	.LBB5:
 669:Middlewares/Third_Party/LibJPEG/source/jdarith.c ****       int *coef_bit_ptr = & cinfo->coef_bits[cindex][0];
 547              		.loc 1 669 7 is_stmt 1 view .LVU183
 669:Middlewares/Third_Party/LibJPEG/source/jdarith.c ****       int *coef_bit_ptr = & cinfo->coef_bits[cindex][0];
 548              		.loc 1 669 47 is_stmt 0 view .LVU184
 549 00f2 0AF15403 		add	r3, r10, #84
 550 00f6 04EB8303 		add	r3, r4, r3, lsl #2
 551 00fa 5B68     		ldr	r3, [r3, #4]
 669:Middlewares/Third_Party/LibJPEG/source/jdarith.c ****       int *coef_bit_ptr = & cinfo->coef_bits[cindex][0];
 552              		.loc 1 669 18 view .LVU185
 553 00fc D3F80490 		ldr	r9, [r3, #4]
 554              	.LVL42:
 670:Middlewares/Third_Party/LibJPEG/source/jdarith.c ****       if (cinfo->Ss && coef_bit_ptr[0] < 0) /* AC without prior DC scan */
 555              		.loc 1 670 7 is_stmt 1 view .LVU186
 670:Middlewares/Third_Party/LibJPEG/source/jdarith.c ****       if (cinfo->Ss && coef_bit_ptr[0] < 0) /* AC without prior DC scan */
 556              		.loc 1 670 34 is_stmt 0 view .LVU187
 557 0100 D4F8A030 		ldr	r3, [r4, #160]
 670:Middlewares/Third_Party/LibJPEG/source/jdarith.c ****       if (cinfo->Ss && coef_bit_ptr[0] < 0) /* AC without prior DC scan */
 558              		.loc 1 670 45 view .LVU188
 559 0104 4FEA0921 		lsl	r1, r9, #8
 560 0108 03EB0926 		add	r6, r3, r9, lsl #8
 561              	.LVL43:
 671:Middlewares/Third_Party/LibJPEG/source/jdarith.c **** 	WARNMS2(cinfo, JWRN_BOGUS_PROGRESSION, cindex, 0);
 562              		.loc 1 671 7 is_stmt 1 view .LVU189
ARM GAS  /var/folders/mq/wg13gp494590nh4zyt09lxf00000gn/T//ccSIaohd.s 			page 24


 671:Middlewares/Third_Party/LibJPEG/source/jdarith.c **** 	WARNMS2(cinfo, JWRN_BOGUS_PROGRESSION, cindex, 0);
 563              		.loc 1 671 16 is_stmt 0 view .LVU190
 564 010c D4F89821 		ldr	r2, [r4, #408]
 671:Middlewares/Third_Party/LibJPEG/source/jdarith.c **** 	WARNMS2(cinfo, JWRN_BOGUS_PROGRESSION, cindex, 0);
 565              		.loc 1 671 10 view .LVU191
 566 0110 12B1     		cbz	r2, .L28
 671:Middlewares/Third_Party/LibJPEG/source/jdarith.c **** 	WARNMS2(cinfo, JWRN_BOGUS_PROGRESSION, cindex, 0);
 567              		.loc 1 671 36 discriminator 1 view .LVU192
 568 0112 5B58     		ldr	r3, [r3, r1]
 671:Middlewares/Third_Party/LibJPEG/source/jdarith.c **** 	WARNMS2(cinfo, JWRN_BOGUS_PROGRESSION, cindex, 0);
 569              		.loc 1 671 21 discriminator 1 view .LVU193
 570 0114 002B     		cmp	r3, #0
 571 0116 B6DB     		blt	.L54
 572              	.L28:
 673:Middlewares/Third_Party/LibJPEG/source/jdarith.c **** 	int expected = (coef_bit_ptr[coefi] < 0) ? 0 : coef_bit_ptr[coefi];
 573              		.loc 1 673 7 is_stmt 1 view .LVU194
 673:Middlewares/Third_Party/LibJPEG/source/jdarith.c **** 	int expected = (coef_bit_ptr[coefi] < 0) ? 0 : coef_bit_ptr[coefi];
 574              		.loc 1 673 18 is_stmt 0 view .LVU195
 575 0118 D4F89851 		ldr	r5, [r4, #408]
 576              	.LVL44:
 673:Middlewares/Third_Party/LibJPEG/source/jdarith.c **** 	int expected = (coef_bit_ptr[coefi] < 0) ? 0 : coef_bit_ptr[coefi];
 577              		.loc 1 673 7 view .LVU196
 578 011c D5E7     		b	.L29
 579              	.LVL45:
 580              	.L53:
 673:Middlewares/Third_Party/LibJPEG/source/jdarith.c **** 	int expected = (coef_bit_ptr[coefi] < 0) ? 0 : coef_bit_ptr[coefi];
 581              		.loc 1 673 7 view .LVU197
 582              	.LBE5:
 678:Middlewares/Third_Party/LibJPEG/source/jdarith.c ****       }
 679:Middlewares/Third_Party/LibJPEG/source/jdarith.c ****     }
 680:Middlewares/Third_Party/LibJPEG/source/jdarith.c ****     /* Select MCU decoding routine */
 681:Middlewares/Third_Party/LibJPEG/source/jdarith.c ****     if (cinfo->Ah == 0) {
 583              		.loc 1 681 5 is_stmt 1 view .LVU198
 584              		.loc 1 681 14 is_stmt 0 view .LVU199
 585 011e D4F8A031 		ldr	r3, [r4, #416]
 586              		.loc 1 681 8 view .LVU200
 587 0122 53B9     		cbnz	r3, .L33
 682:Middlewares/Third_Party/LibJPEG/source/jdarith.c ****       if (cinfo->Ss == 0)
 588              		.loc 1 682 7 is_stmt 1 view .LVU201
 589              		.loc 1 682 16 is_stmt 0 view .LVU202
 590 0124 D4F89831 		ldr	r3, [r4, #408]
 591              		.loc 1 682 10 view .LVU203
 592 0128 1BB9     		cbnz	r3, .L34
 683:Middlewares/Third_Party/LibJPEG/source/jdarith.c **** 	entropy->pub.decode_mcu = decode_mcu_DC_first;
 593              		.loc 1 683 2 is_stmt 1 view .LVU204
 594              		.loc 1 683 26 is_stmt 0 view .LVU205
 595 012a 5A4B     		ldr	r3, .L58
 596 012c C8F80430 		str	r3, [r8, #4]
 597 0130 2BE0     		b	.L35
 598              	.L34:
 684:Middlewares/Third_Party/LibJPEG/source/jdarith.c ****       else
 685:Middlewares/Third_Party/LibJPEG/source/jdarith.c **** 	entropy->pub.decode_mcu = decode_mcu_AC_first;
 599              		.loc 1 685 2 is_stmt 1 view .LVU206
 600              		.loc 1 685 26 is_stmt 0 view .LVU207
 601 0132 594B     		ldr	r3, .L58+4
 602 0134 C8F80430 		str	r3, [r8, #4]
 603 0138 27E0     		b	.L35
ARM GAS  /var/folders/mq/wg13gp494590nh4zyt09lxf00000gn/T//ccSIaohd.s 			page 25


 604              	.L33:
 686:Middlewares/Third_Party/LibJPEG/source/jdarith.c ****     } else {
 687:Middlewares/Third_Party/LibJPEG/source/jdarith.c ****       if (cinfo->Ss == 0)
 605              		.loc 1 687 7 is_stmt 1 view .LVU208
 606              		.loc 1 687 16 is_stmt 0 view .LVU209
 607 013a D4F89831 		ldr	r3, [r4, #408]
 608              		.loc 1 687 10 view .LVU210
 609 013e 1BB9     		cbnz	r3, .L37
 688:Middlewares/Third_Party/LibJPEG/source/jdarith.c **** 	entropy->pub.decode_mcu = decode_mcu_DC_refine;
 610              		.loc 1 688 2 is_stmt 1 view .LVU211
 611              		.loc 1 688 26 is_stmt 0 view .LVU212
 612 0140 564B     		ldr	r3, .L58+8
 613 0142 C8F80430 		str	r3, [r8, #4]
 614 0146 20E0     		b	.L35
 615              	.L37:
 689:Middlewares/Third_Party/LibJPEG/source/jdarith.c ****       else
 690:Middlewares/Third_Party/LibJPEG/source/jdarith.c **** 	entropy->pub.decode_mcu = decode_mcu_AC_refine;
 616              		.loc 1 690 2 is_stmt 1 view .LVU213
 617              		.loc 1 690 26 is_stmt 0 view .LVU214
 618 0148 554B     		ldr	r3, .L58+12
 619 014a C8F80430 		str	r3, [r8, #4]
 620 014e 1CE0     		b	.L35
 621              	.LVL46:
 622              	.L21:
 691:Middlewares/Third_Party/LibJPEG/source/jdarith.c ****     }
 692:Middlewares/Third_Party/LibJPEG/source/jdarith.c ****   } else {
 693:Middlewares/Third_Party/LibJPEG/source/jdarith.c ****     /* Check that the scan parameters Ss, Se, Ah/Al are OK for sequential JPEG.
 694:Middlewares/Third_Party/LibJPEG/source/jdarith.c ****      * This ought to be an error condition, but we make it a warning.
 695:Middlewares/Third_Party/LibJPEG/source/jdarith.c ****      */
 696:Middlewares/Third_Party/LibJPEG/source/jdarith.c ****     if (cinfo->Ss != 0 || cinfo->Ah != 0 || cinfo->Al != 0 ||
 623              		.loc 1 696 5 is_stmt 1 view .LVU215
 624              		.loc 1 696 14 is_stmt 0 view .LVU216
 625 0150 D0F89831 		ldr	r3, [r0, #408]
 626              		.loc 1 696 8 view .LVU217
 627 0154 6BB9     		cbnz	r3, .L38
 628              		.loc 1 696 32 discriminator 1 view .LVU218
 629 0156 D0F8A031 		ldr	r3, [r0, #416]
 630              		.loc 1 696 24 discriminator 1 view .LVU219
 631 015a 53B9     		cbnz	r3, .L38
 632              		.loc 1 696 50 discriminator 2 view .LVU220
 633 015c D0F8A431 		ldr	r3, [r0, #420]
 634              		.loc 1 696 42 discriminator 2 view .LVU221
 635 0160 3BB9     		cbnz	r3, .L38
 697:Middlewares/Third_Party/LibJPEG/source/jdarith.c **** 	(cinfo->Se < DCTSIZE2 && cinfo->Se != cinfo->lim_Se))
 636              		.loc 1 697 8 view .LVU222
 637 0162 D0F89C31 		ldr	r3, [r0, #412]
 696:Middlewares/Third_Party/LibJPEG/source/jdarith.c **** 	(cinfo->Se < DCTSIZE2 && cinfo->Se != cinfo->lim_Se))
 638              		.loc 1 696 60 discriminator 3 view .LVU223
 639 0166 3F2B     		cmp	r3, #63
 640 0168 0CDC     		bgt	.L39
 641              		.loc 1 697 45 view .LVU224
 642 016a D0F8B021 		ldr	r2, [r0, #432]
 643              		.loc 1 697 24 view .LVU225
 644 016e 9342     		cmp	r3, r2
 645 0170 08D0     		beq	.L39
 646              	.L38:
 698:Middlewares/Third_Party/LibJPEG/source/jdarith.c ****       WARNMS(cinfo, JWRN_NOT_SEQUENTIAL);
ARM GAS  /var/folders/mq/wg13gp494590nh4zyt09lxf00000gn/T//ccSIaohd.s 			page 26


 647              		.loc 1 698 7 is_stmt 1 view .LVU226
 648 0172 2368     		ldr	r3, [r4]
 649 0174 7D22     		movs	r2, #125
 650 0176 5A61     		str	r2, [r3, #20]
 651 0178 2368     		ldr	r3, [r4]
 652 017a 5B68     		ldr	r3, [r3, #4]
 653 017c 4FF0FF31 		mov	r1, #-1
 654 0180 2046     		mov	r0, r4
 655              	.LVL47:
 656              		.loc 1 698 7 is_stmt 0 view .LVU227
 657 0182 9847     		blx	r3
 658              	.LVL48:
 659              	.L39:
 699:Middlewares/Third_Party/LibJPEG/source/jdarith.c ****     /* Select MCU decoding routine */
 700:Middlewares/Third_Party/LibJPEG/source/jdarith.c ****     entropy->pub.decode_mcu = decode_mcu;
 660              		.loc 1 700 5 is_stmt 1 view .LVU228
 661              		.loc 1 700 29 is_stmt 0 view .LVU229
 662 0184 474B     		ldr	r3, .L58+16
 663 0186 C8F80430 		str	r3, [r8, #4]
 664              	.L35:
 636:Middlewares/Third_Party/LibJPEG/source/jdarith.c ****   arith_entropy_ptr entropy = (arith_entropy_ptr) cinfo->entropy;
 665              		.loc 1 636 1 view .LVU230
 666 018a 0025     		movs	r5, #0
 667 018c 46E0     		b	.L36
 668              	.LVL49:
 669              	.L40:
 701:Middlewares/Third_Party/LibJPEG/source/jdarith.c ****   }
 702:Middlewares/Third_Party/LibJPEG/source/jdarith.c **** 
 703:Middlewares/Third_Party/LibJPEG/source/jdarith.c ****   /* Allocate & initialize requested statistics areas */
 704:Middlewares/Third_Party/LibJPEG/source/jdarith.c ****   for (ci = 0; ci < cinfo->comps_in_scan; ci++) {
 705:Middlewares/Third_Party/LibJPEG/source/jdarith.c ****     compptr = cinfo->cur_comp_info[ci];
 706:Middlewares/Third_Party/LibJPEG/source/jdarith.c ****     if (! cinfo->progressive_mode || (cinfo->Ss == 0 && cinfo->Ah == 0)) {
 707:Middlewares/Third_Party/LibJPEG/source/jdarith.c ****       tbl = compptr->dc_tbl_no;
 670              		.loc 1 707 7 is_stmt 1 view .LVU231
 671              		.loc 1 707 11 is_stmt 0 view .LVU232
 672 018e 7E69     		ldr	r6, [r7, #20]
 673              	.LVL50:
 708:Middlewares/Third_Party/LibJPEG/source/jdarith.c ****       if (tbl < 0 || tbl >= NUM_ARITH_TBLS)
 674              		.loc 1 708 7 is_stmt 1 view .LVU233
 675              		.loc 1 708 10 is_stmt 0 view .LVU234
 676 0190 0F2E     		cmp	r6, #15
 677 0192 08D9     		bls	.L42
 709:Middlewares/Third_Party/LibJPEG/source/jdarith.c **** 	ERREXIT1(cinfo, JERR_NO_ARITH_TABLE, tbl);
 678              		.loc 1 709 2 is_stmt 1 view .LVU235
 679 0194 2368     		ldr	r3, [r4]
 680 0196 3222     		movs	r2, #50
 681 0198 5A61     		str	r2, [r3, #20]
 682 019a 2368     		ldr	r3, [r4]
 683 019c 9E61     		str	r6, [r3, #24]
 684 019e 2368     		ldr	r3, [r4]
 685 01a0 1B68     		ldr	r3, [r3]
 686 01a2 2046     		mov	r0, r4
 687 01a4 9847     		blx	r3
 688              	.LVL51:
 689              	.L42:
 710:Middlewares/Third_Party/LibJPEG/source/jdarith.c ****       if (entropy->dc_stats[tbl] == NULL)
 690              		.loc 1 710 7 view .LVU236
ARM GAS  /var/folders/mq/wg13gp494590nh4zyt09lxf00000gn/T//ccSIaohd.s 			page 27


 691              		.loc 1 710 28 is_stmt 0 view .LVU237
 692 01a6 06F10E03 		add	r3, r6, #14
 693 01aa 58F82330 		ldr	r3, [r8, r3, lsl #2]
 694              		.loc 1 710 10 view .LVU238
 695 01ae 002B     		cmp	r3, #0
 696 01b0 4AD0     		beq	.L55
 697              	.L43:
 711:Middlewares/Third_Party/LibJPEG/source/jdarith.c **** 	entropy->dc_stats[tbl] = (unsigned char *) (*cinfo->mem->alloc_small)
 712:Middlewares/Third_Party/LibJPEG/source/jdarith.c **** 	  ((j_common_ptr) cinfo, JPOOL_IMAGE, DC_STAT_BINS);
 713:Middlewares/Third_Party/LibJPEG/source/jdarith.c ****       MEMZERO(entropy->dc_stats[tbl], DC_STAT_BINS);
 698              		.loc 1 713 7 is_stmt 1 view .LVU239
 699 01b2 0E36     		adds	r6, r6, #14
 700              	.LVL52:
 701              		.loc 1 713 7 is_stmt 0 view .LVU240
 702 01b4 4022     		movs	r2, #64
 703 01b6 0021     		movs	r1, #0
 704 01b8 58F82600 		ldr	r0, [r8, r6, lsl #2]
 705 01bc FFF7FEFF 		bl	memset
 706              	.LVL53:
 714:Middlewares/Third_Party/LibJPEG/source/jdarith.c ****       /* Initialize DC predictions to 0 */
 715:Middlewares/Third_Party/LibJPEG/source/jdarith.c ****       entropy->last_dc_val[ci] = 0;
 707              		.loc 1 715 7 is_stmt 1 view .LVU241
 708              		.loc 1 715 32 is_stmt 0 view .LVU242
 709 01c0 2B1D     		adds	r3, r5, #4
 710 01c2 08EB8303 		add	r3, r8, r3, lsl #2
 711 01c6 0022     		movs	r2, #0
 712 01c8 5A60     		str	r2, [r3, #4]
 716:Middlewares/Third_Party/LibJPEG/source/jdarith.c ****       entropy->dc_context[ci] = 0;
 713              		.loc 1 716 7 is_stmt 1 view .LVU243
 714              		.loc 1 716 31 is_stmt 0 view .LVU244
 715 01ca 05F10803 		add	r3, r5, #8
 716 01ce 08EB8303 		add	r3, r8, r3, lsl #2
 717 01d2 5A60     		str	r2, [r3, #4]
 718              	.LVL54:
 719              	.L41:
 717:Middlewares/Third_Party/LibJPEG/source/jdarith.c ****     }
 718:Middlewares/Third_Party/LibJPEG/source/jdarith.c ****     if ((! cinfo->progressive_mode && cinfo->lim_Se) ||
 720              		.loc 1 718 5 is_stmt 1 view .LVU245
 721              		.loc 1 718 17 is_stmt 0 view .LVU246
 722 01d4 D4F8E030 		ldr	r3, [r4, #224]
 723              		.loc 1 718 8 view .LVU247
 724 01d8 13B9     		cbnz	r3, .L44
 725              		.loc 1 718 44 discriminator 1 view .LVU248
 726 01da D4F8B021 		ldr	r2, [r4, #432]
 727              		.loc 1 718 36 discriminator 1 view .LVU249
 728 01de 1AB9     		cbnz	r2, .L45
 729              	.L44:
 730              		.loc 1 718 54 discriminator 3 view .LVU250
 731 01e0 DBB1     		cbz	r3, .L46
 719:Middlewares/Third_Party/LibJPEG/source/jdarith.c **** 	(cinfo->progressive_mode && cinfo->Ss)) {
 732              		.loc 1 719 35 view .LVU251
 733 01e2 D4F89831 		ldr	r3, [r4, #408]
 734              		.loc 1 719 27 view .LVU252
 735 01e6 C3B1     		cbz	r3, .L46
 736              	.L45:
 720:Middlewares/Third_Party/LibJPEG/source/jdarith.c ****       tbl = compptr->ac_tbl_no;
 737              		.loc 1 720 7 is_stmt 1 view .LVU253
ARM GAS  /var/folders/mq/wg13gp494590nh4zyt09lxf00000gn/T//ccSIaohd.s 			page 28


 738              		.loc 1 720 11 is_stmt 0 view .LVU254
 739 01e8 BE69     		ldr	r6, [r7, #24]
 740              	.LVL55:
 721:Middlewares/Third_Party/LibJPEG/source/jdarith.c ****       if (tbl < 0 || tbl >= NUM_ARITH_TBLS)
 741              		.loc 1 721 7 is_stmt 1 view .LVU255
 742              		.loc 1 721 10 is_stmt 0 view .LVU256
 743 01ea 0F2E     		cmp	r6, #15
 744 01ec 08D9     		bls	.L47
 722:Middlewares/Third_Party/LibJPEG/source/jdarith.c **** 	ERREXIT1(cinfo, JERR_NO_ARITH_TABLE, tbl);
 745              		.loc 1 722 2 is_stmt 1 view .LVU257
 746 01ee 2368     		ldr	r3, [r4]
 747 01f0 3222     		movs	r2, #50
 748 01f2 5A61     		str	r2, [r3, #20]
 749 01f4 2368     		ldr	r3, [r4]
 750 01f6 9E61     		str	r6, [r3, #24]
 751 01f8 2368     		ldr	r3, [r4]
 752 01fa 1B68     		ldr	r3, [r3]
 753 01fc 2046     		mov	r0, r4
 754 01fe 9847     		blx	r3
 755              	.LVL56:
 756              	.L47:
 723:Middlewares/Third_Party/LibJPEG/source/jdarith.c ****       if (entropy->ac_stats[tbl] == NULL)
 757              		.loc 1 723 7 view .LVU258
 758              		.loc 1 723 28 is_stmt 0 view .LVU259
 759 0200 06F11E03 		add	r3, r6, #30
 760 0204 58F82330 		ldr	r3, [r8, r3, lsl #2]
 761              		.loc 1 723 10 view .LVU260
 762 0208 4BB3     		cbz	r3, .L56
 763              	.L48:
 724:Middlewares/Third_Party/LibJPEG/source/jdarith.c **** 	entropy->ac_stats[tbl] = (unsigned char *) (*cinfo->mem->alloc_small)
 725:Middlewares/Third_Party/LibJPEG/source/jdarith.c **** 	  ((j_common_ptr) cinfo, JPOOL_IMAGE, AC_STAT_BINS);
 726:Middlewares/Third_Party/LibJPEG/source/jdarith.c ****       MEMZERO(entropy->ac_stats[tbl], AC_STAT_BINS);
 764              		.loc 1 726 7 is_stmt 1 view .LVU261
 765 020a 1E36     		adds	r6, r6, #30
 766              	.LVL57:
 767              		.loc 1 726 7 is_stmt 0 view .LVU262
 768 020c 4FF48072 		mov	r2, #256
 769 0210 0021     		movs	r1, #0
 770 0212 58F82600 		ldr	r0, [r8, r6, lsl #2]
 771 0216 FFF7FEFF 		bl	memset
 772              	.LVL58:
 773              	.L46:
 704:Middlewares/Third_Party/LibJPEG/source/jdarith.c ****     compptr = cinfo->cur_comp_info[ci];
 774              		.loc 1 704 45 is_stmt 1 discriminator 2 view .LVU263
 775 021a 0135     		adds	r5, r5, #1
 776              	.LVL59:
 777              	.L36:
 704:Middlewares/Third_Party/LibJPEG/source/jdarith.c ****     compptr = cinfo->cur_comp_info[ci];
 778              		.loc 1 704 19 discriminator 1 view .LVU264
 704:Middlewares/Third_Party/LibJPEG/source/jdarith.c ****     compptr = cinfo->cur_comp_info[ci];
 779              		.loc 1 704 26 is_stmt 0 discriminator 1 view .LVU265
 780 021c D4F85031 		ldr	r3, [r4, #336]
 704:Middlewares/Third_Party/LibJPEG/source/jdarith.c ****     compptr = cinfo->cur_comp_info[ci];
 781              		.loc 1 704 19 discriminator 1 view .LVU266
 782 0220 AB42     		cmp	r3, r5
 783 0222 28DD     		ble	.L57
 705:Middlewares/Third_Party/LibJPEG/source/jdarith.c ****     if (! cinfo->progressive_mode || (cinfo->Ss == 0 && cinfo->Ah == 0)) {
ARM GAS  /var/folders/mq/wg13gp494590nh4zyt09lxf00000gn/T//ccSIaohd.s 			page 29


 784              		.loc 1 705 5 is_stmt 1 view .LVU267
 705:Middlewares/Third_Party/LibJPEG/source/jdarith.c ****     if (! cinfo->progressive_mode || (cinfo->Ss == 0 && cinfo->Ah == 0)) {
 785              		.loc 1 705 13 is_stmt 0 view .LVU268
 786 0224 05F15403 		add	r3, r5, #84
 787 0228 04EB8303 		add	r3, r4, r3, lsl #2
 788 022c 5F68     		ldr	r7, [r3, #4]
 789              	.LVL60:
 706:Middlewares/Third_Party/LibJPEG/source/jdarith.c ****       tbl = compptr->dc_tbl_no;
 790              		.loc 1 706 5 is_stmt 1 view .LVU269
 706:Middlewares/Third_Party/LibJPEG/source/jdarith.c ****       tbl = compptr->dc_tbl_no;
 791              		.loc 1 706 16 is_stmt 0 view .LVU270
 792 022e D4F8E030 		ldr	r3, [r4, #224]
 706:Middlewares/Third_Party/LibJPEG/source/jdarith.c ****       tbl = compptr->dc_tbl_no;
 793              		.loc 1 706 8 view .LVU271
 794 0232 002B     		cmp	r3, #0
 795 0234 ABD0     		beq	.L40
 706:Middlewares/Third_Party/LibJPEG/source/jdarith.c ****       tbl = compptr->dc_tbl_no;
 796              		.loc 1 706 44 discriminator 1 view .LVU272
 797 0236 D4F89831 		ldr	r3, [r4, #408]
 706:Middlewares/Third_Party/LibJPEG/source/jdarith.c ****       tbl = compptr->dc_tbl_no;
 798              		.loc 1 706 35 discriminator 1 view .LVU273
 799 023a 002B     		cmp	r3, #0
 800 023c CAD1     		bne	.L41
 706:Middlewares/Third_Party/LibJPEG/source/jdarith.c ****       tbl = compptr->dc_tbl_no;
 801              		.loc 1 706 62 discriminator 2 view .LVU274
 802 023e D4F8A031 		ldr	r3, [r4, #416]
 706:Middlewares/Third_Party/LibJPEG/source/jdarith.c ****       tbl = compptr->dc_tbl_no;
 803              		.loc 1 706 54 discriminator 2 view .LVU275
 804 0242 002B     		cmp	r3, #0
 805 0244 C6D1     		bne	.L41
 806 0246 A2E7     		b	.L40
 807              	.LVL61:
 808              	.L55:
 711:Middlewares/Third_Party/LibJPEG/source/jdarith.c **** 	  ((j_common_ptr) cinfo, JPOOL_IMAGE, DC_STAT_BINS);
 809              		.loc 1 711 2 is_stmt 1 view .LVU276
 711:Middlewares/Third_Party/LibJPEG/source/jdarith.c **** 	  ((j_common_ptr) cinfo, JPOOL_IMAGE, DC_STAT_BINS);
 810              		.loc 1 711 52 is_stmt 0 view .LVU277
 811 0248 6368     		ldr	r3, [r4, #4]
 711:Middlewares/Third_Party/LibJPEG/source/jdarith.c **** 	  ((j_common_ptr) cinfo, JPOOL_IMAGE, DC_STAT_BINS);
 812              		.loc 1 711 46 view .LVU278
 813 024a 1B68     		ldr	r3, [r3]
 814 024c 4022     		movs	r2, #64
 815 024e 0121     		movs	r1, #1
 816 0250 2046     		mov	r0, r4
 817 0252 9847     		blx	r3
 818              	.LVL62:
 711:Middlewares/Third_Party/LibJPEG/source/jdarith.c **** 	  ((j_common_ptr) cinfo, JPOOL_IMAGE, DC_STAT_BINS);
 819              		.loc 1 711 25 discriminator 1 view .LVU279
 820 0254 06F10E03 		add	r3, r6, #14
 821 0258 48F82300 		str	r0, [r8, r3, lsl #2]
 822 025c A9E7     		b	.L43
 823              	.L56:
 724:Middlewares/Third_Party/LibJPEG/source/jdarith.c **** 	  ((j_common_ptr) cinfo, JPOOL_IMAGE, AC_STAT_BINS);
 824              		.loc 1 724 2 is_stmt 1 view .LVU280
 724:Middlewares/Third_Party/LibJPEG/source/jdarith.c **** 	  ((j_common_ptr) cinfo, JPOOL_IMAGE, AC_STAT_BINS);
 825              		.loc 1 724 52 is_stmt 0 view .LVU281
 826 025e 6368     		ldr	r3, [r4, #4]
ARM GAS  /var/folders/mq/wg13gp494590nh4zyt09lxf00000gn/T//ccSIaohd.s 			page 30


 724:Middlewares/Third_Party/LibJPEG/source/jdarith.c **** 	  ((j_common_ptr) cinfo, JPOOL_IMAGE, AC_STAT_BINS);
 827              		.loc 1 724 46 view .LVU282
 828 0260 1B68     		ldr	r3, [r3]
 829 0262 4FF48072 		mov	r2, #256
 830 0266 0121     		movs	r1, #1
 831 0268 2046     		mov	r0, r4
 832 026a 9847     		blx	r3
 833              	.LVL63:
 724:Middlewares/Third_Party/LibJPEG/source/jdarith.c **** 	  ((j_common_ptr) cinfo, JPOOL_IMAGE, AC_STAT_BINS);
 834              		.loc 1 724 25 discriminator 1 view .LVU283
 835 026c 06F11E03 		add	r3, r6, #30
 836 0270 48F82300 		str	r0, [r8, r3, lsl #2]
 837 0274 C9E7     		b	.L48
 838              	.LVL64:
 839              	.L57:
 727:Middlewares/Third_Party/LibJPEG/source/jdarith.c ****     }
 728:Middlewares/Third_Party/LibJPEG/source/jdarith.c ****   }
 729:Middlewares/Third_Party/LibJPEG/source/jdarith.c **** 
 730:Middlewares/Third_Party/LibJPEG/source/jdarith.c ****   /* Initialize arithmetic decoding variables */
 731:Middlewares/Third_Party/LibJPEG/source/jdarith.c ****   entropy->c = 0;
 840              		.loc 1 731 3 is_stmt 1 view .LVU284
 841              		.loc 1 731 14 is_stmt 0 view .LVU285
 842 0276 0023     		movs	r3, #0
 843 0278 C8F80830 		str	r3, [r8, #8]
 732:Middlewares/Third_Party/LibJPEG/source/jdarith.c ****   entropy->a = 0;
 844              		.loc 1 732 3 is_stmt 1 view .LVU286
 845              		.loc 1 732 14 is_stmt 0 view .LVU287
 846 027c C8F80C30 		str	r3, [r8, #12]
 733:Middlewares/Third_Party/LibJPEG/source/jdarith.c ****   entropy->ct = -16;	/* force reading 2 initial bytes to fill C */
 847              		.loc 1 733 3 is_stmt 1 view .LVU288
 848              		.loc 1 733 15 is_stmt 0 view .LVU289
 849 0280 6FF00F03 		mvn	r3, #15
 850 0284 C8F81030 		str	r3, [r8, #16]
 734:Middlewares/Third_Party/LibJPEG/source/jdarith.c **** 
 735:Middlewares/Third_Party/LibJPEG/source/jdarith.c ****   /* Initialize restart counter */
 736:Middlewares/Third_Party/LibJPEG/source/jdarith.c ****   entropy->restarts_to_go = cinfo->restart_interval;
 851              		.loc 1 736 3 is_stmt 1 view .LVU290
 852              		.loc 1 736 34 is_stmt 0 view .LVU291
 853 0288 D4F81831 		ldr	r3, [r4, #280]
 854              		.loc 1 736 27 view .LVU292
 855 028c C8F83430 		str	r3, [r8, #52]
 737:Middlewares/Third_Party/LibJPEG/source/jdarith.c **** }
 856              		.loc 1 737 1 view .LVU293
 857 0290 BDE8F087 		pop	{r4, r5, r6, r7, r8, r9, r10, pc}
 858              	.LVL65:
 859              	.L59:
 860              		.loc 1 737 1 view .LVU294
 861              		.align	2
 862              	.L58:
 863 0294 00000000 		.word	decode_mcu_DC_first
 864 0298 00000000 		.word	decode_mcu_AC_first
 865 029c 00000000 		.word	decode_mcu_DC_refine
 866 02a0 00000000 		.word	decode_mcu_AC_refine
 867 02a4 00000000 		.word	decode_mcu
 868              		.cfi_endproc
 869              	.LFE155:
 871              		.section	.text.process_restart,"ax",%progbits
ARM GAS  /var/folders/mq/wg13gp494590nh4zyt09lxf00000gn/T//ccSIaohd.s 			page 31


 872              		.align	1
 873              		.syntax unified
 874              		.thumb
 875              		.thumb_func
 877              	process_restart:
 878              	.LVL66:
 879              	.LFB149:
 191:Middlewares/Third_Party/LibJPEG/source/jdarith.c ****   arith_entropy_ptr entropy = (arith_entropy_ptr) cinfo->entropy;
 880              		.loc 1 191 1 is_stmt 1 view -0
 881              		.cfi_startproc
 882              		@ args = 0, pretend = 0, frame = 0
 883              		@ frame_needed = 0, uses_anonymous_args = 0
 191:Middlewares/Third_Party/LibJPEG/source/jdarith.c ****   arith_entropy_ptr entropy = (arith_entropy_ptr) cinfo->entropy;
 884              		.loc 1 191 1 is_stmt 0 view .LVU296
 885 0000 F8B5     		push	{r3, r4, r5, r6, r7, lr}
 886              	.LCFI3:
 887              		.cfi_def_cfa_offset 24
 888              		.cfi_offset 3, -24
 889              		.cfi_offset 4, -20
 890              		.cfi_offset 5, -16
 891              		.cfi_offset 6, -12
 892              		.cfi_offset 7, -8
 893              		.cfi_offset 14, -4
 894 0002 0446     		mov	r4, r0
 192:Middlewares/Third_Party/LibJPEG/source/jdarith.c ****   int ci;
 895              		.loc 1 192 3 is_stmt 1 view .LVU297
 192:Middlewares/Third_Party/LibJPEG/source/jdarith.c ****   int ci;
 896              		.loc 1 192 21 is_stmt 0 view .LVU298
 897 0004 D0F8D061 		ldr	r6, [r0, #464]
 898              	.LVL67:
 193:Middlewares/Third_Party/LibJPEG/source/jdarith.c ****   jpeg_component_info * compptr;
 899              		.loc 1 193 3 is_stmt 1 view .LVU299
 194:Middlewares/Third_Party/LibJPEG/source/jdarith.c **** 
 900              		.loc 1 194 3 view .LVU300
 197:Middlewares/Third_Party/LibJPEG/source/jdarith.c ****     ERREXIT(cinfo, JERR_CANT_SUSPEND);
 901              		.loc 1 197 3 view .LVU301
 197:Middlewares/Third_Party/LibJPEG/source/jdarith.c ****     ERREXIT(cinfo, JERR_CANT_SUSPEND);
 902              		.loc 1 197 16 is_stmt 0 view .LVU302
 903 0008 D0F8CC31 		ldr	r3, [r0, #460]
 197:Middlewares/Third_Party/LibJPEG/source/jdarith.c ****     ERREXIT(cinfo, JERR_CANT_SUSPEND);
 904              		.loc 1 197 10 view .LVU303
 905 000c 9B68     		ldr	r3, [r3, #8]
 906 000e 9847     		blx	r3
 907              	.LVL68:
 197:Middlewares/Third_Party/LibJPEG/source/jdarith.c ****     ERREXIT(cinfo, JERR_CANT_SUSPEND);
 908              		.loc 1 197 6 discriminator 1 view .LVU304
 909 0010 30B9     		cbnz	r0, .L61
 198:Middlewares/Third_Party/LibJPEG/source/jdarith.c **** 
 910              		.loc 1 198 5 is_stmt 1 view .LVU305
 911 0012 2368     		ldr	r3, [r4]
 912 0014 1922     		movs	r2, #25
 913 0016 5A61     		str	r2, [r3, #20]
 914 0018 2368     		ldr	r3, [r4]
 915 001a 1B68     		ldr	r3, [r3]
 916 001c 2046     		mov	r0, r4
 917 001e 9847     		blx	r3
 918              	.LVL69:
ARM GAS  /var/folders/mq/wg13gp494590nh4zyt09lxf00000gn/T//ccSIaohd.s 			page 32


 919              	.L61:
 191:Middlewares/Third_Party/LibJPEG/source/jdarith.c ****   arith_entropy_ptr entropy = (arith_entropy_ptr) cinfo->entropy;
 920              		.loc 1 191 1 is_stmt 0 view .LVU306
 921 0020 0025     		movs	r5, #0
 922 0022 25E0     		b	.L62
 923              	.LVL70:
 924              	.L63:
 204:Middlewares/Third_Party/LibJPEG/source/jdarith.c ****       /* Reset DC predictions to 0 */
 925              		.loc 1 204 7 is_stmt 1 view .LVU307
 926 0024 7B69     		ldr	r3, [r7, #20]
 927 0026 0E33     		adds	r3, r3, #14
 928 0028 4022     		movs	r2, #64
 929 002a 0021     		movs	r1, #0
 930 002c 56F82300 		ldr	r0, [r6, r3, lsl #2]
 931 0030 FFF7FEFF 		bl	memset
 932              	.LVL71:
 206:Middlewares/Third_Party/LibJPEG/source/jdarith.c ****       entropy->dc_context[ci] = 0;
 933              		.loc 1 206 7 view .LVU308
 206:Middlewares/Third_Party/LibJPEG/source/jdarith.c ****       entropy->dc_context[ci] = 0;
 934              		.loc 1 206 32 is_stmt 0 view .LVU309
 935 0034 2B1D     		adds	r3, r5, #4
 936 0036 06EB8303 		add	r3, r6, r3, lsl #2
 937 003a 0022     		movs	r2, #0
 938 003c 5A60     		str	r2, [r3, #4]
 207:Middlewares/Third_Party/LibJPEG/source/jdarith.c ****     }
 939              		.loc 1 207 7 is_stmt 1 view .LVU310
 207:Middlewares/Third_Party/LibJPEG/source/jdarith.c ****     }
 940              		.loc 1 207 31 is_stmt 0 view .LVU311
 941 003e 05F10803 		add	r3, r5, #8
 942 0042 06EB8303 		add	r3, r6, r3, lsl #2
 943 0046 5A60     		str	r2, [r3, #4]
 944              	.L64:
 209:Middlewares/Third_Party/LibJPEG/source/jdarith.c **** 	(cinfo->progressive_mode && cinfo->Ss)) {
 945              		.loc 1 209 5 is_stmt 1 view .LVU312
 209:Middlewares/Third_Party/LibJPEG/source/jdarith.c **** 	(cinfo->progressive_mode && cinfo->Ss)) {
 946              		.loc 1 209 17 is_stmt 0 view .LVU313
 947 0048 D4F8E030 		ldr	r3, [r4, #224]
 209:Middlewares/Third_Party/LibJPEG/source/jdarith.c **** 	(cinfo->progressive_mode && cinfo->Ss)) {
 948              		.loc 1 209 8 view .LVU314
 949 004c 13B9     		cbnz	r3, .L65
 209:Middlewares/Third_Party/LibJPEG/source/jdarith.c **** 	(cinfo->progressive_mode && cinfo->Ss)) {
 950              		.loc 1 209 44 discriminator 1 view .LVU315
 951 004e D4F8B021 		ldr	r2, [r4, #432]
 209:Middlewares/Third_Party/LibJPEG/source/jdarith.c **** 	(cinfo->progressive_mode && cinfo->Ss)) {
 952              		.loc 1 209 36 discriminator 1 view .LVU316
 953 0052 1AB9     		cbnz	r2, .L66
 954              	.L65:
 209:Middlewares/Third_Party/LibJPEG/source/jdarith.c **** 	(cinfo->progressive_mode && cinfo->Ss)) {
 955              		.loc 1 209 54 discriminator 3 view .LVU317
 956 0054 5BB1     		cbz	r3, .L67
 210:Middlewares/Third_Party/LibJPEG/source/jdarith.c ****       MEMZERO(entropy->ac_stats[compptr->ac_tbl_no], AC_STAT_BINS);
 957              		.loc 1 210 35 view .LVU318
 958 0056 D4F89831 		ldr	r3, [r4, #408]
 210:Middlewares/Third_Party/LibJPEG/source/jdarith.c ****       MEMZERO(entropy->ac_stats[compptr->ac_tbl_no], AC_STAT_BINS);
 959              		.loc 1 210 27 view .LVU319
 960 005a 43B1     		cbz	r3, .L67
 961              	.L66:
ARM GAS  /var/folders/mq/wg13gp494590nh4zyt09lxf00000gn/T//ccSIaohd.s 			page 33


 211:Middlewares/Third_Party/LibJPEG/source/jdarith.c ****     }
 962              		.loc 1 211 7 is_stmt 1 view .LVU320
 963 005c BB69     		ldr	r3, [r7, #24]
 964 005e 1E33     		adds	r3, r3, #30
 965 0060 4FF48072 		mov	r2, #256
 966 0064 0021     		movs	r1, #0
 967 0066 56F82300 		ldr	r0, [r6, r3, lsl #2]
 968 006a FFF7FEFF 		bl	memset
 969              	.LVL72:
 970              	.L67:
 201:Middlewares/Third_Party/LibJPEG/source/jdarith.c ****     compptr = cinfo->cur_comp_info[ci];
 971              		.loc 1 201 45 discriminator 2 view .LVU321
 972 006e 0135     		adds	r5, r5, #1
 973              	.LVL73:
 974              	.L62:
 201:Middlewares/Third_Party/LibJPEG/source/jdarith.c ****     compptr = cinfo->cur_comp_info[ci];
 975              		.loc 1 201 19 discriminator 1 view .LVU322
 201:Middlewares/Third_Party/LibJPEG/source/jdarith.c ****     compptr = cinfo->cur_comp_info[ci];
 976              		.loc 1 201 26 is_stmt 0 discriminator 1 view .LVU323
 977 0070 D4F85031 		ldr	r3, [r4, #336]
 201:Middlewares/Third_Party/LibJPEG/source/jdarith.c ****     compptr = cinfo->cur_comp_info[ci];
 978              		.loc 1 201 19 discriminator 1 view .LVU324
 979 0074 AB42     		cmp	r3, r5
 980 0076 11DD     		ble	.L70
 202:Middlewares/Third_Party/LibJPEG/source/jdarith.c ****     if (! cinfo->progressive_mode || (cinfo->Ss == 0 && cinfo->Ah == 0)) {
 981              		.loc 1 202 5 is_stmt 1 view .LVU325
 202:Middlewares/Third_Party/LibJPEG/source/jdarith.c ****     if (! cinfo->progressive_mode || (cinfo->Ss == 0 && cinfo->Ah == 0)) {
 982              		.loc 1 202 13 is_stmt 0 view .LVU326
 983 0078 05F15403 		add	r3, r5, #84
 984 007c 04EB8303 		add	r3, r4, r3, lsl #2
 985 0080 5F68     		ldr	r7, [r3, #4]
 986              	.LVL74:
 203:Middlewares/Third_Party/LibJPEG/source/jdarith.c ****       MEMZERO(entropy->dc_stats[compptr->dc_tbl_no], DC_STAT_BINS);
 987              		.loc 1 203 5 is_stmt 1 view .LVU327
 203:Middlewares/Third_Party/LibJPEG/source/jdarith.c ****       MEMZERO(entropy->dc_stats[compptr->dc_tbl_no], DC_STAT_BINS);
 988              		.loc 1 203 16 is_stmt 0 view .LVU328
 989 0082 D4F8E030 		ldr	r3, [r4, #224]
 203:Middlewares/Third_Party/LibJPEG/source/jdarith.c ****       MEMZERO(entropy->dc_stats[compptr->dc_tbl_no], DC_STAT_BINS);
 990              		.loc 1 203 8 view .LVU329
 991 0086 002B     		cmp	r3, #0
 992 0088 CCD0     		beq	.L63
 203:Middlewares/Third_Party/LibJPEG/source/jdarith.c ****       MEMZERO(entropy->dc_stats[compptr->dc_tbl_no], DC_STAT_BINS);
 993              		.loc 1 203 44 discriminator 1 view .LVU330
 994 008a D4F89831 		ldr	r3, [r4, #408]
 203:Middlewares/Third_Party/LibJPEG/source/jdarith.c ****       MEMZERO(entropy->dc_stats[compptr->dc_tbl_no], DC_STAT_BINS);
 995              		.loc 1 203 35 discriminator 1 view .LVU331
 996 008e 002B     		cmp	r3, #0
 997 0090 DAD1     		bne	.L64
 203:Middlewares/Third_Party/LibJPEG/source/jdarith.c ****       MEMZERO(entropy->dc_stats[compptr->dc_tbl_no], DC_STAT_BINS);
 998              		.loc 1 203 62 discriminator 2 view .LVU332
 999 0092 D4F8A031 		ldr	r3, [r4, #416]
 203:Middlewares/Third_Party/LibJPEG/source/jdarith.c ****       MEMZERO(entropy->dc_stats[compptr->dc_tbl_no], DC_STAT_BINS);
 1000              		.loc 1 203 54 discriminator 2 view .LVU333
 1001 0096 002B     		cmp	r3, #0
 1002 0098 D6D1     		bne	.L64
 1003 009a C3E7     		b	.L63
 1004              	.LVL75:
ARM GAS  /var/folders/mq/wg13gp494590nh4zyt09lxf00000gn/T//ccSIaohd.s 			page 34


 1005              	.L70:
 216:Middlewares/Third_Party/LibJPEG/source/jdarith.c ****   entropy->a = 0;
 1006              		.loc 1 216 3 is_stmt 1 view .LVU334
 216:Middlewares/Third_Party/LibJPEG/source/jdarith.c ****   entropy->a = 0;
 1007              		.loc 1 216 14 is_stmt 0 view .LVU335
 1008 009c 0023     		movs	r3, #0
 1009 009e B360     		str	r3, [r6, #8]
 217:Middlewares/Third_Party/LibJPEG/source/jdarith.c ****   entropy->ct = -16;	/* force reading 2 initial bytes to fill C */
 1010              		.loc 1 217 3 is_stmt 1 view .LVU336
 217:Middlewares/Third_Party/LibJPEG/source/jdarith.c ****   entropy->ct = -16;	/* force reading 2 initial bytes to fill C */
 1011              		.loc 1 217 14 is_stmt 0 view .LVU337
 1012 00a0 F360     		str	r3, [r6, #12]
 218:Middlewares/Third_Party/LibJPEG/source/jdarith.c **** 
 1013              		.loc 1 218 3 is_stmt 1 view .LVU338
 218:Middlewares/Third_Party/LibJPEG/source/jdarith.c **** 
 1014              		.loc 1 218 15 is_stmt 0 view .LVU339
 1015 00a2 6FF00F03 		mvn	r3, #15
 1016 00a6 3361     		str	r3, [r6, #16]
 221:Middlewares/Third_Party/LibJPEG/source/jdarith.c **** }
 1017              		.loc 1 221 3 is_stmt 1 view .LVU340
 221:Middlewares/Third_Party/LibJPEG/source/jdarith.c **** }
 1018              		.loc 1 221 34 is_stmt 0 view .LVU341
 1019 00a8 D4F81831 		ldr	r3, [r4, #280]
 221:Middlewares/Third_Party/LibJPEG/source/jdarith.c **** }
 1020              		.loc 1 221 27 view .LVU342
 1021 00ac 7363     		str	r3, [r6, #52]
 222:Middlewares/Third_Party/LibJPEG/source/jdarith.c **** 
 1022              		.loc 1 222 1 view .LVU343
 1023 00ae F8BD     		pop	{r3, r4, r5, r6, r7, pc}
 222:Middlewares/Third_Party/LibJPEG/source/jdarith.c **** 
 1024              		.loc 1 222 1 view .LVU344
 1025              		.cfi_endproc
 1026              	.LFE149:
 1028              		.section	.text.decode_mcu,"ax",%progbits
 1029              		.align	1
 1030              		.syntax unified
 1031              		.thumb
 1032              		.thumb_func
 1034              	decode_mcu:
 1035              	.LVL76:
 1036              	.LFB154:
 504:Middlewares/Third_Party/LibJPEG/source/jdarith.c ****   arith_entropy_ptr entropy = (arith_entropy_ptr) cinfo->entropy;
 1037              		.loc 1 504 1 is_stmt 1 view -0
 1038              		.cfi_startproc
 1039              		@ args = 0, pretend = 0, frame = 16
 1040              		@ frame_needed = 0, uses_anonymous_args = 0
 504:Middlewares/Third_Party/LibJPEG/source/jdarith.c ****   arith_entropy_ptr entropy = (arith_entropy_ptr) cinfo->entropy;
 1041              		.loc 1 504 1 is_stmt 0 view .LVU346
 1042 0000 2DE9F04F 		push	{r4, r5, r6, r7, r8, r9, r10, fp, lr}
 1043              	.LCFI4:
 1044              		.cfi_def_cfa_offset 36
 1045              		.cfi_offset 4, -36
 1046              		.cfi_offset 5, -32
 1047              		.cfi_offset 6, -28
 1048              		.cfi_offset 7, -24
 1049              		.cfi_offset 8, -20
 1050              		.cfi_offset 9, -16
ARM GAS  /var/folders/mq/wg13gp494590nh4zyt09lxf00000gn/T//ccSIaohd.s 			page 35


 1051              		.cfi_offset 10, -12
 1052              		.cfi_offset 11, -8
 1053              		.cfi_offset 14, -4
 1054 0004 85B0     		sub	sp, sp, #20
 1055              	.LCFI5:
 1056              		.cfi_def_cfa_offset 56
 1057 0006 0446     		mov	r4, r0
 1058 0008 0191     		str	r1, [sp, #4]
 505:Middlewares/Third_Party/LibJPEG/source/jdarith.c ****   jpeg_component_info * compptr;
 1059              		.loc 1 505 3 is_stmt 1 view .LVU347
 505:Middlewares/Third_Party/LibJPEG/source/jdarith.c ****   jpeg_component_info * compptr;
 1060              		.loc 1 505 21 is_stmt 0 view .LVU348
 1061 000a D0F8D071 		ldr	r7, [r0, #464]
 1062              	.LVL77:
 506:Middlewares/Third_Party/LibJPEG/source/jdarith.c ****   JBLOCKROW block;
 1063              		.loc 1 506 3 is_stmt 1 view .LVU349
 507:Middlewares/Third_Party/LibJPEG/source/jdarith.c ****   unsigned char *st;
 1064              		.loc 1 507 3 view .LVU350
 508:Middlewares/Third_Party/LibJPEG/source/jdarith.c ****   int blkn, ci, tbl, sign, k;
 1065              		.loc 1 508 3 view .LVU351
 509:Middlewares/Third_Party/LibJPEG/source/jdarith.c ****   int v, m;
 1066              		.loc 1 509 3 view .LVU352
 510:Middlewares/Third_Party/LibJPEG/source/jdarith.c ****   const int * natural_order;
 1067              		.loc 1 510 3 view .LVU353
 511:Middlewares/Third_Party/LibJPEG/source/jdarith.c **** 
 1068              		.loc 1 511 3 view .LVU354
 514:Middlewares/Third_Party/LibJPEG/source/jdarith.c ****     if (entropy->restarts_to_go == 0)
 1069              		.loc 1 514 3 view .LVU355
 514:Middlewares/Third_Party/LibJPEG/source/jdarith.c ****     if (entropy->restarts_to_go == 0)
 1070              		.loc 1 514 12 is_stmt 0 view .LVU356
 1071 000e D0F81831 		ldr	r3, [r0, #280]
 514:Middlewares/Third_Party/LibJPEG/source/jdarith.c ****     if (entropy->restarts_to_go == 0)
 1072              		.loc 1 514 6 view .LVU357
 1073 0012 23B1     		cbz	r3, .L72
 515:Middlewares/Third_Party/LibJPEG/source/jdarith.c ****       process_restart(cinfo);
 1074              		.loc 1 515 5 is_stmt 1 view .LVU358
 515:Middlewares/Third_Party/LibJPEG/source/jdarith.c ****       process_restart(cinfo);
 1075              		.loc 1 515 16 is_stmt 0 view .LVU359
 1076 0014 7B6B     		ldr	r3, [r7, #52]
 515:Middlewares/Third_Party/LibJPEG/source/jdarith.c ****       process_restart(cinfo);
 1077              		.loc 1 515 8 view .LVU360
 1078 0016 6BB1     		cbz	r3, .L106
 1079              	.LVL78:
 1080              	.L73:
 517:Middlewares/Third_Party/LibJPEG/source/jdarith.c ****   }
 1081              		.loc 1 517 5 is_stmt 1 view .LVU361
 517:Middlewares/Third_Party/LibJPEG/source/jdarith.c ****   }
 1082              		.loc 1 517 12 is_stmt 0 view .LVU362
 1083 0018 7B6B     		ldr	r3, [r7, #52]
 517:Middlewares/Third_Party/LibJPEG/source/jdarith.c ****   }
 1084              		.loc 1 517 28 view .LVU363
 1085 001a 013B     		subs	r3, r3, #1
 1086 001c 7B63     		str	r3, [r7, #52]
 1087              	.L72:
 520:Middlewares/Third_Party/LibJPEG/source/jdarith.c **** 
 1088              		.loc 1 520 3 is_stmt 1 view .LVU364
 520:Middlewares/Third_Party/LibJPEG/source/jdarith.c **** 
ARM GAS  /var/folders/mq/wg13gp494590nh4zyt09lxf00000gn/T//ccSIaohd.s 			page 36


 1089              		.loc 1 520 14 is_stmt 0 view .LVU365
 1090 001e 3B69     		ldr	r3, [r7, #16]
 520:Middlewares/Third_Party/LibJPEG/source/jdarith.c **** 
 1091              		.loc 1 520 6 view .LVU366
 1092 0020 B3F1FF3F 		cmp	r3, #-1
 1093 0024 00F03581 		beq	.L74
 522:Middlewares/Third_Party/LibJPEG/source/jdarith.c **** 
 1094              		.loc 1 522 3 is_stmt 1 view .LVU367
 522:Middlewares/Third_Party/LibJPEG/source/jdarith.c **** 
 1095              		.loc 1 522 17 is_stmt 0 view .LVU368
 1096 0028 D4F8AC31 		ldr	r3, [r4, #428]
 1097 002c 0293     		str	r3, [sp, #8]
 1098              	.LVL79:
 526:Middlewares/Third_Party/LibJPEG/source/jdarith.c ****     block = MCU_data[blkn];
 1099              		.loc 1 526 3 is_stmt 1 view .LVU369
 526:Middlewares/Third_Party/LibJPEG/source/jdarith.c ****     block = MCU_data[blkn];
 1100              		.loc 1 526 13 is_stmt 0 view .LVU370
 1101 002e 4FF0000A 		mov	r10, #0
 526:Middlewares/Third_Party/LibJPEG/source/jdarith.c ****     block = MCU_data[blkn];
 1102              		.loc 1 526 3 view .LVU371
 1103 0032 CFE0     		b	.L75
 1104              	.LVL80:
 1105              	.L106:
 516:Middlewares/Third_Party/LibJPEG/source/jdarith.c ****     entropy->restarts_to_go--;
 1106              		.loc 1 516 7 is_stmt 1 view .LVU372
 1107 0034 FFF7FEFF 		bl	process_restart
 1108              	.LVL81:
 516:Middlewares/Third_Party/LibJPEG/source/jdarith.c ****     entropy->restarts_to_go--;
 1109              		.loc 1 516 7 is_stmt 0 view .LVU373
 1110 0038 EEE7     		b	.L73
 1111              	.LVL82:
 1112              	.L76:
 544:Middlewares/Third_Party/LibJPEG/source/jdarith.c ****       st += 2; st += sign;
 1113              		.loc 1 544 7 is_stmt 1 view .LVU374
 544:Middlewares/Third_Party/LibJPEG/source/jdarith.c ****       st += 2; st += sign;
 1114              		.loc 1 544 14 is_stmt 0 view .LVU375
 1115 003a 691C     		adds	r1, r5, #1
 1116 003c 2046     		mov	r0, r4
 1117 003e FFF7FEFF 		bl	arith_decode
 1118              	.LVL83:
 1119 0042 0346     		mov	r3, r0
 1120 0044 0390     		str	r0, [sp, #12]
 1121              	.LVL84:
 545:Middlewares/Third_Party/LibJPEG/source/jdarith.c ****       /* Figure F.23: Decoding the magnitude category of v */
 1122              		.loc 1 545 7 is_stmt 1 view .LVU376
 545:Middlewares/Third_Party/LibJPEG/source/jdarith.c ****       /* Figure F.23: Decoding the magnitude category of v */
 1123              		.loc 1 545 16 view .LVU377
 545:Middlewares/Third_Party/LibJPEG/source/jdarith.c ****       /* Figure F.23: Decoding the magnitude category of v */
 1124              		.loc 1 545 19 is_stmt 0 view .LVU378
 1125 0046 0233     		adds	r3, r3, #2
 1126 0048 1D44     		add	r5, r5, r3
 1127              	.LVL85:
 547:Middlewares/Third_Party/LibJPEG/source/jdarith.c **** 	st = entropy->dc_stats[tbl] + 20;	/* Table F.4: X1 = 20 */
 1128              		.loc 1 547 7 is_stmt 1 view .LVU379
 547:Middlewares/Third_Party/LibJPEG/source/jdarith.c **** 	st = entropy->dc_stats[tbl] + 20;	/* Table F.4: X1 = 20 */
 1129              		.loc 1 547 16 is_stmt 0 view .LVU380
 1130 004a 2946     		mov	r1, r5
ARM GAS  /var/folders/mq/wg13gp494590nh4zyt09lxf00000gn/T//ccSIaohd.s 			page 37


 1131 004c 2046     		mov	r0, r4
 1132              	.LVL86:
 547:Middlewares/Third_Party/LibJPEG/source/jdarith.c **** 	st = entropy->dc_stats[tbl] + 20;	/* Table F.4: X1 = 20 */
 1133              		.loc 1 547 16 view .LVU381
 1134 004e FFF7FEFF 		bl	arith_decode
 1135              	.LVL87:
 547:Middlewares/Third_Party/LibJPEG/source/jdarith.c **** 	st = entropy->dc_stats[tbl] + 20;	/* Table F.4: X1 = 20 */
 1136              		.loc 1 547 10 discriminator 1 view .LVU382
 1137 0052 8046     		mov	r8, r0
 1138 0054 E8B1     		cbz	r0, .L78
 548:Middlewares/Third_Party/LibJPEG/source/jdarith.c **** 	while (arith_decode(cinfo, st)) {
 1139              		.loc 1 548 2 is_stmt 1 view .LVU383
 548:Middlewares/Third_Party/LibJPEG/source/jdarith.c **** 	while (arith_decode(cinfo, st)) {
 1140              		.loc 1 548 24 is_stmt 0 view .LVU384
 1141 0056 0BF10E03 		add	r3, fp, #14
 1142 005a 57F82350 		ldr	r5, [r7, r3, lsl #2]
 1143              	.LVL88:
 548:Middlewares/Third_Party/LibJPEG/source/jdarith.c **** 	while (arith_decode(cinfo, st)) {
 1144              		.loc 1 548 5 view .LVU385
 1145 005e 1435     		adds	r5, r5, #20
 1146              	.LVL89:
 549:Middlewares/Third_Party/LibJPEG/source/jdarith.c **** 	  if ((m <<= 1) == 0x8000) {
 1147              		.loc 1 549 2 is_stmt 1 view .LVU386
 1148              	.L79:
 549:Middlewares/Third_Party/LibJPEG/source/jdarith.c **** 	  if ((m <<= 1) == 0x8000) {
 1149              		.loc 1 549 9 view .LVU387
 1150 0060 2946     		mov	r1, r5
 1151 0062 2046     		mov	r0, r4
 1152 0064 FFF7FEFF 		bl	arith_decode
 1153              	.LVL90:
 549:Middlewares/Third_Party/LibJPEG/source/jdarith.c **** 	  if ((m <<= 1) == 0x8000) {
 1154              		.loc 1 549 9 is_stmt 0 discriminator 1 view .LVU388
 1155 0068 98B1     		cbz	r0, .L78
 550:Middlewares/Third_Party/LibJPEG/source/jdarith.c **** 	    WARNMS(cinfo, JWRN_ARITH_BAD_CODE);
 1156              		.loc 1 550 4 is_stmt 1 view .LVU389
 550:Middlewares/Third_Party/LibJPEG/source/jdarith.c **** 	    WARNMS(cinfo, JWRN_ARITH_BAD_CODE);
 1157              		.loc 1 550 11 is_stmt 0 view .LVU390
 1158 006a 4FEA4808 		lsl	r8, r8, #1
 1159              	.LVL91:
 550:Middlewares/Third_Party/LibJPEG/source/jdarith.c **** 	    WARNMS(cinfo, JWRN_ARITH_BAD_CODE);
 1160              		.loc 1 550 7 view .LVU391
 1161 006e B8F5004F 		cmp	r8, #32768
 1162 0072 01D0     		beq	.L107
 555:Middlewares/Third_Party/LibJPEG/source/jdarith.c **** 	}
 1163              		.loc 1 555 4 is_stmt 1 view .LVU392
 555:Middlewares/Third_Party/LibJPEG/source/jdarith.c **** 	}
 1164              		.loc 1 555 7 is_stmt 0 view .LVU393
 1165 0074 0135     		adds	r5, r5, #1
 1166              	.LVL92:
 555:Middlewares/Third_Party/LibJPEG/source/jdarith.c **** 	}
 1167              		.loc 1 555 7 view .LVU394
 1168 0076 F3E7     		b	.L79
 1169              	.L107:
 551:Middlewares/Third_Party/LibJPEG/source/jdarith.c **** 	    entropy->ct = -1;			/* magnitude overflow */
 1170              		.loc 1 551 6 is_stmt 1 view .LVU395
 1171 0078 2368     		ldr	r3, [r4]
 1172 007a 7522     		movs	r2, #117
ARM GAS  /var/folders/mq/wg13gp494590nh4zyt09lxf00000gn/T//ccSIaohd.s 			page 38


 1173 007c 5A61     		str	r2, [r3, #20]
 1174 007e 2368     		ldr	r3, [r4]
 1175 0080 5B68     		ldr	r3, [r3, #4]
 1176 0082 4FF0FF31 		mov	r1, #-1
 1177 0086 2046     		mov	r0, r4
 1178 0088 9847     		blx	r3
 1179              	.LVL93:
 552:Middlewares/Third_Party/LibJPEG/source/jdarith.c **** 	    return TRUE;
 1180              		.loc 1 552 6 view .LVU396
 552:Middlewares/Third_Party/LibJPEG/source/jdarith.c **** 	    return TRUE;
 1181              		.loc 1 552 18 is_stmt 0 view .LVU397
 1182 008a 4FF0FF33 		mov	r3, #-1
 1183 008e 3B61     		str	r3, [r7, #16]
 553:Middlewares/Third_Party/LibJPEG/source/jdarith.c **** 	  }
 1184              		.loc 1 553 6 is_stmt 1 view .LVU398
 553:Middlewares/Third_Party/LibJPEG/source/jdarith.c **** 	  }
 1185              		.loc 1 553 13 is_stmt 0 view .LVU399
 1186 0090 FFE0     		b	.L74
 1187              	.L78:
 559:Middlewares/Third_Party/LibJPEG/source/jdarith.c **** 	entropy->dc_context[ci] = 0;		   /* zero diff category */
 1188              		.loc 1 559 7 is_stmt 1 view .LVU400
 559:Middlewares/Third_Party/LibJPEG/source/jdarith.c **** 	entropy->dc_context[ci] = 0;		   /* zero diff category */
 1189              		.loc 1 559 46 is_stmt 0 view .LVU401
 1190 0092 04EB0B03 		add	r3, r4, fp
 1191 0096 93F8E820 		ldrb	r2, [r3, #232]	@ zero_extendqisi2
 559:Middlewares/Third_Party/LibJPEG/source/jdarith.c **** 	entropy->dc_context[ci] = 0;		   /* zero diff category */
 1192              		.loc 1 559 26 view .LVU402
 1193 009a 0123     		movs	r3, #1
 1194 009c 9340     		lsls	r3, r3, r2
 559:Middlewares/Third_Party/LibJPEG/source/jdarith.c **** 	entropy->dc_context[ci] = 0;		   /* zero diff category */
 1195              		.loc 1 559 10 view .LVU403
 1196 009e B8EB630F 		cmp	r8, r3, asr #1
 1197 00a2 13DA     		bge	.L82
 560:Middlewares/Third_Party/LibJPEG/source/jdarith.c ****       else if (m > (int) ((1L << cinfo->arith_dc_U[tbl]) >> 1))
 1198              		.loc 1 560 2 is_stmt 1 view .LVU404
 560:Middlewares/Third_Party/LibJPEG/source/jdarith.c ****       else if (m > (int) ((1L << cinfo->arith_dc_U[tbl]) >> 1))
 1199              		.loc 1 560 26 is_stmt 0 view .LVU405
 1200 00a4 06F10803 		add	r3, r6, #8
 1201 00a8 07EB8303 		add	r3, r7, r3, lsl #2
 1202 00ac 0022     		movs	r2, #0
 1203 00ae 5A60     		str	r2, [r3, #4]
 1204              	.LVL94:
 1205              	.L83:
 565:Middlewares/Third_Party/LibJPEG/source/jdarith.c ****       /* Figure F.24: Decoding the magnitude bit pattern of v */
 1206              		.loc 1 565 7 is_stmt 1 view .LVU406
 567:Middlewares/Third_Party/LibJPEG/source/jdarith.c ****       while (m >>= 1)
 1207              		.loc 1 567 7 view .LVU407
 567:Middlewares/Third_Party/LibJPEG/source/jdarith.c ****       while (m >>= 1)
 1208              		.loc 1 567 10 is_stmt 0 view .LVU408
 1209 00b0 0E35     		adds	r5, r5, #14
 1210              	.LVL95:
 568:Middlewares/Third_Party/LibJPEG/source/jdarith.c **** 	if (arith_decode(cinfo, st)) v |= m;
 1211              		.loc 1 568 7 is_stmt 1 view .LVU409
 568:Middlewares/Third_Party/LibJPEG/source/jdarith.c **** 	if (arith_decode(cinfo, st)) v |= m;
 1212              		.loc 1 568 13 is_stmt 0 view .LVU410
 1213 00b2 C346     		mov	fp, r8
 1214              	.LVL96:
ARM GAS  /var/folders/mq/wg13gp494590nh4zyt09lxf00000gn/T//ccSIaohd.s 			page 39


 1215              	.L85:
 568:Middlewares/Third_Party/LibJPEG/source/jdarith.c **** 	if (arith_decode(cinfo, st)) v |= m;
 1216              		.loc 1 568 14 is_stmt 1 view .LVU411
 568:Middlewares/Third_Party/LibJPEG/source/jdarith.c **** 	if (arith_decode(cinfo, st)) v |= m;
 1217              		.loc 1 568 14 is_stmt 0 view .LVU412
 1218 00b4 5FEA6B0B 		asrs	fp, fp, #1
 1219              	.LVL97:
 568:Middlewares/Third_Party/LibJPEG/source/jdarith.c **** 	if (arith_decode(cinfo, st)) v |= m;
 1220              		.loc 1 568 14 view .LVU413
 1221 00b8 22D0     		beq	.L108
 569:Middlewares/Third_Party/LibJPEG/source/jdarith.c ****       v += 1; if (sign) v = -v;
 1222              		.loc 1 569 2 is_stmt 1 view .LVU414
 569:Middlewares/Third_Party/LibJPEG/source/jdarith.c ****       v += 1; if (sign) v = -v;
 1223              		.loc 1 569 6 is_stmt 0 view .LVU415
 1224 00ba 2946     		mov	r1, r5
 1225 00bc 2046     		mov	r0, r4
 1226 00be FFF7FEFF 		bl	arith_decode
 1227              	.LVL98:
 569:Middlewares/Third_Party/LibJPEG/source/jdarith.c ****       v += 1; if (sign) v = -v;
 1228              		.loc 1 569 5 discriminator 1 view .LVU416
 1229 00c2 0028     		cmp	r0, #0
 1230 00c4 F6D0     		beq	.L85
 569:Middlewares/Third_Party/LibJPEG/source/jdarith.c ****       v += 1; if (sign) v = -v;
 1231              		.loc 1 569 31 is_stmt 1 discriminator 1 view .LVU417
 569:Middlewares/Third_Party/LibJPEG/source/jdarith.c ****       v += 1; if (sign) v = -v;
 1232              		.loc 1 569 33 is_stmt 0 discriminator 1 view .LVU418
 1233 00c6 48EA0B08 		orr	r8, r8, fp
 1234              	.LVL99:
 569:Middlewares/Third_Party/LibJPEG/source/jdarith.c ****       v += 1; if (sign) v = -v;
 1235              		.loc 1 569 33 discriminator 1 view .LVU419
 1236 00ca F3E7     		b	.L85
 1237              	.LVL100:
 1238              	.L82:
 561:Middlewares/Third_Party/LibJPEG/source/jdarith.c **** 	entropy->dc_context[ci] = 12 + (sign * 4); /* large diff category */
 1239              		.loc 1 561 12 is_stmt 1 view .LVU420
 561:Middlewares/Third_Party/LibJPEG/source/jdarith.c **** 	entropy->dc_context[ci] = 12 + (sign * 4); /* large diff category */
 1240              		.loc 1 561 51 is_stmt 0 view .LVU421
 1241 00cc A344     		add	fp, fp, r4
 1242              	.LVL101:
 561:Middlewares/Third_Party/LibJPEG/source/jdarith.c **** 	entropy->dc_context[ci] = 12 + (sign * 4); /* large diff category */
 1243              		.loc 1 561 51 view .LVU422
 1244 00ce 9BF8F820 		ldrb	r2, [fp, #248]	@ zero_extendqisi2
 561:Middlewares/Third_Party/LibJPEG/source/jdarith.c **** 	entropy->dc_context[ci] = 12 + (sign * 4); /* large diff category */
 1245              		.loc 1 561 31 view .LVU423
 1246 00d2 0123     		movs	r3, #1
 1247 00d4 9340     		lsls	r3, r3, r2
 561:Middlewares/Third_Party/LibJPEG/source/jdarith.c **** 	entropy->dc_context[ci] = 12 + (sign * 4); /* large diff category */
 1248              		.loc 1 561 15 view .LVU424
 1249 00d6 B8EB630F 		cmp	r8, r3, asr #1
 1250 00da 08DD     		ble	.L84
 562:Middlewares/Third_Party/LibJPEG/source/jdarith.c ****       else
 1251              		.loc 1 562 2 is_stmt 1 view .LVU425
 562:Middlewares/Third_Party/LibJPEG/source/jdarith.c ****       else
 1252              		.loc 1 562 31 is_stmt 0 view .LVU426
 1253 00dc 039B     		ldr	r3, [sp, #12]
 1254 00de DA1C     		adds	r2, r3, #3
 1255 00e0 9200     		lsls	r2, r2, #2
ARM GAS  /var/folders/mq/wg13gp494590nh4zyt09lxf00000gn/T//ccSIaohd.s 			page 40


 562:Middlewares/Third_Party/LibJPEG/source/jdarith.c ****       else
 1256              		.loc 1 562 26 view .LVU427
 1257 00e2 06F10803 		add	r3, r6, #8
 1258 00e6 07EB8303 		add	r3, r7, r3, lsl #2
 1259 00ea 5A60     		str	r2, [r3, #4]
 1260 00ec E0E7     		b	.L83
 1261              	.L84:
 564:Middlewares/Third_Party/LibJPEG/source/jdarith.c ****       v = m;
 1262              		.loc 1 564 2 is_stmt 1 view .LVU428
 564:Middlewares/Third_Party/LibJPEG/source/jdarith.c ****       v = m;
 1263              		.loc 1 564 30 is_stmt 0 view .LVU429
 1264 00ee 039B     		ldr	r3, [sp, #12]
 1265 00f0 5A1C     		adds	r2, r3, #1
 1266 00f2 9200     		lsls	r2, r2, #2
 564:Middlewares/Third_Party/LibJPEG/source/jdarith.c ****       v = m;
 1267              		.loc 1 564 26 view .LVU430
 1268 00f4 06F10803 		add	r3, r6, #8
 1269 00f8 07EB8303 		add	r3, r7, r3, lsl #2
 1270 00fc 5A60     		str	r2, [r3, #4]
 1271 00fe D7E7     		b	.L83
 1272              	.LVL102:
 1273              	.L108:
 570:Middlewares/Third_Party/LibJPEG/source/jdarith.c ****       entropy->last_dc_val[ci] += v;
 1274              		.loc 1 570 7 is_stmt 1 view .LVU431
 570:Middlewares/Third_Party/LibJPEG/source/jdarith.c ****       entropy->last_dc_val[ci] += v;
 1275              		.loc 1 570 9 is_stmt 0 view .LVU432
 1276 0100 08F10101 		add	r1, r8, #1
 1277              	.LVL103:
 570:Middlewares/Third_Party/LibJPEG/source/jdarith.c ****       entropy->last_dc_val[ci] += v;
 1278              		.loc 1 570 15 is_stmt 1 view .LVU433
 570:Middlewares/Third_Party/LibJPEG/source/jdarith.c ****       entropy->last_dc_val[ci] += v;
 1279              		.loc 1 570 18 is_stmt 0 view .LVU434
 1280 0104 039B     		ldr	r3, [sp, #12]
 1281 0106 0BB1     		cbz	r3, .L88
 570:Middlewares/Third_Party/LibJPEG/source/jdarith.c ****       entropy->last_dc_val[ci] += v;
 1282              		.loc 1 570 25 is_stmt 1 discriminator 1 view .LVU435
 570:Middlewares/Third_Party/LibJPEG/source/jdarith.c ****       entropy->last_dc_val[ci] += v;
 1283              		.loc 1 570 27 is_stmt 0 discriminator 1 view .LVU436
 1284 0108 6FEA0801 		mvn	r1, r8
 1285              	.LVL104:
 1286              	.L88:
 571:Middlewares/Third_Party/LibJPEG/source/jdarith.c ****     }
 1287              		.loc 1 571 7 is_stmt 1 view .LVU437
 571:Middlewares/Third_Party/LibJPEG/source/jdarith.c ****     }
 1288              		.loc 1 571 27 is_stmt 0 view .LVU438
 1289 010c 331D     		adds	r3, r6, #4
 1290 010e 07EB8303 		add	r3, r7, r3, lsl #2
 1291 0112 5A68     		ldr	r2, [r3, #4]
 571:Middlewares/Third_Party/LibJPEG/source/jdarith.c ****     }
 1292              		.loc 1 571 32 view .LVU439
 1293 0114 0A44     		add	r2, r2, r1
 1294 0116 5A60     		str	r2, [r3, #4]
 1295 0118 87E0     		b	.L77
 1296              	.LVL105:
 1297              	.L90:
 598:Middlewares/Third_Party/LibJPEG/source/jdarith.c ****       st += 2;
 1298              		.loc 1 598 7 is_stmt 1 view .LVU440
ARM GAS  /var/folders/mq/wg13gp494590nh4zyt09lxf00000gn/T//ccSIaohd.s 			page 41


 598:Middlewares/Third_Party/LibJPEG/source/jdarith.c ****       st += 2;
 1299              		.loc 1 598 14 is_stmt 0 view .LVU441
 1300 011a 07F1B801 		add	r1, r7, #184
 1301 011e 2046     		mov	r0, r4
 1302 0120 FFF7FEFF 		bl	arith_decode
 1303              	.LVL106:
 1304 0124 0390     		str	r0, [sp, #12]
 1305              	.LVL107:
 599:Middlewares/Third_Party/LibJPEG/source/jdarith.c ****       /* Figure F.23: Decoding the magnitude category of v */
 1306              		.loc 1 599 7 is_stmt 1 view .LVU442
 599:Middlewares/Third_Party/LibJPEG/source/jdarith.c ****       /* Figure F.23: Decoding the magnitude category of v */
 1307              		.loc 1 599 10 is_stmt 0 view .LVU443
 1308 0126 0235     		adds	r5, r5, #2
 1309              	.LVL108:
 601:Middlewares/Third_Party/LibJPEG/source/jdarith.c **** 	if (arith_decode(cinfo, st)) {
 1310              		.loc 1 601 7 is_stmt 1 view .LVU444
 601:Middlewares/Third_Party/LibJPEG/source/jdarith.c **** 	if (arith_decode(cinfo, st)) {
 1311              		.loc 1 601 16 is_stmt 0 view .LVU445
 1312 0128 2946     		mov	r1, r5
 1313 012a 2046     		mov	r0, r4
 1314              	.LVL109:
 601:Middlewares/Third_Party/LibJPEG/source/jdarith.c **** 	if (arith_decode(cinfo, st)) {
 1315              		.loc 1 601 16 view .LVU446
 1316 012c FFF7FEFF 		bl	arith_decode
 1317              	.LVL110:
 601:Middlewares/Third_Party/LibJPEG/source/jdarith.c **** 	if (arith_decode(cinfo, st)) {
 1318              		.loc 1 601 10 discriminator 1 view .LVU447
 1319 0130 8146     		mov	r9, r0
 1320 0132 68B9     		cbnz	r0, .L109
 1321              	.LVL111:
 1322              	.L92:
 616:Middlewares/Third_Party/LibJPEG/source/jdarith.c ****       /* Figure F.24: Decoding the magnitude bit pattern of v */
 1323              		.loc 1 616 7 is_stmt 1 view .LVU448
 618:Middlewares/Third_Party/LibJPEG/source/jdarith.c ****       while (m >>= 1)
 1324              		.loc 1 618 7 view .LVU449
 618:Middlewares/Third_Party/LibJPEG/source/jdarith.c ****       while (m >>= 1)
 1325              		.loc 1 618 10 is_stmt 0 view .LVU450
 1326 0134 0E35     		adds	r5, r5, #14
 1327              	.LVL112:
 619:Middlewares/Third_Party/LibJPEG/source/jdarith.c **** 	if (arith_decode(cinfo, st)) v |= m;
 1328              		.loc 1 619 7 is_stmt 1 view .LVU451
 619:Middlewares/Third_Party/LibJPEG/source/jdarith.c **** 	if (arith_decode(cinfo, st)) v |= m;
 1329              		.loc 1 619 13 is_stmt 0 view .LVU452
 1330 0136 C846     		mov	r8, r9
 1331              	.LVL113:
 1332              	.L97:
 619:Middlewares/Third_Party/LibJPEG/source/jdarith.c **** 	if (arith_decode(cinfo, st)) v |= m;
 1333              		.loc 1 619 14 is_stmt 1 view .LVU453
 619:Middlewares/Third_Party/LibJPEG/source/jdarith.c **** 	if (arith_decode(cinfo, st)) v |= m;
 1334              		.loc 1 619 14 is_stmt 0 view .LVU454
 1335 0138 5FEA6808 		asrs	r8, r8, #1
 1336              	.LVL114:
 619:Middlewares/Third_Party/LibJPEG/source/jdarith.c **** 	if (arith_decode(cinfo, st)) v |= m;
 1337              		.loc 1 619 14 view .LVU455
 1338 013c 38D0     		beq	.L110
 620:Middlewares/Third_Party/LibJPEG/source/jdarith.c ****       v += 1; if (sign) v = -v;
 1339              		.loc 1 620 2 is_stmt 1 view .LVU456
ARM GAS  /var/folders/mq/wg13gp494590nh4zyt09lxf00000gn/T//ccSIaohd.s 			page 42


 620:Middlewares/Third_Party/LibJPEG/source/jdarith.c ****       v += 1; if (sign) v = -v;
 1340              		.loc 1 620 6 is_stmt 0 view .LVU457
 1341 013e 2946     		mov	r1, r5
 1342 0140 2046     		mov	r0, r4
 1343 0142 FFF7FEFF 		bl	arith_decode
 1344              	.LVL115:
 620:Middlewares/Third_Party/LibJPEG/source/jdarith.c ****       v += 1; if (sign) v = -v;
 1345              		.loc 1 620 5 discriminator 1 view .LVU458
 1346 0146 0028     		cmp	r0, #0
 1347 0148 F6D0     		beq	.L97
 620:Middlewares/Third_Party/LibJPEG/source/jdarith.c ****       v += 1; if (sign) v = -v;
 1348              		.loc 1 620 31 is_stmt 1 discriminator 1 view .LVU459
 620:Middlewares/Third_Party/LibJPEG/source/jdarith.c ****       v += 1; if (sign) v = -v;
 1349              		.loc 1 620 33 is_stmt 0 discriminator 1 view .LVU460
 1350 014a 49EA0809 		orr	r9, r9, r8
 1351              	.LVL116:
 620:Middlewares/Third_Party/LibJPEG/source/jdarith.c ****       v += 1; if (sign) v = -v;
 1352              		.loc 1 620 33 discriminator 1 view .LVU461
 1353 014e F3E7     		b	.L97
 1354              	.LVL117:
 1355              	.L109:
 602:Middlewares/Third_Party/LibJPEG/source/jdarith.c **** 	  m <<= 1;
 1356              		.loc 1 602 2 is_stmt 1 view .LVU462
 602:Middlewares/Third_Party/LibJPEG/source/jdarith.c **** 	  m <<= 1;
 1357              		.loc 1 602 6 is_stmt 0 view .LVU463
 1358 0150 2946     		mov	r1, r5
 1359 0152 2046     		mov	r0, r4
 1360              	.LVL118:
 602:Middlewares/Third_Party/LibJPEG/source/jdarith.c **** 	  m <<= 1;
 1361              		.loc 1 602 6 view .LVU464
 1362 0154 FFF7FEFF 		bl	arith_decode
 1363              	.LVL119:
 602:Middlewares/Third_Party/LibJPEG/source/jdarith.c **** 	  m <<= 1;
 1364              		.loc 1 602 5 discriminator 1 view .LVU465
 1365 0158 0028     		cmp	r0, #0
 1366 015a EBD0     		beq	.L92
 603:Middlewares/Third_Party/LibJPEG/source/jdarith.c **** 	  st = entropy->ac_stats[tbl] +
 1367              		.loc 1 603 4 is_stmt 1 view .LVU466
 603:Middlewares/Third_Party/LibJPEG/source/jdarith.c **** 	  st = entropy->ac_stats[tbl] +
 1368              		.loc 1 603 6 is_stmt 0 view .LVU467
 1369 015c 4FEA4909 		lsl	r9, r9, #1
 1370              	.LVL120:
 604:Middlewares/Third_Party/LibJPEG/source/jdarith.c **** 	       (k <= cinfo->arith_ac_K[tbl] ? 189 : 217);
 1371              		.loc 1 604 4 is_stmt 1 view .LVU468
 604:Middlewares/Third_Party/LibJPEG/source/jdarith.c **** 	       (k <= cinfo->arith_ac_K[tbl] ? 189 : 217);
 1372              		.loc 1 604 26 is_stmt 0 view .LVU469
 1373 0160 0BF11E03 		add	r3, fp, #30
 1374 0164 57F82350 		ldr	r5, [r7, r3, lsl #2]
 1375              	.LVL121:
 605:Middlewares/Third_Party/LibJPEG/source/jdarith.c **** 	  while (arith_decode(cinfo, st)) {
 1376              		.loc 1 605 32 view .LVU470
 1377 0168 04EB0B03 		add	r3, r4, fp
 1378 016c 93F80831 		ldrb	r3, [r3, #264]	@ zero_extendqisi2
 605:Middlewares/Third_Party/LibJPEG/source/jdarith.c **** 	  while (arith_decode(cinfo, st)) {
 1379              		.loc 1 605 44 view .LVU471
 1380 0170 B342     		cmp	r3, r6
 1381 0172 0EDB     		blt	.L103
ARM GAS  /var/folders/mq/wg13gp494590nh4zyt09lxf00000gn/T//ccSIaohd.s 			page 43


 605:Middlewares/Third_Party/LibJPEG/source/jdarith.c **** 	  while (arith_decode(cinfo, st)) {
 1382              		.loc 1 605 44 discriminator 1 view .LVU472
 1383 0174 BD23     		movs	r3, #189
 1384              	.L93:
 604:Middlewares/Third_Party/LibJPEG/source/jdarith.c **** 	       (k <= cinfo->arith_ac_K[tbl] ? 189 : 217);
 1385              		.loc 1 604 7 view .LVU473
 1386 0176 1D44     		add	r5, r5, r3
 1387              	.LVL122:
 606:Middlewares/Third_Party/LibJPEG/source/jdarith.c **** 	    if ((m <<= 1) == 0x8000) {
 1388              		.loc 1 606 4 is_stmt 1 view .LVU474
 1389              	.L94:
 606:Middlewares/Third_Party/LibJPEG/source/jdarith.c **** 	    if ((m <<= 1) == 0x8000) {
 1390              		.loc 1 606 11 view .LVU475
 1391 0178 2946     		mov	r1, r5
 1392 017a 2046     		mov	r0, r4
 1393 017c FFF7FEFF 		bl	arith_decode
 1394              	.LVL123:
 606:Middlewares/Third_Party/LibJPEG/source/jdarith.c **** 	    if ((m <<= 1) == 0x8000) {
 1395              		.loc 1 606 11 is_stmt 0 discriminator 1 view .LVU476
 1396 0180 0028     		cmp	r0, #0
 1397 0182 D7D0     		beq	.L92
 607:Middlewares/Third_Party/LibJPEG/source/jdarith.c **** 	      WARNMS(cinfo, JWRN_ARITH_BAD_CODE);
 1398              		.loc 1 607 6 is_stmt 1 view .LVU477
 607:Middlewares/Third_Party/LibJPEG/source/jdarith.c **** 	      WARNMS(cinfo, JWRN_ARITH_BAD_CODE);
 1399              		.loc 1 607 13 is_stmt 0 view .LVU478
 1400 0184 4FEA4909 		lsl	r9, r9, #1
 1401              	.LVL124:
 607:Middlewares/Third_Party/LibJPEG/source/jdarith.c **** 	      WARNMS(cinfo, JWRN_ARITH_BAD_CODE);
 1402              		.loc 1 607 9 view .LVU479
 1403 0188 B9F5004F 		cmp	r9, #32768
 1404 018c 03D0     		beq	.L111
 612:Middlewares/Third_Party/LibJPEG/source/jdarith.c **** 	  }
 1405              		.loc 1 612 6 is_stmt 1 view .LVU480
 612:Middlewares/Third_Party/LibJPEG/source/jdarith.c **** 	  }
 1406              		.loc 1 612 9 is_stmt 0 view .LVU481
 1407 018e 0135     		adds	r5, r5, #1
 1408              	.LVL125:
 612:Middlewares/Third_Party/LibJPEG/source/jdarith.c **** 	  }
 1409              		.loc 1 612 9 view .LVU482
 1410 0190 F2E7     		b	.L94
 1411              	.LVL126:
 1412              	.L103:
 605:Middlewares/Third_Party/LibJPEG/source/jdarith.c **** 	  while (arith_decode(cinfo, st)) {
 1413              		.loc 1 605 44 discriminator 2 view .LVU483
 1414 0192 D923     		movs	r3, #217
 1415 0194 EFE7     		b	.L93
 1416              	.LVL127:
 1417              	.L111:
 608:Middlewares/Third_Party/LibJPEG/source/jdarith.c **** 	      entropy->ct = -1;			/* magnitude overflow */
 1418              		.loc 1 608 8 is_stmt 1 view .LVU484
 1419 0196 2368     		ldr	r3, [r4]
 1420 0198 7522     		movs	r2, #117
 1421 019a 5A61     		str	r2, [r3, #20]
 1422 019c 2368     		ldr	r3, [r4]
 1423 019e 5B68     		ldr	r3, [r3, #4]
 1424 01a0 4FF0FF31 		mov	r1, #-1
 1425 01a4 2046     		mov	r0, r4
ARM GAS  /var/folders/mq/wg13gp494590nh4zyt09lxf00000gn/T//ccSIaohd.s 			page 44


 1426 01a6 9847     		blx	r3
 1427              	.LVL128:
 609:Middlewares/Third_Party/LibJPEG/source/jdarith.c **** 	      return TRUE;
 1428              		.loc 1 609 8 view .LVU485
 609:Middlewares/Third_Party/LibJPEG/source/jdarith.c **** 	      return TRUE;
 1429              		.loc 1 609 20 is_stmt 0 view .LVU486
 1430 01a8 4FF0FF33 		mov	r3, #-1
 1431 01ac 3B61     		str	r3, [r7, #16]
 610:Middlewares/Third_Party/LibJPEG/source/jdarith.c **** 	    }
 1432              		.loc 1 610 8 is_stmt 1 view .LVU487
 610:Middlewares/Third_Party/LibJPEG/source/jdarith.c **** 	    }
 1433              		.loc 1 610 15 is_stmt 0 view .LVU488
 1434 01ae 70E0     		b	.L74
 1435              	.LVL129:
 1436              	.L110:
 621:Middlewares/Third_Party/LibJPEG/source/jdarith.c ****       (*block)[natural_order[k]] = (JCOEF) v;
 1437              		.loc 1 621 7 is_stmt 1 view .LVU489
 621:Middlewares/Third_Party/LibJPEG/source/jdarith.c ****       (*block)[natural_order[k]] = (JCOEF) v;
 1438              		.loc 1 621 9 is_stmt 0 view .LVU490
 1439 01b0 09F10103 		add	r3, r9, #1
 1440              	.LVL130:
 621:Middlewares/Third_Party/LibJPEG/source/jdarith.c ****       (*block)[natural_order[k]] = (JCOEF) v;
 1441              		.loc 1 621 15 is_stmt 1 view .LVU491
 621:Middlewares/Third_Party/LibJPEG/source/jdarith.c ****       (*block)[natural_order[k]] = (JCOEF) v;
 1442              		.loc 1 621 18 is_stmt 0 view .LVU492
 1443 01b4 039A     		ldr	r2, [sp, #12]
 1444 01b6 0AB1     		cbz	r2, .L100
 621:Middlewares/Third_Party/LibJPEG/source/jdarith.c ****       (*block)[natural_order[k]] = (JCOEF) v;
 1445              		.loc 1 621 25 is_stmt 1 discriminator 1 view .LVU493
 621:Middlewares/Third_Party/LibJPEG/source/jdarith.c ****       (*block)[natural_order[k]] = (JCOEF) v;
 1446              		.loc 1 621 27 is_stmt 0 discriminator 1 view .LVU494
 1447 01b8 6FEA0903 		mvn	r3, r9
 1448              	.LVL131:
 1449              	.L100:
 622:Middlewares/Third_Party/LibJPEG/source/jdarith.c ****     } while (k < cinfo->lim_Se);
 1450              		.loc 1 622 7 is_stmt 1 view .LVU495
 622:Middlewares/Third_Party/LibJPEG/source/jdarith.c ****     } while (k < cinfo->lim_Se);
 1451              		.loc 1 622 29 is_stmt 0 view .LVU496
 1452 01bc 029A     		ldr	r2, [sp, #8]
 1453 01be 52F82620 		ldr	r2, [r2, r6, lsl #2]
 622:Middlewares/Third_Party/LibJPEG/source/jdarith.c ****     } while (k < cinfo->lim_Se);
 1454              		.loc 1 622 34 view .LVU497
 1455 01c2 0099     		ldr	r1, [sp]
 1456 01c4 21F81230 		strh	r3, [r1, r2, lsl #1]	@ movhi
 623:Middlewares/Third_Party/LibJPEG/source/jdarith.c ****   }
 1457              		.loc 1 623 16 is_stmt 1 view .LVU498
 623:Middlewares/Third_Party/LibJPEG/source/jdarith.c ****   }
 1458              		.loc 1 623 23 is_stmt 0 view .LVU499
 1459 01c8 D4F8B031 		ldr	r3, [r4, #432]
 1460              	.LVL132:
 623:Middlewares/Third_Party/LibJPEG/source/jdarith.c ****   }
 1461              		.loc 1 623 16 view .LVU500
 1462 01cc B342     		cmp	r3, r6
 1463 01ce 3ADC     		bgt	.L101
 1464              	.LVL133:
 1465              	.L89:
 526:Middlewares/Third_Party/LibJPEG/source/jdarith.c ****     block = MCU_data[blkn];
ARM GAS  /var/folders/mq/wg13gp494590nh4zyt09lxf00000gn/T//ccSIaohd.s 			page 45


 1466              		.loc 1 526 51 is_stmt 1 discriminator 2 view .LVU501
 1467 01d0 0AF1010A 		add	r10, r10, #1
 1468              	.LVL134:
 1469              	.L75:
 526:Middlewares/Third_Party/LibJPEG/source/jdarith.c ****     block = MCU_data[blkn];
 1470              		.loc 1 526 23 discriminator 1 view .LVU502
 526:Middlewares/Third_Party/LibJPEG/source/jdarith.c ****     block = MCU_data[blkn];
 1471              		.loc 1 526 30 is_stmt 0 discriminator 1 view .LVU503
 1472 01d4 D4F86C31 		ldr	r3, [r4, #364]
 526:Middlewares/Third_Party/LibJPEG/source/jdarith.c ****     block = MCU_data[blkn];
 1473              		.loc 1 526 23 discriminator 1 view .LVU504
 1474 01d8 5345     		cmp	r3, r10
 1475 01da 5ADD     		ble	.L74
 527:Middlewares/Third_Party/LibJPEG/source/jdarith.c ****     ci = cinfo->MCU_membership[blkn];
 1476              		.loc 1 527 5 is_stmt 1 view .LVU505
 527:Middlewares/Third_Party/LibJPEG/source/jdarith.c ****     ci = cinfo->MCU_membership[blkn];
 1477              		.loc 1 527 11 is_stmt 0 view .LVU506
 1478 01dc 019B     		ldr	r3, [sp, #4]
 1479 01de 53F82A30 		ldr	r3, [r3, r10, lsl #2]
 1480 01e2 0093     		str	r3, [sp]
 1481              	.LVL135:
 528:Middlewares/Third_Party/LibJPEG/source/jdarith.c ****     compptr = cinfo->cur_comp_info[ci];
 1482              		.loc 1 528 5 is_stmt 1 view .LVU507
 528:Middlewares/Third_Party/LibJPEG/source/jdarith.c ****     compptr = cinfo->cur_comp_info[ci];
 1483              		.loc 1 528 8 is_stmt 0 view .LVU508
 1484 01e4 0AF15C03 		add	r3, r10, #92
 1485              	.LVL136:
 528:Middlewares/Third_Party/LibJPEG/source/jdarith.c ****     compptr = cinfo->cur_comp_info[ci];
 1486              		.loc 1 528 8 view .LVU509
 1487 01e8 54F82360 		ldr	r6, [r4, r3, lsl #2]
 1488              	.LVL137:
 529:Middlewares/Third_Party/LibJPEG/source/jdarith.c **** 
 1489              		.loc 1 529 5 is_stmt 1 view .LVU510
 529:Middlewares/Third_Party/LibJPEG/source/jdarith.c **** 
 1490              		.loc 1 529 13 is_stmt 0 view .LVU511
 1491 01ec 06F15403 		add	r3, r6, #84
 1492 01f0 04EB8303 		add	r3, r4, r3, lsl #2
 1493 01f4 D3F80490 		ldr	r9, [r3, #4]
 1494              	.LVL138:
 533:Middlewares/Third_Party/LibJPEG/source/jdarith.c **** 
 1495              		.loc 1 533 5 is_stmt 1 view .LVU512
 533:Middlewares/Third_Party/LibJPEG/source/jdarith.c **** 
 1496              		.loc 1 533 9 is_stmt 0 view .LVU513
 1497 01f8 D9F814B0 		ldr	fp, [r9, #20]
 1498              	.LVL139:
 536:Middlewares/Third_Party/LibJPEG/source/jdarith.c **** 
 1499              		.loc 1 536 5 is_stmt 1 view .LVU514
 536:Middlewares/Third_Party/LibJPEG/source/jdarith.c **** 
 1500              		.loc 1 536 27 is_stmt 0 view .LVU515
 1501 01fc 0BF10E03 		add	r3, fp, #14
 1502 0200 57F82350 		ldr	r5, [r7, r3, lsl #2]
 536:Middlewares/Third_Party/LibJPEG/source/jdarith.c **** 
 1503              		.loc 1 536 54 view .LVU516
 1504 0204 06F10803 		add	r3, r6, #8
 1505 0208 07EB8303 		add	r3, r7, r3, lsl #2
 1506 020c 5B68     		ldr	r3, [r3, #4]
 536:Middlewares/Third_Party/LibJPEG/source/jdarith.c **** 
ARM GAS  /var/folders/mq/wg13gp494590nh4zyt09lxf00000gn/T//ccSIaohd.s 			page 46


 1507              		.loc 1 536 8 view .LVU517
 1508 020e 1D44     		add	r5, r5, r3
 1509              	.LVL140:
 539:Middlewares/Third_Party/LibJPEG/source/jdarith.c ****       entropy->dc_context[ci] = 0;
 1510              		.loc 1 539 5 is_stmt 1 view .LVU518
 539:Middlewares/Third_Party/LibJPEG/source/jdarith.c ****       entropy->dc_context[ci] = 0;
 1511              		.loc 1 539 9 is_stmt 0 view .LVU519
 1512 0210 2946     		mov	r1, r5
 1513 0212 2046     		mov	r0, r4
 1514 0214 FFF7FEFF 		bl	arith_decode
 1515              	.LVL141:
 539:Middlewares/Third_Party/LibJPEG/source/jdarith.c ****       entropy->dc_context[ci] = 0;
 1516              		.loc 1 539 8 discriminator 1 view .LVU520
 1517 0218 0028     		cmp	r0, #0
 1518 021a 7FF40EAF 		bne	.L76
 540:Middlewares/Third_Party/LibJPEG/source/jdarith.c ****     else {
 1519              		.loc 1 540 7 is_stmt 1 view .LVU521
 540:Middlewares/Third_Party/LibJPEG/source/jdarith.c ****     else {
 1520              		.loc 1 540 31 is_stmt 0 view .LVU522
 1521 021e 06F10803 		add	r3, r6, #8
 1522 0222 07EB8303 		add	r3, r7, r3, lsl #2
 1523 0226 0022     		movs	r2, #0
 1524 0228 5A60     		str	r2, [r3, #4]
 1525              	.LVL142:
 1526              	.L77:
 574:Middlewares/Third_Party/LibJPEG/source/jdarith.c **** 
 1527              		.loc 1 574 5 is_stmt 1 view .LVU523
 574:Middlewares/Third_Party/LibJPEG/source/jdarith.c **** 
 1528              		.loc 1 574 47 is_stmt 0 view .LVU524
 1529 022a 0436     		adds	r6, r6, #4
 1530              	.LVL143:
 574:Middlewares/Third_Party/LibJPEG/source/jdarith.c **** 
 1531              		.loc 1 574 47 view .LVU525
 1532 022c 07EB8606 		add	r6, r7, r6, lsl #2
 1533              	.LVL144:
 574:Middlewares/Third_Party/LibJPEG/source/jdarith.c **** 
 1534              		.loc 1 574 19 view .LVU526
 1535 0230 B6F90430 		ldrsh	r3, [r6, #4]
 574:Middlewares/Third_Party/LibJPEG/source/jdarith.c **** 
 1536              		.loc 1 574 17 view .LVU527
 1537 0234 009A     		ldr	r2, [sp]
 1538 0236 1380     		strh	r3, [r2]	@ movhi
 578:Middlewares/Third_Party/LibJPEG/source/jdarith.c ****     tbl = compptr->ac_tbl_no;
 1539              		.loc 1 578 5 is_stmt 1 view .LVU528
 578:Middlewares/Third_Party/LibJPEG/source/jdarith.c ****     tbl = compptr->ac_tbl_no;
 1540              		.loc 1 578 14 is_stmt 0 view .LVU529
 1541 0238 D4F8B031 		ldr	r3, [r4, #432]
 578:Middlewares/Third_Party/LibJPEG/source/jdarith.c ****     tbl = compptr->ac_tbl_no;
 1542              		.loc 1 578 8 view .LVU530
 1543 023c 002B     		cmp	r3, #0
 1544 023e C7D0     		beq	.L89
 579:Middlewares/Third_Party/LibJPEG/source/jdarith.c ****     k = 0;
 1545              		.loc 1 579 5 is_stmt 1 view .LVU531
 579:Middlewares/Third_Party/LibJPEG/source/jdarith.c ****     k = 0;
 1546              		.loc 1 579 9 is_stmt 0 view .LVU532
 1547 0240 D9F818B0 		ldr	fp, [r9, #24]
 1548              	.LVL145:
ARM GAS  /var/folders/mq/wg13gp494590nh4zyt09lxf00000gn/T//ccSIaohd.s 			page 47


 580:Middlewares/Third_Party/LibJPEG/source/jdarith.c **** 
 1549              		.loc 1 580 5 is_stmt 1 view .LVU533
 580:Middlewares/Third_Party/LibJPEG/source/jdarith.c **** 
 1550              		.loc 1 580 7 is_stmt 0 view .LVU534
 1551 0244 0026     		movs	r6, #0
 1552              	.LVL146:
 1553              	.L101:
 583:Middlewares/Third_Party/LibJPEG/source/jdarith.c ****       st = entropy->ac_stats[tbl] + 3 * k;
 1554              		.loc 1 583 5 is_stmt 1 view .LVU535
 584:Middlewares/Third_Party/LibJPEG/source/jdarith.c ****       if (arith_decode(cinfo, st)) break;	/* EOB flag */
 1555              		.loc 1 584 7 view .LVU536
 584:Middlewares/Third_Party/LibJPEG/source/jdarith.c ****       if (arith_decode(cinfo, st)) break;	/* EOB flag */
 1556              		.loc 1 584 29 is_stmt 0 view .LVU537
 1557 0246 0BF11E03 		add	r3, fp, #30
 1558 024a 57F82350 		ldr	r5, [r7, r3, lsl #2]
 1559              	.LVL147:
 584:Middlewares/Third_Party/LibJPEG/source/jdarith.c ****       if (arith_decode(cinfo, st)) break;	/* EOB flag */
 1560              		.loc 1 584 39 view .LVU538
 1561 024e 06EB4603 		add	r3, r6, r6, lsl #1
 584:Middlewares/Third_Party/LibJPEG/source/jdarith.c ****       if (arith_decode(cinfo, st)) break;	/* EOB flag */
 1562              		.loc 1 584 10 view .LVU539
 1563 0252 1D44     		add	r5, r5, r3
 1564              	.LVL148:
 585:Middlewares/Third_Party/LibJPEG/source/jdarith.c ****       for (;;) {
 1565              		.loc 1 585 7 is_stmt 1 view .LVU540
 585:Middlewares/Third_Party/LibJPEG/source/jdarith.c ****       for (;;) {
 1566              		.loc 1 585 11 is_stmt 0 view .LVU541
 1567 0254 2946     		mov	r1, r5
 1568 0256 2046     		mov	r0, r4
 1569 0258 FFF7FEFF 		bl	arith_decode
 1570              	.LVL149:
 585:Middlewares/Third_Party/LibJPEG/source/jdarith.c ****       for (;;) {
 1571              		.loc 1 585 10 discriminator 1 view .LVU542
 1572 025c 0028     		cmp	r0, #0
 1573 025e B7D1     		bne	.L89
 1574              	.L91:
 586:Middlewares/Third_Party/LibJPEG/source/jdarith.c **** 	k++;
 1575              		.loc 1 586 7 is_stmt 1 view .LVU543
 587:Middlewares/Third_Party/LibJPEG/source/jdarith.c **** 	if (arith_decode(cinfo, st + 1)) break;
 1576              		.loc 1 587 2 view .LVU544
 587:Middlewares/Third_Party/LibJPEG/source/jdarith.c **** 	if (arith_decode(cinfo, st + 1)) break;
 1577              		.loc 1 587 3 is_stmt 0 view .LVU545
 1578 0260 0136     		adds	r6, r6, #1
 1579              	.LVL150:
 588:Middlewares/Third_Party/LibJPEG/source/jdarith.c **** 	st += 3;
 1580              		.loc 1 588 2 is_stmt 1 view .LVU546
 588:Middlewares/Third_Party/LibJPEG/source/jdarith.c **** 	st += 3;
 1581              		.loc 1 588 6 is_stmt 0 view .LVU547
 1582 0262 691C     		adds	r1, r5, #1
 1583 0264 2046     		mov	r0, r4
 1584 0266 FFF7FEFF 		bl	arith_decode
 1585              	.LVL151:
 588:Middlewares/Third_Party/LibJPEG/source/jdarith.c **** 	st += 3;
 1586              		.loc 1 588 5 discriminator 1 view .LVU548
 1587 026a 0028     		cmp	r0, #0
 1588 026c 7FF455AF 		bne	.L90
 589:Middlewares/Third_Party/LibJPEG/source/jdarith.c **** 	if (k >= cinfo->lim_Se) {
ARM GAS  /var/folders/mq/wg13gp494590nh4zyt09lxf00000gn/T//ccSIaohd.s 			page 48


 1589              		.loc 1 589 2 is_stmt 1 view .LVU549
 589:Middlewares/Third_Party/LibJPEG/source/jdarith.c **** 	if (k >= cinfo->lim_Se) {
 1590              		.loc 1 589 5 is_stmt 0 view .LVU550
 1591 0270 0335     		adds	r5, r5, #3
 1592              	.LVL152:
 590:Middlewares/Third_Party/LibJPEG/source/jdarith.c **** 	  WARNMS(cinfo, JWRN_ARITH_BAD_CODE);
 1593              		.loc 1 590 2 is_stmt 1 view .LVU551
 590:Middlewares/Third_Party/LibJPEG/source/jdarith.c **** 	  WARNMS(cinfo, JWRN_ARITH_BAD_CODE);
 1594              		.loc 1 590 16 is_stmt 0 view .LVU552
 1595 0272 D4F8B031 		ldr	r3, [r4, #432]
 590:Middlewares/Third_Party/LibJPEG/source/jdarith.c **** 	  WARNMS(cinfo, JWRN_ARITH_BAD_CODE);
 1596              		.loc 1 590 5 view .LVU553
 1597 0276 B342     		cmp	r3, r6
 1598 0278 F2DC     		bgt	.L91
 591:Middlewares/Third_Party/LibJPEG/source/jdarith.c **** 	  entropy->ct = -1;			/* spectral overflow */
 1599              		.loc 1 591 4 is_stmt 1 view .LVU554
 1600 027a 2368     		ldr	r3, [r4]
 1601 027c 7522     		movs	r2, #117
 1602 027e 5A61     		str	r2, [r3, #20]
 1603 0280 2368     		ldr	r3, [r4]
 1604 0282 5B68     		ldr	r3, [r3, #4]
 1605 0284 4FF0FF31 		mov	r1, #-1
 1606 0288 2046     		mov	r0, r4
 1607 028a 9847     		blx	r3
 1608              	.LVL153:
 592:Middlewares/Third_Party/LibJPEG/source/jdarith.c **** 	  return TRUE;
 1609              		.loc 1 592 4 view .LVU555
 592:Middlewares/Third_Party/LibJPEG/source/jdarith.c **** 	  return TRUE;
 1610              		.loc 1 592 16 is_stmt 0 view .LVU556
 1611 028c 4FF0FF33 		mov	r3, #-1
 1612 0290 3B61     		str	r3, [r7, #16]
 593:Middlewares/Third_Party/LibJPEG/source/jdarith.c **** 	}
 1613              		.loc 1 593 4 is_stmt 1 view .LVU557
 1614              	.LVL154:
 1615              	.L74:
 627:Middlewares/Third_Party/LibJPEG/source/jdarith.c **** 
 1616              		.loc 1 627 1 is_stmt 0 view .LVU558
 1617 0292 0120     		movs	r0, #1
 1618 0294 05B0     		add	sp, sp, #20
 1619              	.LCFI6:
 1620              		.cfi_def_cfa_offset 36
 1621              		@ sp needed
 1622 0296 BDE8F08F 		pop	{r4, r5, r6, r7, r8, r9, r10, fp, pc}
 627:Middlewares/Third_Party/LibJPEG/source/jdarith.c **** 
 1623              		.loc 1 627 1 view .LVU559
 1624              		.cfi_endproc
 1625              	.LFE154:
 1627              		.section	.text.decode_mcu_AC_refine,"ax",%progbits
 1628              		.align	1
 1629              		.syntax unified
 1630              		.thumb
 1631              		.thumb_func
 1633              	decode_mcu_AC_refine:
 1634              	.LVL155:
 1635              	.LFB153:
 432:Middlewares/Third_Party/LibJPEG/source/jdarith.c ****   arith_entropy_ptr entropy = (arith_entropy_ptr) cinfo->entropy;
 1636              		.loc 1 432 1 is_stmt 1 view -0
ARM GAS  /var/folders/mq/wg13gp494590nh4zyt09lxf00000gn/T//ccSIaohd.s 			page 49


 1637              		.cfi_startproc
 1638              		@ args = 0, pretend = 0, frame = 16
 1639              		@ frame_needed = 0, uses_anonymous_args = 0
 432:Middlewares/Third_Party/LibJPEG/source/jdarith.c ****   arith_entropy_ptr entropy = (arith_entropy_ptr) cinfo->entropy;
 1640              		.loc 1 432 1 is_stmt 0 view .LVU561
 1641 0000 2DE9F04F 		push	{r4, r5, r6, r7, r8, r9, r10, fp, lr}
 1642              	.LCFI7:
 1643              		.cfi_def_cfa_offset 36
 1644              		.cfi_offset 4, -36
 1645              		.cfi_offset 5, -32
 1646              		.cfi_offset 6, -28
 1647              		.cfi_offset 7, -24
 1648              		.cfi_offset 8, -20
 1649              		.cfi_offset 9, -16
 1650              		.cfi_offset 10, -12
 1651              		.cfi_offset 11, -8
 1652              		.cfi_offset 14, -4
 1653 0004 85B0     		sub	sp, sp, #20
 1654              	.LCFI8:
 1655              		.cfi_def_cfa_offset 56
 1656 0006 0646     		mov	r6, r0
 1657 0008 0C46     		mov	r4, r1
 433:Middlewares/Third_Party/LibJPEG/source/jdarith.c ****   JBLOCKROW block;
 1658              		.loc 1 433 3 is_stmt 1 view .LVU562
 433:Middlewares/Third_Party/LibJPEG/source/jdarith.c ****   JBLOCKROW block;
 1659              		.loc 1 433 21 is_stmt 0 view .LVU563
 1660 000a D0F8D0A1 		ldr	r10, [r0, #464]
 1661              	.LVL156:
 434:Middlewares/Third_Party/LibJPEG/source/jdarith.c ****   JCOEFPTR thiscoef;
 1662              		.loc 1 434 3 is_stmt 1 view .LVU564
 435:Middlewares/Third_Party/LibJPEG/source/jdarith.c ****   unsigned char *st;
 1663              		.loc 1 435 3 view .LVU565
 436:Middlewares/Third_Party/LibJPEG/source/jdarith.c ****   int tbl, k, kex;
 1664              		.loc 1 436 3 view .LVU566
 437:Middlewares/Third_Party/LibJPEG/source/jdarith.c ****   int p1, m1;
 1665              		.loc 1 437 3 view .LVU567
 438:Middlewares/Third_Party/LibJPEG/source/jdarith.c ****   const int * natural_order;
 1666              		.loc 1 438 3 view .LVU568
 439:Middlewares/Third_Party/LibJPEG/source/jdarith.c **** 
 1667              		.loc 1 439 3 view .LVU569
 442:Middlewares/Third_Party/LibJPEG/source/jdarith.c ****     if (entropy->restarts_to_go == 0)
 1668              		.loc 1 442 3 view .LVU570
 442:Middlewares/Third_Party/LibJPEG/source/jdarith.c ****     if (entropy->restarts_to_go == 0)
 1669              		.loc 1 442 12 is_stmt 0 view .LVU571
 1670 000e D0F81831 		ldr	r3, [r0, #280]
 442:Middlewares/Third_Party/LibJPEG/source/jdarith.c ****     if (entropy->restarts_to_go == 0)
 1671              		.loc 1 442 6 view .LVU572
 1672 0012 3BB1     		cbz	r3, .L113
 443:Middlewares/Third_Party/LibJPEG/source/jdarith.c ****       process_restart(cinfo);
 1673              		.loc 1 443 5 is_stmt 1 view .LVU573
 443:Middlewares/Third_Party/LibJPEG/source/jdarith.c ****       process_restart(cinfo);
 1674              		.loc 1 443 16 is_stmt 0 view .LVU574
 1675 0014 DAF83430 		ldr	r3, [r10, #52]
 443:Middlewares/Third_Party/LibJPEG/source/jdarith.c ****       process_restart(cinfo);
 1676              		.loc 1 443 8 view .LVU575
 1677 0018 43B3     		cbz	r3, .L130
 1678              	.LVL157:
ARM GAS  /var/folders/mq/wg13gp494590nh4zyt09lxf00000gn/T//ccSIaohd.s 			page 50


 1679              	.L114:
 445:Middlewares/Third_Party/LibJPEG/source/jdarith.c ****   }
 1680              		.loc 1 445 5 is_stmt 1 view .LVU576
 445:Middlewares/Third_Party/LibJPEG/source/jdarith.c ****   }
 1681              		.loc 1 445 12 is_stmt 0 view .LVU577
 1682 001a DAF83430 		ldr	r3, [r10, #52]
 445:Middlewares/Third_Party/LibJPEG/source/jdarith.c ****   }
 1683              		.loc 1 445 28 view .LVU578
 1684 001e 013B     		subs	r3, r3, #1
 1685 0020 CAF83430 		str	r3, [r10, #52]
 1686              	.L113:
 448:Middlewares/Third_Party/LibJPEG/source/jdarith.c **** 
 1687              		.loc 1 448 3 is_stmt 1 view .LVU579
 448:Middlewares/Third_Party/LibJPEG/source/jdarith.c **** 
 1688              		.loc 1 448 14 is_stmt 0 view .LVU580
 1689 0024 DAF81030 		ldr	r3, [r10, #16]
 448:Middlewares/Third_Party/LibJPEG/source/jdarith.c **** 
 1690              		.loc 1 448 6 view .LVU581
 1691 0028 B3F1FF3F 		cmp	r3, #-1
 1692 002c 77D0     		beq	.L115
 450:Middlewares/Third_Party/LibJPEG/source/jdarith.c **** 
 1693              		.loc 1 450 3 is_stmt 1 view .LVU582
 450:Middlewares/Third_Party/LibJPEG/source/jdarith.c **** 
 1694              		.loc 1 450 17 is_stmt 0 view .LVU583
 1695 002e D6F8AC91 		ldr	r9, [r6, #428]
 1696              	.LVL158:
 453:Middlewares/Third_Party/LibJPEG/source/jdarith.c ****   tbl = cinfo->cur_comp_info[0]->ac_tbl_no;
 1697              		.loc 1 453 3 is_stmt 1 view .LVU584
 453:Middlewares/Third_Party/LibJPEG/source/jdarith.c ****   tbl = cinfo->cur_comp_info[0]->ac_tbl_no;
 1698              		.loc 1 453 9 is_stmt 0 view .LVU585
 1699 0032 D4F80080 		ldr	r8, [r4]
 1700              	.LVL159:
 454:Middlewares/Third_Party/LibJPEG/source/jdarith.c **** 
 1701              		.loc 1 454 3 is_stmt 1 view .LVU586
 454:Middlewares/Third_Party/LibJPEG/source/jdarith.c **** 
 1702              		.loc 1 454 29 is_stmt 0 view .LVU587
 1703 0036 D6F85431 		ldr	r3, [r6, #340]
 454:Middlewares/Third_Party/LibJPEG/source/jdarith.c **** 
 1704              		.loc 1 454 7 view .LVU588
 1705 003a 9B69     		ldr	r3, [r3, #24]
 1706 003c 0193     		str	r3, [sp, #4]
 1707              	.LVL160:
 456:Middlewares/Third_Party/LibJPEG/source/jdarith.c ****   m1 = (-1) << cinfo->Al;	/* -1 in the bit position being coded */
 1708              		.loc 1 456 3 is_stmt 1 view .LVU589
 456:Middlewares/Third_Party/LibJPEG/source/jdarith.c ****   m1 = (-1) << cinfo->Al;	/* -1 in the bit position being coded */
 1709              		.loc 1 456 18 is_stmt 0 view .LVU590
 1710 003e D6F8A431 		ldr	r3, [r6, #420]
 1711              	.LVL161:
 456:Middlewares/Third_Party/LibJPEG/source/jdarith.c ****   m1 = (-1) << cinfo->Al;	/* -1 in the bit position being coded */
 1712              		.loc 1 456 6 view .LVU591
 1713 0042 0122     		movs	r2, #1
 1714 0044 9A40     		lsls	r2, r2, r3
 1715 0046 0292     		str	r2, [sp, #8]
 1716              	.LVL162:
 457:Middlewares/Third_Party/LibJPEG/source/jdarith.c **** 
 1717              		.loc 1 457 3 is_stmt 1 view .LVU592
 457:Middlewares/Third_Party/LibJPEG/source/jdarith.c **** 
ARM GAS  /var/folders/mq/wg13gp494590nh4zyt09lxf00000gn/T//ccSIaohd.s 			page 51


 1718              		.loc 1 457 6 is_stmt 0 view .LVU593
 1719 0048 4FF0FF32 		mov	r2, #-1
 1720              	.LVL163:
 457:Middlewares/Third_Party/LibJPEG/source/jdarith.c **** 
 1721              		.loc 1 457 6 view .LVU594
 1722 004c 02FA03F3 		lsl	r3, r2, r3
 1723 0050 0393     		str	r3, [sp, #12]
 1724              	.LVL164:
 460:Middlewares/Third_Party/LibJPEG/source/jdarith.c ****     if ((*block)[natural_order[kex]]) break;
 1725              		.loc 1 460 3 is_stmt 1 view .LVU595
 460:Middlewares/Third_Party/LibJPEG/source/jdarith.c ****     if ((*block)[natural_order[kex]]) break;
 1726              		.loc 1 460 12 is_stmt 0 view .LVU596
 1727 0052 D6F89CB1 		ldr	fp, [r6, #412]
 1728              	.LVL165:
 1729              	.L116:
 460:Middlewares/Third_Party/LibJPEG/source/jdarith.c ****     if ((*block)[natural_order[kex]]) break;
 1730              		.loc 1 460 29 is_stmt 1 discriminator 1 view .LVU597
 1731 0056 BBF1000F 		cmp	fp, #0
 1732 005a 0ADD     		ble	.L117
 461:Middlewares/Third_Party/LibJPEG/source/jdarith.c **** 
 1733              		.loc 1 461 5 view .LVU598
 461:Middlewares/Third_Party/LibJPEG/source/jdarith.c **** 
 1734              		.loc 1 461 31 is_stmt 0 view .LVU599
 1735 005c 59F82B30 		ldr	r3, [r9, fp, lsl #2]
 461:Middlewares/Third_Party/LibJPEG/source/jdarith.c **** 
 1736              		.loc 1 461 17 view .LVU600
 1737 0060 38F91330 		ldrsh	r3, [r8, r3, lsl #1]
 461:Middlewares/Third_Party/LibJPEG/source/jdarith.c **** 
 1738              		.loc 1 461 8 view .LVU601
 1739 0064 2BB9     		cbnz	r3, .L117
 460:Middlewares/Third_Party/LibJPEG/source/jdarith.c ****     if ((*block)[natural_order[kex]]) break;
 1740              		.loc 1 460 37 is_stmt 1 discriminator 2 view .LVU602
 1741 0066 0BF1FF3B 		add	fp, fp, #-1
 1742              	.LVL166:
 460:Middlewares/Third_Party/LibJPEG/source/jdarith.c ****     if ((*block)[natural_order[kex]]) break;
 1743              		.loc 1 460 37 is_stmt 0 discriminator 2 view .LVU603
 1744 006a F4E7     		b	.L116
 1745              	.LVL167:
 1746              	.L130:
 444:Middlewares/Third_Party/LibJPEG/source/jdarith.c ****     entropy->restarts_to_go--;
 1747              		.loc 1 444 7 is_stmt 1 view .LVU604
 1748 006c FFF7FEFF 		bl	process_restart
 1749              	.LVL168:
 444:Middlewares/Third_Party/LibJPEG/source/jdarith.c ****     entropy->restarts_to_go--;
 1750              		.loc 1 444 7 is_stmt 0 view .LVU605
 1751 0070 D3E7     		b	.L114
 1752              	.LVL169:
 1753              	.L117:
 463:Middlewares/Third_Party/LibJPEG/source/jdarith.c ****     st = entropy->ac_stats[tbl] + 3 * (k - 1);
 1754              		.loc 1 463 3 is_stmt 1 view .LVU606
 463:Middlewares/Third_Party/LibJPEG/source/jdarith.c ****     st = entropy->ac_stats[tbl] + 3 * (k - 1);
 1755              		.loc 1 463 10 is_stmt 0 view .LVU607
 1756 0072 D6F89841 		ldr	r4, [r6, #408]
 1757              	.LVL170:
 463:Middlewares/Third_Party/LibJPEG/source/jdarith.c ****     st = entropy->ac_stats[tbl] + 3 * (k - 1);
 1758              		.loc 1 463 3 view .LVU608
 1759 0076 25E0     		b	.L119
ARM GAS  /var/folders/mq/wg13gp494590nh4zyt09lxf00000gn/T//ccSIaohd.s 			page 52


 1760              	.LVL171:
 1761              	.L132:
 466:Middlewares/Third_Party/LibJPEG/source/jdarith.c ****     for (;;) {
 1762              		.loc 1 466 7 is_stmt 1 view .LVU609
 466:Middlewares/Third_Party/LibJPEG/source/jdarith.c ****     for (;;) {
 1763              		.loc 1 466 11 is_stmt 0 view .LVU610
 1764 0078 2946     		mov	r1, r5
 1765 007a 3046     		mov	r0, r6
 1766 007c FFF7FEFF 		bl	arith_decode
 1767              	.LVL172:
 466:Middlewares/Third_Party/LibJPEG/source/jdarith.c ****     for (;;) {
 1768              		.loc 1 466 10 discriminator 1 view .LVU611
 1769 0080 70B3     		cbz	r0, .L126
 466:Middlewares/Third_Party/LibJPEG/source/jdarith.c ****     for (;;) {
 1770              		.loc 1 466 10 discriminator 1 view .LVU612
 1771 0082 4CE0     		b	.L115
 1772              	.LVL173:
 1773              	.L133:
 470:Middlewares/Third_Party/LibJPEG/source/jdarith.c **** 	  if (*thiscoef < 0)
 1774              		.loc 1 470 2 is_stmt 1 view .LVU613
 470:Middlewares/Third_Party/LibJPEG/source/jdarith.c **** 	  if (*thiscoef < 0)
 1775              		.loc 1 470 6 is_stmt 0 view .LVU614
 1776 0084 A91C     		adds	r1, r5, #2
 1777 0086 3046     		mov	r0, r6
 1778 0088 FFF7FEFF 		bl	arith_decode
 1779              	.LVL174:
 470:Middlewares/Third_Party/LibJPEG/source/jdarith.c **** 	  if (*thiscoef < 0)
 1780              		.loc 1 470 5 discriminator 1 view .LVU615
 1781 008c C8B1     		cbz	r0, .L122
 471:Middlewares/Third_Party/LibJPEG/source/jdarith.c **** 	    *thiscoef += m1;
 1782              		.loc 1 471 4 is_stmt 1 view .LVU616
 471:Middlewares/Third_Party/LibJPEG/source/jdarith.c **** 	    *thiscoef += m1;
 1783              		.loc 1 471 8 is_stmt 0 view .LVU617
 1784 008e 38F91730 		ldrsh	r3, [r8, r7, lsl #1]
 471:Middlewares/Third_Party/LibJPEG/source/jdarith.c **** 	    *thiscoef += m1;
 1785              		.loc 1 471 7 view .LVU618
 1786 0092 002B     		cmp	r3, #0
 1787 0094 05DB     		blt	.L131
 474:Middlewares/Third_Party/LibJPEG/source/jdarith.c **** 	}
 1788              		.loc 1 474 6 is_stmt 1 view .LVU619
 474:Middlewares/Third_Party/LibJPEG/source/jdarith.c **** 	}
 1789              		.loc 1 474 16 is_stmt 0 view .LVU620
 1790 0096 029A     		ldr	r2, [sp, #8]
 1791 0098 12FA83F3 		uxtah	r3, r2, r3
 1792 009c 28F81730 		strh	r3, [r8, r7, lsl #1]	@ movhi
 1793 00a0 0FE0     		b	.L122
 1794              	.L131:
 472:Middlewares/Third_Party/LibJPEG/source/jdarith.c **** 	  else
 1795              		.loc 1 472 6 is_stmt 1 view .LVU621
 472:Middlewares/Third_Party/LibJPEG/source/jdarith.c **** 	  else
 1796              		.loc 1 472 16 is_stmt 0 view .LVU622
 1797 00a2 039A     		ldr	r2, [sp, #12]
 1798 00a4 12FA83F3 		uxtah	r3, r2, r3
 1799 00a8 28F81730 		strh	r3, [r8, r7, lsl #1]	@ movhi
 1800 00ac 09E0     		b	.L122
 1801              	.L134:
 479:Middlewares/Third_Party/LibJPEG/source/jdarith.c **** 	  *thiscoef = m1;
ARM GAS  /var/folders/mq/wg13gp494590nh4zyt09lxf00000gn/T//ccSIaohd.s 			page 53


 1802              		.loc 1 479 2 is_stmt 1 view .LVU623
 479:Middlewares/Third_Party/LibJPEG/source/jdarith.c **** 	  *thiscoef = m1;
 1803              		.loc 1 479 6 is_stmt 0 view .LVU624
 1804 00ae 0AF1B801 		add	r1, r10, #184
 1805 00b2 3046     		mov	r0, r6
 1806 00b4 FFF7FEFF 		bl	arith_decode
 1807              	.LVL175:
 479:Middlewares/Third_Party/LibJPEG/source/jdarith.c **** 	  *thiscoef = m1;
 1808              		.loc 1 479 5 discriminator 1 view .LVU625
 1809 00b8 0028     		cmp	r0, #0
 1810 00ba 34D0     		beq	.L125
 480:Middlewares/Third_Party/LibJPEG/source/jdarith.c **** 	else
 1811              		.loc 1 480 4 is_stmt 1 view .LVU626
 480:Middlewares/Third_Party/LibJPEG/source/jdarith.c **** 	else
 1812              		.loc 1 480 14 is_stmt 0 view .LVU627
 1813 00bc 039B     		ldr	r3, [sp, #12]
 1814 00be 28F81730 		strh	r3, [r8, r7, lsl #1]	@ movhi
 1815              	.L122:
 463:Middlewares/Third_Party/LibJPEG/source/jdarith.c ****     st = entropy->ac_stats[tbl] + 3 * (k - 1);
 1816              		.loc 1 463 40 is_stmt 1 discriminator 2 view .LVU628
 1817 00c2 0134     		adds	r4, r4, #1
 1818              	.LVL176:
 1819              	.L119:
 463:Middlewares/Third_Party/LibJPEG/source/jdarith.c ****     st = entropy->ac_stats[tbl] + 3 * (k - 1);
 1820              		.loc 1 463 25 discriminator 1 view .LVU629
 463:Middlewares/Third_Party/LibJPEG/source/jdarith.c ****     st = entropy->ac_stats[tbl] + 3 * (k - 1);
 1821              		.loc 1 463 33 is_stmt 0 discriminator 1 view .LVU630
 1822 00c4 D6F89C31 		ldr	r3, [r6, #412]
 463:Middlewares/Third_Party/LibJPEG/source/jdarith.c ****     st = entropy->ac_stats[tbl] + 3 * (k - 1);
 1823              		.loc 1 463 25 discriminator 1 view .LVU631
 1824 00c8 A342     		cmp	r3, r4
 1825 00ca 28DB     		blt	.L115
 464:Middlewares/Third_Party/LibJPEG/source/jdarith.c ****     if (k > kex)
 1826              		.loc 1 464 5 is_stmt 1 view .LVU632
 464:Middlewares/Third_Party/LibJPEG/source/jdarith.c ****     if (k > kex)
 1827              		.loc 1 464 27 is_stmt 0 view .LVU633
 1828 00cc 019B     		ldr	r3, [sp, #4]
 1829 00ce 1E33     		adds	r3, r3, #30
 1830 00d0 5AF82350 		ldr	r5, [r10, r3, lsl #2]
 464:Middlewares/Third_Party/LibJPEG/source/jdarith.c ****     if (k > kex)
 1831              		.loc 1 464 42 view .LVU634
 1832 00d4 631E     		subs	r3, r4, #1
 464:Middlewares/Third_Party/LibJPEG/source/jdarith.c ****     if (k > kex)
 1833              		.loc 1 464 37 view .LVU635
 1834 00d6 03EB4303 		add	r3, r3, r3, lsl #1
 464:Middlewares/Third_Party/LibJPEG/source/jdarith.c ****     if (k > kex)
 1835              		.loc 1 464 8 view .LVU636
 1836 00da 1D44     		add	r5, r5, r3
 1837              	.LVL177:
 465:Middlewares/Third_Party/LibJPEG/source/jdarith.c ****       if (arith_decode(cinfo, st)) break;	/* EOB flag */
 1838              		.loc 1 465 5 is_stmt 1 view .LVU637
 465:Middlewares/Third_Party/LibJPEG/source/jdarith.c ****       if (arith_decode(cinfo, st)) break;	/* EOB flag */
 1839              		.loc 1 465 8 is_stmt 0 view .LVU638
 1840 00dc 5C45     		cmp	r4, fp
 1841 00de CBDC     		bgt	.L132
 1842              	.L126:
 467:Middlewares/Third_Party/LibJPEG/source/jdarith.c ****       thiscoef = *block + natural_order[k];
ARM GAS  /var/folders/mq/wg13gp494590nh4zyt09lxf00000gn/T//ccSIaohd.s 			page 54


 1843              		.loc 1 467 5 is_stmt 1 view .LVU639
 468:Middlewares/Third_Party/LibJPEG/source/jdarith.c ****       if (*thiscoef) {				/* previously nonzero coef */
 1844              		.loc 1 468 7 view .LVU640
 468:Middlewares/Third_Party/LibJPEG/source/jdarith.c ****       if (*thiscoef) {				/* previously nonzero coef */
 1845              		.loc 1 468 40 is_stmt 0 view .LVU641
 1846 00e0 59F82470 		ldr	r7, [r9, r4, lsl #2]
 1847              	.LVL178:
 469:Middlewares/Third_Party/LibJPEG/source/jdarith.c **** 	if (arith_decode(cinfo, st + 2)) {
 1848              		.loc 1 469 7 is_stmt 1 view .LVU642
 469:Middlewares/Third_Party/LibJPEG/source/jdarith.c **** 	if (arith_decode(cinfo, st + 2)) {
 1849              		.loc 1 469 11 is_stmt 0 view .LVU643
 1850 00e4 38F91730 		ldrsh	r3, [r8, r7, lsl #1]
 469:Middlewares/Third_Party/LibJPEG/source/jdarith.c **** 	if (arith_decode(cinfo, st + 2)) {
 1851              		.loc 1 469 10 view .LVU644
 1852 00e8 002B     		cmp	r3, #0
 1853 00ea CBD1     		bne	.L133
 478:Middlewares/Third_Party/LibJPEG/source/jdarith.c **** 	if (arith_decode(cinfo, entropy->fixed_bin))
 1854              		.loc 1 478 7 is_stmt 1 view .LVU645
 478:Middlewares/Third_Party/LibJPEG/source/jdarith.c **** 	if (arith_decode(cinfo, entropy->fixed_bin))
 1855              		.loc 1 478 11 is_stmt 0 view .LVU646
 1856 00ec 691C     		adds	r1, r5, #1
 1857 00ee 3046     		mov	r0, r6
 1858 00f0 FFF7FEFF 		bl	arith_decode
 1859              	.LVL179:
 478:Middlewares/Third_Party/LibJPEG/source/jdarith.c **** 	if (arith_decode(cinfo, entropy->fixed_bin))
 1860              		.loc 1 478 10 discriminator 1 view .LVU647
 1861 00f4 0028     		cmp	r0, #0
 1862 00f6 DAD1     		bne	.L134
 485:Middlewares/Third_Party/LibJPEG/source/jdarith.c ****       if (k > cinfo->Se) {
 1863              		.loc 1 485 7 is_stmt 1 view .LVU648
 485:Middlewares/Third_Party/LibJPEG/source/jdarith.c ****       if (k > cinfo->Se) {
 1864              		.loc 1 485 10 is_stmt 0 view .LVU649
 1865 00f8 0335     		adds	r5, r5, #3
 1866              	.LVL180:
 485:Middlewares/Third_Party/LibJPEG/source/jdarith.c ****       if (k > cinfo->Se) {
 1867              		.loc 1 485 16 is_stmt 1 view .LVU650
 485:Middlewares/Third_Party/LibJPEG/source/jdarith.c ****       if (k > cinfo->Se) {
 1868              		.loc 1 485 17 is_stmt 0 view .LVU651
 1869 00fa 0134     		adds	r4, r4, #1
 1870              	.LVL181:
 486:Middlewares/Third_Party/LibJPEG/source/jdarith.c **** 	WARNMS(cinfo, JWRN_ARITH_BAD_CODE);
 1871              		.loc 1 486 7 is_stmt 1 view .LVU652
 486:Middlewares/Third_Party/LibJPEG/source/jdarith.c **** 	WARNMS(cinfo, JWRN_ARITH_BAD_CODE);
 1872              		.loc 1 486 20 is_stmt 0 view .LVU653
 1873 00fc D6F89C31 		ldr	r3, [r6, #412]
 486:Middlewares/Third_Party/LibJPEG/source/jdarith.c **** 	WARNMS(cinfo, JWRN_ARITH_BAD_CODE);
 1874              		.loc 1 486 10 view .LVU654
 1875 0100 A342     		cmp	r3, r4
 1876 0102 EDDA     		bge	.L126
 487:Middlewares/Third_Party/LibJPEG/source/jdarith.c **** 	entropy->ct = -1;			/* spectral overflow */
 1877              		.loc 1 487 2 is_stmt 1 view .LVU655
 1878 0104 3368     		ldr	r3, [r6]
 1879 0106 7522     		movs	r2, #117
 1880 0108 5A61     		str	r2, [r3, #20]
 1881 010a 3368     		ldr	r3, [r6]
 1882 010c 5B68     		ldr	r3, [r3, #4]
 1883 010e 4FF0FF31 		mov	r1, #-1
ARM GAS  /var/folders/mq/wg13gp494590nh4zyt09lxf00000gn/T//ccSIaohd.s 			page 55


 1884 0112 3046     		mov	r0, r6
 1885 0114 9847     		blx	r3
 1886              	.LVL182:
 488:Middlewares/Third_Party/LibJPEG/source/jdarith.c **** 	return TRUE;
 1887              		.loc 1 488 2 view .LVU656
 488:Middlewares/Third_Party/LibJPEG/source/jdarith.c **** 	return TRUE;
 1888              		.loc 1 488 14 is_stmt 0 view .LVU657
 1889 0116 4FF0FF33 		mov	r3, #-1
 1890 011a CAF81030 		str	r3, [r10, #16]
 489:Middlewares/Third_Party/LibJPEG/source/jdarith.c ****       }
 1891              		.loc 1 489 2 is_stmt 1 view .LVU658
 1892              	.LVL183:
 1893              	.L115:
 495:Middlewares/Third_Party/LibJPEG/source/jdarith.c **** 
 1894              		.loc 1 495 1 is_stmt 0 view .LVU659
 1895 011e 0120     		movs	r0, #1
 1896 0120 05B0     		add	sp, sp, #20
 1897              	.LCFI9:
 1898              		.cfi_remember_state
 1899              		.cfi_def_cfa_offset 36
 1900              		@ sp needed
 1901 0122 BDE8F08F 		pop	{r4, r5, r6, r7, r8, r9, r10, fp, pc}
 1902              	.LVL184:
 1903              	.L125:
 1904              	.LCFI10:
 1905              		.cfi_restore_state
 482:Middlewares/Third_Party/LibJPEG/source/jdarith.c **** 	break;
 1906              		.loc 1 482 4 is_stmt 1 view .LVU660
 482:Middlewares/Third_Party/LibJPEG/source/jdarith.c **** 	break;
 1907              		.loc 1 482 14 is_stmt 0 view .LVU661
 1908 0126 029B     		ldr	r3, [sp, #8]
 1909 0128 28F81730 		strh	r3, [r8, r7, lsl #1]	@ movhi
 1910 012c C9E7     		b	.L122
 1911              		.cfi_endproc
 1912              	.LFE153:
 1914              		.section	.text.decode_mcu_DC_refine,"ax",%progbits
 1915              		.align	1
 1916              		.syntax unified
 1917              		.thumb
 1918              		.thumb_func
 1920              	decode_mcu_DC_refine:
 1921              	.LVL185:
 1922              	.LFB152:
 399:Middlewares/Third_Party/LibJPEG/source/jdarith.c ****   arith_entropy_ptr entropy = (arith_entropy_ptr) cinfo->entropy;
 1923              		.loc 1 399 1 is_stmt 1 view -0
 1924              		.cfi_startproc
 1925              		@ args = 0, pretend = 0, frame = 0
 1926              		@ frame_needed = 0, uses_anonymous_args = 0
 399:Middlewares/Third_Party/LibJPEG/source/jdarith.c ****   arith_entropy_ptr entropy = (arith_entropy_ptr) cinfo->entropy;
 1927              		.loc 1 399 1 is_stmt 0 view .LVU663
 1928 0000 2DE9F041 		push	{r4, r5, r6, r7, r8, lr}
 1929              	.LCFI11:
 1930              		.cfi_def_cfa_offset 24
 1931              		.cfi_offset 4, -24
 1932              		.cfi_offset 5, -20
 1933              		.cfi_offset 6, -16
 1934              		.cfi_offset 7, -12
ARM GAS  /var/folders/mq/wg13gp494590nh4zyt09lxf00000gn/T//ccSIaohd.s 			page 56


 1935              		.cfi_offset 8, -8
 1936              		.cfi_offset 14, -4
 1937 0004 0546     		mov	r5, r0
 1938 0006 8846     		mov	r8, r1
 400:Middlewares/Third_Party/LibJPEG/source/jdarith.c ****   unsigned char *st;
 1939              		.loc 1 400 3 is_stmt 1 view .LVU664
 400:Middlewares/Third_Party/LibJPEG/source/jdarith.c ****   unsigned char *st;
 1940              		.loc 1 400 21 is_stmt 0 view .LVU665
 1941 0008 D0F8D061 		ldr	r6, [r0, #464]
 1942              	.LVL186:
 401:Middlewares/Third_Party/LibJPEG/source/jdarith.c ****   int p1, blkn;
 1943              		.loc 1 401 3 is_stmt 1 view .LVU666
 402:Middlewares/Third_Party/LibJPEG/source/jdarith.c **** 
 1944              		.loc 1 402 3 view .LVU667
 405:Middlewares/Third_Party/LibJPEG/source/jdarith.c ****     if (entropy->restarts_to_go == 0)
 1945              		.loc 1 405 3 view .LVU668
 405:Middlewares/Third_Party/LibJPEG/source/jdarith.c ****     if (entropy->restarts_to_go == 0)
 1946              		.loc 1 405 12 is_stmt 0 view .LVU669
 1947 000c D0F81831 		ldr	r3, [r0, #280]
 405:Middlewares/Third_Party/LibJPEG/source/jdarith.c ****     if (entropy->restarts_to_go == 0)
 1948              		.loc 1 405 6 view .LVU670
 1949 0010 23B1     		cbz	r3, .L136
 406:Middlewares/Third_Party/LibJPEG/source/jdarith.c ****       process_restart(cinfo);
 1950              		.loc 1 406 5 is_stmt 1 view .LVU671
 406:Middlewares/Third_Party/LibJPEG/source/jdarith.c ****       process_restart(cinfo);
 1951              		.loc 1 406 16 is_stmt 0 view .LVU672
 1952 0012 736B     		ldr	r3, [r6, #52]
 406:Middlewares/Third_Party/LibJPEG/source/jdarith.c ****       process_restart(cinfo);
 1953              		.loc 1 406 8 view .LVU673
 1954 0014 4BB1     		cbz	r3, .L142
 1955              	.LVL187:
 1956              	.L137:
 408:Middlewares/Third_Party/LibJPEG/source/jdarith.c ****   }
 1957              		.loc 1 408 5 is_stmt 1 view .LVU674
 408:Middlewares/Third_Party/LibJPEG/source/jdarith.c ****   }
 1958              		.loc 1 408 12 is_stmt 0 view .LVU675
 1959 0016 736B     		ldr	r3, [r6, #52]
 408:Middlewares/Third_Party/LibJPEG/source/jdarith.c ****   }
 1960              		.loc 1 408 28 view .LVU676
 1961 0018 013B     		subs	r3, r3, #1
 1962 001a 7363     		str	r3, [r6, #52]
 1963              	.L136:
 411:Middlewares/Third_Party/LibJPEG/source/jdarith.c ****   p1 = 1 << cinfo->Al;		/* 1 in the bit position being coded */
 1964              		.loc 1 411 3 is_stmt 1 view .LVU677
 411:Middlewares/Third_Party/LibJPEG/source/jdarith.c ****   p1 = 1 << cinfo->Al;		/* 1 in the bit position being coded */
 1965              		.loc 1 411 6 is_stmt 0 view .LVU678
 1966 001c B836     		adds	r6, r6, #184
 1967              	.LVL188:
 412:Middlewares/Third_Party/LibJPEG/source/jdarith.c **** 
 1968              		.loc 1 412 3 is_stmt 1 view .LVU679
 412:Middlewares/Third_Party/LibJPEG/source/jdarith.c **** 
 1969              		.loc 1 412 18 is_stmt 0 view .LVU680
 1970 001e D5F8A431 		ldr	r3, [r5, #420]
 412:Middlewares/Third_Party/LibJPEG/source/jdarith.c **** 
 1971              		.loc 1 412 6 view .LVU681
 1972 0022 0127     		movs	r7, #1
 1973 0024 9F40     		lsls	r7, r7, r3
ARM GAS  /var/folders/mq/wg13gp494590nh4zyt09lxf00000gn/T//ccSIaohd.s 			page 57


 1974              	.LVL189:
 416:Middlewares/Third_Party/LibJPEG/source/jdarith.c ****     /* Encoded data is simply the next bit of the two's-complement DC value */
 1975              		.loc 1 416 3 is_stmt 1 view .LVU682
 416:Middlewares/Third_Party/LibJPEG/source/jdarith.c ****     /* Encoded data is simply the next bit of the two's-complement DC value */
 1976              		.loc 1 416 13 is_stmt 0 view .LVU683
 1977 0026 0024     		movs	r4, #0
 416:Middlewares/Third_Party/LibJPEG/source/jdarith.c ****     /* Encoded data is simply the next bit of the two's-complement DC value */
 1978              		.loc 1 416 3 view .LVU684
 1979 0028 03E0     		b	.L138
 1980              	.LVL190:
 1981              	.L142:
 407:Middlewares/Third_Party/LibJPEG/source/jdarith.c ****     entropy->restarts_to_go--;
 1982              		.loc 1 407 7 is_stmt 1 view .LVU685
 1983 002a FFF7FEFF 		bl	process_restart
 1984              	.LVL191:
 407:Middlewares/Third_Party/LibJPEG/source/jdarith.c ****     entropy->restarts_to_go--;
 1985              		.loc 1 407 7 is_stmt 0 view .LVU686
 1986 002e F2E7     		b	.L137
 1987              	.LVL192:
 1988              	.L139:
 416:Middlewares/Third_Party/LibJPEG/source/jdarith.c ****     /* Encoded data is simply the next bit of the two's-complement DC value */
 1989              		.loc 1 416 51 is_stmt 1 discriminator 2 view .LVU687
 1990 0030 0134     		adds	r4, r4, #1
 1991              	.LVL193:
 1992              	.L138:
 416:Middlewares/Third_Party/LibJPEG/source/jdarith.c ****     /* Encoded data is simply the next bit of the two's-complement DC value */
 1993              		.loc 1 416 23 discriminator 1 view .LVU688
 416:Middlewares/Third_Party/LibJPEG/source/jdarith.c ****     /* Encoded data is simply the next bit of the two's-complement DC value */
 1994              		.loc 1 416 30 is_stmt 0 discriminator 1 view .LVU689
 1995 0032 D5F86C31 		ldr	r3, [r5, #364]
 416:Middlewares/Third_Party/LibJPEG/source/jdarith.c ****     /* Encoded data is simply the next bit of the two's-complement DC value */
 1996              		.loc 1 416 23 discriminator 1 view .LVU690
 1997 0036 A342     		cmp	r3, r4
 1998 0038 0CDD     		ble	.L143
 418:Middlewares/Third_Party/LibJPEG/source/jdarith.c ****       MCU_data[blkn][0][0] |= p1;
 1999              		.loc 1 418 5 is_stmt 1 view .LVU691
 418:Middlewares/Third_Party/LibJPEG/source/jdarith.c ****       MCU_data[blkn][0][0] |= p1;
 2000              		.loc 1 418 9 is_stmt 0 view .LVU692
 2001 003a 3146     		mov	r1, r6
 2002 003c 2846     		mov	r0, r5
 2003 003e FFF7FEFF 		bl	arith_decode
 2004              	.LVL194:
 418:Middlewares/Third_Party/LibJPEG/source/jdarith.c ****       MCU_data[blkn][0][0] |= p1;
 2005              		.loc 1 418 8 discriminator 1 view .LVU693
 2006 0042 0028     		cmp	r0, #0
 2007 0044 F4D0     		beq	.L139
 419:Middlewares/Third_Party/LibJPEG/source/jdarith.c ****   }
 2008              		.loc 1 419 7 is_stmt 1 view .LVU694
 419:Middlewares/Third_Party/LibJPEG/source/jdarith.c ****   }
 2009              		.loc 1 419 15 is_stmt 0 view .LVU695
 2010 0046 58F82420 		ldr	r2, [r8, r4, lsl #2]
 419:Middlewares/Third_Party/LibJPEG/source/jdarith.c ****   }
 2011              		.loc 1 419 24 view .LVU696
 2012 004a B2F90030 		ldrsh	r3, [r2]
 419:Middlewares/Third_Party/LibJPEG/source/jdarith.c ****   }
 2013              		.loc 1 419 28 view .LVU697
 2014 004e 3B43     		orrs	r3, r3, r7
ARM GAS  /var/folders/mq/wg13gp494590nh4zyt09lxf00000gn/T//ccSIaohd.s 			page 58


 2015 0050 1380     		strh	r3, [r2]	@ movhi
 2016 0052 EDE7     		b	.L139
 2017              	.L143:
 422:Middlewares/Third_Party/LibJPEG/source/jdarith.c **** }
 2018              		.loc 1 422 3 is_stmt 1 view .LVU698
 423:Middlewares/Third_Party/LibJPEG/source/jdarith.c **** 
 2019              		.loc 1 423 1 is_stmt 0 view .LVU699
 2020 0054 0120     		movs	r0, #1
 2021 0056 BDE8F081 		pop	{r4, r5, r6, r7, r8, pc}
 423:Middlewares/Third_Party/LibJPEG/source/jdarith.c **** 
 2022              		.loc 1 423 1 view .LVU700
 2023              		.cfi_endproc
 2024              	.LFE152:
 2026              		.section	.text.decode_mcu_AC_first,"ax",%progbits
 2027              		.align	1
 2028              		.syntax unified
 2029              		.thumb
 2030              		.thumb_func
 2032              	decode_mcu_AC_first:
 2033              	.LVL195:
 2034              	.LFB151:
 322:Middlewares/Third_Party/LibJPEG/source/jdarith.c ****   arith_entropy_ptr entropy = (arith_entropy_ptr) cinfo->entropy;
 2035              		.loc 1 322 1 is_stmt 1 view -0
 2036              		.cfi_startproc
 2037              		@ args = 0, pretend = 0, frame = 8
 2038              		@ frame_needed = 0, uses_anonymous_args = 0
 322:Middlewares/Third_Party/LibJPEG/source/jdarith.c ****   arith_entropy_ptr entropy = (arith_entropy_ptr) cinfo->entropy;
 2039              		.loc 1 322 1 is_stmt 0 view .LVU702
 2040 0000 2DE9F04F 		push	{r4, r5, r6, r7, r8, r9, r10, fp, lr}
 2041              	.LCFI12:
 2042              		.cfi_def_cfa_offset 36
 2043              		.cfi_offset 4, -36
 2044              		.cfi_offset 5, -32
 2045              		.cfi_offset 6, -28
 2046              		.cfi_offset 7, -24
 2047              		.cfi_offset 8, -20
 2048              		.cfi_offset 9, -16
 2049              		.cfi_offset 10, -12
 2050              		.cfi_offset 11, -8
 2051              		.cfi_offset 14, -4
 2052 0004 83B0     		sub	sp, sp, #12
 2053              	.LCFI13:
 2054              		.cfi_def_cfa_offset 48
 2055 0006 0546     		mov	r5, r0
 2056 0008 0C46     		mov	r4, r1
 323:Middlewares/Third_Party/LibJPEG/source/jdarith.c ****   JBLOCKROW block;
 2057              		.loc 1 323 3 is_stmt 1 view .LVU703
 323:Middlewares/Third_Party/LibJPEG/source/jdarith.c ****   JBLOCKROW block;
 2058              		.loc 1 323 21 is_stmt 0 view .LVU704
 2059 000a D0F8D091 		ldr	r9, [r0, #464]
 2060              	.LVL196:
 324:Middlewares/Third_Party/LibJPEG/source/jdarith.c ****   unsigned char *st;
 2061              		.loc 1 324 3 is_stmt 1 view .LVU705
 325:Middlewares/Third_Party/LibJPEG/source/jdarith.c ****   int tbl, sign, k;
 2062              		.loc 1 325 3 view .LVU706
 326:Middlewares/Third_Party/LibJPEG/source/jdarith.c ****   int v, m;
 2063              		.loc 1 326 3 view .LVU707
ARM GAS  /var/folders/mq/wg13gp494590nh4zyt09lxf00000gn/T//ccSIaohd.s 			page 59


 327:Middlewares/Third_Party/LibJPEG/source/jdarith.c ****   const int * natural_order;
 2064              		.loc 1 327 3 view .LVU708
 328:Middlewares/Third_Party/LibJPEG/source/jdarith.c **** 
 2065              		.loc 1 328 3 view .LVU709
 331:Middlewares/Third_Party/LibJPEG/source/jdarith.c ****     if (entropy->restarts_to_go == 0)
 2066              		.loc 1 331 3 view .LVU710
 331:Middlewares/Third_Party/LibJPEG/source/jdarith.c ****     if (entropy->restarts_to_go == 0)
 2067              		.loc 1 331 12 is_stmt 0 view .LVU711
 2068 000e D0F81831 		ldr	r3, [r0, #280]
 331:Middlewares/Third_Party/LibJPEG/source/jdarith.c ****     if (entropy->restarts_to_go == 0)
 2069              		.loc 1 331 6 view .LVU712
 2070 0012 43B1     		cbz	r3, .L145
 332:Middlewares/Third_Party/LibJPEG/source/jdarith.c ****       process_restart(cinfo);
 2071              		.loc 1 332 5 is_stmt 1 view .LVU713
 332:Middlewares/Third_Party/LibJPEG/source/jdarith.c ****       process_restart(cinfo);
 2072              		.loc 1 332 16 is_stmt 0 view .LVU714
 2073 0014 D9F83430 		ldr	r3, [r9, #52]
 332:Middlewares/Third_Party/LibJPEG/source/jdarith.c ****       process_restart(cinfo);
 2074              		.loc 1 332 8 view .LVU715
 2075 0018 002B     		cmp	r3, #0
 2076 001a 40D0     		beq	.L163
 2077              	.LVL197:
 2078              	.L146:
 334:Middlewares/Third_Party/LibJPEG/source/jdarith.c ****   }
 2079              		.loc 1 334 5 is_stmt 1 view .LVU716
 334:Middlewares/Third_Party/LibJPEG/source/jdarith.c ****   }
 2080              		.loc 1 334 12 is_stmt 0 view .LVU717
 2081 001c D9F83430 		ldr	r3, [r9, #52]
 334:Middlewares/Third_Party/LibJPEG/source/jdarith.c ****   }
 2082              		.loc 1 334 28 view .LVU718
 2083 0020 013B     		subs	r3, r3, #1
 2084 0022 C9F83430 		str	r3, [r9, #52]
 2085              	.L145:
 337:Middlewares/Third_Party/LibJPEG/source/jdarith.c **** 
 2086              		.loc 1 337 3 is_stmt 1 view .LVU719
 337:Middlewares/Third_Party/LibJPEG/source/jdarith.c **** 
 2087              		.loc 1 337 14 is_stmt 0 view .LVU720
 2088 0026 D9F81030 		ldr	r3, [r9, #16]
 337:Middlewares/Third_Party/LibJPEG/source/jdarith.c **** 
 2089              		.loc 1 337 6 view .LVU721
 2090 002a B3F1FF3F 		cmp	r3, #-1
 2091 002e 32D0     		beq	.L147
 339:Middlewares/Third_Party/LibJPEG/source/jdarith.c **** 
 2092              		.loc 1 339 3 is_stmt 1 view .LVU722
 339:Middlewares/Third_Party/LibJPEG/source/jdarith.c **** 
 2093              		.loc 1 339 17 is_stmt 0 view .LVU723
 2094 0030 D5F8ACB1 		ldr	fp, [r5, #428]
 2095              	.LVL198:
 342:Middlewares/Third_Party/LibJPEG/source/jdarith.c ****   tbl = cinfo->cur_comp_info[0]->ac_tbl_no;
 2096              		.loc 1 342 3 is_stmt 1 view .LVU724
 342:Middlewares/Third_Party/LibJPEG/source/jdarith.c ****   tbl = cinfo->cur_comp_info[0]->ac_tbl_no;
 2097              		.loc 1 342 9 is_stmt 0 view .LVU725
 2098 0034 2368     		ldr	r3, [r4]
 2099 0036 0093     		str	r3, [sp]
 2100              	.LVL199:
 343:Middlewares/Third_Party/LibJPEG/source/jdarith.c **** 
 2101              		.loc 1 343 3 is_stmt 1 view .LVU726
ARM GAS  /var/folders/mq/wg13gp494590nh4zyt09lxf00000gn/T//ccSIaohd.s 			page 60


 343:Middlewares/Third_Party/LibJPEG/source/jdarith.c **** 
 2102              		.loc 1 343 29 is_stmt 0 view .LVU727
 2103 0038 D5F85431 		ldr	r3, [r5, #340]
 2104              	.LVL200:
 343:Middlewares/Third_Party/LibJPEG/source/jdarith.c **** 
 2105              		.loc 1 343 7 view .LVU728
 2106 003c D3F818A0 		ldr	r10, [r3, #24]
 2107              	.LVL201:
 348:Middlewares/Third_Party/LibJPEG/source/jdarith.c ****     st = entropy->ac_stats[tbl] + 3 * (k - 1);
 2108              		.loc 1 348 3 is_stmt 1 view .LVU729
 348:Middlewares/Third_Party/LibJPEG/source/jdarith.c ****     st = entropy->ac_stats[tbl] + 3 * (k - 1);
 2109              		.loc 1 348 10 is_stmt 0 view .LVU730
 2110 0040 D5F89861 		ldr	r6, [r5, #408]
 2111              	.LVL202:
 2112              	.L148:
 348:Middlewares/Third_Party/LibJPEG/source/jdarith.c ****     st = entropy->ac_stats[tbl] + 3 * (k - 1);
 2113              		.loc 1 348 25 is_stmt 1 discriminator 1 view .LVU731
 348:Middlewares/Third_Party/LibJPEG/source/jdarith.c ****     st = entropy->ac_stats[tbl] + 3 * (k - 1);
 2114              		.loc 1 348 33 is_stmt 0 discriminator 1 view .LVU732
 2115 0044 D5F89C31 		ldr	r3, [r5, #412]
 348:Middlewares/Third_Party/LibJPEG/source/jdarith.c ****     st = entropy->ac_stats[tbl] + 3 * (k - 1);
 2116              		.loc 1 348 25 discriminator 1 view .LVU733
 2117 0048 B342     		cmp	r3, r6
 2118 004a 24DB     		blt	.L147
 349:Middlewares/Third_Party/LibJPEG/source/jdarith.c ****     if (arith_decode(cinfo, st)) break;		/* EOB flag */
 2119              		.loc 1 349 5 is_stmt 1 view .LVU734
 349:Middlewares/Third_Party/LibJPEG/source/jdarith.c ****     if (arith_decode(cinfo, st)) break;		/* EOB flag */
 2120              		.loc 1 349 27 is_stmt 0 view .LVU735
 2121 004c 0AF11E03 		add	r3, r10, #30
 2122 0050 59F82340 		ldr	r4, [r9, r3, lsl #2]
 349:Middlewares/Third_Party/LibJPEG/source/jdarith.c ****     if (arith_decode(cinfo, st)) break;		/* EOB flag */
 2123              		.loc 1 349 42 view .LVU736
 2124 0054 731E     		subs	r3, r6, #1
 349:Middlewares/Third_Party/LibJPEG/source/jdarith.c ****     if (arith_decode(cinfo, st)) break;		/* EOB flag */
 2125              		.loc 1 349 37 view .LVU737
 2126 0056 03EB4303 		add	r3, r3, r3, lsl #1
 349:Middlewares/Third_Party/LibJPEG/source/jdarith.c ****     if (arith_decode(cinfo, st)) break;		/* EOB flag */
 2127              		.loc 1 349 8 view .LVU738
 2128 005a 1C44     		add	r4, r4, r3
 2129              	.LVL203:
 350:Middlewares/Third_Party/LibJPEG/source/jdarith.c ****     while (arith_decode(cinfo, st + 1) == 0) {
 2130              		.loc 1 350 5 is_stmt 1 view .LVU739
 350:Middlewares/Third_Party/LibJPEG/source/jdarith.c ****     while (arith_decode(cinfo, st + 1) == 0) {
 2131              		.loc 1 350 9 is_stmt 0 view .LVU740
 2132 005c 2146     		mov	r1, r4
 2133 005e 2846     		mov	r0, r5
 2134 0060 FFF7FEFF 		bl	arith_decode
 2135              	.LVL204:
 350:Middlewares/Third_Party/LibJPEG/source/jdarith.c ****     while (arith_decode(cinfo, st + 1) == 0) {
 2136              		.loc 1 350 8 discriminator 1 view .LVU741
 2137 0064 B8B9     		cbnz	r0, .L147
 2138              	.L149:
 351:Middlewares/Third_Party/LibJPEG/source/jdarith.c ****       st += 3; k++;
 2139              		.loc 1 351 40 is_stmt 1 view .LVU742
 351:Middlewares/Third_Party/LibJPEG/source/jdarith.c ****       st += 3; k++;
 2140              		.loc 1 351 12 is_stmt 0 view .LVU743
 2141 0066 611C     		adds	r1, r4, #1
ARM GAS  /var/folders/mq/wg13gp494590nh4zyt09lxf00000gn/T//ccSIaohd.s 			page 61


 2142 0068 2846     		mov	r0, r5
 2143 006a FFF7FEFF 		bl	arith_decode
 2144              	.LVL205:
 351:Middlewares/Third_Party/LibJPEG/source/jdarith.c ****       st += 3; k++;
 2145              		.loc 1 351 40 discriminator 1 view .LVU744
 2146 006e C8B9     		cbnz	r0, .L164
 352:Middlewares/Third_Party/LibJPEG/source/jdarith.c ****       if (k > cinfo->Se) {
 2147              		.loc 1 352 7 is_stmt 1 view .LVU745
 352:Middlewares/Third_Party/LibJPEG/source/jdarith.c ****       if (k > cinfo->Se) {
 2148              		.loc 1 352 10 is_stmt 0 view .LVU746
 2149 0070 0334     		adds	r4, r4, #3
 2150              	.LVL206:
 352:Middlewares/Third_Party/LibJPEG/source/jdarith.c ****       if (k > cinfo->Se) {
 2151              		.loc 1 352 16 is_stmt 1 view .LVU747
 352:Middlewares/Third_Party/LibJPEG/source/jdarith.c ****       if (k > cinfo->Se) {
 2152              		.loc 1 352 17 is_stmt 0 view .LVU748
 2153 0072 0136     		adds	r6, r6, #1
 2154              	.LVL207:
 353:Middlewares/Third_Party/LibJPEG/source/jdarith.c **** 	WARNMS(cinfo, JWRN_ARITH_BAD_CODE);
 2155              		.loc 1 353 7 is_stmt 1 view .LVU749
 353:Middlewares/Third_Party/LibJPEG/source/jdarith.c **** 	WARNMS(cinfo, JWRN_ARITH_BAD_CODE);
 2156              		.loc 1 353 20 is_stmt 0 view .LVU750
 2157 0074 D5F89C31 		ldr	r3, [r5, #412]
 353:Middlewares/Third_Party/LibJPEG/source/jdarith.c **** 	WARNMS(cinfo, JWRN_ARITH_BAD_CODE);
 2158              		.loc 1 353 10 view .LVU751
 2159 0078 B342     		cmp	r3, r6
 2160 007a F4DA     		bge	.L149
 354:Middlewares/Third_Party/LibJPEG/source/jdarith.c **** 	entropy->ct = -1;			/* spectral overflow */
 2161              		.loc 1 354 2 is_stmt 1 view .LVU752
 2162 007c 2B68     		ldr	r3, [r5]
 2163 007e 7522     		movs	r2, #117
 2164 0080 5A61     		str	r2, [r3, #20]
 2165 0082 2B68     		ldr	r3, [r5]
 2166 0084 5B68     		ldr	r3, [r3, #4]
 2167 0086 4FF0FF31 		mov	r1, #-1
 2168 008a 2846     		mov	r0, r5
 2169 008c 9847     		blx	r3
 2170              	.LVL208:
 355:Middlewares/Third_Party/LibJPEG/source/jdarith.c **** 	return TRUE;
 2171              		.loc 1 355 2 view .LVU753
 355:Middlewares/Third_Party/LibJPEG/source/jdarith.c **** 	return TRUE;
 2172              		.loc 1 355 14 is_stmt 0 view .LVU754
 2173 008e 4FF0FF33 		mov	r3, #-1
 2174 0092 C9F81030 		str	r3, [r9, #16]
 356:Middlewares/Third_Party/LibJPEG/source/jdarith.c ****       }
 2175              		.loc 1 356 2 is_stmt 1 view .LVU755
 2176              	.LVL209:
 2177              	.L147:
 390:Middlewares/Third_Party/LibJPEG/source/jdarith.c **** 
 2178              		.loc 1 390 1 is_stmt 0 view .LVU756
 2179 0096 0120     		movs	r0, #1
 2180 0098 03B0     		add	sp, sp, #12
 2181              	.LCFI14:
 2182              		.cfi_remember_state
 2183              		.cfi_def_cfa_offset 36
 2184              		@ sp needed
 2185 009a BDE8F08F 		pop	{r4, r5, r6, r7, r8, r9, r10, fp, pc}
ARM GAS  /var/folders/mq/wg13gp494590nh4zyt09lxf00000gn/T//ccSIaohd.s 			page 62


 2186              	.LVL210:
 2187              	.L163:
 2188              	.LCFI15:
 2189              		.cfi_restore_state
 333:Middlewares/Third_Party/LibJPEG/source/jdarith.c ****     entropy->restarts_to_go--;
 2190              		.loc 1 333 7 is_stmt 1 view .LVU757
 2191 009e FFF7FEFF 		bl	process_restart
 2192              	.LVL211:
 333:Middlewares/Third_Party/LibJPEG/source/jdarith.c ****     entropy->restarts_to_go--;
 2193              		.loc 1 333 7 is_stmt 0 view .LVU758
 2194 00a2 BBE7     		b	.L146
 2195              	.LVL212:
 2196              	.L164:
 361:Middlewares/Third_Party/LibJPEG/source/jdarith.c ****     st += 2;
 2197              		.loc 1 361 5 is_stmt 1 view .LVU759
 361:Middlewares/Third_Party/LibJPEG/source/jdarith.c ****     st += 2;
 2198              		.loc 1 361 12 is_stmt 0 view .LVU760
 2199 00a4 09F1B801 		add	r1, r9, #184
 2200 00a8 2846     		mov	r0, r5
 2201 00aa FFF7FEFF 		bl	arith_decode
 2202              	.LVL213:
 2203 00ae 0190     		str	r0, [sp, #4]
 2204              	.LVL214:
 362:Middlewares/Third_Party/LibJPEG/source/jdarith.c ****     /* Figure F.23: Decoding the magnitude category of v */
 2205              		.loc 1 362 5 is_stmt 1 view .LVU761
 362:Middlewares/Third_Party/LibJPEG/source/jdarith.c ****     /* Figure F.23: Decoding the magnitude category of v */
 2206              		.loc 1 362 8 is_stmt 0 view .LVU762
 2207 00b0 0234     		adds	r4, r4, #2
 2208              	.LVL215:
 364:Middlewares/Third_Party/LibJPEG/source/jdarith.c ****       if (arith_decode(cinfo, st)) {
 2209              		.loc 1 364 5 is_stmt 1 view .LVU763
 364:Middlewares/Third_Party/LibJPEG/source/jdarith.c ****       if (arith_decode(cinfo, st)) {
 2210              		.loc 1 364 14 is_stmt 0 view .LVU764
 2211 00b2 2146     		mov	r1, r4
 2212 00b4 2846     		mov	r0, r5
 2213              	.LVL216:
 364:Middlewares/Third_Party/LibJPEG/source/jdarith.c ****       if (arith_decode(cinfo, st)) {
 2214              		.loc 1 364 14 view .LVU765
 2215 00b6 FFF7FEFF 		bl	arith_decode
 2216              	.LVL217:
 364:Middlewares/Third_Party/LibJPEG/source/jdarith.c ****       if (arith_decode(cinfo, st)) {
 2217              		.loc 1 364 8 discriminator 1 view .LVU766
 2218 00ba 8046     		mov	r8, r0
 2219 00bc 60B9     		cbnz	r0, .L165
 2220              	.LVL218:
 2221              	.L151:
 379:Middlewares/Third_Party/LibJPEG/source/jdarith.c ****     /* Figure F.24: Decoding the magnitude bit pattern of v */
 2222              		.loc 1 379 5 is_stmt 1 view .LVU767
 381:Middlewares/Third_Party/LibJPEG/source/jdarith.c ****     while (m >>= 1)
 2223              		.loc 1 381 5 view .LVU768
 381:Middlewares/Third_Party/LibJPEG/source/jdarith.c ****     while (m >>= 1)
 2224              		.loc 1 381 8 is_stmt 0 view .LVU769
 2225 00be 0E34     		adds	r4, r4, #14
 2226              	.LVL219:
 382:Middlewares/Third_Party/LibJPEG/source/jdarith.c ****       if (arith_decode(cinfo, st)) v |= m;
 2227              		.loc 1 382 5 is_stmt 1 view .LVU770
 382:Middlewares/Third_Party/LibJPEG/source/jdarith.c ****       if (arith_decode(cinfo, st)) v |= m;
ARM GAS  /var/folders/mq/wg13gp494590nh4zyt09lxf00000gn/T//ccSIaohd.s 			page 63


 2228              		.loc 1 382 11 is_stmt 0 view .LVU771
 2229 00c0 4746     		mov	r7, r8
 2230              	.LVL220:
 2231              	.L156:
 382:Middlewares/Third_Party/LibJPEG/source/jdarith.c ****       if (arith_decode(cinfo, st)) v |= m;
 2232              		.loc 1 382 12 is_stmt 1 view .LVU772
 382:Middlewares/Third_Party/LibJPEG/source/jdarith.c ****       if (arith_decode(cinfo, st)) v |= m;
 2233              		.loc 1 382 12 is_stmt 0 view .LVU773
 2234 00c2 7F10     		asrs	r7, r7, #1
 2235              	.LVL221:
 382:Middlewares/Third_Party/LibJPEG/source/jdarith.c ****       if (arith_decode(cinfo, st)) v |= m;
 2236              		.loc 1 382 12 view .LVU774
 2237 00c4 39D0     		beq	.L166
 383:Middlewares/Third_Party/LibJPEG/source/jdarith.c ****     v += 1; if (sign) v = -v;
 2238              		.loc 1 383 7 is_stmt 1 view .LVU775
 383:Middlewares/Third_Party/LibJPEG/source/jdarith.c ****     v += 1; if (sign) v = -v;
 2239              		.loc 1 383 11 is_stmt 0 view .LVU776
 2240 00c6 2146     		mov	r1, r4
 2241 00c8 2846     		mov	r0, r5
 2242 00ca FFF7FEFF 		bl	arith_decode
 2243              	.LVL222:
 383:Middlewares/Third_Party/LibJPEG/source/jdarith.c ****     v += 1; if (sign) v = -v;
 2244              		.loc 1 383 10 discriminator 1 view .LVU777
 2245 00ce 0028     		cmp	r0, #0
 2246 00d0 F7D0     		beq	.L156
 383:Middlewares/Third_Party/LibJPEG/source/jdarith.c ****     v += 1; if (sign) v = -v;
 2247              		.loc 1 383 36 is_stmt 1 discriminator 1 view .LVU778
 383:Middlewares/Third_Party/LibJPEG/source/jdarith.c ****     v += 1; if (sign) v = -v;
 2248              		.loc 1 383 38 is_stmt 0 discriminator 1 view .LVU779
 2249 00d2 48EA0708 		orr	r8, r8, r7
 2250              	.LVL223:
 383:Middlewares/Third_Party/LibJPEG/source/jdarith.c ****     v += 1; if (sign) v = -v;
 2251              		.loc 1 383 38 discriminator 1 view .LVU780
 2252 00d6 F4E7     		b	.L156
 2253              	.LVL224:
 2254              	.L165:
 365:Middlewares/Third_Party/LibJPEG/source/jdarith.c **** 	m <<= 1;
 2255              		.loc 1 365 7 is_stmt 1 view .LVU781
 365:Middlewares/Third_Party/LibJPEG/source/jdarith.c **** 	m <<= 1;
 2256              		.loc 1 365 11 is_stmt 0 view .LVU782
 2257 00d8 2146     		mov	r1, r4
 2258 00da 2846     		mov	r0, r5
 2259              	.LVL225:
 365:Middlewares/Third_Party/LibJPEG/source/jdarith.c **** 	m <<= 1;
 2260              		.loc 1 365 11 view .LVU783
 2261 00dc FFF7FEFF 		bl	arith_decode
 2262              	.LVL226:
 365:Middlewares/Third_Party/LibJPEG/source/jdarith.c **** 	m <<= 1;
 2263              		.loc 1 365 10 discriminator 1 view .LVU784
 2264 00e0 0028     		cmp	r0, #0
 2265 00e2 ECD0     		beq	.L151
 366:Middlewares/Third_Party/LibJPEG/source/jdarith.c **** 	st = entropy->ac_stats[tbl] +
 2266              		.loc 1 366 2 is_stmt 1 view .LVU785
 366:Middlewares/Third_Party/LibJPEG/source/jdarith.c **** 	st = entropy->ac_stats[tbl] +
 2267              		.loc 1 366 4 is_stmt 0 view .LVU786
 2268 00e4 4FEA4808 		lsl	r8, r8, #1
 2269              	.LVL227:
ARM GAS  /var/folders/mq/wg13gp494590nh4zyt09lxf00000gn/T//ccSIaohd.s 			page 64


 367:Middlewares/Third_Party/LibJPEG/source/jdarith.c **** 	     (k <= cinfo->arith_ac_K[tbl] ? 189 : 217);
 2270              		.loc 1 367 2 is_stmt 1 view .LVU787
 367:Middlewares/Third_Party/LibJPEG/source/jdarith.c **** 	     (k <= cinfo->arith_ac_K[tbl] ? 189 : 217);
 2271              		.loc 1 367 24 is_stmt 0 view .LVU788
 2272 00e8 0AF11E03 		add	r3, r10, #30
 2273 00ec 59F82340 		ldr	r4, [r9, r3, lsl #2]
 2274              	.LVL228:
 368:Middlewares/Third_Party/LibJPEG/source/jdarith.c **** 	while (arith_decode(cinfo, st)) {
 2275              		.loc 1 368 30 view .LVU789
 2276 00f0 05EB0A03 		add	r3, r5, r10
 2277 00f4 93F80831 		ldrb	r3, [r3, #264]	@ zero_extendqisi2
 368:Middlewares/Third_Party/LibJPEG/source/jdarith.c **** 	while (arith_decode(cinfo, st)) {
 2278              		.loc 1 368 42 view .LVU790
 2279 00f8 B342     		cmp	r3, r6
 2280 00fa 0EDB     		blt	.L161
 368:Middlewares/Third_Party/LibJPEG/source/jdarith.c **** 	while (arith_decode(cinfo, st)) {
 2281              		.loc 1 368 42 discriminator 1 view .LVU791
 2282 00fc BD23     		movs	r3, #189
 2283              	.L152:
 367:Middlewares/Third_Party/LibJPEG/source/jdarith.c **** 	     (k <= cinfo->arith_ac_K[tbl] ? 189 : 217);
 2284              		.loc 1 367 5 view .LVU792
 2285 00fe 1C44     		add	r4, r4, r3
 2286              	.LVL229:
 369:Middlewares/Third_Party/LibJPEG/source/jdarith.c **** 	  if ((m <<= 1) == 0x8000) {
 2287              		.loc 1 369 2 is_stmt 1 view .LVU793
 2288              	.L153:
 369:Middlewares/Third_Party/LibJPEG/source/jdarith.c **** 	  if ((m <<= 1) == 0x8000) {
 2289              		.loc 1 369 9 view .LVU794
 2290 0100 2146     		mov	r1, r4
 2291 0102 2846     		mov	r0, r5
 2292 0104 FFF7FEFF 		bl	arith_decode
 2293              	.LVL230:
 369:Middlewares/Third_Party/LibJPEG/source/jdarith.c **** 	  if ((m <<= 1) == 0x8000) {
 2294              		.loc 1 369 9 is_stmt 0 discriminator 1 view .LVU795
 2295 0108 0028     		cmp	r0, #0
 2296 010a D8D0     		beq	.L151
 370:Middlewares/Third_Party/LibJPEG/source/jdarith.c **** 	    WARNMS(cinfo, JWRN_ARITH_BAD_CODE);
 2297              		.loc 1 370 4 is_stmt 1 view .LVU796
 370:Middlewares/Third_Party/LibJPEG/source/jdarith.c **** 	    WARNMS(cinfo, JWRN_ARITH_BAD_CODE);
 2298              		.loc 1 370 11 is_stmt 0 view .LVU797
 2299 010c 4FEA4808 		lsl	r8, r8, #1
 2300              	.LVL231:
 370:Middlewares/Third_Party/LibJPEG/source/jdarith.c **** 	    WARNMS(cinfo, JWRN_ARITH_BAD_CODE);
 2301              		.loc 1 370 7 view .LVU798
 2302 0110 B8F5004F 		cmp	r8, #32768
 2303 0114 03D0     		beq	.L167
 375:Middlewares/Third_Party/LibJPEG/source/jdarith.c **** 	}
 2304              		.loc 1 375 4 is_stmt 1 view .LVU799
 375:Middlewares/Third_Party/LibJPEG/source/jdarith.c **** 	}
 2305              		.loc 1 375 7 is_stmt 0 view .LVU800
 2306 0116 0134     		adds	r4, r4, #1
 2307              	.LVL232:
 375:Middlewares/Third_Party/LibJPEG/source/jdarith.c **** 	}
 2308              		.loc 1 375 7 view .LVU801
 2309 0118 F2E7     		b	.L153
 2310              	.LVL233:
 2311              	.L161:
ARM GAS  /var/folders/mq/wg13gp494590nh4zyt09lxf00000gn/T//ccSIaohd.s 			page 65


 368:Middlewares/Third_Party/LibJPEG/source/jdarith.c **** 	while (arith_decode(cinfo, st)) {
 2312              		.loc 1 368 42 discriminator 2 view .LVU802
 2313 011a D923     		movs	r3, #217
 2314 011c EFE7     		b	.L152
 2315              	.LVL234:
 2316              	.L167:
 371:Middlewares/Third_Party/LibJPEG/source/jdarith.c **** 	    entropy->ct = -1;			/* magnitude overflow */
 2317              		.loc 1 371 6 is_stmt 1 view .LVU803
 2318 011e 2B68     		ldr	r3, [r5]
 2319 0120 7522     		movs	r2, #117
 2320 0122 5A61     		str	r2, [r3, #20]
 2321 0124 2B68     		ldr	r3, [r5]
 2322 0126 5B68     		ldr	r3, [r3, #4]
 2323 0128 4FF0FF31 		mov	r1, #-1
 2324 012c 2846     		mov	r0, r5
 2325 012e 9847     		blx	r3
 2326              	.LVL235:
 372:Middlewares/Third_Party/LibJPEG/source/jdarith.c **** 	    return TRUE;
 2327              		.loc 1 372 6 view .LVU804
 372:Middlewares/Third_Party/LibJPEG/source/jdarith.c **** 	    return TRUE;
 2328              		.loc 1 372 18 is_stmt 0 view .LVU805
 2329 0130 4FF0FF33 		mov	r3, #-1
 2330 0134 C9F81030 		str	r3, [r9, #16]
 373:Middlewares/Third_Party/LibJPEG/source/jdarith.c **** 	  }
 2331              		.loc 1 373 6 is_stmt 1 view .LVU806
 373:Middlewares/Third_Party/LibJPEG/source/jdarith.c **** 	  }
 2332              		.loc 1 373 13 is_stmt 0 view .LVU807
 2333 0138 ADE7     		b	.L147
 2334              	.LVL236:
 2335              	.L166:
 384:Middlewares/Third_Party/LibJPEG/source/jdarith.c ****     /* Scale and output coefficient in natural (dezigzagged) order */
 2336              		.loc 1 384 5 is_stmt 1 view .LVU808
 384:Middlewares/Third_Party/LibJPEG/source/jdarith.c ****     /* Scale and output coefficient in natural (dezigzagged) order */
 2337              		.loc 1 384 7 is_stmt 0 view .LVU809
 2338 013a 08F10103 		add	r3, r8, #1
 2339              	.LVL237:
 384:Middlewares/Third_Party/LibJPEG/source/jdarith.c ****     /* Scale and output coefficient in natural (dezigzagged) order */
 2340              		.loc 1 384 13 is_stmt 1 view .LVU810
 384:Middlewares/Third_Party/LibJPEG/source/jdarith.c ****     /* Scale and output coefficient in natural (dezigzagged) order */
 2341              		.loc 1 384 16 is_stmt 0 view .LVU811
 2342 013e 019A     		ldr	r2, [sp, #4]
 2343 0140 0AB1     		cbz	r2, .L159
 384:Middlewares/Third_Party/LibJPEG/source/jdarith.c ****     /* Scale and output coefficient in natural (dezigzagged) order */
 2344              		.loc 1 384 23 is_stmt 1 discriminator 1 view .LVU812
 384:Middlewares/Third_Party/LibJPEG/source/jdarith.c ****     /* Scale and output coefficient in natural (dezigzagged) order */
 2345              		.loc 1 384 25 is_stmt 0 discriminator 1 view .LVU813
 2346 0142 6FEA0803 		mvn	r3, r8
 2347              	.LVL238:
 2348              	.L159:
 386:Middlewares/Third_Party/LibJPEG/source/jdarith.c ****   }
 2349              		.loc 1 386 5 is_stmt 1 view .LVU814
 386:Middlewares/Third_Party/LibJPEG/source/jdarith.c ****   }
 2350              		.loc 1 386 53 is_stmt 0 view .LVU815
 2351 0146 D5F8A421 		ldr	r2, [r5, #420]
 386:Middlewares/Third_Party/LibJPEG/source/jdarith.c ****   }
 2352              		.loc 1 386 45 view .LVU816
 2353 014a 9340     		lsls	r3, r3, r2
ARM GAS  /var/folders/mq/wg13gp494590nh4zyt09lxf00000gn/T//ccSIaohd.s 			page 66


 2354              	.LVL239:
 386:Middlewares/Third_Party/LibJPEG/source/jdarith.c ****   }
 2355              		.loc 1 386 27 view .LVU817
 2356 014c 5BF82620 		ldr	r2, [fp, r6, lsl #2]
 386:Middlewares/Third_Party/LibJPEG/source/jdarith.c ****   }
 2357              		.loc 1 386 32 view .LVU818
 2358 0150 0099     		ldr	r1, [sp]
 2359 0152 21F81230 		strh	r3, [r1, r2, lsl #1]	@ movhi
 348:Middlewares/Third_Party/LibJPEG/source/jdarith.c ****     st = entropy->ac_stats[tbl] + 3 * (k - 1);
 2360              		.loc 1 348 40 is_stmt 1 discriminator 2 view .LVU819
 2361 0156 0136     		adds	r6, r6, #1
 2362              	.LVL240:
 348:Middlewares/Third_Party/LibJPEG/source/jdarith.c ****     st = entropy->ac_stats[tbl] + 3 * (k - 1);
 2363              		.loc 1 348 40 is_stmt 0 discriminator 2 view .LVU820
 2364 0158 74E7     		b	.L148
 2365              		.cfi_endproc
 2366              	.LFE151:
 2368              		.section	.text.decode_mcu_DC_first,"ax",%progbits
 2369              		.align	1
 2370              		.syntax unified
 2371              		.thumb
 2372              		.thumb_func
 2374              	decode_mcu_DC_first:
 2375              	.LVL241:
 2376              	.LFB150:
 243:Middlewares/Third_Party/LibJPEG/source/jdarith.c ****   arith_entropy_ptr entropy = (arith_entropy_ptr) cinfo->entropy;
 2377              		.loc 1 243 1 is_stmt 1 view -0
 2378              		.cfi_startproc
 2379              		@ args = 0, pretend = 0, frame = 8
 2380              		@ frame_needed = 0, uses_anonymous_args = 0
 243:Middlewares/Third_Party/LibJPEG/source/jdarith.c ****   arith_entropy_ptr entropy = (arith_entropy_ptr) cinfo->entropy;
 2381              		.loc 1 243 1 is_stmt 0 view .LVU822
 2382 0000 2DE9F04F 		push	{r4, r5, r6, r7, r8, r9, r10, fp, lr}
 2383              	.LCFI16:
 2384              		.cfi_def_cfa_offset 36
 2385              		.cfi_offset 4, -36
 2386              		.cfi_offset 5, -32
 2387              		.cfi_offset 6, -28
 2388              		.cfi_offset 7, -24
 2389              		.cfi_offset 8, -20
 2390              		.cfi_offset 9, -16
 2391              		.cfi_offset 10, -12
 2392              		.cfi_offset 11, -8
 2393              		.cfi_offset 14, -4
 2394 0004 83B0     		sub	sp, sp, #12
 2395              	.LCFI17:
 2396              		.cfi_def_cfa_offset 48
 2397 0006 0546     		mov	r5, r0
 2398 0008 0091     		str	r1, [sp]
 244:Middlewares/Third_Party/LibJPEG/source/jdarith.c ****   JBLOCKROW block;
 2399              		.loc 1 244 3 is_stmt 1 view .LVU823
 244:Middlewares/Third_Party/LibJPEG/source/jdarith.c ****   JBLOCKROW block;
 2400              		.loc 1 244 21 is_stmt 0 view .LVU824
 2401 000a D0F8D091 		ldr	r9, [r0, #464]
 2402              	.LVL242:
 245:Middlewares/Third_Party/LibJPEG/source/jdarith.c ****   unsigned char *st;
 2403              		.loc 1 245 3 is_stmt 1 view .LVU825
ARM GAS  /var/folders/mq/wg13gp494590nh4zyt09lxf00000gn/T//ccSIaohd.s 			page 67


 246:Middlewares/Third_Party/LibJPEG/source/jdarith.c ****   int blkn, ci, tbl, sign;
 2404              		.loc 1 246 3 view .LVU826
 247:Middlewares/Third_Party/LibJPEG/source/jdarith.c ****   int v, m;
 2405              		.loc 1 247 3 view .LVU827
 248:Middlewares/Third_Party/LibJPEG/source/jdarith.c **** 
 2406              		.loc 1 248 3 view .LVU828
 251:Middlewares/Third_Party/LibJPEG/source/jdarith.c ****     if (entropy->restarts_to_go == 0)
 2407              		.loc 1 251 3 view .LVU829
 251:Middlewares/Third_Party/LibJPEG/source/jdarith.c ****     if (entropy->restarts_to_go == 0)
 2408              		.loc 1 251 12 is_stmt 0 view .LVU830
 2409 000e D0F81831 		ldr	r3, [r0, #280]
 251:Middlewares/Third_Party/LibJPEG/source/jdarith.c ****     if (entropy->restarts_to_go == 0)
 2410              		.loc 1 251 6 view .LVU831
 2411 0012 3BB1     		cbz	r3, .L169
 252:Middlewares/Third_Party/LibJPEG/source/jdarith.c ****       process_restart(cinfo);
 2412              		.loc 1 252 5 is_stmt 1 view .LVU832
 252:Middlewares/Third_Party/LibJPEG/source/jdarith.c ****       process_restart(cinfo);
 2413              		.loc 1 252 16 is_stmt 0 view .LVU833
 2414 0014 D9F83430 		ldr	r3, [r9, #52]
 252:Middlewares/Third_Party/LibJPEG/source/jdarith.c ****       process_restart(cinfo);
 2415              		.loc 1 252 8 view .LVU834
 2416 0018 63B1     		cbz	r3, .L188
 2417              	.LVL243:
 2418              	.L170:
 254:Middlewares/Third_Party/LibJPEG/source/jdarith.c ****   }
 2419              		.loc 1 254 5 is_stmt 1 view .LVU835
 254:Middlewares/Third_Party/LibJPEG/source/jdarith.c ****   }
 2420              		.loc 1 254 12 is_stmt 0 view .LVU836
 2421 001a D9F83430 		ldr	r3, [r9, #52]
 254:Middlewares/Third_Party/LibJPEG/source/jdarith.c ****   }
 2422              		.loc 1 254 28 view .LVU837
 2423 001e 013B     		subs	r3, r3, #1
 2424 0020 C9F83430 		str	r3, [r9, #52]
 2425              	.L169:
 257:Middlewares/Third_Party/LibJPEG/source/jdarith.c **** 
 2426              		.loc 1 257 3 is_stmt 1 view .LVU838
 257:Middlewares/Third_Party/LibJPEG/source/jdarith.c **** 
 2427              		.loc 1 257 14 is_stmt 0 view .LVU839
 2428 0024 D9F81030 		ldr	r3, [r9, #16]
 257:Middlewares/Third_Party/LibJPEG/source/jdarith.c **** 
 2429              		.loc 1 257 6 view .LVU840
 2430 0028 B3F1FF3F 		cmp	r3, #-1
 2431 002c 30D0     		beq	.L171
 261:Middlewares/Third_Party/LibJPEG/source/jdarith.c ****     block = MCU_data[blkn];
 2432              		.loc 1 261 13 view .LVU841
 2433 002e 4FF00008 		mov	r8, #0
 2434 0032 7DE0     		b	.L172
 2435              	.LVL244:
 2436              	.L188:
 253:Middlewares/Third_Party/LibJPEG/source/jdarith.c ****     entropy->restarts_to_go--;
 2437              		.loc 1 253 7 is_stmt 1 view .LVU842
 2438 0034 FFF7FEFF 		bl	process_restart
 2439              	.LVL245:
 253:Middlewares/Third_Party/LibJPEG/source/jdarith.c ****     entropy->restarts_to_go--;
 2440              		.loc 1 253 7 is_stmt 0 view .LVU843
 2441 0038 EFE7     		b	.L170
 2442              	.LVL246:
ARM GAS  /var/folders/mq/wg13gp494590nh4zyt09lxf00000gn/T//ccSIaohd.s 			page 68


 2443              	.L173:
 277:Middlewares/Third_Party/LibJPEG/source/jdarith.c ****       st += 2; st += sign;
 2444              		.loc 1 277 7 is_stmt 1 view .LVU844
 277:Middlewares/Third_Party/LibJPEG/source/jdarith.c ****       st += 2; st += sign;
 2445              		.loc 1 277 14 is_stmt 0 view .LVU845
 2446 003a 611C     		adds	r1, r4, #1
 2447 003c 2846     		mov	r0, r5
 2448 003e FFF7FEFF 		bl	arith_decode
 2449              	.LVL247:
 2450 0042 0346     		mov	r3, r0
 2451 0044 0190     		str	r0, [sp, #4]
 2452              	.LVL248:
 278:Middlewares/Third_Party/LibJPEG/source/jdarith.c ****       /* Figure F.23: Decoding the magnitude category of v */
 2453              		.loc 1 278 7 is_stmt 1 view .LVU846
 278:Middlewares/Third_Party/LibJPEG/source/jdarith.c ****       /* Figure F.23: Decoding the magnitude category of v */
 2454              		.loc 1 278 16 view .LVU847
 278:Middlewares/Third_Party/LibJPEG/source/jdarith.c ****       /* Figure F.23: Decoding the magnitude category of v */
 2455              		.loc 1 278 19 is_stmt 0 view .LVU848
 2456 0046 0233     		adds	r3, r3, #2
 2457 0048 1C44     		add	r4, r4, r3
 2458              	.LVL249:
 280:Middlewares/Third_Party/LibJPEG/source/jdarith.c **** 	st = entropy->dc_stats[tbl] + 20;	/* Table F.4: X1 = 20 */
 2459              		.loc 1 280 7 is_stmt 1 view .LVU849
 280:Middlewares/Third_Party/LibJPEG/source/jdarith.c **** 	st = entropy->dc_stats[tbl] + 20;	/* Table F.4: X1 = 20 */
 2460              		.loc 1 280 16 is_stmt 0 view .LVU850
 2461 004a 2146     		mov	r1, r4
 2462 004c 2846     		mov	r0, r5
 2463              	.LVL250:
 280:Middlewares/Third_Party/LibJPEG/source/jdarith.c **** 	st = entropy->dc_stats[tbl] + 20;	/* Table F.4: X1 = 20 */
 2464              		.loc 1 280 16 view .LVU851
 2465 004e FFF7FEFF 		bl	arith_decode
 2466              	.LVL251:
 280:Middlewares/Third_Party/LibJPEG/source/jdarith.c **** 	st = entropy->dc_stats[tbl] + 20;	/* Table F.4: X1 = 20 */
 2467              		.loc 1 280 10 discriminator 1 view .LVU852
 2468 0052 0746     		mov	r7, r0
 2469 0054 00B3     		cbz	r0, .L175
 281:Middlewares/Third_Party/LibJPEG/source/jdarith.c **** 	while (arith_decode(cinfo, st)) {
 2470              		.loc 1 281 2 is_stmt 1 view .LVU853
 281:Middlewares/Third_Party/LibJPEG/source/jdarith.c **** 	while (arith_decode(cinfo, st)) {
 2471              		.loc 1 281 24 is_stmt 0 view .LVU854
 2472 0056 0BF10E03 		add	r3, fp, #14
 2473 005a 59F82340 		ldr	r4, [r9, r3, lsl #2]
 2474              	.LVL252:
 281:Middlewares/Third_Party/LibJPEG/source/jdarith.c **** 	while (arith_decode(cinfo, st)) {
 2475              		.loc 1 281 5 view .LVU855
 2476 005e 1434     		adds	r4, r4, #20
 2477              	.LVL253:
 282:Middlewares/Third_Party/LibJPEG/source/jdarith.c **** 	  if ((m <<= 1) == 0x8000) {
 2478              		.loc 1 282 2 is_stmt 1 view .LVU856
 2479              	.L176:
 282:Middlewares/Third_Party/LibJPEG/source/jdarith.c **** 	  if ((m <<= 1) == 0x8000) {
 2480              		.loc 1 282 9 view .LVU857
 2481 0060 2146     		mov	r1, r4
 2482 0062 2846     		mov	r0, r5
 2483 0064 FFF7FEFF 		bl	arith_decode
 2484              	.LVL254:
 282:Middlewares/Third_Party/LibJPEG/source/jdarith.c **** 	  if ((m <<= 1) == 0x8000) {
ARM GAS  /var/folders/mq/wg13gp494590nh4zyt09lxf00000gn/T//ccSIaohd.s 			page 69


 2485              		.loc 1 282 9 is_stmt 0 discriminator 1 view .LVU858
 2486 0068 B0B1     		cbz	r0, .L175
 283:Middlewares/Third_Party/LibJPEG/source/jdarith.c **** 	    WARNMS(cinfo, JWRN_ARITH_BAD_CODE);
 2487              		.loc 1 283 4 is_stmt 1 view .LVU859
 283:Middlewares/Third_Party/LibJPEG/source/jdarith.c **** 	    WARNMS(cinfo, JWRN_ARITH_BAD_CODE);
 2488              		.loc 1 283 11 is_stmt 0 view .LVU860
 2489 006a 7F00     		lsls	r7, r7, #1
 2490              	.LVL255:
 283:Middlewares/Third_Party/LibJPEG/source/jdarith.c **** 	    WARNMS(cinfo, JWRN_ARITH_BAD_CODE);
 2491              		.loc 1 283 7 view .LVU861
 2492 006c B7F5004F 		cmp	r7, #32768
 2493 0070 01D0     		beq	.L189
 288:Middlewares/Third_Party/LibJPEG/source/jdarith.c **** 	}
 2494              		.loc 1 288 4 is_stmt 1 view .LVU862
 288:Middlewares/Third_Party/LibJPEG/source/jdarith.c **** 	}
 2495              		.loc 1 288 7 is_stmt 0 view .LVU863
 2496 0072 0134     		adds	r4, r4, #1
 2497              	.LVL256:
 288:Middlewares/Third_Party/LibJPEG/source/jdarith.c **** 	}
 2498              		.loc 1 288 7 view .LVU864
 2499 0074 F4E7     		b	.L176
 2500              	.L189:
 284:Middlewares/Third_Party/LibJPEG/source/jdarith.c **** 	    entropy->ct = -1;			/* magnitude overflow */
 2501              		.loc 1 284 6 is_stmt 1 view .LVU865
 2502 0076 2B68     		ldr	r3, [r5]
 2503 0078 7522     		movs	r2, #117
 2504 007a 5A61     		str	r2, [r3, #20]
 2505 007c 2B68     		ldr	r3, [r5]
 2506 007e 5B68     		ldr	r3, [r3, #4]
 2507 0080 4FF0FF31 		mov	r1, #-1
 2508 0084 2846     		mov	r0, r5
 2509 0086 9847     		blx	r3
 2510              	.LVL257:
 285:Middlewares/Third_Party/LibJPEG/source/jdarith.c **** 	    return TRUE;
 2511              		.loc 1 285 6 view .LVU866
 285:Middlewares/Third_Party/LibJPEG/source/jdarith.c **** 	    return TRUE;
 2512              		.loc 1 285 18 is_stmt 0 view .LVU867
 2513 0088 4FF0FF33 		mov	r3, #-1
 2514 008c C9F81030 		str	r3, [r9, #16]
 286:Middlewares/Third_Party/LibJPEG/source/jdarith.c **** 	  }
 2515              		.loc 1 286 6 is_stmt 1 view .LVU868
 2516              	.LVL258:
 2517              	.L171:
 312:Middlewares/Third_Party/LibJPEG/source/jdarith.c **** 
 2518              		.loc 1 312 1 is_stmt 0 view .LVU869
 2519 0090 0120     		movs	r0, #1
 2520 0092 03B0     		add	sp, sp, #12
 2521              	.LCFI18:
 2522              		.cfi_remember_state
 2523              		.cfi_def_cfa_offset 36
 2524              	.LVL259:
 312:Middlewares/Third_Party/LibJPEG/source/jdarith.c **** 
 2525              		.loc 1 312 1 view .LVU870
 2526              		@ sp needed
 2527 0094 BDE8F08F 		pop	{r4, r5, r6, r7, r8, r9, r10, fp, pc}
 2528              	.LVL260:
 2529              	.L175:
ARM GAS  /var/folders/mq/wg13gp494590nh4zyt09lxf00000gn/T//ccSIaohd.s 			page 70


 2530              	.LCFI19:
 2531              		.cfi_restore_state
 292:Middlewares/Third_Party/LibJPEG/source/jdarith.c **** 	entropy->dc_context[ci] = 0;		   /* zero diff category */
 2532              		.loc 1 292 7 is_stmt 1 view .LVU871
 292:Middlewares/Third_Party/LibJPEG/source/jdarith.c **** 	entropy->dc_context[ci] = 0;		   /* zero diff category */
 2533              		.loc 1 292 46 is_stmt 0 view .LVU872
 2534 0098 05EB0B03 		add	r3, r5, fp
 2535 009c 93F8E820 		ldrb	r2, [r3, #232]	@ zero_extendqisi2
 292:Middlewares/Third_Party/LibJPEG/source/jdarith.c **** 	entropy->dc_context[ci] = 0;		   /* zero diff category */
 2536              		.loc 1 292 26 view .LVU873
 2537 00a0 0123     		movs	r3, #1
 2538 00a2 9340     		lsls	r3, r3, r2
 292:Middlewares/Third_Party/LibJPEG/source/jdarith.c **** 	entropy->dc_context[ci] = 0;		   /* zero diff category */
 2539              		.loc 1 292 10 view .LVU874
 2540 00a4 B7EB630F 		cmp	r7, r3, asr #1
 2541 00a8 13DA     		bge	.L179
 293:Middlewares/Third_Party/LibJPEG/source/jdarith.c ****       else if (m > (int) ((1L << cinfo->arith_dc_U[tbl]) >> 1))
 2542              		.loc 1 293 2 is_stmt 1 view .LVU875
 293:Middlewares/Third_Party/LibJPEG/source/jdarith.c ****       else if (m > (int) ((1L << cinfo->arith_dc_U[tbl]) >> 1))
 2543              		.loc 1 293 26 is_stmt 0 view .LVU876
 2544 00aa 06F10803 		add	r3, r6, #8
 2545 00ae 09EB8303 		add	r3, r9, r3, lsl #2
 2546 00b2 0022     		movs	r2, #0
 2547 00b4 5A60     		str	r2, [r3, #4]
 2548              	.LVL261:
 2549              	.L180:
 298:Middlewares/Third_Party/LibJPEG/source/jdarith.c ****       /* Figure F.24: Decoding the magnitude bit pattern of v */
 2550              		.loc 1 298 7 is_stmt 1 view .LVU877
 300:Middlewares/Third_Party/LibJPEG/source/jdarith.c ****       while (m >>= 1)
 2551              		.loc 1 300 7 view .LVU878
 300:Middlewares/Third_Party/LibJPEG/source/jdarith.c ****       while (m >>= 1)
 2552              		.loc 1 300 10 is_stmt 0 view .LVU879
 2553 00b6 0E34     		adds	r4, r4, #14
 2554              	.LVL262:
 301:Middlewares/Third_Party/LibJPEG/source/jdarith.c **** 	if (arith_decode(cinfo, st)) v |= m;
 2555              		.loc 1 301 7 is_stmt 1 view .LVU880
 301:Middlewares/Third_Party/LibJPEG/source/jdarith.c **** 	if (arith_decode(cinfo, st)) v |= m;
 2556              		.loc 1 301 13 is_stmt 0 view .LVU881
 2557 00b8 BB46     		mov	fp, r7
 2558              	.LVL263:
 2559              	.L182:
 301:Middlewares/Third_Party/LibJPEG/source/jdarith.c **** 	if (arith_decode(cinfo, st)) v |= m;
 2560              		.loc 1 301 14 is_stmt 1 view .LVU882
 301:Middlewares/Third_Party/LibJPEG/source/jdarith.c **** 	if (arith_decode(cinfo, st)) v |= m;
 2561              		.loc 1 301 14 is_stmt 0 view .LVU883
 2562 00ba 5FEA6B0B 		asrs	fp, fp, #1
 2563              	.LVL264:
 301:Middlewares/Third_Party/LibJPEG/source/jdarith.c **** 	if (arith_decode(cinfo, st)) v |= m;
 2564              		.loc 1 301 14 view .LVU884
 2565 00be 22D0     		beq	.L190
 302:Middlewares/Third_Party/LibJPEG/source/jdarith.c ****       v += 1; if (sign) v = -v;
 2566              		.loc 1 302 2 is_stmt 1 view .LVU885
 302:Middlewares/Third_Party/LibJPEG/source/jdarith.c ****       v += 1; if (sign) v = -v;
 2567              		.loc 1 302 6 is_stmt 0 view .LVU886
 2568 00c0 2146     		mov	r1, r4
 2569 00c2 2846     		mov	r0, r5
 2570 00c4 FFF7FEFF 		bl	arith_decode
ARM GAS  /var/folders/mq/wg13gp494590nh4zyt09lxf00000gn/T//ccSIaohd.s 			page 71


 2571              	.LVL265:
 302:Middlewares/Third_Party/LibJPEG/source/jdarith.c ****       v += 1; if (sign) v = -v;
 2572              		.loc 1 302 5 discriminator 1 view .LVU887
 2573 00c8 0028     		cmp	r0, #0
 2574 00ca F6D0     		beq	.L182
 302:Middlewares/Third_Party/LibJPEG/source/jdarith.c ****       v += 1; if (sign) v = -v;
 2575              		.loc 1 302 31 is_stmt 1 discriminator 1 view .LVU888
 302:Middlewares/Third_Party/LibJPEG/source/jdarith.c ****       v += 1; if (sign) v = -v;
 2576              		.loc 1 302 33 is_stmt 0 discriminator 1 view .LVU889
 2577 00cc 47EA0B07 		orr	r7, r7, fp
 2578              	.LVL266:
 302:Middlewares/Third_Party/LibJPEG/source/jdarith.c ****       v += 1; if (sign) v = -v;
 2579              		.loc 1 302 33 discriminator 1 view .LVU890
 2580 00d0 F3E7     		b	.L182
 2581              	.LVL267:
 2582              	.L179:
 294:Middlewares/Third_Party/LibJPEG/source/jdarith.c **** 	entropy->dc_context[ci] = 12 + (sign * 4); /* large diff category */
 2583              		.loc 1 294 12 is_stmt 1 view .LVU891
 294:Middlewares/Third_Party/LibJPEG/source/jdarith.c **** 	entropy->dc_context[ci] = 12 + (sign * 4); /* large diff category */
 2584              		.loc 1 294 51 is_stmt 0 view .LVU892
 2585 00d2 AB44     		add	fp, fp, r5
 2586              	.LVL268:
 294:Middlewares/Third_Party/LibJPEG/source/jdarith.c **** 	entropy->dc_context[ci] = 12 + (sign * 4); /* large diff category */
 2587              		.loc 1 294 51 view .LVU893
 2588 00d4 9BF8F820 		ldrb	r2, [fp, #248]	@ zero_extendqisi2
 294:Middlewares/Third_Party/LibJPEG/source/jdarith.c **** 	entropy->dc_context[ci] = 12 + (sign * 4); /* large diff category */
 2589              		.loc 1 294 31 view .LVU894
 2590 00d8 0123     		movs	r3, #1
 2591 00da 9340     		lsls	r3, r3, r2
 294:Middlewares/Third_Party/LibJPEG/source/jdarith.c **** 	entropy->dc_context[ci] = 12 + (sign * 4); /* large diff category */
 2592              		.loc 1 294 15 view .LVU895
 2593 00dc B7EB630F 		cmp	r7, r3, asr #1
 2594 00e0 08DD     		ble	.L181
 295:Middlewares/Third_Party/LibJPEG/source/jdarith.c ****       else
 2595              		.loc 1 295 2 is_stmt 1 view .LVU896
 295:Middlewares/Third_Party/LibJPEG/source/jdarith.c ****       else
 2596              		.loc 1 295 31 is_stmt 0 view .LVU897
 2597 00e2 019B     		ldr	r3, [sp, #4]
 2598 00e4 DA1C     		adds	r2, r3, #3
 2599 00e6 9200     		lsls	r2, r2, #2
 295:Middlewares/Third_Party/LibJPEG/source/jdarith.c ****       else
 2600              		.loc 1 295 26 view .LVU898
 2601 00e8 06F10803 		add	r3, r6, #8
 2602 00ec 09EB8303 		add	r3, r9, r3, lsl #2
 2603 00f0 5A60     		str	r2, [r3, #4]
 2604 00f2 E0E7     		b	.L180
 2605              	.L181:
 297:Middlewares/Third_Party/LibJPEG/source/jdarith.c ****       v = m;
 2606              		.loc 1 297 2 is_stmt 1 view .LVU899
 297:Middlewares/Third_Party/LibJPEG/source/jdarith.c ****       v = m;
 2607              		.loc 1 297 30 is_stmt 0 view .LVU900
 2608 00f4 019B     		ldr	r3, [sp, #4]
 2609 00f6 5A1C     		adds	r2, r3, #1
 2610 00f8 9200     		lsls	r2, r2, #2
 297:Middlewares/Third_Party/LibJPEG/source/jdarith.c ****       v = m;
 2611              		.loc 1 297 26 view .LVU901
 2612 00fa 06F10803 		add	r3, r6, #8
ARM GAS  /var/folders/mq/wg13gp494590nh4zyt09lxf00000gn/T//ccSIaohd.s 			page 72


 2613 00fe 09EB8303 		add	r3, r9, r3, lsl #2
 2614 0102 5A60     		str	r2, [r3, #4]
 2615 0104 D7E7     		b	.L180
 2616              	.LVL269:
 2617              	.L190:
 303:Middlewares/Third_Party/LibJPEG/source/jdarith.c ****       entropy->last_dc_val[ci] += v;
 2618              		.loc 1 303 7 is_stmt 1 view .LVU902
 303:Middlewares/Third_Party/LibJPEG/source/jdarith.c ****       entropy->last_dc_val[ci] += v;
 2619              		.loc 1 303 9 is_stmt 0 view .LVU903
 2620 0106 791C     		adds	r1, r7, #1
 2621              	.LVL270:
 303:Middlewares/Third_Party/LibJPEG/source/jdarith.c ****       entropy->last_dc_val[ci] += v;
 2622              		.loc 1 303 15 is_stmt 1 view .LVU904
 303:Middlewares/Third_Party/LibJPEG/source/jdarith.c ****       entropy->last_dc_val[ci] += v;
 2623              		.loc 1 303 18 is_stmt 0 view .LVU905
 2624 0108 019B     		ldr	r3, [sp, #4]
 2625 010a 03B1     		cbz	r3, .L185
 303:Middlewares/Third_Party/LibJPEG/source/jdarith.c ****       entropy->last_dc_val[ci] += v;
 2626              		.loc 1 303 25 is_stmt 1 discriminator 1 view .LVU906
 303:Middlewares/Third_Party/LibJPEG/source/jdarith.c ****       entropy->last_dc_val[ci] += v;
 2627              		.loc 1 303 27 is_stmt 0 discriminator 1 view .LVU907
 2628 010c F943     		mvns	r1, r7
 2629              	.LVL271:
 2630              	.L185:
 304:Middlewares/Third_Party/LibJPEG/source/jdarith.c ****     }
 2631              		.loc 1 304 7 is_stmt 1 view .LVU908
 304:Middlewares/Third_Party/LibJPEG/source/jdarith.c ****     }
 2632              		.loc 1 304 27 is_stmt 0 view .LVU909
 2633 010e 331D     		adds	r3, r6, #4
 2634 0110 09EB8303 		add	r3, r9, r3, lsl #2
 2635 0114 5A68     		ldr	r2, [r3, #4]
 304:Middlewares/Third_Party/LibJPEG/source/jdarith.c ****     }
 2636              		.loc 1 304 32 view .LVU910
 2637 0116 0A44     		add	r2, r2, r1
 2638 0118 5A60     		str	r2, [r3, #4]
 2639              	.LVL272:
 2640              	.L174:
 308:Middlewares/Third_Party/LibJPEG/source/jdarith.c ****   }
 2641              		.loc 1 308 5 is_stmt 1 view .LVU911
 308:Middlewares/Third_Party/LibJPEG/source/jdarith.c ****   }
 2642              		.loc 1 308 48 is_stmt 0 view .LVU912
 2643 011a 0436     		adds	r6, r6, #4
 2644              	.LVL273:
 308:Middlewares/Third_Party/LibJPEG/source/jdarith.c ****   }
 2645              		.loc 1 308 48 view .LVU913
 2646 011c 09EB8606 		add	r6, r9, r6, lsl #2
 2647              	.LVL274:
 308:Middlewares/Third_Party/LibJPEG/source/jdarith.c ****   }
 2648              		.loc 1 308 48 view .LVU914
 2649 0120 7368     		ldr	r3, [r6, #4]
 308:Middlewares/Third_Party/LibJPEG/source/jdarith.c ****   }
 2650              		.loc 1 308 61 view .LVU915
 2651 0122 D5F8A421 		ldr	r2, [r5, #420]
 308:Middlewares/Third_Party/LibJPEG/source/jdarith.c ****   }
 2652              		.loc 1 308 53 view .LVU916
 2653 0126 9340     		lsls	r3, r3, r2
 308:Middlewares/Third_Party/LibJPEG/source/jdarith.c ****   }
ARM GAS  /var/folders/mq/wg13gp494590nh4zyt09lxf00000gn/T//ccSIaohd.s 			page 73


 2654              		.loc 1 308 17 view .LVU917
 2655 0128 AAF80030 		strh	r3, [r10]	@ movhi
 261:Middlewares/Third_Party/LibJPEG/source/jdarith.c ****     block = MCU_data[blkn];
 2656              		.loc 1 261 51 is_stmt 1 discriminator 2 view .LVU918
 2657 012c 08F10108 		add	r8, r8, #1
 2658              	.LVL275:
 2659              	.L172:
