ARM GAS  /var/folders/mq/wg13gp494590nh4zyt09lxf00000gn/T//ccLgMMOG.s 			page 1


   1              		.cpu cortex-m7
   2              		.arch armv7e-m
   3              		.fpu fpv5-d16
   4              		.eabi_attribute 28, 1
   5              		.eabi_attribute 20, 1
   6              		.eabi_attribute 21, 1
   7              		.eabi_attribute 23, 3
   8              		.eabi_attribute 24, 1
   9              		.eabi_attribute 25, 1
  10              		.eabi_attribute 26, 1
  11              		.eabi_attribute 30, 1
  12              		.eabi_attribute 34, 1
  13              		.eabi_attribute 18, 4
  14              		.file	"jdcoefct.c"
  15              		.text
  16              	.Ltext0:
  17              		.cfi_sections	.debug_frame
  18              		.file 1 "Middlewares/Third_Party/LibJPEG/source/jdcoefct.c"
  19              		.section	.text.start_iMCU_row,"ax",%progbits
  20              		.align	1
  21              		.syntax unified
  22              		.thumb
  23              		.thumb_func
  25              	start_iMCU_row:
  26              	.LVL0:
  27              	.LFB147:
   1:Middlewares/Third_Party/LibJPEG/source/jdcoefct.c **** /*
   2:Middlewares/Third_Party/LibJPEG/source/jdcoefct.c ****  * jdcoefct.c
   3:Middlewares/Third_Party/LibJPEG/source/jdcoefct.c ****  *
   4:Middlewares/Third_Party/LibJPEG/source/jdcoefct.c ****  * Copyright (C) 1994-1997, Thomas G. Lane.
   5:Middlewares/Third_Party/LibJPEG/source/jdcoefct.c ****  * Modified 2002-2011 by Guido Vollbeding.
   6:Middlewares/Third_Party/LibJPEG/source/jdcoefct.c ****  * This file is part of the Independent JPEG Group's software.
   7:Middlewares/Third_Party/LibJPEG/source/jdcoefct.c ****  * For conditions of distribution and use, see the accompanying README file.
   8:Middlewares/Third_Party/LibJPEG/source/jdcoefct.c ****  *
   9:Middlewares/Third_Party/LibJPEG/source/jdcoefct.c ****  * This file contains the coefficient buffer controller for decompression.
  10:Middlewares/Third_Party/LibJPEG/source/jdcoefct.c ****  * This controller is the top level of the JPEG decompressor proper.
  11:Middlewares/Third_Party/LibJPEG/source/jdcoefct.c ****  * The coefficient buffer lies between entropy decoding and inverse-DCT steps.
  12:Middlewares/Third_Party/LibJPEG/source/jdcoefct.c ****  *
  13:Middlewares/Third_Party/LibJPEG/source/jdcoefct.c ****  * In buffered-image mode, this controller is the interface between
  14:Middlewares/Third_Party/LibJPEG/source/jdcoefct.c ****  * input-oriented processing and output-oriented processing.
  15:Middlewares/Third_Party/LibJPEG/source/jdcoefct.c ****  * Also, the input side (only) is used when reading a file for transcoding.
  16:Middlewares/Third_Party/LibJPEG/source/jdcoefct.c ****  */
  17:Middlewares/Third_Party/LibJPEG/source/jdcoefct.c **** 
  18:Middlewares/Third_Party/LibJPEG/source/jdcoefct.c **** #define JPEG_INTERNALS
  19:Middlewares/Third_Party/LibJPEG/source/jdcoefct.c **** #include "jinclude.h"
  20:Middlewares/Third_Party/LibJPEG/source/jdcoefct.c **** #include "jpeglib.h"
  21:Middlewares/Third_Party/LibJPEG/source/jdcoefct.c **** 
  22:Middlewares/Third_Party/LibJPEG/source/jdcoefct.c **** /* Block smoothing is only applicable for progressive JPEG, so: */
  23:Middlewares/Third_Party/LibJPEG/source/jdcoefct.c **** #ifndef D_PROGRESSIVE_SUPPORTED
  24:Middlewares/Third_Party/LibJPEG/source/jdcoefct.c **** #undef BLOCK_SMOOTHING_SUPPORTED
  25:Middlewares/Third_Party/LibJPEG/source/jdcoefct.c **** #endif
  26:Middlewares/Third_Party/LibJPEG/source/jdcoefct.c **** 
  27:Middlewares/Third_Party/LibJPEG/source/jdcoefct.c **** /* Private buffer controller object */
  28:Middlewares/Third_Party/LibJPEG/source/jdcoefct.c **** 
  29:Middlewares/Third_Party/LibJPEG/source/jdcoefct.c **** typedef struct {
  30:Middlewares/Third_Party/LibJPEG/source/jdcoefct.c ****   struct jpeg_d_coef_controller pub; /* public fields */
  31:Middlewares/Third_Party/LibJPEG/source/jdcoefct.c **** 
ARM GAS  /var/folders/mq/wg13gp494590nh4zyt09lxf00000gn/T//ccLgMMOG.s 			page 2


  32:Middlewares/Third_Party/LibJPEG/source/jdcoefct.c ****   /* These variables keep track of the current location of the input side. */
  33:Middlewares/Third_Party/LibJPEG/source/jdcoefct.c ****   /* cinfo->input_iMCU_row is also used for this. */
  34:Middlewares/Third_Party/LibJPEG/source/jdcoefct.c ****   JDIMENSION MCU_ctr;		/* counts MCUs processed in current row */
  35:Middlewares/Third_Party/LibJPEG/source/jdcoefct.c ****   int MCU_vert_offset;		/* counts MCU rows within iMCU row */
  36:Middlewares/Third_Party/LibJPEG/source/jdcoefct.c ****   int MCU_rows_per_iMCU_row;	/* number of such rows needed */
  37:Middlewares/Third_Party/LibJPEG/source/jdcoefct.c **** 
  38:Middlewares/Third_Party/LibJPEG/source/jdcoefct.c ****   /* The output side's location is represented by cinfo->output_iMCU_row. */
  39:Middlewares/Third_Party/LibJPEG/source/jdcoefct.c **** 
  40:Middlewares/Third_Party/LibJPEG/source/jdcoefct.c ****   /* In single-pass modes, it's sufficient to buffer just one MCU.
  41:Middlewares/Third_Party/LibJPEG/source/jdcoefct.c ****    * We allocate a workspace of D_MAX_BLOCKS_IN_MCU coefficient blocks,
  42:Middlewares/Third_Party/LibJPEG/source/jdcoefct.c ****    * and let the entropy decoder write into that workspace each time.
  43:Middlewares/Third_Party/LibJPEG/source/jdcoefct.c ****    * (On 80x86, the workspace is FAR even though it's not really very big;
  44:Middlewares/Third_Party/LibJPEG/source/jdcoefct.c ****    * this is to keep the module interfaces unchanged when a large coefficient
  45:Middlewares/Third_Party/LibJPEG/source/jdcoefct.c ****    * buffer is necessary.)
  46:Middlewares/Third_Party/LibJPEG/source/jdcoefct.c ****    * In multi-pass modes, this array points to the current MCU's blocks
  47:Middlewares/Third_Party/LibJPEG/source/jdcoefct.c ****    * within the virtual arrays; it is used only by the input side.
  48:Middlewares/Third_Party/LibJPEG/source/jdcoefct.c ****    */
  49:Middlewares/Third_Party/LibJPEG/source/jdcoefct.c ****   JBLOCKROW MCU_buffer[D_MAX_BLOCKS_IN_MCU];
  50:Middlewares/Third_Party/LibJPEG/source/jdcoefct.c **** 
  51:Middlewares/Third_Party/LibJPEG/source/jdcoefct.c **** #ifdef D_MULTISCAN_FILES_SUPPORTED
  52:Middlewares/Third_Party/LibJPEG/source/jdcoefct.c ****   /* In multi-pass modes, we need a virtual block array for each component. */
  53:Middlewares/Third_Party/LibJPEG/source/jdcoefct.c ****   jvirt_barray_ptr whole_image[MAX_COMPONENTS];
  54:Middlewares/Third_Party/LibJPEG/source/jdcoefct.c **** #endif
  55:Middlewares/Third_Party/LibJPEG/source/jdcoefct.c **** 
  56:Middlewares/Third_Party/LibJPEG/source/jdcoefct.c **** #ifdef BLOCK_SMOOTHING_SUPPORTED
  57:Middlewares/Third_Party/LibJPEG/source/jdcoefct.c ****   /* When doing block smoothing, we latch coefficient Al values here */
  58:Middlewares/Third_Party/LibJPEG/source/jdcoefct.c ****   int * coef_bits_latch;
  59:Middlewares/Third_Party/LibJPEG/source/jdcoefct.c **** #define SAVED_COEFS  6		/* we save coef_bits[0..5] */
  60:Middlewares/Third_Party/LibJPEG/source/jdcoefct.c **** #endif
  61:Middlewares/Third_Party/LibJPEG/source/jdcoefct.c **** } my_coef_controller;
  62:Middlewares/Third_Party/LibJPEG/source/jdcoefct.c **** 
  63:Middlewares/Third_Party/LibJPEG/source/jdcoefct.c **** typedef my_coef_controller * my_coef_ptr;
  64:Middlewares/Third_Party/LibJPEG/source/jdcoefct.c **** 
  65:Middlewares/Third_Party/LibJPEG/source/jdcoefct.c **** /* Forward declarations */
  66:Middlewares/Third_Party/LibJPEG/source/jdcoefct.c **** METHODDEF(int) decompress_onepass
  67:Middlewares/Third_Party/LibJPEG/source/jdcoefct.c **** 	JPP((j_decompress_ptr cinfo, JSAMPIMAGE output_buf));
  68:Middlewares/Third_Party/LibJPEG/source/jdcoefct.c **** #ifdef D_MULTISCAN_FILES_SUPPORTED
  69:Middlewares/Third_Party/LibJPEG/source/jdcoefct.c **** METHODDEF(int) decompress_data
  70:Middlewares/Third_Party/LibJPEG/source/jdcoefct.c **** 	JPP((j_decompress_ptr cinfo, JSAMPIMAGE output_buf));
  71:Middlewares/Third_Party/LibJPEG/source/jdcoefct.c **** #endif
  72:Middlewares/Third_Party/LibJPEG/source/jdcoefct.c **** #ifdef BLOCK_SMOOTHING_SUPPORTED
  73:Middlewares/Third_Party/LibJPEG/source/jdcoefct.c **** LOCAL(boolean) smoothing_ok JPP((j_decompress_ptr cinfo));
  74:Middlewares/Third_Party/LibJPEG/source/jdcoefct.c **** METHODDEF(int) decompress_smooth_data
  75:Middlewares/Third_Party/LibJPEG/source/jdcoefct.c **** 	JPP((j_decompress_ptr cinfo, JSAMPIMAGE output_buf));
  76:Middlewares/Third_Party/LibJPEG/source/jdcoefct.c **** #endif
  77:Middlewares/Third_Party/LibJPEG/source/jdcoefct.c **** 
  78:Middlewares/Third_Party/LibJPEG/source/jdcoefct.c **** 
  79:Middlewares/Third_Party/LibJPEG/source/jdcoefct.c **** LOCAL(void)
  80:Middlewares/Third_Party/LibJPEG/source/jdcoefct.c **** start_iMCU_row (j_decompress_ptr cinfo)
  81:Middlewares/Third_Party/LibJPEG/source/jdcoefct.c **** /* Reset within-iMCU-row counters for a new row (input side) */
  82:Middlewares/Third_Party/LibJPEG/source/jdcoefct.c **** {
  28              		.loc 1 82 1 view -0
  29              		.cfi_startproc
  30              		@ args = 0, pretend = 0, frame = 0
  31              		@ frame_needed = 0, uses_anonymous_args = 0
  32              		@ link register save eliminated.
  83:Middlewares/Third_Party/LibJPEG/source/jdcoefct.c ****   my_coef_ptr coef = (my_coef_ptr) cinfo->coef;
ARM GAS  /var/folders/mq/wg13gp494590nh4zyt09lxf00000gn/T//ccLgMMOG.s 			page 3


  33              		.loc 1 83 3 view .LVU1
  34              		.loc 1 83 15 is_stmt 0 view .LVU2
  35 0000 D0F8C031 		ldr	r3, [r0, #448]
  36              	.LVL1:
  84:Middlewares/Third_Party/LibJPEG/source/jdcoefct.c **** 
  85:Middlewares/Third_Party/LibJPEG/source/jdcoefct.c ****   /* In an interleaved scan, an MCU row is the same as an iMCU row.
  86:Middlewares/Third_Party/LibJPEG/source/jdcoefct.c ****    * In a noninterleaved scan, an iMCU row has v_samp_factor MCU rows.
  87:Middlewares/Third_Party/LibJPEG/source/jdcoefct.c ****    * But at the bottom of the image, process only what's left.
  88:Middlewares/Third_Party/LibJPEG/source/jdcoefct.c ****    */
  89:Middlewares/Third_Party/LibJPEG/source/jdcoefct.c ****   if (cinfo->comps_in_scan > 1) {
  37              		.loc 1 89 3 is_stmt 1 view .LVU3
  38              		.loc 1 89 12 is_stmt 0 view .LVU4
  39 0004 D0F85021 		ldr	r2, [r0, #336]
  40              		.loc 1 89 6 view .LVU5
  41 0008 012A     		cmp	r2, #1
  42 000a 05DD     		ble	.L2
  90:Middlewares/Third_Party/LibJPEG/source/jdcoefct.c ****     coef->MCU_rows_per_iMCU_row = 1;
  43              		.loc 1 90 5 is_stmt 1 view .LVU6
  44              		.loc 1 90 33 is_stmt 0 view .LVU7
  45 000c 0122     		movs	r2, #1
  46 000e DA61     		str	r2, [r3, #28]
  47              	.L3:
  91:Middlewares/Third_Party/LibJPEG/source/jdcoefct.c ****   } else {
  92:Middlewares/Third_Party/LibJPEG/source/jdcoefct.c ****     if (cinfo->input_iMCU_row < (cinfo->total_iMCU_rows-1))
  93:Middlewares/Third_Party/LibJPEG/source/jdcoefct.c ****       coef->MCU_rows_per_iMCU_row = cinfo->cur_comp_info[0]->v_samp_factor;
  94:Middlewares/Third_Party/LibJPEG/source/jdcoefct.c ****     else
  95:Middlewares/Third_Party/LibJPEG/source/jdcoefct.c ****       coef->MCU_rows_per_iMCU_row = cinfo->cur_comp_info[0]->last_row_height;
  96:Middlewares/Third_Party/LibJPEG/source/jdcoefct.c ****   }
  97:Middlewares/Third_Party/LibJPEG/source/jdcoefct.c **** 
  98:Middlewares/Third_Party/LibJPEG/source/jdcoefct.c ****   coef->MCU_ctr = 0;
  48              		.loc 1 98 3 is_stmt 1 view .LVU8
  49              		.loc 1 98 17 is_stmt 0 view .LVU9
  50 0010 0022     		movs	r2, #0
  51 0012 5A61     		str	r2, [r3, #20]
  99:Middlewares/Third_Party/LibJPEG/source/jdcoefct.c ****   coef->MCU_vert_offset = 0;
  52              		.loc 1 99 3 is_stmt 1 view .LVU10
  53              		.loc 1 99 25 is_stmt 0 view .LVU11
  54 0014 9A61     		str	r2, [r3, #24]
 100:Middlewares/Third_Party/LibJPEG/source/jdcoefct.c **** }
  55              		.loc 1 100 1 view .LVU12
  56 0016 7047     		bx	lr
  57              	.L2:
  92:Middlewares/Third_Party/LibJPEG/source/jdcoefct.c ****       coef->MCU_rows_per_iMCU_row = cinfo->cur_comp_info[0]->v_samp_factor;
  58              		.loc 1 92 5 is_stmt 1 view .LVU13
  92:Middlewares/Third_Party/LibJPEG/source/jdcoefct.c ****       coef->MCU_rows_per_iMCU_row = cinfo->cur_comp_info[0]->v_samp_factor;
  59              		.loc 1 92 14 is_stmt 0 view .LVU14
  60 0018 D0F89410 		ldr	r1, [r0, #148]
  92:Middlewares/Third_Party/LibJPEG/source/jdcoefct.c ****       coef->MCU_rows_per_iMCU_row = cinfo->cur_comp_info[0]->v_samp_factor;
  61              		.loc 1 92 39 view .LVU15
  62 001c D0F84821 		ldr	r2, [r0, #328]
  92:Middlewares/Third_Party/LibJPEG/source/jdcoefct.c ****       coef->MCU_rows_per_iMCU_row = cinfo->cur_comp_info[0]->v_samp_factor;
  63              		.loc 1 92 56 view .LVU16
  64 0020 013A     		subs	r2, r2, #1
  92:Middlewares/Third_Party/LibJPEG/source/jdcoefct.c ****       coef->MCU_rows_per_iMCU_row = cinfo->cur_comp_info[0]->v_samp_factor;
  65              		.loc 1 92 8 view .LVU17
  66 0022 9142     		cmp	r1, r2
  67 0024 04D2     		bcs	.L4
ARM GAS  /var/folders/mq/wg13gp494590nh4zyt09lxf00000gn/T//ccLgMMOG.s 			page 4


  93:Middlewares/Third_Party/LibJPEG/source/jdcoefct.c ****     else
  68              		.loc 1 93 7 is_stmt 1 view .LVU18
  93:Middlewares/Third_Party/LibJPEG/source/jdcoefct.c ****     else
  69              		.loc 1 93 57 is_stmt 0 view .LVU19
  70 0026 D0F85421 		ldr	r2, [r0, #340]
  93:Middlewares/Third_Party/LibJPEG/source/jdcoefct.c ****     else
  71              		.loc 1 93 60 view .LVU20
  72 002a D268     		ldr	r2, [r2, #12]
  93:Middlewares/Third_Party/LibJPEG/source/jdcoefct.c ****     else
  73              		.loc 1 93 35 view .LVU21
  74 002c DA61     		str	r2, [r3, #28]
  75 002e EFE7     		b	.L3
  76              	.L4:
  95:Middlewares/Third_Party/LibJPEG/source/jdcoefct.c ****   }
  77              		.loc 1 95 7 is_stmt 1 view .LVU22
  95:Middlewares/Third_Party/LibJPEG/source/jdcoefct.c ****   }
  78              		.loc 1 95 57 is_stmt 0 view .LVU23
  79 0030 D0F85421 		ldr	r2, [r0, #340]
  95:Middlewares/Third_Party/LibJPEG/source/jdcoefct.c ****   }
  80              		.loc 1 95 60 view .LVU24
  81 0034 D26C     		ldr	r2, [r2, #76]
  95:Middlewares/Third_Party/LibJPEG/source/jdcoefct.c ****   }
  82              		.loc 1 95 35 view .LVU25
  83 0036 DA61     		str	r2, [r3, #28]
  84 0038 EAE7     		b	.L3
  85              		.cfi_endproc
  86              	.LFE147:
  88              		.section	.text.start_input_pass,"ax",%progbits
  89              		.align	1
  90              		.syntax unified
  91              		.thumb
  92              		.thumb_func
  94              	start_input_pass:
  95              	.LVL2:
  96              	.LFB148:
 101:Middlewares/Third_Party/LibJPEG/source/jdcoefct.c **** 
 102:Middlewares/Third_Party/LibJPEG/source/jdcoefct.c **** 
 103:Middlewares/Third_Party/LibJPEG/source/jdcoefct.c **** /*
 104:Middlewares/Third_Party/LibJPEG/source/jdcoefct.c ****  * Initialize for an input processing pass.
 105:Middlewares/Third_Party/LibJPEG/source/jdcoefct.c ****  */
 106:Middlewares/Third_Party/LibJPEG/source/jdcoefct.c **** 
 107:Middlewares/Third_Party/LibJPEG/source/jdcoefct.c **** METHODDEF(void)
 108:Middlewares/Third_Party/LibJPEG/source/jdcoefct.c **** start_input_pass (j_decompress_ptr cinfo)
 109:Middlewares/Third_Party/LibJPEG/source/jdcoefct.c **** {
  97              		.loc 1 109 1 is_stmt 1 view -0
  98              		.cfi_startproc
  99              		@ args = 0, pretend = 0, frame = 0
 100              		@ frame_needed = 0, uses_anonymous_args = 0
 101              		.loc 1 109 1 is_stmt 0 view .LVU27
 102 0000 08B5     		push	{r3, lr}
 103              	.LCFI0:
 104              		.cfi_def_cfa_offset 8
 105              		.cfi_offset 3, -8
 106              		.cfi_offset 14, -4
 110:Middlewares/Third_Party/LibJPEG/source/jdcoefct.c ****   cinfo->input_iMCU_row = 0;
 107              		.loc 1 110 3 is_stmt 1 view .LVU28
 108              		.loc 1 110 25 is_stmt 0 view .LVU29
ARM GAS  /var/folders/mq/wg13gp494590nh4zyt09lxf00000gn/T//ccLgMMOG.s 			page 5


 109 0002 0022     		movs	r2, #0
 110 0004 C0F89420 		str	r2, [r0, #148]
 111:Middlewares/Third_Party/LibJPEG/source/jdcoefct.c ****   start_iMCU_row(cinfo);
 111              		.loc 1 111 3 is_stmt 1 view .LVU30
 112 0008 FFF7FEFF 		bl	start_iMCU_row
 113              	.LVL3:
 112:Middlewares/Third_Party/LibJPEG/source/jdcoefct.c **** }
 114              		.loc 1 112 1 is_stmt 0 view .LVU31
 115 000c 08BD     		pop	{r3, pc}
 116              		.cfi_endproc
 117              	.LFE148:
 119              		.section	.text.dummy_consume_data,"ax",%progbits
 120              		.align	1
 121              		.syntax unified
 122              		.thumb
 123              		.thumb_func
 125              	dummy_consume_data:
 126              	.LVL4:
 127              	.LFB151:
 113:Middlewares/Third_Party/LibJPEG/source/jdcoefct.c **** 
 114:Middlewares/Third_Party/LibJPEG/source/jdcoefct.c **** 
 115:Middlewares/Third_Party/LibJPEG/source/jdcoefct.c **** /*
 116:Middlewares/Third_Party/LibJPEG/source/jdcoefct.c ****  * Initialize for an output processing pass.
 117:Middlewares/Third_Party/LibJPEG/source/jdcoefct.c ****  */
 118:Middlewares/Third_Party/LibJPEG/source/jdcoefct.c **** 
 119:Middlewares/Third_Party/LibJPEG/source/jdcoefct.c **** METHODDEF(void)
 120:Middlewares/Third_Party/LibJPEG/source/jdcoefct.c **** start_output_pass (j_decompress_ptr cinfo)
 121:Middlewares/Third_Party/LibJPEG/source/jdcoefct.c **** {
 122:Middlewares/Third_Party/LibJPEG/source/jdcoefct.c **** #ifdef BLOCK_SMOOTHING_SUPPORTED
 123:Middlewares/Third_Party/LibJPEG/source/jdcoefct.c ****   my_coef_ptr coef = (my_coef_ptr) cinfo->coef;
 124:Middlewares/Third_Party/LibJPEG/source/jdcoefct.c **** 
 125:Middlewares/Third_Party/LibJPEG/source/jdcoefct.c ****   /* If multipass, check to see whether to use block smoothing on this pass */
 126:Middlewares/Third_Party/LibJPEG/source/jdcoefct.c ****   if (coef->pub.coef_arrays != NULL) {
 127:Middlewares/Third_Party/LibJPEG/source/jdcoefct.c ****     if (cinfo->do_block_smoothing && smoothing_ok(cinfo))
 128:Middlewares/Third_Party/LibJPEG/source/jdcoefct.c ****       coef->pub.decompress_data = decompress_smooth_data;
 129:Middlewares/Third_Party/LibJPEG/source/jdcoefct.c ****     else
 130:Middlewares/Third_Party/LibJPEG/source/jdcoefct.c ****       coef->pub.decompress_data = decompress_data;
 131:Middlewares/Third_Party/LibJPEG/source/jdcoefct.c ****   }
 132:Middlewares/Third_Party/LibJPEG/source/jdcoefct.c **** #endif
 133:Middlewares/Third_Party/LibJPEG/source/jdcoefct.c ****   cinfo->output_iMCU_row = 0;
 134:Middlewares/Third_Party/LibJPEG/source/jdcoefct.c **** }
 135:Middlewares/Third_Party/LibJPEG/source/jdcoefct.c **** 
 136:Middlewares/Third_Party/LibJPEG/source/jdcoefct.c **** 
 137:Middlewares/Third_Party/LibJPEG/source/jdcoefct.c **** /*
 138:Middlewares/Third_Party/LibJPEG/source/jdcoefct.c ****  * Decompress and return some data in the single-pass case.
 139:Middlewares/Third_Party/LibJPEG/source/jdcoefct.c ****  * Always attempts to emit one fully interleaved MCU row ("iMCU" row).
 140:Middlewares/Third_Party/LibJPEG/source/jdcoefct.c ****  * Input and output must run in lockstep since we have only a one-MCU buffer.
 141:Middlewares/Third_Party/LibJPEG/source/jdcoefct.c ****  * Return value is JPEG_ROW_COMPLETED, JPEG_SCAN_COMPLETED, or JPEG_SUSPENDED.
 142:Middlewares/Third_Party/LibJPEG/source/jdcoefct.c ****  *
 143:Middlewares/Third_Party/LibJPEG/source/jdcoefct.c ****  * NB: output_buf contains a plane for each component in image,
 144:Middlewares/Third_Party/LibJPEG/source/jdcoefct.c ****  * which we index according to the component's SOF position.
 145:Middlewares/Third_Party/LibJPEG/source/jdcoefct.c ****  */
 146:Middlewares/Third_Party/LibJPEG/source/jdcoefct.c **** 
 147:Middlewares/Third_Party/LibJPEG/source/jdcoefct.c **** METHODDEF(int)
 148:Middlewares/Third_Party/LibJPEG/source/jdcoefct.c **** decompress_onepass (j_decompress_ptr cinfo, JSAMPIMAGE output_buf)
 149:Middlewares/Third_Party/LibJPEG/source/jdcoefct.c **** {
 150:Middlewares/Third_Party/LibJPEG/source/jdcoefct.c ****   my_coef_ptr coef = (my_coef_ptr) cinfo->coef;
ARM GAS  /var/folders/mq/wg13gp494590nh4zyt09lxf00000gn/T//ccLgMMOG.s 			page 6


 151:Middlewares/Third_Party/LibJPEG/source/jdcoefct.c ****   JDIMENSION MCU_col_num;	/* index of current MCU within row */
 152:Middlewares/Third_Party/LibJPEG/source/jdcoefct.c ****   JDIMENSION last_MCU_col = cinfo->MCUs_per_row - 1;
 153:Middlewares/Third_Party/LibJPEG/source/jdcoefct.c ****   JDIMENSION last_iMCU_row = cinfo->total_iMCU_rows - 1;
 154:Middlewares/Third_Party/LibJPEG/source/jdcoefct.c ****   int blkn, ci, xindex, yindex, yoffset, useful_width;
 155:Middlewares/Third_Party/LibJPEG/source/jdcoefct.c ****   JSAMPARRAY output_ptr;
 156:Middlewares/Third_Party/LibJPEG/source/jdcoefct.c ****   JDIMENSION start_col, output_col;
 157:Middlewares/Third_Party/LibJPEG/source/jdcoefct.c ****   jpeg_component_info *compptr;
 158:Middlewares/Third_Party/LibJPEG/source/jdcoefct.c ****   inverse_DCT_method_ptr inverse_DCT;
 159:Middlewares/Third_Party/LibJPEG/source/jdcoefct.c **** 
 160:Middlewares/Third_Party/LibJPEG/source/jdcoefct.c ****   /* Loop to process as much as one whole iMCU row */
 161:Middlewares/Third_Party/LibJPEG/source/jdcoefct.c ****   for (yoffset = coef->MCU_vert_offset; yoffset < coef->MCU_rows_per_iMCU_row;
 162:Middlewares/Third_Party/LibJPEG/source/jdcoefct.c ****        yoffset++) {
 163:Middlewares/Third_Party/LibJPEG/source/jdcoefct.c ****     for (MCU_col_num = coef->MCU_ctr; MCU_col_num <= last_MCU_col;
 164:Middlewares/Third_Party/LibJPEG/source/jdcoefct.c **** 	 MCU_col_num++) {
 165:Middlewares/Third_Party/LibJPEG/source/jdcoefct.c ****       /* Try to fetch an MCU.  Entropy decoder expects buffer to be zeroed. */
 166:Middlewares/Third_Party/LibJPEG/source/jdcoefct.c ****       if (cinfo->lim_Se)	/* can bypass in DC only case */
 167:Middlewares/Third_Party/LibJPEG/source/jdcoefct.c **** 	FMEMZERO((void FAR *) coef->MCU_buffer[0],
 168:Middlewares/Third_Party/LibJPEG/source/jdcoefct.c **** 		 (size_t) (cinfo->blocks_in_MCU * SIZEOF(JBLOCK)));
 169:Middlewares/Third_Party/LibJPEG/source/jdcoefct.c ****       if (! (*cinfo->entropy->decode_mcu) (cinfo, coef->MCU_buffer)) {
 170:Middlewares/Third_Party/LibJPEG/source/jdcoefct.c **** 	/* Suspension forced; update state counters and exit */
 171:Middlewares/Third_Party/LibJPEG/source/jdcoefct.c **** 	coef->MCU_vert_offset = yoffset;
 172:Middlewares/Third_Party/LibJPEG/source/jdcoefct.c **** 	coef->MCU_ctr = MCU_col_num;
 173:Middlewares/Third_Party/LibJPEG/source/jdcoefct.c **** 	return JPEG_SUSPENDED;
 174:Middlewares/Third_Party/LibJPEG/source/jdcoefct.c ****       }
 175:Middlewares/Third_Party/LibJPEG/source/jdcoefct.c ****       /* Determine where data should go in output_buf and do the IDCT thing.
 176:Middlewares/Third_Party/LibJPEG/source/jdcoefct.c ****        * We skip dummy blocks at the right and bottom edges (but blkn gets
 177:Middlewares/Third_Party/LibJPEG/source/jdcoefct.c ****        * incremented past them!).  Note the inner loop relies on having
 178:Middlewares/Third_Party/LibJPEG/source/jdcoefct.c ****        * allocated the MCU_buffer[] blocks sequentially.
 179:Middlewares/Third_Party/LibJPEG/source/jdcoefct.c ****        */
 180:Middlewares/Third_Party/LibJPEG/source/jdcoefct.c ****       blkn = 0;			/* index of current DCT block within MCU */
 181:Middlewares/Third_Party/LibJPEG/source/jdcoefct.c ****       for (ci = 0; ci < cinfo->comps_in_scan; ci++) {
 182:Middlewares/Third_Party/LibJPEG/source/jdcoefct.c **** 	compptr = cinfo->cur_comp_info[ci];
 183:Middlewares/Third_Party/LibJPEG/source/jdcoefct.c **** 	/* Don't bother to IDCT an uninteresting component. */
 184:Middlewares/Third_Party/LibJPEG/source/jdcoefct.c **** 	if (! compptr->component_needed) {
 185:Middlewares/Third_Party/LibJPEG/source/jdcoefct.c **** 	  blkn += compptr->MCU_blocks;
 186:Middlewares/Third_Party/LibJPEG/source/jdcoefct.c **** 	  continue;
 187:Middlewares/Third_Party/LibJPEG/source/jdcoefct.c **** 	}
 188:Middlewares/Third_Party/LibJPEG/source/jdcoefct.c **** 	inverse_DCT = cinfo->idct->inverse_DCT[compptr->component_index];
 189:Middlewares/Third_Party/LibJPEG/source/jdcoefct.c **** 	useful_width = (MCU_col_num < last_MCU_col) ? compptr->MCU_width
 190:Middlewares/Third_Party/LibJPEG/source/jdcoefct.c **** 						    : compptr->last_col_width;
 191:Middlewares/Third_Party/LibJPEG/source/jdcoefct.c **** 	output_ptr = output_buf[compptr->component_index] +
 192:Middlewares/Third_Party/LibJPEG/source/jdcoefct.c **** 	  yoffset * compptr->DCT_v_scaled_size;
 193:Middlewares/Third_Party/LibJPEG/source/jdcoefct.c **** 	start_col = MCU_col_num * compptr->MCU_sample_width;
 194:Middlewares/Third_Party/LibJPEG/source/jdcoefct.c **** 	for (yindex = 0; yindex < compptr->MCU_height; yindex++) {
 195:Middlewares/Third_Party/LibJPEG/source/jdcoefct.c **** 	  if (cinfo->input_iMCU_row < last_iMCU_row ||
 196:Middlewares/Third_Party/LibJPEG/source/jdcoefct.c **** 	      yoffset+yindex < compptr->last_row_height) {
 197:Middlewares/Third_Party/LibJPEG/source/jdcoefct.c **** 	    output_col = start_col;
 198:Middlewares/Third_Party/LibJPEG/source/jdcoefct.c **** 	    for (xindex = 0; xindex < useful_width; xindex++) {
 199:Middlewares/Third_Party/LibJPEG/source/jdcoefct.c **** 	      (*inverse_DCT) (cinfo, compptr,
 200:Middlewares/Third_Party/LibJPEG/source/jdcoefct.c **** 			      (JCOEFPTR) coef->MCU_buffer[blkn+xindex],
 201:Middlewares/Third_Party/LibJPEG/source/jdcoefct.c **** 			      output_ptr, output_col);
 202:Middlewares/Third_Party/LibJPEG/source/jdcoefct.c **** 	      output_col += compptr->DCT_h_scaled_size;
 203:Middlewares/Third_Party/LibJPEG/source/jdcoefct.c **** 	    }
 204:Middlewares/Third_Party/LibJPEG/source/jdcoefct.c **** 	  }
 205:Middlewares/Third_Party/LibJPEG/source/jdcoefct.c **** 	  blkn += compptr->MCU_width;
 206:Middlewares/Third_Party/LibJPEG/source/jdcoefct.c **** 	  output_ptr += compptr->DCT_v_scaled_size;
 207:Middlewares/Third_Party/LibJPEG/source/jdcoefct.c **** 	}
ARM GAS  /var/folders/mq/wg13gp494590nh4zyt09lxf00000gn/T//ccLgMMOG.s 			page 7


 208:Middlewares/Third_Party/LibJPEG/source/jdcoefct.c ****       }
 209:Middlewares/Third_Party/LibJPEG/source/jdcoefct.c ****     }
 210:Middlewares/Third_Party/LibJPEG/source/jdcoefct.c ****     /* Completed an MCU row, but perhaps not an iMCU row */
 211:Middlewares/Third_Party/LibJPEG/source/jdcoefct.c ****     coef->MCU_ctr = 0;
 212:Middlewares/Third_Party/LibJPEG/source/jdcoefct.c ****   }
 213:Middlewares/Third_Party/LibJPEG/source/jdcoefct.c ****   /* Completed the iMCU row, advance counters for next one */
 214:Middlewares/Third_Party/LibJPEG/source/jdcoefct.c ****   cinfo->output_iMCU_row++;
 215:Middlewares/Third_Party/LibJPEG/source/jdcoefct.c ****   if (++(cinfo->input_iMCU_row) < cinfo->total_iMCU_rows) {
 216:Middlewares/Third_Party/LibJPEG/source/jdcoefct.c ****     start_iMCU_row(cinfo);
 217:Middlewares/Third_Party/LibJPEG/source/jdcoefct.c ****     return JPEG_ROW_COMPLETED;
 218:Middlewares/Third_Party/LibJPEG/source/jdcoefct.c ****   }
 219:Middlewares/Third_Party/LibJPEG/source/jdcoefct.c ****   /* Completed the scan */
 220:Middlewares/Third_Party/LibJPEG/source/jdcoefct.c ****   (*cinfo->inputctl->finish_input_pass) (cinfo);
 221:Middlewares/Third_Party/LibJPEG/source/jdcoefct.c ****   return JPEG_SCAN_COMPLETED;
 222:Middlewares/Third_Party/LibJPEG/source/jdcoefct.c **** }
 223:Middlewares/Third_Party/LibJPEG/source/jdcoefct.c **** 
 224:Middlewares/Third_Party/LibJPEG/source/jdcoefct.c **** 
 225:Middlewares/Third_Party/LibJPEG/source/jdcoefct.c **** /*
 226:Middlewares/Third_Party/LibJPEG/source/jdcoefct.c ****  * Dummy consume-input routine for single-pass operation.
 227:Middlewares/Third_Party/LibJPEG/source/jdcoefct.c ****  */
 228:Middlewares/Third_Party/LibJPEG/source/jdcoefct.c **** 
 229:Middlewares/Third_Party/LibJPEG/source/jdcoefct.c **** METHODDEF(int)
 230:Middlewares/Third_Party/LibJPEG/source/jdcoefct.c **** dummy_consume_data (j_decompress_ptr cinfo)
 231:Middlewares/Third_Party/LibJPEG/source/jdcoefct.c **** {
 128              		.loc 1 231 1 is_stmt 1 view -0
 129              		.cfi_startproc
 130              		@ args = 0, pretend = 0, frame = 0
 131              		@ frame_needed = 0, uses_anonymous_args = 0
 132              		@ link register save eliminated.
 232:Middlewares/Third_Party/LibJPEG/source/jdcoefct.c ****   return JPEG_SUSPENDED;	/* Always indicate nothing was done */
 133              		.loc 1 232 3 view .LVU33
 233:Middlewares/Third_Party/LibJPEG/source/jdcoefct.c **** }
 134              		.loc 1 233 1 is_stmt 0 view .LVU34
 135 0000 0020     		movs	r0, #0
 136              	.LVL5:
 137              		.loc 1 233 1 view .LVU35
 138 0002 7047     		bx	lr
 139              		.cfi_endproc
 140              	.LFE151:
 142              		.section	.text.consume_data,"ax",%progbits
 143              		.align	1
 144              		.syntax unified
 145              		.thumb
 146              		.thumb_func
 148              	consume_data:
 149              	.LVL6:
 150              	.LFB152:
 234:Middlewares/Third_Party/LibJPEG/source/jdcoefct.c **** 
 235:Middlewares/Third_Party/LibJPEG/source/jdcoefct.c **** 
 236:Middlewares/Third_Party/LibJPEG/source/jdcoefct.c **** #ifdef D_MULTISCAN_FILES_SUPPORTED
 237:Middlewares/Third_Party/LibJPEG/source/jdcoefct.c **** 
 238:Middlewares/Third_Party/LibJPEG/source/jdcoefct.c **** /*
 239:Middlewares/Third_Party/LibJPEG/source/jdcoefct.c ****  * Consume input data and store it in the full-image coefficient buffer.
 240:Middlewares/Third_Party/LibJPEG/source/jdcoefct.c ****  * We read as much as one fully interleaved MCU row ("iMCU" row) per call,
 241:Middlewares/Third_Party/LibJPEG/source/jdcoefct.c ****  * ie, v_samp_factor block rows for each component in the scan.
 242:Middlewares/Third_Party/LibJPEG/source/jdcoefct.c ****  * Return value is JPEG_ROW_COMPLETED, JPEG_SCAN_COMPLETED, or JPEG_SUSPENDED.
 243:Middlewares/Third_Party/LibJPEG/source/jdcoefct.c ****  */
ARM GAS  /var/folders/mq/wg13gp494590nh4zyt09lxf00000gn/T//ccLgMMOG.s 			page 8


 244:Middlewares/Third_Party/LibJPEG/source/jdcoefct.c **** 
 245:Middlewares/Third_Party/LibJPEG/source/jdcoefct.c **** METHODDEF(int)
 246:Middlewares/Third_Party/LibJPEG/source/jdcoefct.c **** consume_data (j_decompress_ptr cinfo)
 247:Middlewares/Third_Party/LibJPEG/source/jdcoefct.c **** {
 151              		.loc 1 247 1 is_stmt 1 view -0
 152              		.cfi_startproc
 153              		@ args = 0, pretend = 0, frame = 16
 154              		@ frame_needed = 0, uses_anonymous_args = 0
 155              		.loc 1 247 1 is_stmt 0 view .LVU37
 156 0000 2DE9F043 		push	{r4, r5, r6, r7, r8, r9, lr}
 157              	.LCFI1:
 158              		.cfi_def_cfa_offset 28
 159              		.cfi_offset 4, -28
 160              		.cfi_offset 5, -24
 161              		.cfi_offset 6, -20
 162              		.cfi_offset 7, -16
 163              		.cfi_offset 8, -12
 164              		.cfi_offset 9, -8
 165              		.cfi_offset 14, -4
 166 0004 87B0     		sub	sp, sp, #28
 167              	.LCFI2:
 168              		.cfi_def_cfa_offset 56
 169 0006 0646     		mov	r6, r0
 248:Middlewares/Third_Party/LibJPEG/source/jdcoefct.c ****   my_coef_ptr coef = (my_coef_ptr) cinfo->coef;
 170              		.loc 1 248 3 is_stmt 1 view .LVU38
 171              		.loc 1 248 15 is_stmt 0 view .LVU39
 172 0008 D0F8C041 		ldr	r4, [r0, #448]
 173              	.LVL7:
 249:Middlewares/Third_Party/LibJPEG/source/jdcoefct.c ****   JDIMENSION MCU_col_num;	/* index of current MCU within row */
 174              		.loc 1 249 3 is_stmt 1 view .LVU40
 250:Middlewares/Third_Party/LibJPEG/source/jdcoefct.c ****   int blkn, ci, xindex, yindex, yoffset;
 175              		.loc 1 250 3 view .LVU41
 251:Middlewares/Third_Party/LibJPEG/source/jdcoefct.c ****   JDIMENSION start_col;
 176              		.loc 1 251 3 view .LVU42
 252:Middlewares/Third_Party/LibJPEG/source/jdcoefct.c ****   JBLOCKARRAY buffer[MAX_COMPS_IN_SCAN];
 177              		.loc 1 252 3 view .LVU43
 253:Middlewares/Third_Party/LibJPEG/source/jdcoefct.c ****   JBLOCKROW buffer_ptr;
 178              		.loc 1 253 3 view .LVU44
 254:Middlewares/Third_Party/LibJPEG/source/jdcoefct.c ****   jpeg_component_info *compptr;
 179              		.loc 1 254 3 view .LVU45
 255:Middlewares/Third_Party/LibJPEG/source/jdcoefct.c **** 
 256:Middlewares/Third_Party/LibJPEG/source/jdcoefct.c ****   /* Align the virtual buffers for the components used in this scan. */
 257:Middlewares/Third_Party/LibJPEG/source/jdcoefct.c ****   for (ci = 0; ci < cinfo->comps_in_scan; ci++) {
 180              		.loc 1 257 3 view .LVU46
 181              		.loc 1 257 11 is_stmt 0 view .LVU47
 182 000c 0025     		movs	r5, #0
 183              		.loc 1 257 3 view .LVU48
 184 000e 19E0     		b	.L9
 185              	.LVL8:
 186              	.L10:
 258:Middlewares/Third_Party/LibJPEG/source/jdcoefct.c ****     compptr = cinfo->cur_comp_info[ci];
 187              		.loc 1 258 5 is_stmt 1 view .LVU49
 188              		.loc 1 258 13 is_stmt 0 view .LVU50
 189 0010 05F15403 		add	r3, r5, #84
 190 0014 06EB8303 		add	r3, r6, r3, lsl #2
 191 0018 5B68     		ldr	r3, [r3, #4]
 192              	.LVL9:
ARM GAS  /var/folders/mq/wg13gp494590nh4zyt09lxf00000gn/T//ccLgMMOG.s 			page 9


 259:Middlewares/Third_Party/LibJPEG/source/jdcoefct.c ****     buffer[ci] = (*cinfo->mem->access_virt_barray)
 193              		.loc 1 259 5 is_stmt 1 view .LVU51
 194              		.loc 1 259 25 is_stmt 0 view .LVU52
 195 001a 7068     		ldr	r0, [r6, #4]
 260:Middlewares/Third_Party/LibJPEG/source/jdcoefct.c ****       ((j_common_ptr) cinfo, coef->whole_image[compptr->component_index],
 196              		.loc 1 260 55 view .LVU53
 197 001c 5968     		ldr	r1, [r3, #4]
 261:Middlewares/Third_Party/LibJPEG/source/jdcoefct.c ****        cinfo->input_iMCU_row * compptr->v_samp_factor,
 198              		.loc 1 261 13 view .LVU54
 199 001e D6F89420 		ldr	r2, [r6, #148]
 200              		.loc 1 261 39 view .LVU55
 201 0022 DB68     		ldr	r3, [r3, #12]
 202              	.LVL10:
 259:Middlewares/Third_Party/LibJPEG/source/jdcoefct.c ****     buffer[ci] = (*cinfo->mem->access_virt_barray)
 203              		.loc 1 259 19 view .LVU56
 204 0024 1231     		adds	r1, r1, #18
 205 0026 54F82110 		ldr	r1, [r4, r1, lsl #2]
 206 002a 0127     		movs	r7, #1
 207 002c 0097     		str	r7, [sp]
 208              	.LVL11:
 259:Middlewares/Third_Party/LibJPEG/source/jdcoefct.c ****     buffer[ci] = (*cinfo->mem->access_virt_barray)
 209              		.loc 1 259 19 view .LVU57
 210 002e 076A     		ldr	r7, [r0, #32]
 211 0030 03FB02F2 		mul	r2, r3, r2
 212 0034 3046     		mov	r0, r6
 213 0036 B847     		blx	r7
 214              	.LVL12:
 259:Middlewares/Third_Party/LibJPEG/source/jdcoefct.c ****     buffer[ci] = (*cinfo->mem->access_virt_barray)
 215              		.loc 1 259 16 discriminator 1 view .LVU58
 216 0038 06AB     		add	r3, sp, #24
 217 003a 03EB8503 		add	r3, r3, r5, lsl #2
 218 003e 43F8100C 		str	r0, [r3, #-16]
 257:Middlewares/Third_Party/LibJPEG/source/jdcoefct.c ****     compptr = cinfo->cur_comp_info[ci];
 219              		.loc 1 257 45 is_stmt 1 discriminator 3 view .LVU59
 220 0042 0135     		adds	r5, r5, #1
 221              	.LVL13:
 222              	.L9:
 257:Middlewares/Third_Party/LibJPEG/source/jdcoefct.c ****     compptr = cinfo->cur_comp_info[ci];
 223              		.loc 1 257 19 discriminator 1 view .LVU60
 257:Middlewares/Third_Party/LibJPEG/source/jdcoefct.c ****     compptr = cinfo->cur_comp_info[ci];
 224              		.loc 1 257 26 is_stmt 0 discriminator 1 view .LVU61
 225 0044 D6F85031 		ldr	r3, [r6, #336]
 257:Middlewares/Third_Party/LibJPEG/source/jdcoefct.c ****     compptr = cinfo->cur_comp_info[ci];
 226              		.loc 1 257 19 discriminator 1 view .LVU62
 227 0048 AB42     		cmp	r3, r5
 228 004a E1DC     		bgt	.L10
 262:Middlewares/Third_Party/LibJPEG/source/jdcoefct.c ****        (JDIMENSION) compptr->v_samp_factor, TRUE);
 263:Middlewares/Third_Party/LibJPEG/source/jdcoefct.c ****     /* Note: entropy decoder expects buffer to be zeroed,
 264:Middlewares/Third_Party/LibJPEG/source/jdcoefct.c ****      * but this is handled automatically by the memory manager
 265:Middlewares/Third_Party/LibJPEG/source/jdcoefct.c ****      * because we requested a pre-zeroed array.
 266:Middlewares/Third_Party/LibJPEG/source/jdcoefct.c ****      */
 267:Middlewares/Third_Party/LibJPEG/source/jdcoefct.c ****   }
 268:Middlewares/Third_Party/LibJPEG/source/jdcoefct.c **** 
 269:Middlewares/Third_Party/LibJPEG/source/jdcoefct.c ****   /* Loop to process one whole iMCU row */
 270:Middlewares/Third_Party/LibJPEG/source/jdcoefct.c ****   for (yoffset = coef->MCU_vert_offset; yoffset < coef->MCU_rows_per_iMCU_row;
 229              		.loc 1 270 3 is_stmt 1 view .LVU63
 230              		.loc 1 270 16 is_stmt 0 view .LVU64
ARM GAS  /var/folders/mq/wg13gp494590nh4zyt09lxf00000gn/T//ccLgMMOG.s 			page 10


 231 004c A569     		ldr	r5, [r4, #24]
 232              	.LVL14:
 233              	.L11:
 234              		.loc 1 270 49 is_stmt 1 discriminator 1 view .LVU65
 235              		.loc 1 270 55 is_stmt 0 discriminator 1 view .LVU66
 236 004e E369     		ldr	r3, [r4, #28]
 237              		.loc 1 270 49 discriminator 1 view .LVU67
 238 0050 AB42     		cmp	r3, r5
 239 0052 4EDD     		ble	.L25
 271:Middlewares/Third_Party/LibJPEG/source/jdcoefct.c ****        yoffset++) {
 272:Middlewares/Third_Party/LibJPEG/source/jdcoefct.c ****     for (MCU_col_num = coef->MCU_ctr; MCU_col_num < cinfo->MCUs_per_row;
 240              		.loc 1 272 5 is_stmt 1 view .LVU68
 241              		.loc 1 272 22 is_stmt 0 view .LVU69
 242 0054 6769     		ldr	r7, [r4, #20]
 243              	.LVL15:
 244              		.loc 1 272 5 view .LVU70
 245 0056 3AE0     		b	.L12
 246              	.LVL16:
 247              	.L15:
 273:Middlewares/Third_Party/LibJPEG/source/jdcoefct.c **** 	 MCU_col_num++) {
 274:Middlewares/Third_Party/LibJPEG/source/jdcoefct.c ****       /* Construct list of pointers to DCT blocks belonging to this MCU */
 275:Middlewares/Third_Party/LibJPEG/source/jdcoefct.c ****       blkn = 0;			/* index of current DCT block within MCU */
 276:Middlewares/Third_Party/LibJPEG/source/jdcoefct.c ****       for (ci = 0; ci < cinfo->comps_in_scan; ci++) {
 277:Middlewares/Third_Party/LibJPEG/source/jdcoefct.c **** 	compptr = cinfo->cur_comp_info[ci];
 278:Middlewares/Third_Party/LibJPEG/source/jdcoefct.c **** 	start_col = MCU_col_num * compptr->MCU_width;
 279:Middlewares/Third_Party/LibJPEG/source/jdcoefct.c **** 	for (yindex = 0; yindex < compptr->MCU_height; yindex++) {
 280:Middlewares/Third_Party/LibJPEG/source/jdcoefct.c **** 	  buffer_ptr = buffer[ci][yindex+yoffset] + start_col;
 281:Middlewares/Third_Party/LibJPEG/source/jdcoefct.c **** 	  for (xindex = 0; xindex < compptr->MCU_width; xindex++) {
 282:Middlewares/Third_Party/LibJPEG/source/jdcoefct.c **** 	    coef->MCU_buffer[blkn++] = buffer_ptr++;
 248              		.loc 1 282 6 is_stmt 1 view .LVU71
 249              		.loc 1 282 31 is_stmt 0 view .LVU72
 250 0058 01F10800 		add	r0, r1, #8
 251 005c 44F82030 		str	r3, [r4, r0, lsl #2]
 281:Middlewares/Third_Party/LibJPEG/source/jdcoefct.c **** 	    coef->MCU_buffer[blkn++] = buffer_ptr++;
 252              		.loc 1 281 56 is_stmt 1 discriminator 3 view .LVU73
 253 0060 0132     		adds	r2, r2, #1
 254              	.LVL17:
 255              		.loc 1 282 43 is_stmt 0 view .LVU74
 256 0062 8033     		adds	r3, r3, #128
 257              	.LVL18:
 258              		.loc 1 282 27 view .LVU75
 259 0064 0131     		adds	r1, r1, #1
 260              	.LVL19:
 261              	.L14:
 281:Middlewares/Third_Party/LibJPEG/source/jdcoefct.c **** 	    coef->MCU_buffer[blkn++] = buffer_ptr++;
 262              		.loc 1 281 28 is_stmt 1 discriminator 1 view .LVU76
 281:Middlewares/Third_Party/LibJPEG/source/jdcoefct.c **** 	    coef->MCU_buffer[blkn++] = buffer_ptr++;
 263              		.loc 1 281 37 is_stmt 0 discriminator 1 view .LVU77
 264 0066 DCF83800 		ldr	r0, [ip, #56]
 281:Middlewares/Third_Party/LibJPEG/source/jdcoefct.c **** 	    coef->MCU_buffer[blkn++] = buffer_ptr++;
 265              		.loc 1 281 28 discriminator 1 view .LVU78
 266 006a 9042     		cmp	r0, r2
 267 006c F4DC     		bgt	.L15
 279:Middlewares/Third_Party/LibJPEG/source/jdcoefct.c **** 	  buffer_ptr = buffer[ci][yindex+yoffset] + start_col;
 268              		.loc 1 279 55 is_stmt 1 discriminator 2 view .LVU79
 269 006e 0EF1010E 		add	lr, lr, #1
 270              	.LVL20:
ARM GAS  /var/folders/mq/wg13gp494590nh4zyt09lxf00000gn/T//ccLgMMOG.s 			page 11


 271              	.L13:
 279:Middlewares/Third_Party/LibJPEG/source/jdcoefct.c **** 	  buffer_ptr = buffer[ci][yindex+yoffset] + start_col;
 272              		.loc 1 279 26 discriminator 1 view .LVU80
 279:Middlewares/Third_Party/LibJPEG/source/jdcoefct.c **** 	  buffer_ptr = buffer[ci][yindex+yoffset] + start_col;
 273              		.loc 1 279 35 is_stmt 0 discriminator 1 view .LVU81
 274 0072 DCF83C30 		ldr	r3, [ip, #60]
 279:Middlewares/Third_Party/LibJPEG/source/jdcoefct.c **** 	  buffer_ptr = buffer[ci][yindex+yoffset] + start_col;
 275              		.loc 1 279 26 discriminator 1 view .LVU82
 276 0076 7345     		cmp	r3, lr
 277 0078 0CDD     		ble	.L26
 280:Middlewares/Third_Party/LibJPEG/source/jdcoefct.c **** 	  for (xindex = 0; xindex < compptr->MCU_width; xindex++) {
 278              		.loc 1 280 4 is_stmt 1 view .LVU83
 280:Middlewares/Third_Party/LibJPEG/source/jdcoefct.c **** 	  for (xindex = 0; xindex < compptr->MCU_width; xindex++) {
 279              		.loc 1 280 23 is_stmt 0 view .LVU84
 280 007a 06AB     		add	r3, sp, #24
 281 007c 03EB8803 		add	r3, r3, r8, lsl #2
 282 0080 53F8103C 		ldr	r3, [r3, #-16]
 280:Middlewares/Third_Party/LibJPEG/source/jdcoefct.c **** 	  for (xindex = 0; xindex < compptr->MCU_width; xindex++) {
 283              		.loc 1 280 34 view .LVU85
 284 0084 0EEB0502 		add	r2, lr, r5
 280:Middlewares/Third_Party/LibJPEG/source/jdcoefct.c **** 	  for (xindex = 0; xindex < compptr->MCU_width; xindex++) {
 285              		.loc 1 280 27 view .LVU86
 286 0088 53F82230 		ldr	r3, [r3, r2, lsl #2]
 280:Middlewares/Third_Party/LibJPEG/source/jdcoefct.c **** 	  for (xindex = 0; xindex < compptr->MCU_width; xindex++) {
 287              		.loc 1 280 15 view .LVU87
 288 008c 03EBC913 		add	r3, r3, r9, lsl #7
 289              	.LVL21:
 281:Middlewares/Third_Party/LibJPEG/source/jdcoefct.c **** 	    coef->MCU_buffer[blkn++] = buffer_ptr++;
 290              		.loc 1 281 4 is_stmt 1 view .LVU88
 281:Middlewares/Third_Party/LibJPEG/source/jdcoefct.c **** 	    coef->MCU_buffer[blkn++] = buffer_ptr++;
 291              		.loc 1 281 16 is_stmt 0 view .LVU89
 292 0090 0022     		movs	r2, #0
 281:Middlewares/Third_Party/LibJPEG/source/jdcoefct.c **** 	    coef->MCU_buffer[blkn++] = buffer_ptr++;
 293              		.loc 1 281 4 view .LVU90
 294 0092 E8E7     		b	.L14
 295              	.LVL22:
 296              	.L26:
 276:Middlewares/Third_Party/LibJPEG/source/jdcoefct.c **** 	compptr = cinfo->cur_comp_info[ci];
 297              		.loc 1 276 49 is_stmt 1 discriminator 2 view .LVU91
 298 0094 08F10108 		add	r8, r8, #1
 299              	.LVL23:
 300              	.L20:
 276:Middlewares/Third_Party/LibJPEG/source/jdcoefct.c **** 	compptr = cinfo->cur_comp_info[ci];
 301              		.loc 1 276 23 discriminator 1 view .LVU92
 276:Middlewares/Third_Party/LibJPEG/source/jdcoefct.c **** 	compptr = cinfo->cur_comp_info[ci];
 302              		.loc 1 276 30 is_stmt 0 discriminator 1 view .LVU93
 303 0098 D6F85031 		ldr	r3, [r6, #336]
 276:Middlewares/Third_Party/LibJPEG/source/jdcoefct.c **** 	compptr = cinfo->cur_comp_info[ci];
 304              		.loc 1 276 23 discriminator 1 view .LVU94
 305 009c 4345     		cmp	r3, r8
 306 009e 0CDD     		ble	.L27
 277:Middlewares/Third_Party/LibJPEG/source/jdcoefct.c **** 	start_col = MCU_col_num * compptr->MCU_width;
 307              		.loc 1 277 2 is_stmt 1 view .LVU95
 277:Middlewares/Third_Party/LibJPEG/source/jdcoefct.c **** 	start_col = MCU_col_num * compptr->MCU_width;
 308              		.loc 1 277 10 is_stmt 0 view .LVU96
 309 00a0 08F15403 		add	r3, r8, #84
 310 00a4 06EB8303 		add	r3, r6, r3, lsl #2
ARM GAS  /var/folders/mq/wg13gp494590nh4zyt09lxf00000gn/T//ccLgMMOG.s 			page 12


 311 00a8 D3F804C0 		ldr	ip, [r3, #4]
 312              	.LVL24:
 278:Middlewares/Third_Party/LibJPEG/source/jdcoefct.c **** 	for (yindex = 0; yindex < compptr->MCU_height; yindex++) {
 313              		.loc 1 278 2 is_stmt 1 view .LVU97
 278:Middlewares/Third_Party/LibJPEG/source/jdcoefct.c **** 	for (yindex = 0; yindex < compptr->MCU_height; yindex++) {
 314              		.loc 1 278 35 is_stmt 0 view .LVU98
 315 00ac DCF83830 		ldr	r3, [ip, #56]
 278:Middlewares/Third_Party/LibJPEG/source/jdcoefct.c **** 	for (yindex = 0; yindex < compptr->MCU_height; yindex++) {
 316              		.loc 1 278 12 view .LVU99
 317 00b0 07FB03F9 		mul	r9, r7, r3
 318              	.LVL25:
 279:Middlewares/Third_Party/LibJPEG/source/jdcoefct.c **** 	  buffer_ptr = buffer[ci][yindex+yoffset] + start_col;
 319              		.loc 1 279 2 is_stmt 1 view .LVU100
 279:Middlewares/Third_Party/LibJPEG/source/jdcoefct.c **** 	  buffer_ptr = buffer[ci][yindex+yoffset] + start_col;
 320              		.loc 1 279 14 is_stmt 0 view .LVU101
 321 00b4 4FF0000E 		mov	lr, #0
 279:Middlewares/Third_Party/LibJPEG/source/jdcoefct.c **** 	  buffer_ptr = buffer[ci][yindex+yoffset] + start_col;
 322              		.loc 1 279 2 view .LVU102
 323 00b8 DBE7     		b	.L13
 324              	.LVL26:
 325              	.L27:
 283:Middlewares/Third_Party/LibJPEG/source/jdcoefct.c **** 	  }
 284:Middlewares/Third_Party/LibJPEG/source/jdcoefct.c **** 	}
 285:Middlewares/Third_Party/LibJPEG/source/jdcoefct.c ****       }
 286:Middlewares/Third_Party/LibJPEG/source/jdcoefct.c ****       /* Try to fetch the MCU. */
 287:Middlewares/Third_Party/LibJPEG/source/jdcoefct.c ****       if (! (*cinfo->entropy->decode_mcu) (cinfo, coef->MCU_buffer)) {
 326              		.loc 1 287 7 is_stmt 1 view .LVU103
 327              		.loc 1 287 20 is_stmt 0 view .LVU104
 328 00ba D6F8D031 		ldr	r3, [r6, #464]
 329              		.loc 1 287 14 view .LVU105
 330 00be 5B68     		ldr	r3, [r3, #4]
 331 00c0 04F12001 		add	r1, r4, #32
 332              	.LVL27:
 333              		.loc 1 287 14 view .LVU106
 334 00c4 3046     		mov	r0, r6
 335 00c6 9847     		blx	r3
 336              	.LVL28:
 337              		.loc 1 287 10 discriminator 1 view .LVU107
 338 00c8 0346     		mov	r3, r0
 339 00ca 40B1     		cbz	r0, .L28
 273:Middlewares/Third_Party/LibJPEG/source/jdcoefct.c ****       /* Construct list of pointers to DCT blocks belonging to this MCU */
 340              		.loc 1 273 14 is_stmt 1 view .LVU108
 341 00cc 0137     		adds	r7, r7, #1
 342              	.LVL29:
 343              	.L12:
 272:Middlewares/Third_Party/LibJPEG/source/jdcoefct.c **** 	 MCU_col_num++) {
 344              		.loc 1 272 51 discriminator 1 view .LVU109
 272:Middlewares/Third_Party/LibJPEG/source/jdcoefct.c **** 	 MCU_col_num++) {
 345              		.loc 1 272 58 is_stmt 0 discriminator 1 view .LVU110
 346 00ce D6F86431 		ldr	r3, [r6, #356]
 272:Middlewares/Third_Party/LibJPEG/source/jdcoefct.c **** 	 MCU_col_num++) {
 347              		.loc 1 272 51 discriminator 1 view .LVU111
 348 00d2 BB42     		cmp	r3, r7
 349 00d4 09D9     		bls	.L29
 276:Middlewares/Third_Party/LibJPEG/source/jdcoefct.c **** 	compptr = cinfo->cur_comp_info[ci];
 350              		.loc 1 276 15 view .LVU112
 351 00d6 4FF00008 		mov	r8, #0
ARM GAS  /var/folders/mq/wg13gp494590nh4zyt09lxf00000gn/T//ccLgMMOG.s 			page 13


 275:Middlewares/Third_Party/LibJPEG/source/jdcoefct.c ****       for (ci = 0; ci < cinfo->comps_in_scan; ci++) {
 352              		.loc 1 275 12 view .LVU113
 353 00da 4146     		mov	r1, r8
 354 00dc DCE7     		b	.L20
 355              	.LVL30:
 356              	.L28:
 288:Middlewares/Third_Party/LibJPEG/source/jdcoefct.c **** 	/* Suspension forced; update state counters and exit */
 289:Middlewares/Third_Party/LibJPEG/source/jdcoefct.c **** 	coef->MCU_vert_offset = yoffset;
 357              		.loc 1 289 2 is_stmt 1 view .LVU114
 358              		.loc 1 289 24 is_stmt 0 view .LVU115
 359 00de A561     		str	r5, [r4, #24]
 290:Middlewares/Third_Party/LibJPEG/source/jdcoefct.c **** 	coef->MCU_ctr = MCU_col_num;
 360              		.loc 1 290 2 is_stmt 1 view .LVU116
 361              		.loc 1 290 16 is_stmt 0 view .LVU117
 362 00e0 6761     		str	r7, [r4, #20]
 291:Middlewares/Third_Party/LibJPEG/source/jdcoefct.c **** 	return JPEG_SUSPENDED;
 363              		.loc 1 291 2 is_stmt 1 view .LVU118
 364              	.LVL31:
 365              	.L8:
 292:Middlewares/Third_Party/LibJPEG/source/jdcoefct.c ****       }
 293:Middlewares/Third_Party/LibJPEG/source/jdcoefct.c ****     }
 294:Middlewares/Third_Party/LibJPEG/source/jdcoefct.c ****     /* Completed an MCU row, but perhaps not an iMCU row */
 295:Middlewares/Third_Party/LibJPEG/source/jdcoefct.c ****     coef->MCU_ctr = 0;
 296:Middlewares/Third_Party/LibJPEG/source/jdcoefct.c ****   }
 297:Middlewares/Third_Party/LibJPEG/source/jdcoefct.c ****   /* Completed the iMCU row, advance counters for next one */
 298:Middlewares/Third_Party/LibJPEG/source/jdcoefct.c ****   if (++(cinfo->input_iMCU_row) < cinfo->total_iMCU_rows) {
 299:Middlewares/Third_Party/LibJPEG/source/jdcoefct.c ****     start_iMCU_row(cinfo);
 300:Middlewares/Third_Party/LibJPEG/source/jdcoefct.c ****     return JPEG_ROW_COMPLETED;
 301:Middlewares/Third_Party/LibJPEG/source/jdcoefct.c ****   }
 302:Middlewares/Third_Party/LibJPEG/source/jdcoefct.c ****   /* Completed the scan */
 303:Middlewares/Third_Party/LibJPEG/source/jdcoefct.c ****   (*cinfo->inputctl->finish_input_pass) (cinfo);
 304:Middlewares/Third_Party/LibJPEG/source/jdcoefct.c ****   return JPEG_SCAN_COMPLETED;
 305:Middlewares/Third_Party/LibJPEG/source/jdcoefct.c **** }
 366              		.loc 1 305 1 is_stmt 0 view .LVU119
 367 00e2 1846     		mov	r0, r3
 368 00e4 07B0     		add	sp, sp, #28
 369              	.LCFI3:
 370              		.cfi_remember_state
 371              		.cfi_def_cfa_offset 28
 372              		@ sp needed
 373 00e6 BDE8F083 		pop	{r4, r5, r6, r7, r8, r9, pc}
 374              	.LVL32:
 375              	.L29:
 376              	.LCFI4:
 377              		.cfi_restore_state
 295:Middlewares/Third_Party/LibJPEG/source/jdcoefct.c ****   }
 378              		.loc 1 295 5 is_stmt 1 view .LVU120
 295:Middlewares/Third_Party/LibJPEG/source/jdcoefct.c ****   }
 379              		.loc 1 295 19 is_stmt 0 view .LVU121
 380 00ea 0023     		movs	r3, #0
 381 00ec 6361     		str	r3, [r4, #20]
 271:Middlewares/Third_Party/LibJPEG/source/jdcoefct.c ****     for (MCU_col_num = coef->MCU_ctr; MCU_col_num < cinfo->MCUs_per_row;
 382              		.loc 1 271 15 is_stmt 1 view .LVU122
 383 00ee 0135     		adds	r5, r5, #1
 384              	.LVL33:
 271:Middlewares/Third_Party/LibJPEG/source/jdcoefct.c ****     for (MCU_col_num = coef->MCU_ctr; MCU_col_num < cinfo->MCUs_per_row;
 385              		.loc 1 271 15 is_stmt 0 view .LVU123
ARM GAS  /var/folders/mq/wg13gp494590nh4zyt09lxf00000gn/T//ccLgMMOG.s 			page 14


 386 00f0 ADE7     		b	.L11
 387              	.LVL34:
 388              	.L25:
 298:Middlewares/Third_Party/LibJPEG/source/jdcoefct.c ****     start_iMCU_row(cinfo);
 389              		.loc 1 298 3 is_stmt 1 view .LVU124
 298:Middlewares/Third_Party/LibJPEG/source/jdcoefct.c ****     start_iMCU_row(cinfo);
 390              		.loc 1 298 15 is_stmt 0 view .LVU125
 391 00f2 D6F89430 		ldr	r3, [r6, #148]
 298:Middlewares/Third_Party/LibJPEG/source/jdcoefct.c ****     start_iMCU_row(cinfo);
 392              		.loc 1 298 7 view .LVU126
 393 00f6 0133     		adds	r3, r3, #1
 298:Middlewares/Third_Party/LibJPEG/source/jdcoefct.c ****     start_iMCU_row(cinfo);
 394              		.loc 1 298 6 view .LVU127
 395 00f8 C6F89430 		str	r3, [r6, #148]
 298:Middlewares/Third_Party/LibJPEG/source/jdcoefct.c ****     start_iMCU_row(cinfo);
 396              		.loc 1 298 40 view .LVU128
 397 00fc D6F84821 		ldr	r2, [r6, #328]
 298:Middlewares/Third_Party/LibJPEG/source/jdcoefct.c ****     start_iMCU_row(cinfo);
 398              		.loc 1 298 6 view .LVU129
 399 0100 9342     		cmp	r3, r2
 400 0102 06D3     		bcc	.L30
 303:Middlewares/Third_Party/LibJPEG/source/jdcoefct.c ****   return JPEG_SCAN_COMPLETED;
 401              		.loc 1 303 3 is_stmt 1 view .LVU130
 303:Middlewares/Third_Party/LibJPEG/source/jdcoefct.c ****   return JPEG_SCAN_COMPLETED;
 402              		.loc 1 303 10 is_stmt 0 view .LVU131
 403 0104 D6F8C831 		ldr	r3, [r6, #456]
 303:Middlewares/Third_Party/LibJPEG/source/jdcoefct.c ****   return JPEG_SCAN_COMPLETED;
 404              		.loc 1 303 4 view .LVU132
 405 0108 DB68     		ldr	r3, [r3, #12]
 406 010a 3046     		mov	r0, r6
 407 010c 9847     		blx	r3
 408              	.LVL35:
 304:Middlewares/Third_Party/LibJPEG/source/jdcoefct.c **** }
 409              		.loc 1 304 3 is_stmt 1 view .LVU133
 304:Middlewares/Third_Party/LibJPEG/source/jdcoefct.c **** }
 410              		.loc 1 304 10 is_stmt 0 view .LVU134
 411 010e 0423     		movs	r3, #4
 412 0110 E7E7     		b	.L8
 413              	.L30:
 299:Middlewares/Third_Party/LibJPEG/source/jdcoefct.c ****     return JPEG_ROW_COMPLETED;
 414              		.loc 1 299 5 is_stmt 1 view .LVU135
 415 0112 3046     		mov	r0, r6
 416 0114 FFF7FEFF 		bl	start_iMCU_row
 417              	.LVL36:
 300:Middlewares/Third_Party/LibJPEG/source/jdcoefct.c ****   }
 418              		.loc 1 300 5 view .LVU136
 300:Middlewares/Third_Party/LibJPEG/source/jdcoefct.c ****   }
 419              		.loc 1 300 12 is_stmt 0 view .LVU137
 420 0118 0323     		movs	r3, #3
 421 011a E2E7     		b	.L8
 422              		.cfi_endproc
 423              	.LFE152:
 425              		.section	.text.decompress_data,"ax",%progbits
 426              		.align	1
 427              		.syntax unified
 428              		.thumb
 429              		.thumb_func
ARM GAS  /var/folders/mq/wg13gp494590nh4zyt09lxf00000gn/T//ccLgMMOG.s 			page 15


 431              	decompress_data:
 432              	.LVL37:
 433              	.LFB153:
 306:Middlewares/Third_Party/LibJPEG/source/jdcoefct.c **** 
 307:Middlewares/Third_Party/LibJPEG/source/jdcoefct.c **** 
 308:Middlewares/Third_Party/LibJPEG/source/jdcoefct.c **** /*
 309:Middlewares/Third_Party/LibJPEG/source/jdcoefct.c ****  * Decompress and return some data in the multi-pass case.
 310:Middlewares/Third_Party/LibJPEG/source/jdcoefct.c ****  * Always attempts to emit one fully interleaved MCU row ("iMCU" row).
 311:Middlewares/Third_Party/LibJPEG/source/jdcoefct.c ****  * Return value is JPEG_ROW_COMPLETED, JPEG_SCAN_COMPLETED, or JPEG_SUSPENDED.
 312:Middlewares/Third_Party/LibJPEG/source/jdcoefct.c ****  *
 313:Middlewares/Third_Party/LibJPEG/source/jdcoefct.c ****  * NB: output_buf contains a plane for each component in image.
 314:Middlewares/Third_Party/LibJPEG/source/jdcoefct.c ****  */
 315:Middlewares/Third_Party/LibJPEG/source/jdcoefct.c **** 
 316:Middlewares/Third_Party/LibJPEG/source/jdcoefct.c **** METHODDEF(int)
 317:Middlewares/Third_Party/LibJPEG/source/jdcoefct.c **** decompress_data (j_decompress_ptr cinfo, JSAMPIMAGE output_buf)
 318:Middlewares/Third_Party/LibJPEG/source/jdcoefct.c **** {
 434              		.loc 1 318 1 is_stmt 1 view -0
 435              		.cfi_startproc
 436              		@ args = 0, pretend = 0, frame = 24
 437              		@ frame_needed = 0, uses_anonymous_args = 0
 438              		.loc 1 318 1 is_stmt 0 view .LVU139
 439 0000 2DE9F04F 		push	{r4, r5, r6, r7, r8, r9, r10, fp, lr}
 440              	.LCFI5:
 441              		.cfi_def_cfa_offset 36
 442              		.cfi_offset 4, -36
 443              		.cfi_offset 5, -32
 444              		.cfi_offset 6, -28
 445              		.cfi_offset 7, -24
 446              		.cfi_offset 8, -20
 447              		.cfi_offset 9, -16
 448              		.cfi_offset 10, -12
 449              		.cfi_offset 11, -8
 450              		.cfi_offset 14, -4
 451 0004 89B0     		sub	sp, sp, #36
 452              	.LCFI6:
 453              		.cfi_def_cfa_offset 72
 454 0006 8046     		mov	r8, r0
 455 0008 0691     		str	r1, [sp, #24]
 319:Middlewares/Third_Party/LibJPEG/source/jdcoefct.c ****   my_coef_ptr coef = (my_coef_ptr) cinfo->coef;
 456              		.loc 1 319 3 is_stmt 1 view .LVU140
 457              		.loc 1 319 15 is_stmt 0 view .LVU141
 458 000a D0F8C031 		ldr	r3, [r0, #448]
 459 000e 0593     		str	r3, [sp, #20]
 460              	.LVL38:
 320:Middlewares/Third_Party/LibJPEG/source/jdcoefct.c ****   JDIMENSION last_iMCU_row = cinfo->total_iMCU_rows - 1;
 461              		.loc 1 320 3 is_stmt 1 view .LVU142
 462              		.loc 1 320 35 is_stmt 0 view .LVU143
 463 0010 D0F84831 		ldr	r3, [r0, #328]
 464              	.LVL39:
 465              		.loc 1 320 14 view .LVU144
 466 0014 5F1E     		subs	r7, r3, #1
 467              	.LVL40:
 321:Middlewares/Third_Party/LibJPEG/source/jdcoefct.c ****   JDIMENSION block_num;
 468              		.loc 1 321 3 is_stmt 1 view .LVU145
 322:Middlewares/Third_Party/LibJPEG/source/jdcoefct.c ****   int ci, block_row, block_rows;
 469              		.loc 1 322 3 view .LVU146
 323:Middlewares/Third_Party/LibJPEG/source/jdcoefct.c ****   JBLOCKARRAY buffer;
ARM GAS  /var/folders/mq/wg13gp494590nh4zyt09lxf00000gn/T//ccLgMMOG.s 			page 16


 470              		.loc 1 323 3 view .LVU147
 324:Middlewares/Third_Party/LibJPEG/source/jdcoefct.c ****   JBLOCKROW buffer_ptr;
 471              		.loc 1 324 3 view .LVU148
 325:Middlewares/Third_Party/LibJPEG/source/jdcoefct.c ****   JSAMPARRAY output_ptr;
 472              		.loc 1 325 3 view .LVU149
 326:Middlewares/Third_Party/LibJPEG/source/jdcoefct.c ****   JDIMENSION output_col;
 473              		.loc 1 326 3 view .LVU150
 327:Middlewares/Third_Party/LibJPEG/source/jdcoefct.c ****   jpeg_component_info *compptr;
 474              		.loc 1 327 3 view .LVU151
 328:Middlewares/Third_Party/LibJPEG/source/jdcoefct.c ****   inverse_DCT_method_ptr inverse_DCT;
 475              		.loc 1 328 3 view .LVU152
 329:Middlewares/Third_Party/LibJPEG/source/jdcoefct.c **** 
 330:Middlewares/Third_Party/LibJPEG/source/jdcoefct.c ****   /* Force some input to be done if we are getting ahead of the input. */
 331:Middlewares/Third_Party/LibJPEG/source/jdcoefct.c ****   while (cinfo->input_scan_number < cinfo->output_scan_number ||
 476              		.loc 1 331 3 view .LVU153
 477              		.loc 1 331 9 is_stmt 0 view .LVU154
 478 0016 07E0     		b	.L32
 479              	.LVL41:
 480              	.L34:
 332:Middlewares/Third_Party/LibJPEG/source/jdcoefct.c **** 	 (cinfo->input_scan_number == cinfo->output_scan_number &&
 333:Middlewares/Third_Party/LibJPEG/source/jdcoefct.c **** 	  cinfo->input_iMCU_row <= cinfo->output_iMCU_row)) {
 334:Middlewares/Third_Party/LibJPEG/source/jdcoefct.c ****     if ((*cinfo->inputctl->consume_input)(cinfo) == JPEG_SUSPENDED)
 481              		.loc 1 334 5 is_stmt 1 view .LVU155
 482              		.loc 1 334 16 is_stmt 0 view .LVU156
 483 0018 D8F8C831 		ldr	r3, [r8, #456]
 484              		.loc 1 334 10 view .LVU157
 485 001c 1B68     		ldr	r3, [r3]
 486 001e 4046     		mov	r0, r8
 487 0020 9847     		blx	r3
 488              	.LVL42:
 489              		.loc 1 334 8 discriminator 1 view .LVU158
 490 0022 0346     		mov	r3, r0
 491 0024 0028     		cmp	r0, #0
 492 0026 70D0     		beq	.L31
 493              	.L32:
 331:Middlewares/Third_Party/LibJPEG/source/jdcoefct.c **** 	 (cinfo->input_scan_number == cinfo->output_scan_number &&
 494              		.loc 1 331 63 is_stmt 1 view .LVU159
 331:Middlewares/Third_Party/LibJPEG/source/jdcoefct.c **** 	 (cinfo->input_scan_number == cinfo->output_scan_number &&
 495              		.loc 1 331 15 is_stmt 0 view .LVU160
 496 0028 D8F89020 		ldr	r2, [r8, #144]
 331:Middlewares/Third_Party/LibJPEG/source/jdcoefct.c **** 	 (cinfo->input_scan_number == cinfo->output_scan_number &&
 497              		.loc 1 331 42 view .LVU161
 498 002c D8F89830 		ldr	r3, [r8, #152]
 331:Middlewares/Third_Party/LibJPEG/source/jdcoefct.c **** 	 (cinfo->input_scan_number == cinfo->output_scan_number &&
 499              		.loc 1 331 63 view .LVU162
 500 0030 9A42     		cmp	r2, r3
 501 0032 F1DB     		blt	.L34
 331:Middlewares/Third_Party/LibJPEG/source/jdcoefct.c **** 	 (cinfo->input_scan_number == cinfo->output_scan_number &&
 502              		.loc 1 331 63 discriminator 1 view .LVU163
 503 0034 05D1     		bne	.L35
 333:Middlewares/Third_Party/LibJPEG/source/jdcoefct.c ****     if ((*cinfo->inputctl->consume_input)(cinfo) == JPEG_SUSPENDED)
 504              		.loc 1 333 9 view .LVU164
 505 0036 D8F89420 		ldr	r2, [r8, #148]
 333:Middlewares/Third_Party/LibJPEG/source/jdcoefct.c ****     if ((*cinfo->inputctl->consume_input)(cinfo) == JPEG_SUSPENDED)
 506              		.loc 1 333 34 view .LVU165
 507 003a D8F89C30 		ldr	r3, [r8, #156]
 332:Middlewares/Third_Party/LibJPEG/source/jdcoefct.c **** 	 (cinfo->input_scan_number == cinfo->output_scan_number &&
ARM GAS  /var/folders/mq/wg13gp494590nh4zyt09lxf00000gn/T//ccLgMMOG.s 			page 17


 508              		.loc 1 332 58 view .LVU166
 509 003e 9A42     		cmp	r2, r3
 510 0040 EAD9     		bls	.L34
 511              	.L35:
 335:Middlewares/Third_Party/LibJPEG/source/jdcoefct.c ****       return JPEG_SUSPENDED;
 336:Middlewares/Third_Party/LibJPEG/source/jdcoefct.c ****   }
 337:Middlewares/Third_Party/LibJPEG/source/jdcoefct.c **** 
 338:Middlewares/Third_Party/LibJPEG/source/jdcoefct.c ****   /* OK, output from the virtual arrays. */
 339:Middlewares/Third_Party/LibJPEG/source/jdcoefct.c ****   for (ci = 0, compptr = cinfo->comp_info; ci < cinfo->num_components;
 512              		.loc 1 339 3 is_stmt 1 view .LVU167
 513              	.LVL43:
 514              		.loc 1 339 24 is_stmt 0 view .LVU168
 515 0042 D8F8D840 		ldr	r4, [r8, #216]
 516              	.LVL44:
 517              		.loc 1 339 11 view .LVU169
 518 0046 0026     		movs	r6, #0
 519 0048 0797     		str	r7, [sp, #28]
 520              		.loc 1 339 3 view .LVU170
 521 004a 27E0     		b	.L36
 522              	.LVL45:
 523              	.L38:
 340:Middlewares/Third_Party/LibJPEG/source/jdcoefct.c ****        ci++, compptr++) {
 341:Middlewares/Third_Party/LibJPEG/source/jdcoefct.c ****     /* Don't bother to IDCT an uninteresting component. */
 342:Middlewares/Third_Party/LibJPEG/source/jdcoefct.c ****     if (! compptr->component_needed)
 343:Middlewares/Third_Party/LibJPEG/source/jdcoefct.c ****       continue;
 344:Middlewares/Third_Party/LibJPEG/source/jdcoefct.c ****     /* Align the virtual buffer for this component. */
 345:Middlewares/Third_Party/LibJPEG/source/jdcoefct.c ****     buffer = (*cinfo->mem->access_virt_barray)
 346:Middlewares/Third_Party/LibJPEG/source/jdcoefct.c ****       ((j_common_ptr) cinfo, coef->whole_image[ci],
 347:Middlewares/Third_Party/LibJPEG/source/jdcoefct.c ****        cinfo->output_iMCU_row * compptr->v_samp_factor,
 348:Middlewares/Third_Party/LibJPEG/source/jdcoefct.c ****        (JDIMENSION) compptr->v_samp_factor, FALSE);
 349:Middlewares/Third_Party/LibJPEG/source/jdcoefct.c ****     /* Count non-dummy DCT block rows in this iMCU row. */
 350:Middlewares/Third_Party/LibJPEG/source/jdcoefct.c ****     if (cinfo->output_iMCU_row < last_iMCU_row)
 351:Middlewares/Third_Party/LibJPEG/source/jdcoefct.c ****       block_rows = compptr->v_samp_factor;
 352:Middlewares/Third_Party/LibJPEG/source/jdcoefct.c ****     else {
 353:Middlewares/Third_Party/LibJPEG/source/jdcoefct.c ****       /* NB: can't use last_row_height here; it is input-side-dependent! */
 354:Middlewares/Third_Party/LibJPEG/source/jdcoefct.c ****       block_rows = (int) (compptr->height_in_blocks % compptr->v_samp_factor);
 524              		.loc 1 354 7 is_stmt 1 view .LVU171
 525              		.loc 1 354 34 is_stmt 0 view .LVU172
 526 004c 236A     		ldr	r3, [r4, #32]
 527              		.loc 1 354 62 view .LVU173
 528 004e E068     		ldr	r0, [r4, #12]
 529              	.LVL46:
 530              		.loc 1 354 53 view .LVU174
 531 0050 B3FBF0F2 		udiv	r2, r3, r0
 532 0054 00FB1233 		mls	r3, r0, r2, r3
 533              	.LVL47:
 355:Middlewares/Third_Party/LibJPEG/source/jdcoefct.c ****       if (block_rows == 0) block_rows = compptr->v_samp_factor;
 534              		.loc 1 355 7 is_stmt 1 view .LVU175
 535              		.loc 1 355 10 is_stmt 0 view .LVU176
 536 0058 002B     		cmp	r3, #0
 537 005a 3ED0     		beq	.L39
 354:Middlewares/Third_Party/LibJPEG/source/jdcoefct.c ****       if (block_rows == 0) block_rows = compptr->v_samp_factor;
 538              		.loc 1 354 18 view .LVU177
 539 005c 1846     		mov	r0, r3
 540 005e 3CE0     		b	.L39
 541              	.LVL48:
 542              	.L42:
ARM GAS  /var/folders/mq/wg13gp494590nh4zyt09lxf00000gn/T//ccLgMMOG.s 			page 18


 356:Middlewares/Third_Party/LibJPEG/source/jdcoefct.c ****     }
 357:Middlewares/Third_Party/LibJPEG/source/jdcoefct.c ****     inverse_DCT = cinfo->idct->inverse_DCT[ci];
 358:Middlewares/Third_Party/LibJPEG/source/jdcoefct.c ****     output_ptr = output_buf[ci];
 359:Middlewares/Third_Party/LibJPEG/source/jdcoefct.c ****     /* Loop over all DCT blocks to be processed. */
 360:Middlewares/Third_Party/LibJPEG/source/jdcoefct.c ****     for (block_row = 0; block_row < block_rows; block_row++) {
 361:Middlewares/Third_Party/LibJPEG/source/jdcoefct.c ****       buffer_ptr = buffer[block_row];
 362:Middlewares/Third_Party/LibJPEG/source/jdcoefct.c ****       output_col = 0;
 363:Middlewares/Third_Party/LibJPEG/source/jdcoefct.c ****       for (block_num = 0; block_num < compptr->width_in_blocks; block_num++) {
 364:Middlewares/Third_Party/LibJPEG/source/jdcoefct.c **** 	(*inverse_DCT) (cinfo, compptr, (JCOEFPTR) buffer_ptr,
 543              		.loc 1 364 2 is_stmt 1 view .LVU178
 544              		.loc 1 364 3 is_stmt 0 view .LVU179
 545 0060 0096     		str	r6, [sp]
 546 0062 5346     		mov	r3, r10
 547 0064 3A46     		mov	r2, r7
 548 0066 2146     		mov	r1, r4
 549 0068 4046     		mov	r0, r8
 550 006a C847     		blx	r9
 551              	.LVL49:
 365:Middlewares/Third_Party/LibJPEG/source/jdcoefct.c **** 			output_ptr, output_col);
 366:Middlewares/Third_Party/LibJPEG/source/jdcoefct.c **** 	buffer_ptr++;
 552              		.loc 1 366 2 is_stmt 1 view .LVU180
 553              		.loc 1 366 12 is_stmt 0 view .LVU181
 554 006c 8037     		adds	r7, r7, #128
 555              	.LVL50:
 367:Middlewares/Third_Party/LibJPEG/source/jdcoefct.c **** 	output_col += compptr->DCT_h_scaled_size;
 556              		.loc 1 367 2 is_stmt 1 view .LVU182
 557              		.loc 1 367 23 is_stmt 0 view .LVU183
 558 006e 636A     		ldr	r3, [r4, #36]
 559              		.loc 1 367 13 view .LVU184
 560 0070 1E44     		add	r6, r6, r3
 561              	.LVL51:
 363:Middlewares/Third_Party/LibJPEG/source/jdcoefct.c **** 	(*inverse_DCT) (cinfo, compptr, (JCOEFPTR) buffer_ptr,
 562              		.loc 1 363 74 is_stmt 1 discriminator 3 view .LVU185
 563 0072 0135     		adds	r5, r5, #1
 564              	.LVL52:
 565              	.L41:
 363:Middlewares/Third_Party/LibJPEG/source/jdcoefct.c **** 	(*inverse_DCT) (cinfo, compptr, (JCOEFPTR) buffer_ptr,
 566              		.loc 1 363 37 discriminator 1 view .LVU186
 363:Middlewares/Third_Party/LibJPEG/source/jdcoefct.c **** 	(*inverse_DCT) (cinfo, compptr, (JCOEFPTR) buffer_ptr,
 567              		.loc 1 363 46 is_stmt 0 discriminator 1 view .LVU187
 568 0074 E369     		ldr	r3, [r4, #28]
 363:Middlewares/Third_Party/LibJPEG/source/jdcoefct.c **** 	(*inverse_DCT) (cinfo, compptr, (JCOEFPTR) buffer_ptr,
 569              		.loc 1 363 37 discriminator 1 view .LVU188
 570 0076 AB42     		cmp	r3, r5
 571 0078 F2D8     		bhi	.L42
 368:Middlewares/Third_Party/LibJPEG/source/jdcoefct.c ****       }
 369:Middlewares/Third_Party/LibJPEG/source/jdcoefct.c ****       output_ptr += compptr->DCT_v_scaled_size;
 572              		.loc 1 369 7 is_stmt 1 view .LVU189
 573              		.loc 1 369 28 is_stmt 0 view .LVU190
 574 007a A26A     		ldr	r2, [r4, #40]
 575              		.loc 1 369 18 view .LVU191
 576 007c 0AEB820A 		add	r10, r10, r2, lsl #2
 577              	.LVL53:
 360:Middlewares/Third_Party/LibJPEG/source/jdcoefct.c ****       buffer_ptr = buffer[block_row];
 578              		.loc 1 360 58 is_stmt 1 discriminator 2 view .LVU192
 579 0080 0BF1010B 		add	fp, fp, #1
 580              	.LVL54:
ARM GAS  /var/folders/mq/wg13gp494590nh4zyt09lxf00000gn/T//ccLgMMOG.s 			page 19


 581              	.L40:
 360:Middlewares/Third_Party/LibJPEG/source/jdcoefct.c ****       buffer_ptr = buffer[block_row];
 582              		.loc 1 360 35 discriminator 1 view .LVU193
 583 0084 029B     		ldr	r3, [sp, #8]
 584 0086 9B45     		cmp	fp, r3
 585 0088 05DA     		bge	.L48
 361:Middlewares/Third_Party/LibJPEG/source/jdcoefct.c ****       output_col = 0;
 586              		.loc 1 361 7 view .LVU194
 361:Middlewares/Third_Party/LibJPEG/source/jdcoefct.c ****       output_col = 0;
 587              		.loc 1 361 18 is_stmt 0 view .LVU195
 588 008a 039B     		ldr	r3, [sp, #12]
 589 008c 53F82B70 		ldr	r7, [r3, fp, lsl #2]
 590              	.LVL55:
 362:Middlewares/Third_Party/LibJPEG/source/jdcoefct.c ****       for (block_num = 0; block_num < compptr->width_in_blocks; block_num++) {
 591              		.loc 1 362 7 is_stmt 1 view .LVU196
 363:Middlewares/Third_Party/LibJPEG/source/jdcoefct.c **** 	(*inverse_DCT) (cinfo, compptr, (JCOEFPTR) buffer_ptr,
 592              		.loc 1 363 7 view .LVU197
 362:Middlewares/Third_Party/LibJPEG/source/jdcoefct.c ****       for (block_num = 0; block_num < compptr->width_in_blocks; block_num++) {
 593              		.loc 1 362 18 is_stmt 0 view .LVU198
 594 0090 0026     		movs	r6, #0
 363:Middlewares/Third_Party/LibJPEG/source/jdcoefct.c **** 	(*inverse_DCT) (cinfo, compptr, (JCOEFPTR) buffer_ptr,
 595              		.loc 1 363 22 view .LVU199
 596 0092 3546     		mov	r5, r6
 363:Middlewares/Third_Party/LibJPEG/source/jdcoefct.c **** 	(*inverse_DCT) (cinfo, compptr, (JCOEFPTR) buffer_ptr,
 597              		.loc 1 363 7 view .LVU200
 598 0094 EEE7     		b	.L41
 599              	.LVL56:
 600              	.L48:
 363:Middlewares/Third_Party/LibJPEG/source/jdcoefct.c **** 	(*inverse_DCT) (cinfo, compptr, (JCOEFPTR) buffer_ptr,
 601              		.loc 1 363 7 view .LVU201
 602 0096 049E     		ldr	r6, [sp, #16]
 603              	.LVL57:
 604              	.L37:
 340:Middlewares/Third_Party/LibJPEG/source/jdcoefct.c ****     /* Don't bother to IDCT an uninteresting component. */
 605              		.loc 1 340 12 is_stmt 1 view .LVU202
 340:Middlewares/Third_Party/LibJPEG/source/jdcoefct.c ****     /* Don't bother to IDCT an uninteresting component. */
 606              		.loc 1 340 10 is_stmt 0 view .LVU203
 607 0098 0136     		adds	r6, r6, #1
 608              	.LVL58:
 340:Middlewares/Third_Party/LibJPEG/source/jdcoefct.c ****     /* Don't bother to IDCT an uninteresting component. */
 609              		.loc 1 340 21 view .LVU204
 610 009a 5834     		adds	r4, r4, #88
 611              	.LVL59:
 612              	.L36:
 339:Middlewares/Third_Party/LibJPEG/source/jdcoefct.c ****        ci++, compptr++) {
 613              		.loc 1 339 47 is_stmt 1 discriminator 1 view .LVU205
 339:Middlewares/Third_Party/LibJPEG/source/jdcoefct.c ****        ci++, compptr++) {
 614              		.loc 1 339 54 is_stmt 0 discriminator 1 view .LVU206
 615 009c D8F82430 		ldr	r3, [r8, #36]
 339:Middlewares/Third_Party/LibJPEG/source/jdcoefct.c ****        ci++, compptr++) {
 616              		.loc 1 339 47 discriminator 1 view .LVU207
 617 00a0 B342     		cmp	r3, r6
 618 00a2 28DD     		ble	.L49
 342:Middlewares/Third_Party/LibJPEG/source/jdcoefct.c ****       continue;
 619              		.loc 1 342 5 is_stmt 1 view .LVU208
 342:Middlewares/Third_Party/LibJPEG/source/jdcoefct.c ****       continue;
 620              		.loc 1 342 18 is_stmt 0 view .LVU209
ARM GAS  /var/folders/mq/wg13gp494590nh4zyt09lxf00000gn/T//ccLgMMOG.s 			page 20


 621 00a4 636B     		ldr	r3, [r4, #52]
 342:Middlewares/Third_Party/LibJPEG/source/jdcoefct.c ****       continue;
 622              		.loc 1 342 8 view .LVU210
 623 00a6 002B     		cmp	r3, #0
 624 00a8 F6D0     		beq	.L37
 345:Middlewares/Third_Party/LibJPEG/source/jdcoefct.c ****       ((j_common_ptr) cinfo, coef->whole_image[ci],
 625              		.loc 1 345 5 is_stmt 1 view .LVU211
 345:Middlewares/Third_Party/LibJPEG/source/jdcoefct.c ****       ((j_common_ptr) cinfo, coef->whole_image[ci],
 626              		.loc 1 345 21 is_stmt 0 view .LVU212
 627 00aa D8F80400 		ldr	r0, [r8, #4]
 347:Middlewares/Third_Party/LibJPEG/source/jdcoefct.c ****        (JDIMENSION) compptr->v_samp_factor, FALSE);
 628              		.loc 1 347 13 view .LVU213
 629 00ae D8F89C20 		ldr	r2, [r8, #156]
 347:Middlewares/Third_Party/LibJPEG/source/jdcoefct.c ****        (JDIMENSION) compptr->v_samp_factor, FALSE);
 630              		.loc 1 347 40 view .LVU214
 631 00b2 E368     		ldr	r3, [r4, #12]
 345:Middlewares/Third_Party/LibJPEG/source/jdcoefct.c ****       ((j_common_ptr) cinfo, coef->whole_image[ci],
 632              		.loc 1 345 15 view .LVU215
 633 00b4 06F11201 		add	r1, r6, #18
 634 00b8 059D     		ldr	r5, [sp, #20]
 635 00ba 55F82110 		ldr	r1, [r5, r1, lsl #2]
 636 00be 0025     		movs	r5, #0
 637 00c0 0095     		str	r5, [sp]
 638 00c2 056A     		ldr	r5, [r0, #32]
 639 00c4 03FB02F2 		mul	r2, r3, r2
 640 00c8 4046     		mov	r0, r8
 641 00ca A847     		blx	r5
 642              	.LVL60:
 643 00cc 0390     		str	r0, [sp, #12]
 644              	.LVL61:
 350:Middlewares/Third_Party/LibJPEG/source/jdcoefct.c ****       block_rows = compptr->v_samp_factor;
 645              		.loc 1 350 5 is_stmt 1 view .LVU216
 350:Middlewares/Third_Party/LibJPEG/source/jdcoefct.c ****       block_rows = compptr->v_samp_factor;
 646              		.loc 1 350 14 is_stmt 0 view .LVU217
 647 00ce D8F89C30 		ldr	r3, [r8, #156]
 350:Middlewares/Third_Party/LibJPEG/source/jdcoefct.c ****       block_rows = compptr->v_samp_factor;
 648              		.loc 1 350 8 view .LVU218
 649 00d2 079A     		ldr	r2, [sp, #28]
 650 00d4 9342     		cmp	r3, r2
 651 00d6 B9D2     		bcs	.L38
 351:Middlewares/Third_Party/LibJPEG/source/jdcoefct.c ****     else {
 652              		.loc 1 351 7 is_stmt 1 view .LVU219
 351:Middlewares/Third_Party/LibJPEG/source/jdcoefct.c ****     else {
 653              		.loc 1 351 18 is_stmt 0 view .LVU220
 654 00d8 E068     		ldr	r0, [r4, #12]
 655              	.LVL62:
 656              	.L39:
 357:Middlewares/Third_Party/LibJPEG/source/jdcoefct.c ****     output_ptr = output_buf[ci];
 657              		.loc 1 357 5 is_stmt 1 view .LVU221
 357:Middlewares/Third_Party/LibJPEG/source/jdcoefct.c ****     output_ptr = output_buf[ci];
 658              		.loc 1 357 24 is_stmt 0 view .LVU222
 659 00da D8F8D431 		ldr	r3, [r8, #468]
 357:Middlewares/Third_Party/LibJPEG/source/jdcoefct.c ****     output_ptr = output_buf[ci];
 660              		.loc 1 357 17 view .LVU223
 661 00de 03EB8603 		add	r3, r3, r6, lsl #2
 662 00e2 D3F80490 		ldr	r9, [r3, #4]
 663              	.LVL63:
ARM GAS  /var/folders/mq/wg13gp494590nh4zyt09lxf00000gn/T//ccLgMMOG.s 			page 21


 358:Middlewares/Third_Party/LibJPEG/source/jdcoefct.c ****     /* Loop over all DCT blocks to be processed. */
 664              		.loc 1 358 5 is_stmt 1 view .LVU224
 358:Middlewares/Third_Party/LibJPEG/source/jdcoefct.c ****     /* Loop over all DCT blocks to be processed. */
 665              		.loc 1 358 16 is_stmt 0 view .LVU225
 666 00e6 069B     		ldr	r3, [sp, #24]
 667 00e8 53F826A0 		ldr	r10, [r3, r6, lsl #2]
 668              	.LVL64:
 360:Middlewares/Third_Party/LibJPEG/source/jdcoefct.c ****       buffer_ptr = buffer[block_row];
 669              		.loc 1 360 5 is_stmt 1 view .LVU226
 360:Middlewares/Third_Party/LibJPEG/source/jdcoefct.c ****       buffer_ptr = buffer[block_row];
 670              		.loc 1 360 20 is_stmt 0 view .LVU227
 671 00ec 4FF0000B 		mov	fp, #0
 672 00f0 0496     		str	r6, [sp, #16]
 673 00f2 0290     		str	r0, [sp, #8]
 360:Middlewares/Third_Party/LibJPEG/source/jdcoefct.c ****       buffer_ptr = buffer[block_row];
 674              		.loc 1 360 5 view .LVU228
 675 00f4 C6E7     		b	.L40
 676              	.LVL65:
 677              	.L49:
 370:Middlewares/Third_Party/LibJPEG/source/jdcoefct.c ****     }
 371:Middlewares/Third_Party/LibJPEG/source/jdcoefct.c ****   }
 372:Middlewares/Third_Party/LibJPEG/source/jdcoefct.c **** 
 373:Middlewares/Third_Party/LibJPEG/source/jdcoefct.c ****   if (++(cinfo->output_iMCU_row) < cinfo->total_iMCU_rows)
 678              		.loc 1 373 3 is_stmt 1 view .LVU229
 679              		.loc 1 373 15 is_stmt 0 view .LVU230
 680 00f6 D8F89C30 		ldr	r3, [r8, #156]
 681              		.loc 1 373 7 view .LVU231
 682 00fa 0133     		adds	r3, r3, #1
 683              		.loc 1 373 6 view .LVU232
 684 00fc C8F89C30 		str	r3, [r8, #156]
 685              		.loc 1 373 41 view .LVU233
 686 0100 D8F84821 		ldr	r2, [r8, #328]
 687              		.loc 1 373 6 view .LVU234
 688 0104 9342     		cmp	r3, r2
 689 0106 04D3     		bcc	.L45
 374:Middlewares/Third_Party/LibJPEG/source/jdcoefct.c ****     return JPEG_ROW_COMPLETED;
 375:Middlewares/Third_Party/LibJPEG/source/jdcoefct.c ****   return JPEG_SCAN_COMPLETED;
 690              		.loc 1 375 10 view .LVU235
 691 0108 0423     		movs	r3, #4
 692              	.LVL66:
 693              	.L31:
 376:Middlewares/Third_Party/LibJPEG/source/jdcoefct.c **** }
 694              		.loc 1 376 1 view .LVU236
 695 010a 1846     		mov	r0, r3
 696 010c 09B0     		add	sp, sp, #36
 697              	.LCFI7:
 698              		.cfi_remember_state
 699              		.cfi_def_cfa_offset 36
 700              		@ sp needed
 701 010e BDE8F08F 		pop	{r4, r5, r6, r7, r8, r9, r10, fp, pc}
 702              	.LVL67:
 703              	.L45:
 704              	.LCFI8:
 705              		.cfi_restore_state
 374:Middlewares/Third_Party/LibJPEG/source/jdcoefct.c ****     return JPEG_ROW_COMPLETED;
 706              		.loc 1 374 12 view .LVU237
 707 0112 0323     		movs	r3, #3
ARM GAS  /var/folders/mq/wg13gp494590nh4zyt09lxf00000gn/T//ccLgMMOG.s 			page 22


 708 0114 F9E7     		b	.L31
 709              		.cfi_endproc
 710              	.LFE153:
 712              		.section	.text.smoothing_ok,"ax",%progbits
 713              		.align	1
 714              		.syntax unified
 715              		.thumb
 716              		.thumb_func
 718              	smoothing_ok:
 719              	.LVL68:
 720              	.LFB154:
 377:Middlewares/Third_Party/LibJPEG/source/jdcoefct.c **** 
 378:Middlewares/Third_Party/LibJPEG/source/jdcoefct.c **** #endif /* D_MULTISCAN_FILES_SUPPORTED */
 379:Middlewares/Third_Party/LibJPEG/source/jdcoefct.c **** 
 380:Middlewares/Third_Party/LibJPEG/source/jdcoefct.c **** 
 381:Middlewares/Third_Party/LibJPEG/source/jdcoefct.c **** #ifdef BLOCK_SMOOTHING_SUPPORTED
 382:Middlewares/Third_Party/LibJPEG/source/jdcoefct.c **** 
 383:Middlewares/Third_Party/LibJPEG/source/jdcoefct.c **** /*
 384:Middlewares/Third_Party/LibJPEG/source/jdcoefct.c ****  * This code applies interblock smoothing as described by section K.8
 385:Middlewares/Third_Party/LibJPEG/source/jdcoefct.c ****  * of the JPEG standard: the first 5 AC coefficients are estimated from
 386:Middlewares/Third_Party/LibJPEG/source/jdcoefct.c ****  * the DC values of a DCT block and its 8 neighboring blocks.
 387:Middlewares/Third_Party/LibJPEG/source/jdcoefct.c ****  * We apply smoothing only for progressive JPEG decoding, and only if
 388:Middlewares/Third_Party/LibJPEG/source/jdcoefct.c ****  * the coefficients it can estimate are not yet known to full precision.
 389:Middlewares/Third_Party/LibJPEG/source/jdcoefct.c ****  */
 390:Middlewares/Third_Party/LibJPEG/source/jdcoefct.c **** 
 391:Middlewares/Third_Party/LibJPEG/source/jdcoefct.c **** /* Natural-order array positions of the first 5 zigzag-order coefficients */
 392:Middlewares/Third_Party/LibJPEG/source/jdcoefct.c **** #define Q01_POS  1
 393:Middlewares/Third_Party/LibJPEG/source/jdcoefct.c **** #define Q10_POS  8
 394:Middlewares/Third_Party/LibJPEG/source/jdcoefct.c **** #define Q20_POS  16
 395:Middlewares/Third_Party/LibJPEG/source/jdcoefct.c **** #define Q11_POS  9
 396:Middlewares/Third_Party/LibJPEG/source/jdcoefct.c **** #define Q02_POS  2
 397:Middlewares/Third_Party/LibJPEG/source/jdcoefct.c **** 
 398:Middlewares/Third_Party/LibJPEG/source/jdcoefct.c **** /*
 399:Middlewares/Third_Party/LibJPEG/source/jdcoefct.c ****  * Determine whether block smoothing is applicable and safe.
 400:Middlewares/Third_Party/LibJPEG/source/jdcoefct.c ****  * We also latch the current states of the coef_bits[] entries for the
 401:Middlewares/Third_Party/LibJPEG/source/jdcoefct.c ****  * AC coefficients; otherwise, if the input side of the decompressor
 402:Middlewares/Third_Party/LibJPEG/source/jdcoefct.c ****  * advances into a new scan, we might think the coefficients are known
 403:Middlewares/Third_Party/LibJPEG/source/jdcoefct.c ****  * more accurately than they really are.
 404:Middlewares/Third_Party/LibJPEG/source/jdcoefct.c ****  */
 405:Middlewares/Third_Party/LibJPEG/source/jdcoefct.c **** 
 406:Middlewares/Third_Party/LibJPEG/source/jdcoefct.c **** LOCAL(boolean)
 407:Middlewares/Third_Party/LibJPEG/source/jdcoefct.c **** smoothing_ok (j_decompress_ptr cinfo)
 408:Middlewares/Third_Party/LibJPEG/source/jdcoefct.c **** {
 721              		.loc 1 408 1 is_stmt 1 view -0
 722              		.cfi_startproc
 723              		@ args = 0, pretend = 0, frame = 0
 724              		@ frame_needed = 0, uses_anonymous_args = 0
 725              		.loc 1 408 1 is_stmt 0 view .LVU239
 726 0000 38B5     		push	{r3, r4, r5, lr}
 727              	.LCFI9:
 728              		.cfi_def_cfa_offset 16
 729              		.cfi_offset 3, -16
 730              		.cfi_offset 4, -12
 731              		.cfi_offset 5, -8
 732              		.cfi_offset 14, -4
 733 0002 0446     		mov	r4, r0
 409:Middlewares/Third_Party/LibJPEG/source/jdcoefct.c ****   my_coef_ptr coef = (my_coef_ptr) cinfo->coef;
ARM GAS  /var/folders/mq/wg13gp494590nh4zyt09lxf00000gn/T//ccLgMMOG.s 			page 23


 734              		.loc 1 409 3 is_stmt 1 view .LVU240
 735              		.loc 1 409 15 is_stmt 0 view .LVU241
 736 0004 D0F8C051 		ldr	r5, [r0, #448]
 737              	.LVL69:
 410:Middlewares/Third_Party/LibJPEG/source/jdcoefct.c ****   boolean smoothing_useful = FALSE;
 738              		.loc 1 410 3 is_stmt 1 view .LVU242
 411:Middlewares/Third_Party/LibJPEG/source/jdcoefct.c ****   int ci, coefi;
 739              		.loc 1 411 3 view .LVU243
 412:Middlewares/Third_Party/LibJPEG/source/jdcoefct.c ****   jpeg_component_info *compptr;
 740              		.loc 1 412 3 view .LVU244
 413:Middlewares/Third_Party/LibJPEG/source/jdcoefct.c ****   JQUANT_TBL * qtable;
 741              		.loc 1 413 3 view .LVU245
 414:Middlewares/Third_Party/LibJPEG/source/jdcoefct.c ****   int * coef_bits;
 742              		.loc 1 414 3 view .LVU246
 415:Middlewares/Third_Party/LibJPEG/source/jdcoefct.c ****   int * coef_bits_latch;
 743              		.loc 1 415 3 view .LVU247
 416:Middlewares/Third_Party/LibJPEG/source/jdcoefct.c **** 
 417:Middlewares/Third_Party/LibJPEG/source/jdcoefct.c ****   if (! cinfo->progressive_mode || cinfo->coef_bits == NULL)
 744              		.loc 1 417 3 view .LVU248
 745              		.loc 1 417 14 is_stmt 0 view .LVU249
 746 0008 D0F8E000 		ldr	r0, [r0, #224]
 747              	.LVL70:
 748              		.loc 1 417 6 view .LVU250
 749 000c 0028     		cmp	r0, #0
 750 000e 43D0     		beq	.L50
 751              		.loc 1 417 41 discriminator 1 view .LVU251
 752 0010 D4F8A030 		ldr	r3, [r4, #160]
 753              		.loc 1 417 33 discriminator 1 view .LVU252
 754 0014 002B     		cmp	r3, #0
 755 0016 3ED0     		beq	.L58
 418:Middlewares/Third_Party/LibJPEG/source/jdcoefct.c ****     return FALSE;
 419:Middlewares/Third_Party/LibJPEG/source/jdcoefct.c **** 
 420:Middlewares/Third_Party/LibJPEG/source/jdcoefct.c ****   /* Allocate latch area if not already done */
 421:Middlewares/Third_Party/LibJPEG/source/jdcoefct.c ****   if (coef->coef_bits_latch == NULL)
 756              		.loc 1 421 3 is_stmt 1 view .LVU253
 757              		.loc 1 421 11 is_stmt 0 view .LVU254
 758 0018 2B6F     		ldr	r3, [r5, #112]
 759              		.loc 1 421 6 view .LVU255
 760 001a 33B1     		cbz	r3, .L69
 761              	.L52:
 422:Middlewares/Third_Party/LibJPEG/source/jdcoefct.c ****     coef->coef_bits_latch = (int *)
 423:Middlewares/Third_Party/LibJPEG/source/jdcoefct.c ****       (*cinfo->mem->alloc_small) ((j_common_ptr) cinfo, JPOOL_IMAGE,
 424:Middlewares/Third_Party/LibJPEG/source/jdcoefct.c **** 				  cinfo->num_components *
 425:Middlewares/Third_Party/LibJPEG/source/jdcoefct.c **** 				  (SAVED_COEFS * SIZEOF(int)));
 426:Middlewares/Third_Party/LibJPEG/source/jdcoefct.c ****   coef_bits_latch = coef->coef_bits_latch;
 762              		.loc 1 426 3 is_stmt 1 view .LVU256
 763              		.loc 1 426 19 is_stmt 0 view .LVU257
 764 001c 296F     		ldr	r1, [r5, #112]
 765              	.LVL71:
 427:Middlewares/Third_Party/LibJPEG/source/jdcoefct.c **** 
 428:Middlewares/Third_Party/LibJPEG/source/jdcoefct.c ****   for (ci = 0, compptr = cinfo->comp_info; ci < cinfo->num_components;
 766              		.loc 1 428 3 is_stmt 1 view .LVU258
 767              		.loc 1 428 24 is_stmt 0 view .LVU259
 768 001e D4F8D850 		ldr	r5, [r4, #216]
 769              	.LVL72:
 770              		.loc 1 428 11 view .LVU260
 771 0022 4FF0000E 		mov	lr, #0
ARM GAS  /var/folders/mq/wg13gp494590nh4zyt09lxf00000gn/T//ccLgMMOG.s 			page 24


 410:Middlewares/Third_Party/LibJPEG/source/jdcoefct.c ****   int ci, coefi;
 772              		.loc 1 410 11 view .LVU261
 773 0026 7046     		mov	r0, lr
 774              		.loc 1 428 3 view .LVU262
 775 0028 19E0     		b	.L53
 776              	.LVL73:
 777              	.L69:
 422:Middlewares/Third_Party/LibJPEG/source/jdcoefct.c ****     coef->coef_bits_latch = (int *)
 778              		.loc 1 422 5 is_stmt 1 view .LVU263
 423:Middlewares/Third_Party/LibJPEG/source/jdcoefct.c **** 				  cinfo->num_components *
 779              		.loc 1 423 14 is_stmt 0 view .LVU264
 780 002a 6368     		ldr	r3, [r4, #4]
 424:Middlewares/Third_Party/LibJPEG/source/jdcoefct.c **** 				  (SAVED_COEFS * SIZEOF(int)));
 781              		.loc 1 424 12 view .LVU265
 782 002c 626A     		ldr	r2, [r4, #36]
 423:Middlewares/Third_Party/LibJPEG/source/jdcoefct.c **** 				  cinfo->num_components *
 783              		.loc 1 423 8 view .LVU266
 784 002e 02EB4202 		add	r2, r2, r2, lsl #1
 785 0032 1B68     		ldr	r3, [r3]
 786 0034 D200     		lsls	r2, r2, #3
 787 0036 0121     		movs	r1, #1
 788 0038 2046     		mov	r0, r4
 789 003a 9847     		blx	r3
 790              	.LVL74:
 422:Middlewares/Third_Party/LibJPEG/source/jdcoefct.c ****       (*cinfo->mem->alloc_small) ((j_common_ptr) cinfo, JPOOL_IMAGE,
 791              		.loc 1 422 27 view .LVU267
 792 003c 2867     		str	r0, [r5, #112]
 793 003e EDE7     		b	.L52
 794              	.LVL75:
 795              	.L55:
 429:Middlewares/Third_Party/LibJPEG/source/jdcoefct.c ****        ci++, compptr++) {
 430:Middlewares/Third_Party/LibJPEG/source/jdcoefct.c ****     /* All components' quantization values must already be latched. */
 431:Middlewares/Third_Party/LibJPEG/source/jdcoefct.c ****     if ((qtable = compptr->quant_table) == NULL)
 432:Middlewares/Third_Party/LibJPEG/source/jdcoefct.c ****       return FALSE;
 433:Middlewares/Third_Party/LibJPEG/source/jdcoefct.c ****     /* Verify DC & first 5 AC quantizers are nonzero to avoid zero-divide. */
 434:Middlewares/Third_Party/LibJPEG/source/jdcoefct.c ****     if (qtable->quantval[0] == 0 ||
 435:Middlewares/Third_Party/LibJPEG/source/jdcoefct.c **** 	qtable->quantval[Q01_POS] == 0 ||
 436:Middlewares/Third_Party/LibJPEG/source/jdcoefct.c **** 	qtable->quantval[Q10_POS] == 0 ||
 437:Middlewares/Third_Party/LibJPEG/source/jdcoefct.c **** 	qtable->quantval[Q20_POS] == 0 ||
 438:Middlewares/Third_Party/LibJPEG/source/jdcoefct.c **** 	qtable->quantval[Q11_POS] == 0 ||
 439:Middlewares/Third_Party/LibJPEG/source/jdcoefct.c **** 	qtable->quantval[Q02_POS] == 0)
 440:Middlewares/Third_Party/LibJPEG/source/jdcoefct.c ****       return FALSE;
 441:Middlewares/Third_Party/LibJPEG/source/jdcoefct.c ****     /* DC values must be at least partly known for all components. */
 442:Middlewares/Third_Party/LibJPEG/source/jdcoefct.c ****     coef_bits = cinfo->coef_bits[ci];
 443:Middlewares/Third_Party/LibJPEG/source/jdcoefct.c ****     if (coef_bits[0] < 0)
 444:Middlewares/Third_Party/LibJPEG/source/jdcoefct.c ****       return FALSE;
 445:Middlewares/Third_Party/LibJPEG/source/jdcoefct.c ****     /* Block smoothing is helpful if some AC coefficients remain inaccurate. */
 446:Middlewares/Third_Party/LibJPEG/source/jdcoefct.c ****     for (coefi = 1; coefi <= 5; coefi++) {
 796              		.loc 1 446 38 is_stmt 1 discriminator 2 view .LVU268
 797 0040 0133     		adds	r3, r3, #1
 798              	.LVL76:
 799              	.L54:
 800              		.loc 1 446 27 discriminator 1 view .LVU269
 801 0042 052B     		cmp	r3, #5
 802 0044 07DC     		bgt	.L70
 447:Middlewares/Third_Party/LibJPEG/source/jdcoefct.c ****       coef_bits_latch[coefi] = coef_bits[coefi];
 803              		.loc 1 447 7 view .LVU270
ARM GAS  /var/folders/mq/wg13gp494590nh4zyt09lxf00000gn/T//ccLgMMOG.s 			page 25


 804              		.loc 1 447 41 is_stmt 0 view .LVU271
 805 0046 5CF82320 		ldr	r2, [ip, r3, lsl #2]
 806              		.loc 1 447 30 view .LVU272
 807 004a 41F82320 		str	r2, [r1, r3, lsl #2]
 448:Middlewares/Third_Party/LibJPEG/source/jdcoefct.c ****       if (coef_bits[coefi] != 0)
 808              		.loc 1 448 7 is_stmt 1 view .LVU273
 809              		.loc 1 448 10 is_stmt 0 view .LVU274
 810 004e 002A     		cmp	r2, #0
 811 0050 F6D0     		beq	.L55
 449:Middlewares/Third_Party/LibJPEG/source/jdcoefct.c **** 	smoothing_useful = TRUE;
 812              		.loc 1 449 19 view .LVU275
 813 0052 0120     		movs	r0, #1
 814              	.LVL77:
 815              		.loc 1 449 19 view .LVU276
 816 0054 F4E7     		b	.L55
 817              	.LVL78:
 818              	.L70:
 450:Middlewares/Third_Party/LibJPEG/source/jdcoefct.c ****     }
 451:Middlewares/Third_Party/LibJPEG/source/jdcoefct.c ****     coef_bits_latch += SAVED_COEFS;
 819              		.loc 1 451 5 is_stmt 1 view .LVU277
 820              		.loc 1 451 21 is_stmt 0 view .LVU278
 821 0056 1831     		adds	r1, r1, #24
 822              	.LVL79:
 429:Middlewares/Third_Party/LibJPEG/source/jdcoefct.c ****     /* All components' quantization values must already be latched. */
 823              		.loc 1 429 12 is_stmt 1 view .LVU279
 429:Middlewares/Third_Party/LibJPEG/source/jdcoefct.c ****     /* All components' quantization values must already be latched. */
 824              		.loc 1 429 10 is_stmt 0 view .LVU280
 825 0058 0EF1010E 		add	lr, lr, #1
 826              	.LVL80:
 429:Middlewares/Third_Party/LibJPEG/source/jdcoefct.c ****     /* All components' quantization values must already be latched. */
 827              		.loc 1 429 21 view .LVU281
 828 005c 5835     		adds	r5, r5, #88
 829              	.LVL81:
 830              	.L53:
 428:Middlewares/Third_Party/LibJPEG/source/jdcoefct.c ****        ci++, compptr++) {
 831              		.loc 1 428 47 is_stmt 1 discriminator 1 view .LVU282
 428:Middlewares/Third_Party/LibJPEG/source/jdcoefct.c ****        ci++, compptr++) {
 832              		.loc 1 428 54 is_stmt 0 discriminator 1 view .LVU283
 833 005e 636A     		ldr	r3, [r4, #36]
 428:Middlewares/Third_Party/LibJPEG/source/jdcoefct.c ****        ci++, compptr++) {
 834              		.loc 1 428 47 discriminator 1 view .LVU284
 835 0060 7345     		cmp	r3, lr
 836 0062 19DD     		ble	.L50
 431:Middlewares/Third_Party/LibJPEG/source/jdcoefct.c ****       return FALSE;
 837              		.loc 1 431 5 is_stmt 1 view .LVU285
 431:Middlewares/Third_Party/LibJPEG/source/jdcoefct.c ****       return FALSE;
 838              		.loc 1 431 17 is_stmt 0 view .LVU286
 839 0064 2B6D     		ldr	r3, [r5, #80]
 840              	.LVL82:
 431:Middlewares/Third_Party/LibJPEG/source/jdcoefct.c ****       return FALSE;
 841              		.loc 1 431 8 view .LVU287
 842 0066 C3B1     		cbz	r3, .L59
 434:Middlewares/Third_Party/LibJPEG/source/jdcoefct.c **** 	qtable->quantval[Q01_POS] == 0 ||
 843              		.loc 1 434 5 is_stmt 1 view .LVU288
 434:Middlewares/Third_Party/LibJPEG/source/jdcoefct.c **** 	qtable->quantval[Q01_POS] == 0 ||
 844              		.loc 1 434 25 is_stmt 0 view .LVU289
 845 0068 1A88     		ldrh	r2, [r3]
ARM GAS  /var/folders/mq/wg13gp494590nh4zyt09lxf00000gn/T//ccLgMMOG.s 			page 26


 434:Middlewares/Third_Party/LibJPEG/source/jdcoefct.c **** 	qtable->quantval[Q01_POS] == 0 ||
 846              		.loc 1 434 8 view .LVU290
 847 006a C2B1     		cbz	r2, .L60
 435:Middlewares/Third_Party/LibJPEG/source/jdcoefct.c **** 	qtable->quantval[Q10_POS] == 0 ||
 848              		.loc 1 435 18 view .LVU291
 849 006c 5A88     		ldrh	r2, [r3, #2]
 434:Middlewares/Third_Party/LibJPEG/source/jdcoefct.c **** 	qtable->quantval[Q01_POS] == 0 ||
 850              		.loc 1 434 34 discriminator 1 view .LVU292
 851 006e C2B1     		cbz	r2, .L61
 436:Middlewares/Third_Party/LibJPEG/source/jdcoefct.c **** 	qtable->quantval[Q20_POS] == 0 ||
 852              		.loc 1 436 18 view .LVU293
 853 0070 1A8A     		ldrh	r2, [r3, #16]
 435:Middlewares/Third_Party/LibJPEG/source/jdcoefct.c **** 	qtable->quantval[Q10_POS] == 0 ||
 854              		.loc 1 435 33 view .LVU294
 855 0072 C2B1     		cbz	r2, .L62
 437:Middlewares/Third_Party/LibJPEG/source/jdcoefct.c **** 	qtable->quantval[Q11_POS] == 0 ||
 856              		.loc 1 437 18 view .LVU295
 857 0074 1A8C     		ldrh	r2, [r3, #32]
 436:Middlewares/Third_Party/LibJPEG/source/jdcoefct.c **** 	qtable->quantval[Q20_POS] == 0 ||
 858              		.loc 1 436 33 view .LVU296
 859 0076 C2B1     		cbz	r2, .L63
 438:Middlewares/Third_Party/LibJPEG/source/jdcoefct.c **** 	qtable->quantval[Q02_POS] == 0)
 860              		.loc 1 438 18 view .LVU297
 861 0078 5A8A     		ldrh	r2, [r3, #18]
 437:Middlewares/Third_Party/LibJPEG/source/jdcoefct.c **** 	qtable->quantval[Q11_POS] == 0 ||
 862              		.loc 1 437 33 view .LVU298
 863 007a C2B1     		cbz	r2, .L64
 439:Middlewares/Third_Party/LibJPEG/source/jdcoefct.c ****       return FALSE;
 864              		.loc 1 439 18 view .LVU299
 865 007c 9B88     		ldrh	r3, [r3, #4]
 866              	.LVL83:
 438:Middlewares/Third_Party/LibJPEG/source/jdcoefct.c **** 	qtable->quantval[Q02_POS] == 0)
 867              		.loc 1 438 33 view .LVU300
 868 007e C3B1     		cbz	r3, .L65
 442:Middlewares/Third_Party/LibJPEG/source/jdcoefct.c ****     if (coef_bits[0] < 0)
 869              		.loc 1 442 5 is_stmt 1 view .LVU301
 442:Middlewares/Third_Party/LibJPEG/source/jdcoefct.c ****     if (coef_bits[0] < 0)
 870              		.loc 1 442 22 is_stmt 0 view .LVU302
 871 0080 D4F8A020 		ldr	r2, [r4, #160]
 442:Middlewares/Third_Party/LibJPEG/source/jdcoefct.c ****     if (coef_bits[0] < 0)
 872              		.loc 1 442 33 view .LVU303
 873 0084 4FEA0E23 		lsl	r3, lr, #8
 442:Middlewares/Third_Party/LibJPEG/source/jdcoefct.c ****     if (coef_bits[0] < 0)
 874              		.loc 1 442 15 view .LVU304
 875 0088 02EB0E2C 		add	ip, r2, lr, lsl #8
 876              	.LVL84:
 443:Middlewares/Third_Party/LibJPEG/source/jdcoefct.c ****       return FALSE;
 877              		.loc 1 443 5 is_stmt 1 view .LVU305
 443:Middlewares/Third_Party/LibJPEG/source/jdcoefct.c ****       return FALSE;
 878              		.loc 1 443 18 is_stmt 0 view .LVU306
 879 008c D358     		ldr	r3, [r2, r3]
 443:Middlewares/Third_Party/LibJPEG/source/jdcoefct.c ****       return FALSE;
 880              		.loc 1 443 8 view .LVU307
 881 008e 002B     		cmp	r3, #0
 882 0090 11DB     		blt	.L66
 446:Middlewares/Third_Party/LibJPEG/source/jdcoefct.c ****       coef_bits_latch[coefi] = coef_bits[coefi];
 883              		.loc 1 446 16 view .LVU308
ARM GAS  /var/folders/mq/wg13gp494590nh4zyt09lxf00000gn/T//ccLgMMOG.s 			page 27


 884 0092 0123     		movs	r3, #1
 885 0094 D5E7     		b	.L54
 886              	.LVL85:
 887              	.L58:
 418:Middlewares/Third_Party/LibJPEG/source/jdcoefct.c **** 
 888              		.loc 1 418 12 view .LVU309
 889 0096 0020     		movs	r0, #0
 890              	.LVL86:
 891              	.L50:
 452:Middlewares/Third_Party/LibJPEG/source/jdcoefct.c ****   }
 453:Middlewares/Third_Party/LibJPEG/source/jdcoefct.c **** 
 454:Middlewares/Third_Party/LibJPEG/source/jdcoefct.c ****   return smoothing_useful;
 455:Middlewares/Third_Party/LibJPEG/source/jdcoefct.c **** }
 892              		.loc 1 455 1 view .LVU310
 893 0098 38BD     		pop	{r3, r4, r5, pc}
 894              	.LVL87:
 895              	.L59:
 432:Middlewares/Third_Party/LibJPEG/source/jdcoefct.c ****     /* Verify DC & first 5 AC quantizers are nonzero to avoid zero-divide. */
 896              		.loc 1 432 14 view .LVU311
 897 009a 0020     		movs	r0, #0
 898              	.LVL88:
 432:Middlewares/Third_Party/LibJPEG/source/jdcoefct.c ****     /* Verify DC & first 5 AC quantizers are nonzero to avoid zero-divide. */
 899              		.loc 1 432 14 view .LVU312
 900 009c FCE7     		b	.L50
 901              	.LVL89:
 902              	.L60:
 440:Middlewares/Third_Party/LibJPEG/source/jdcoefct.c ****     /* DC values must be at least partly known for all components. */
 903              		.loc 1 440 14 view .LVU313
 904 009e 0020     		movs	r0, #0
 905              	.LVL90:
 440:Middlewares/Third_Party/LibJPEG/source/jdcoefct.c ****     /* DC values must be at least partly known for all components. */
 906              		.loc 1 440 14 view .LVU314
 907 00a0 FAE7     		b	.L50
 908              	.LVL91:
 909              	.L61:
 440:Middlewares/Third_Party/LibJPEG/source/jdcoefct.c ****     /* DC values must be at least partly known for all components. */
 910              		.loc 1 440 14 view .LVU315
 911 00a2 0020     		movs	r0, #0
 912              	.LVL92:
 440:Middlewares/Third_Party/LibJPEG/source/jdcoefct.c ****     /* DC values must be at least partly known for all components. */
 913              		.loc 1 440 14 view .LVU316
 914 00a4 F8E7     		b	.L50
 915              	.LVL93:
 916              	.L62:
 440:Middlewares/Third_Party/LibJPEG/source/jdcoefct.c ****     /* DC values must be at least partly known for all components. */
 917              		.loc 1 440 14 view .LVU317
 918 00a6 0020     		movs	r0, #0
 919              	.LVL94:
 440:Middlewares/Third_Party/LibJPEG/source/jdcoefct.c ****     /* DC values must be at least partly known for all components. */
 920              		.loc 1 440 14 view .LVU318
 921 00a8 F6E7     		b	.L50
 922              	.LVL95:
 923              	.L63:
 440:Middlewares/Third_Party/LibJPEG/source/jdcoefct.c ****     /* DC values must be at least partly known for all components. */
 924              		.loc 1 440 14 view .LVU319
 925 00aa 0020     		movs	r0, #0
 926              	.LVL96:
ARM GAS  /var/folders/mq/wg13gp494590nh4zyt09lxf00000gn/T//ccLgMMOG.s 			page 28


 440:Middlewares/Third_Party/LibJPEG/source/jdcoefct.c ****     /* DC values must be at least partly known for all components. */
 927              		.loc 1 440 14 view .LVU320
 928 00ac F4E7     		b	.L50
 929              	.LVL97:
 930              	.L64:
 440:Middlewares/Third_Party/LibJPEG/source/jdcoefct.c ****     /* DC values must be at least partly known for all components. */
 931              		.loc 1 440 14 view .LVU321
 932 00ae 0020     		movs	r0, #0
 933              	.LVL98:
 440:Middlewares/Third_Party/LibJPEG/source/jdcoefct.c ****     /* DC values must be at least partly known for all components. */
 934              		.loc 1 440 14 view .LVU322
 935 00b0 F2E7     		b	.L50
 936              	.LVL99:
 937              	.L65:
 440:Middlewares/Third_Party/LibJPEG/source/jdcoefct.c ****     /* DC values must be at least partly known for all components. */
 938              		.loc 1 440 14 view .LVU323
 939 00b2 0020     		movs	r0, #0
 940              	.LVL100:
 440:Middlewares/Third_Party/LibJPEG/source/jdcoefct.c ****     /* DC values must be at least partly known for all components. */
 941              		.loc 1 440 14 view .LVU324
 942 00b4 F0E7     		b	.L50
 943              	.LVL101:
 944              	.L66:
 444:Middlewares/Third_Party/LibJPEG/source/jdcoefct.c ****     /* Block smoothing is helpful if some AC coefficients remain inaccurate. */
 945              		.loc 1 444 14 view .LVU325
 946 00b6 0020     		movs	r0, #0
 947              	.LVL102:
 444:Middlewares/Third_Party/LibJPEG/source/jdcoefct.c ****     /* Block smoothing is helpful if some AC coefficients remain inaccurate. */
 948              		.loc 1 444 14 view .LVU326
 949 00b8 EEE7     		b	.L50
 950              		.cfi_endproc
 951              	.LFE154:
 953              		.section	.text.start_output_pass,"ax",%progbits
 954              		.align	1
 955              		.syntax unified
 956              		.thumb
 957              		.thumb_func
 959              	start_output_pass:
 960              	.LVL103:
 961              	.LFB149:
 121:Middlewares/Third_Party/LibJPEG/source/jdcoefct.c **** #ifdef BLOCK_SMOOTHING_SUPPORTED
 962              		.loc 1 121 1 is_stmt 1 view -0
 963              		.cfi_startproc
 964              		@ args = 0, pretend = 0, frame = 0
 965              		@ frame_needed = 0, uses_anonymous_args = 0
 121:Middlewares/Third_Party/LibJPEG/source/jdcoefct.c **** #ifdef BLOCK_SMOOTHING_SUPPORTED
 966              		.loc 1 121 1 is_stmt 0 view .LVU328
 967 0000 38B5     		push	{r3, r4, r5, lr}
 968              	.LCFI10:
 969              		.cfi_def_cfa_offset 16
 970              		.cfi_offset 3, -16
 971              		.cfi_offset 4, -12
 972              		.cfi_offset 5, -8
 973              		.cfi_offset 14, -4
 974 0002 0446     		mov	r4, r0
 123:Middlewares/Third_Party/LibJPEG/source/jdcoefct.c **** 
 975              		.loc 1 123 3 is_stmt 1 view .LVU329
ARM GAS  /var/folders/mq/wg13gp494590nh4zyt09lxf00000gn/T//ccLgMMOG.s 			page 29


 123:Middlewares/Third_Party/LibJPEG/source/jdcoefct.c **** 
 976              		.loc 1 123 15 is_stmt 0 view .LVU330
 977 0004 D0F8C051 		ldr	r5, [r0, #448]
 978              	.LVL104:
 126:Middlewares/Third_Party/LibJPEG/source/jdcoefct.c ****     if (cinfo->do_block_smoothing && smoothing_ok(cinfo))
 979              		.loc 1 126 3 is_stmt 1 view .LVU331
 126:Middlewares/Third_Party/LibJPEG/source/jdcoefct.c ****     if (cinfo->do_block_smoothing && smoothing_ok(cinfo))
 980              		.loc 1 126 16 is_stmt 0 view .LVU332
 981 0008 2B69     		ldr	r3, [r5, #16]
 126:Middlewares/Third_Party/LibJPEG/source/jdcoefct.c ****     if (cinfo->do_block_smoothing && smoothing_ok(cinfo))
 982              		.loc 1 126 6 view .LVU333
 983 000a 1BB1     		cbz	r3, .L72
 127:Middlewares/Third_Party/LibJPEG/source/jdcoefct.c ****       coef->pub.decompress_data = decompress_smooth_data;
 984              		.loc 1 127 5 is_stmt 1 view .LVU334
 127:Middlewares/Third_Party/LibJPEG/source/jdcoefct.c ****       coef->pub.decompress_data = decompress_smooth_data;
 985              		.loc 1 127 14 is_stmt 0 view .LVU335
 986 000c 036D     		ldr	r3, [r0, #80]
 127:Middlewares/Third_Party/LibJPEG/source/jdcoefct.c ****       coef->pub.decompress_data = decompress_smooth_data;
 987              		.loc 1 127 8 view .LVU336
 988 000e 2BB9     		cbnz	r3, .L75
 989              	.LVL105:
 990              	.L73:
 130:Middlewares/Third_Party/LibJPEG/source/jdcoefct.c ****   }
 991              		.loc 1 130 7 is_stmt 1 view .LVU337
 130:Middlewares/Third_Party/LibJPEG/source/jdcoefct.c ****   }
 992              		.loc 1 130 33 is_stmt 0 view .LVU338
 993 0010 064B     		ldr	r3, .L76
 994 0012 EB60     		str	r3, [r5, #12]
 995              	.L72:
 133:Middlewares/Third_Party/LibJPEG/source/jdcoefct.c **** }
 996              		.loc 1 133 3 is_stmt 1 view .LVU339
 133:Middlewares/Third_Party/LibJPEG/source/jdcoefct.c **** }
 997              		.loc 1 133 26 is_stmt 0 view .LVU340
 998 0014 0023     		movs	r3, #0
 999 0016 C4F89C30 		str	r3, [r4, #156]
 134:Middlewares/Third_Party/LibJPEG/source/jdcoefct.c **** 
 1000              		.loc 1 134 1 view .LVU341
 1001 001a 38BD     		pop	{r3, r4, r5, pc}
 1002              	.LVL106:
 1003              	.L75:
 127:Middlewares/Third_Party/LibJPEG/source/jdcoefct.c ****       coef->pub.decompress_data = decompress_smooth_data;
 1004              		.loc 1 127 38 discriminator 1 view .LVU342
 1005 001c FFF7FEFF 		bl	smoothing_ok
 1006              	.LVL107:
 127:Middlewares/Third_Party/LibJPEG/source/jdcoefct.c ****       coef->pub.decompress_data = decompress_smooth_data;
 1007              		.loc 1 127 35 discriminator 1 view .LVU343
 1008 0020 0028     		cmp	r0, #0
 1009 0022 F5D0     		beq	.L73
 128:Middlewares/Third_Party/LibJPEG/source/jdcoefct.c ****     else
 1010              		.loc 1 128 7 is_stmt 1 view .LVU344
 128:Middlewares/Third_Party/LibJPEG/source/jdcoefct.c ****     else
 1011              		.loc 1 128 33 is_stmt 0 view .LVU345
 1012 0024 024B     		ldr	r3, .L76+4
 1013 0026 EB60     		str	r3, [r5, #12]
 1014 0028 F4E7     		b	.L72
 1015              	.L77:
 1016 002a 00BF     		.align	2
ARM GAS  /var/folders/mq/wg13gp494590nh4zyt09lxf00000gn/T//ccLgMMOG.s 			page 30


 1017              	.L76:
 1018 002c 00000000 		.word	decompress_data
 1019 0030 00000000 		.word	decompress_smooth_data
 1020              		.cfi_endproc
 1021              	.LFE149:
 1023              		.section	.text.decompress_onepass,"ax",%progbits
 1024              		.align	1
 1025              		.syntax unified
 1026              		.thumb
 1027              		.thumb_func
 1029              	decompress_onepass:
 1030              	.LVL108:
 1031              	.LFB150:
 149:Middlewares/Third_Party/LibJPEG/source/jdcoefct.c ****   my_coef_ptr coef = (my_coef_ptr) cinfo->coef;
 1032              		.loc 1 149 1 is_stmt 1 view -0
 1033              		.cfi_startproc
 1034              		@ args = 0, pretend = 0, frame = 40
 1035              		@ frame_needed = 0, uses_anonymous_args = 0
 149:Middlewares/Third_Party/LibJPEG/source/jdcoefct.c ****   my_coef_ptr coef = (my_coef_ptr) cinfo->coef;
 1036              		.loc 1 149 1 is_stmt 0 view .LVU347
 1037 0000 2DE9F04F 		push	{r4, r5, r6, r7, r8, r9, r10, fp, lr}
 1038              	.LCFI11:
 1039              		.cfi_def_cfa_offset 36
 1040              		.cfi_offset 4, -36
 1041              		.cfi_offset 5, -32
 1042              		.cfi_offset 6, -28
 1043              		.cfi_offset 7, -24
 1044              		.cfi_offset 8, -20
 1045              		.cfi_offset 9, -16
 1046              		.cfi_offset 10, -12
 1047              		.cfi_offset 11, -8
 1048              		.cfi_offset 14, -4
 1049 0004 8DB0     		sub	sp, sp, #52
 1050              	.LCFI12:
 1051              		.cfi_def_cfa_offset 88
 1052 0006 0B91     		str	r1, [sp, #44]
 150:Middlewares/Third_Party/LibJPEG/source/jdcoefct.c ****   JDIMENSION MCU_col_num;	/* index of current MCU within row */
 1053              		.loc 1 150 3 is_stmt 1 view .LVU348
 150:Middlewares/Third_Party/LibJPEG/source/jdcoefct.c ****   JDIMENSION MCU_col_num;	/* index of current MCU within row */
 1054              		.loc 1 150 15 is_stmt 0 view .LVU349
 1055 0008 D0F8C0B1 		ldr	fp, [r0, #448]
 1056              	.LVL109:
 151:Middlewares/Third_Party/LibJPEG/source/jdcoefct.c ****   JDIMENSION last_MCU_col = cinfo->MCUs_per_row - 1;
 1057              		.loc 1 151 3 is_stmt 1 view .LVU350
 152:Middlewares/Third_Party/LibJPEG/source/jdcoefct.c ****   JDIMENSION last_iMCU_row = cinfo->total_iMCU_rows - 1;
 1058              		.loc 1 152 3 view .LVU351
 152:Middlewares/Third_Party/LibJPEG/source/jdcoefct.c ****   JDIMENSION last_iMCU_row = cinfo->total_iMCU_rows - 1;
 1059              		.loc 1 152 34 is_stmt 0 view .LVU352
 1060 000c D0F86431 		ldr	r3, [r0, #356]
 152:Middlewares/Third_Party/LibJPEG/source/jdcoefct.c ****   JDIMENSION last_iMCU_row = cinfo->total_iMCU_rows - 1;
 1061              		.loc 1 152 14 view .LVU353
 1062 0010 013B     		subs	r3, r3, #1
 1063 0012 0A93     		str	r3, [sp, #40]
 1064              	.LVL110:
 153:Middlewares/Third_Party/LibJPEG/source/jdcoefct.c ****   int blkn, ci, xindex, yindex, yoffset, useful_width;
 1065              		.loc 1 153 3 is_stmt 1 view .LVU354
 153:Middlewares/Third_Party/LibJPEG/source/jdcoefct.c ****   int blkn, ci, xindex, yindex, yoffset, useful_width;
ARM GAS  /var/folders/mq/wg13gp494590nh4zyt09lxf00000gn/T//ccLgMMOG.s 			page 31


 1066              		.loc 1 153 35 is_stmt 0 view .LVU355
 1067 0014 D0F84831 		ldr	r3, [r0, #328]
 1068              	.LVL111:
 153:Middlewares/Third_Party/LibJPEG/source/jdcoefct.c ****   int blkn, ci, xindex, yindex, yoffset, useful_width;
 1069              		.loc 1 153 14 view .LVU356
 1070 0018 013B     		subs	r3, r3, #1
 1071 001a 0493     		str	r3, [sp, #16]
 1072              	.LVL112:
 154:Middlewares/Third_Party/LibJPEG/source/jdcoefct.c ****   JSAMPARRAY output_ptr;
 1073              		.loc 1 154 3 is_stmt 1 view .LVU357
 155:Middlewares/Third_Party/LibJPEG/source/jdcoefct.c ****   JDIMENSION start_col, output_col;
 1074              		.loc 1 155 3 view .LVU358
 156:Middlewares/Third_Party/LibJPEG/source/jdcoefct.c ****   jpeg_component_info *compptr;
 1075              		.loc 1 156 3 view .LVU359
 157:Middlewares/Third_Party/LibJPEG/source/jdcoefct.c ****   inverse_DCT_method_ptr inverse_DCT;
 1076              		.loc 1 157 3 view .LVU360
 158:Middlewares/Third_Party/LibJPEG/source/jdcoefct.c **** 
 1077              		.loc 1 158 3 view .LVU361
 161:Middlewares/Third_Party/LibJPEG/source/jdcoefct.c ****        yoffset++) {
 1078              		.loc 1 161 3 view .LVU362
 161:Middlewares/Third_Party/LibJPEG/source/jdcoefct.c ****        yoffset++) {
 1079              		.loc 1 161 16 is_stmt 0 view .LVU363
 1080 001c DBF81830 		ldr	r3, [fp, #24]
 1081              	.LVL113:
 161:Middlewares/Third_Party/LibJPEG/source/jdcoefct.c ****        yoffset++) {
 1082              		.loc 1 161 16 view .LVU364
 1083 0020 0693     		str	r3, [sp, #24]
 1084              	.LVL114:
 161:Middlewares/Third_Party/LibJPEG/source/jdcoefct.c ****        yoffset++) {
 1085              		.loc 1 161 16 view .LVU365
 1086 0022 DA46     		mov	r10, fp
 1087 0024 8346     		mov	fp, r0
 1088              	.LVL115:
 1089              	.L79:
 161:Middlewares/Third_Party/LibJPEG/source/jdcoefct.c ****        yoffset++) {
 1090              		.loc 1 161 49 is_stmt 1 discriminator 1 view .LVU366
 161:Middlewares/Third_Party/LibJPEG/source/jdcoefct.c ****        yoffset++) {
 1091              		.loc 1 161 55 is_stmt 0 discriminator 1 view .LVU367
 1092 0026 DAF81C30 		ldr	r3, [r10, #28]
 161:Middlewares/Third_Party/LibJPEG/source/jdcoefct.c ****        yoffset++) {
 1093              		.loc 1 161 49 discriminator 1 view .LVU368
 1094 002a 069A     		ldr	r2, [sp, #24]
 1095 002c 9342     		cmp	r3, r2
 1096 002e 40F39280 		ble	.L102
 163:Middlewares/Third_Party/LibJPEG/source/jdcoefct.c **** 	 MCU_col_num++) {
 1097              		.loc 1 163 5 is_stmt 1 view .LVU369
 163:Middlewares/Third_Party/LibJPEG/source/jdcoefct.c **** 	 MCU_col_num++) {
 1098              		.loc 1 163 22 is_stmt 0 view .LVU370
 1099 0032 DAF81440 		ldr	r4, [r10, #20]
 1100              	.LVL116:
 163:Middlewares/Third_Party/LibJPEG/source/jdcoefct.c **** 	 MCU_col_num++) {
 1101              		.loc 1 163 5 view .LVU371
 1102 0036 73E0     		b	.L80
 1103              	.L106:
 167:Middlewares/Third_Party/LibJPEG/source/jdcoefct.c **** 		 (size_t) (cinfo->blocks_in_MCU * SIZEOF(JBLOCK)));
 1104              		.loc 1 167 2 is_stmt 1 view .LVU372
 1105 0038 DBF86C21 		ldr	r2, [fp, #364]
ARM GAS  /var/folders/mq/wg13gp494590nh4zyt09lxf00000gn/T//ccLgMMOG.s 			page 32


 1106 003c D201     		lsls	r2, r2, #7
 1107 003e 0021     		movs	r1, #0
 1108 0040 DAF82000 		ldr	r0, [r10, #32]
 1109 0044 FFF7FEFF 		bl	memset
 1110              	.LVL117:
 1111 0048 71E0     		b	.L81
 1112              	.L107:
 171:Middlewares/Third_Party/LibJPEG/source/jdcoefct.c **** 	coef->MCU_ctr = MCU_col_num;
 1113              		.loc 1 171 2 view .LVU373
 171:Middlewares/Third_Party/LibJPEG/source/jdcoefct.c **** 	coef->MCU_ctr = MCU_col_num;
 1114              		.loc 1 171 24 is_stmt 0 view .LVU374
 1115 004a 069A     		ldr	r2, [sp, #24]
 1116 004c CAF81820 		str	r2, [r10, #24]
 172:Middlewares/Third_Party/LibJPEG/source/jdcoefct.c **** 	return JPEG_SUSPENDED;
 1117              		.loc 1 172 2 is_stmt 1 view .LVU375
 172:Middlewares/Third_Party/LibJPEG/source/jdcoefct.c **** 	return JPEG_SUSPENDED;
 1118              		.loc 1 172 16 is_stmt 0 view .LVU376
 1119 0050 CAF81440 		str	r4, [r10, #20]
 173:Middlewares/Third_Party/LibJPEG/source/jdcoefct.c ****       }
 1120              		.loc 1 173 2 is_stmt 1 view .LVU377
 1121              	.LVL118:
 1122              	.L78:
 222:Middlewares/Third_Party/LibJPEG/source/jdcoefct.c **** 
 1123              		.loc 1 222 1 is_stmt 0 view .LVU378
 1124 0054 1846     		mov	r0, r3
 1125 0056 0DB0     		add	sp, sp, #52
 1126              	.LCFI13:
 1127              		.cfi_remember_state
 1128              		.cfi_def_cfa_offset 36
 1129              		@ sp needed
 1130 0058 BDE8F08F 		pop	{r4, r5, r6, r7, r8, r9, r10, fp, pc}
 1131              	.LVL119:
 1132              	.L84:
 1133              	.LCFI14:
 1134              		.cfi_restore_state
 188:Middlewares/Third_Party/LibJPEG/source/jdcoefct.c **** 	useful_width = (MCU_col_num < last_MCU_col) ? compptr->MCU_width
 1135              		.loc 1 188 2 is_stmt 1 view .LVU379
 188:Middlewares/Third_Party/LibJPEG/source/jdcoefct.c **** 	useful_width = (MCU_col_num < last_MCU_col) ? compptr->MCU_width
 1136              		.loc 1 188 21 is_stmt 0 view .LVU380
 1137 005c DBF8D431 		ldr	r3, [fp, #468]
 188:Middlewares/Third_Party/LibJPEG/source/jdcoefct.c **** 	useful_width = (MCU_col_num < last_MCU_col) ? compptr->MCU_width
 1138              		.loc 1 188 48 view .LVU381
 1139 0060 6A68     		ldr	r2, [r5, #4]
 188:Middlewares/Third_Party/LibJPEG/source/jdcoefct.c **** 	useful_width = (MCU_col_num < last_MCU_col) ? compptr->MCU_width
 1140              		.loc 1 188 14 view .LVU382
 1141 0062 03EB8203 		add	r3, r3, r2, lsl #2
 1142 0066 5B68     		ldr	r3, [r3, #4]
 1143 0068 0393     		str	r3, [sp, #12]
 1144              	.LVL120:
 189:Middlewares/Third_Party/LibJPEG/source/jdcoefct.c **** 						    : compptr->last_col_width;
 1145              		.loc 1 189 2 is_stmt 1 view .LVU383
 190:Middlewares/Third_Party/LibJPEG/source/jdcoefct.c **** 	output_ptr = output_buf[compptr->component_index] +
 1146              		.loc 1 190 11 is_stmt 0 view .LVU384
 1147 006a 0A9B     		ldr	r3, [sp, #40]
 1148              	.LVL121:
 190:Middlewares/Third_Party/LibJPEG/source/jdcoefct.c **** 	output_ptr = output_buf[compptr->component_index] +
 1149              		.loc 1 190 11 view .LVU385
ARM GAS  /var/folders/mq/wg13gp494590nh4zyt09lxf00000gn/T//ccLgMMOG.s 			page 33


 1150 006c 9C42     		cmp	r4, r3
 1151 006e 12D2     		bcs	.L86
 190:Middlewares/Third_Party/LibJPEG/source/jdcoefct.c **** 	output_ptr = output_buf[compptr->component_index] +
 1152              		.loc 1 190 11 discriminator 1 view .LVU386
 1153 0070 D5F83880 		ldr	r8, [r5, #56]
 1154              	.L87:
 1155              	.LVL122:
 191:Middlewares/Third_Party/LibJPEG/source/jdcoefct.c **** 	  yoffset * compptr->DCT_v_scaled_size;
 1156              		.loc 1 191 2 is_stmt 1 view .LVU387
 191:Middlewares/Third_Party/LibJPEG/source/jdcoefct.c **** 	  yoffset * compptr->DCT_v_scaled_size;
 1157              		.loc 1 191 25 is_stmt 0 view .LVU388
 1158 0074 0B9B     		ldr	r3, [sp, #44]
 1159 0076 53F82270 		ldr	r7, [r3, r2, lsl #2]
 192:Middlewares/Third_Party/LibJPEG/source/jdcoefct.c **** 	start_col = MCU_col_num * compptr->MCU_sample_width;
 1160              		.loc 1 192 21 view .LVU389
 1161 007a AB6A     		ldr	r3, [r5, #40]
 192:Middlewares/Third_Party/LibJPEG/source/jdcoefct.c **** 	start_col = MCU_col_num * compptr->MCU_sample_width;
 1162              		.loc 1 192 12 view .LVU390
 1163 007c 069A     		ldr	r2, [sp, #24]
 1164              	.LVL123:
 192:Middlewares/Third_Party/LibJPEG/source/jdcoefct.c **** 	start_col = MCU_col_num * compptr->MCU_sample_width;
 1165              		.loc 1 192 12 view .LVU391
 1166 007e 02FB03F3 		mul	r3, r2, r3
 191:Middlewares/Third_Party/LibJPEG/source/jdcoefct.c **** 	  yoffset * compptr->DCT_v_scaled_size;
 1167              		.loc 1 191 13 view .LVU392
 1168 0082 07EB8307 		add	r7, r7, r3, lsl #2
 1169              	.LVL124:
 193:Middlewares/Third_Party/LibJPEG/source/jdcoefct.c **** 	for (yindex = 0; yindex < compptr->MCU_height; yindex++) {
 1170              		.loc 1 193 2 is_stmt 1 view .LVU393
 193:Middlewares/Third_Party/LibJPEG/source/jdcoefct.c **** 	for (yindex = 0; yindex < compptr->MCU_height; yindex++) {
 1171              		.loc 1 193 35 is_stmt 0 view .LVU394
 1172 0086 6B6C     		ldr	r3, [r5, #68]
 193:Middlewares/Third_Party/LibJPEG/source/jdcoefct.c **** 	for (yindex = 0; yindex < compptr->MCU_height; yindex++) {
 1173              		.loc 1 193 12 view .LVU395
 1174 0088 04FB03F3 		mul	r3, r4, r3
 1175 008c 0793     		str	r3, [sp, #28]
 1176              	.LVL125:
 194:Middlewares/Third_Party/LibJPEG/source/jdcoefct.c **** 	  if (cinfo->input_iMCU_row < last_iMCU_row ||
 1177              		.loc 1 194 2 is_stmt 1 view .LVU396
 194:Middlewares/Third_Party/LibJPEG/source/jdcoefct.c **** 	  if (cinfo->input_iMCU_row < last_iMCU_row ||
 1178              		.loc 1 194 14 is_stmt 0 view .LVU397
 1179 008e 0023     		movs	r3, #0
 1180              	.LVL126:
 194:Middlewares/Third_Party/LibJPEG/source/jdcoefct.c **** 	  if (cinfo->input_iMCU_row < last_iMCU_row ||
 1181              		.loc 1 194 14 view .LVU398
 1182 0090 0894     		str	r4, [sp, #32]
 1183 0092 0996     		str	r6, [sp, #36]
 194:Middlewares/Third_Party/LibJPEG/source/jdcoefct.c **** 	  if (cinfo->input_iMCU_row < last_iMCU_row ||
 1184              		.loc 1 194 2 view .LVU399
 1185 0094 1AE0     		b	.L88
 1186              	.LVL127:
 1187              	.L86:
 190:Middlewares/Third_Party/LibJPEG/source/jdcoefct.c **** 	output_ptr = output_buf[compptr->component_index] +
 1188              		.loc 1 190 11 discriminator 2 view .LVU400
 1189 0096 D5F84880 		ldr	r8, [r5, #72]
 1190 009a EBE7     		b	.L87
 1191              	.LVL128:
ARM GAS  /var/folders/mq/wg13gp494590nh4zyt09lxf00000gn/T//ccLgMMOG.s 			page 34


 1192              	.L92:
 199:Middlewares/Third_Party/LibJPEG/source/jdcoefct.c **** 			      (JCOEFPTR) coef->MCU_buffer[blkn+xindex],
 1193              		.loc 1 199 8 is_stmt 1 view .LVU401
 200:Middlewares/Third_Party/LibJPEG/source/jdcoefct.c **** 			      output_ptr, output_col);
 1194              		.loc 1 200 42 is_stmt 0 view .LVU402
 1195 009c 09EB0403 		add	r3, r9, r4
 200:Middlewares/Third_Party/LibJPEG/source/jdcoefct.c **** 			      output_ptr, output_col);
 1196              		.loc 1 200 37 view .LVU403
 1197 00a0 0833     		adds	r3, r3, #8
 1198 00a2 5AF82320 		ldr	r2, [r10, r3, lsl #2]
 199:Middlewares/Third_Party/LibJPEG/source/jdcoefct.c **** 			      (JCOEFPTR) coef->MCU_buffer[blkn+xindex],
 1199              		.loc 1 199 9 view .LVU404
 1200 00a6 0096     		str	r6, [sp]
 1201 00a8 029B     		ldr	r3, [sp, #8]
 1202 00aa 2946     		mov	r1, r5
 1203 00ac 5846     		mov	r0, fp
 1204 00ae 039F     		ldr	r7, [sp, #12]
 1205 00b0 B847     		blx	r7
 1206              	.LVL129:
 202:Middlewares/Third_Party/LibJPEG/source/jdcoefct.c **** 	    }
 1207              		.loc 1 202 8 is_stmt 1 view .LVU405
 202:Middlewares/Third_Party/LibJPEG/source/jdcoefct.c **** 	    }
 1208              		.loc 1 202 29 is_stmt 0 view .LVU406
 1209 00b2 6B6A     		ldr	r3, [r5, #36]
 202:Middlewares/Third_Party/LibJPEG/source/jdcoefct.c **** 	    }
 1210              		.loc 1 202 19 view .LVU407
 1211 00b4 1E44     		add	r6, r6, r3
 1212              	.LVL130:
 198:Middlewares/Third_Party/LibJPEG/source/jdcoefct.c **** 	      (*inverse_DCT) (cinfo, compptr,
 1213              		.loc 1 198 52 is_stmt 1 discriminator 3 view .LVU408
 1214 00b6 0134     		adds	r4, r4, #1
 1215              	.LVL131:
 1216              	.L91:
 198:Middlewares/Third_Party/LibJPEG/source/jdcoefct.c **** 	      (*inverse_DCT) (cinfo, compptr,
 1217              		.loc 1 198 30 discriminator 1 view .LVU409
 1218 00b8 4445     		cmp	r4, r8
 1219 00ba EFDB     		blt	.L92
 1220 00bc 059B     		ldr	r3, [sp, #20]
 1221 00be 029F     		ldr	r7, [sp, #8]
 1222              	.LVL132:
 1223              	.L90:
 205:Middlewares/Third_Party/LibJPEG/source/jdcoefct.c **** 	  output_ptr += compptr->DCT_v_scaled_size;
 1224              		.loc 1 205 4 view .LVU410
 205:Middlewares/Third_Party/LibJPEG/source/jdcoefct.c **** 	  output_ptr += compptr->DCT_v_scaled_size;
 1225              		.loc 1 205 19 is_stmt 0 view .LVU411
 1226 00c0 AA6B     		ldr	r2, [r5, #56]
 205:Middlewares/Third_Party/LibJPEG/source/jdcoefct.c **** 	  output_ptr += compptr->DCT_v_scaled_size;
 1227              		.loc 1 205 9 view .LVU412
 1228 00c2 9144     		add	r9, r9, r2
 1229              	.LVL133:
 206:Middlewares/Third_Party/LibJPEG/source/jdcoefct.c **** 	}
 1230              		.loc 1 206 4 is_stmt 1 view .LVU413
 206:Middlewares/Third_Party/LibJPEG/source/jdcoefct.c **** 	}
 1231              		.loc 1 206 25 is_stmt 0 view .LVU414
 1232 00c4 AA6A     		ldr	r2, [r5, #40]
 206:Middlewares/Third_Party/LibJPEG/source/jdcoefct.c **** 	}
 1233              		.loc 1 206 15 view .LVU415
ARM GAS  /var/folders/mq/wg13gp494590nh4zyt09lxf00000gn/T//ccLgMMOG.s 			page 35


 1234 00c6 07EB8207 		add	r7, r7, r2, lsl #2
 1235              	.LVL134:
 194:Middlewares/Third_Party/LibJPEG/source/jdcoefct.c **** 	  if (cinfo->input_iMCU_row < last_iMCU_row ||
 1236              		.loc 1 194 55 is_stmt 1 discriminator 2 view .LVU416
 1237 00ca 0133     		adds	r3, r3, #1
 1238              	.LVL135:
 1239              	.L88:
 194:Middlewares/Third_Party/LibJPEG/source/jdcoefct.c **** 	  if (cinfo->input_iMCU_row < last_iMCU_row ||
 1240              		.loc 1 194 26 discriminator 1 view .LVU417
 194:Middlewares/Third_Party/LibJPEG/source/jdcoefct.c **** 	  if (cinfo->input_iMCU_row < last_iMCU_row ||
 1241              		.loc 1 194 35 is_stmt 0 discriminator 1 view .LVU418
 1242 00cc EA6B     		ldr	r2, [r5, #60]
 194:Middlewares/Third_Party/LibJPEG/source/jdcoefct.c **** 	  if (cinfo->input_iMCU_row < last_iMCU_row ||
 1243              		.loc 1 194 26 discriminator 1 view .LVU419
 1244 00ce 9A42     		cmp	r2, r3
 1245 00d0 13DD     		ble	.L103
 195:Middlewares/Third_Party/LibJPEG/source/jdcoefct.c **** 	      yoffset+yindex < compptr->last_row_height) {
 1246              		.loc 1 195 4 is_stmt 1 view .LVU420
 195:Middlewares/Third_Party/LibJPEG/source/jdcoefct.c **** 	      yoffset+yindex < compptr->last_row_height) {
 1247              		.loc 1 195 13 is_stmt 0 view .LVU421
 1248 00d2 DBF89420 		ldr	r2, [fp, #148]
 195:Middlewares/Third_Party/LibJPEG/source/jdcoefct.c **** 	      yoffset+yindex < compptr->last_row_height) {
 1249              		.loc 1 195 7 view .LVU422
 1250 00d6 0499     		ldr	r1, [sp, #16]
 1251 00d8 8A42     		cmp	r2, r1
 1252 00da 09D3     		bcc	.L99
 196:Middlewares/Third_Party/LibJPEG/source/jdcoefct.c **** 	    output_col = start_col;
 1253              		.loc 1 196 15 view .LVU423
 1254 00dc 069A     		ldr	r2, [sp, #24]
 1255 00de 9918     		adds	r1, r3, r2
 196:Middlewares/Third_Party/LibJPEG/source/jdcoefct.c **** 	    output_col = start_col;
 1256              		.loc 1 196 32 view .LVU424
 1257 00e0 EA6C     		ldr	r2, [r5, #76]
 195:Middlewares/Third_Party/LibJPEG/source/jdcoefct.c **** 	      yoffset+yindex < compptr->last_row_height) {
 1258              		.loc 1 195 46 discriminator 1 view .LVU425
 1259 00e2 9142     		cmp	r1, r2
 1260 00e4 ECDA     		bge	.L90
 1261 00e6 079E     		ldr	r6, [sp, #28]
 1262 00e8 0024     		movs	r4, #0
 1263 00ea 0593     		str	r3, [sp, #20]
 1264 00ec 0297     		str	r7, [sp, #8]
 1265 00ee E3E7     		b	.L91
 1266              	.L99:
 195:Middlewares/Third_Party/LibJPEG/source/jdcoefct.c **** 	      yoffset+yindex < compptr->last_row_height) {
 1267              		.loc 1 195 46 discriminator 1 view .LVU426
 1268 00f0 079E     		ldr	r6, [sp, #28]
 1269 00f2 0024     		movs	r4, #0
 1270 00f4 0593     		str	r3, [sp, #20]
 1271 00f6 0297     		str	r7, [sp, #8]
 1272 00f8 DEE7     		b	.L91
 1273              	.L103:
 195:Middlewares/Third_Party/LibJPEG/source/jdcoefct.c **** 	      yoffset+yindex < compptr->last_row_height) {
 1274              		.loc 1 195 46 discriminator 1 view .LVU427
 1275 00fa 089C     		ldr	r4, [sp, #32]
 1276 00fc 099E     		ldr	r6, [sp, #36]
 1277              	.LVL136:
 1278              	.L85:
ARM GAS  /var/folders/mq/wg13gp494590nh4zyt09lxf00000gn/T//ccLgMMOG.s 			page 36


 181:Middlewares/Third_Party/LibJPEG/source/jdcoefct.c **** 	compptr = cinfo->cur_comp_info[ci];
 1279              		.loc 1 181 49 is_stmt 1 discriminator 2 view .LVU428
 1280 00fe 0136     		adds	r6, r6, #1
 1281              	.LVL137:
 1282              	.L82:
 181:Middlewares/Third_Party/LibJPEG/source/jdcoefct.c **** 	compptr = cinfo->cur_comp_info[ci];
 1283              		.loc 1 181 23 discriminator 1 view .LVU429
 181:Middlewares/Third_Party/LibJPEG/source/jdcoefct.c **** 	compptr = cinfo->cur_comp_info[ci];
 1284              		.loc 1 181 30 is_stmt 0 discriminator 1 view .LVU430
 1285 0100 DBF85031 		ldr	r3, [fp, #336]
 181:Middlewares/Third_Party/LibJPEG/source/jdcoefct.c **** 	compptr = cinfo->cur_comp_info[ci];
 1286              		.loc 1 181 23 discriminator 1 view .LVU431
 1287 0104 B342     		cmp	r3, r6
 1288 0106 0ADD     		ble	.L104
 182:Middlewares/Third_Party/LibJPEG/source/jdcoefct.c **** 	/* Don't bother to IDCT an uninteresting component. */
 1289              		.loc 1 182 2 is_stmt 1 view .LVU432
 182:Middlewares/Third_Party/LibJPEG/source/jdcoefct.c **** 	/* Don't bother to IDCT an uninteresting component. */
 1290              		.loc 1 182 10 is_stmt 0 view .LVU433
 1291 0108 06F15403 		add	r3, r6, #84
 1292 010c 0BEB8303 		add	r3, fp, r3, lsl #2
 1293 0110 5D68     		ldr	r5, [r3, #4]
 1294              	.LVL138:
 184:Middlewares/Third_Party/LibJPEG/source/jdcoefct.c **** 	  blkn += compptr->MCU_blocks;
 1295              		.loc 1 184 2 is_stmt 1 view .LVU434
 184:Middlewares/Third_Party/LibJPEG/source/jdcoefct.c **** 	  blkn += compptr->MCU_blocks;
 1296              		.loc 1 184 15 is_stmt 0 view .LVU435
 1297 0112 6B6B     		ldr	r3, [r5, #52]
 184:Middlewares/Third_Party/LibJPEG/source/jdcoefct.c **** 	  blkn += compptr->MCU_blocks;
 1298              		.loc 1 184 5 view .LVU436
 1299 0114 002B     		cmp	r3, #0
 1300 0116 A1D1     		bne	.L84
 185:Middlewares/Third_Party/LibJPEG/source/jdcoefct.c **** 	  continue;
 1301              		.loc 1 185 4 is_stmt 1 view .LVU437
 185:Middlewares/Third_Party/LibJPEG/source/jdcoefct.c **** 	  continue;
 1302              		.loc 1 185 19 is_stmt 0 view .LVU438
 1303 0118 2B6C     		ldr	r3, [r5, #64]
 185:Middlewares/Third_Party/LibJPEG/source/jdcoefct.c **** 	  continue;
 1304              		.loc 1 185 9 view .LVU439
 1305 011a 9944     		add	r9, r9, r3
 1306              	.LVL139:
 186:Middlewares/Third_Party/LibJPEG/source/jdcoefct.c **** 	}
 1307              		.loc 1 186 4 is_stmt 1 view .LVU440
 1308 011c EFE7     		b	.L85
 1309              	.LVL140:
 1310              	.L104:
 164:Middlewares/Third_Party/LibJPEG/source/jdcoefct.c ****       /* Try to fetch an MCU.  Entropy decoder expects buffer to be zeroed. */
 1311              		.loc 1 164 14 view .LVU441
 1312 011e 0134     		adds	r4, r4, #1
 1313              	.LVL141:
 1314              	.L80:
 163:Middlewares/Third_Party/LibJPEG/source/jdcoefct.c **** 	 MCU_col_num++) {
 1315              		.loc 1 163 51 discriminator 1 view .LVU442
 1316 0120 0A9B     		ldr	r3, [sp, #40]
 1317 0122 9C42     		cmp	r4, r3
 1318 0124 10D8     		bhi	.L105
 166:Middlewares/Third_Party/LibJPEG/source/jdcoefct.c **** 	FMEMZERO((void FAR *) coef->MCU_buffer[0],
 1319              		.loc 1 166 7 view .LVU443
ARM GAS  /var/folders/mq/wg13gp494590nh4zyt09lxf00000gn/T//ccLgMMOG.s 			page 37


 166:Middlewares/Third_Party/LibJPEG/source/jdcoefct.c **** 	FMEMZERO((void FAR *) coef->MCU_buffer[0],
 1320              		.loc 1 166 16 is_stmt 0 view .LVU444
 1321 0126 DBF8B031 		ldr	r3, [fp, #432]
 166:Middlewares/Third_Party/LibJPEG/source/jdcoefct.c **** 	FMEMZERO((void FAR *) coef->MCU_buffer[0],
 1322              		.loc 1 166 10 view .LVU445
 1323 012a 002B     		cmp	r3, #0
 1324 012c 84D1     		bne	.L106
 1325              	.L81:
 169:Middlewares/Third_Party/LibJPEG/source/jdcoefct.c **** 	/* Suspension forced; update state counters and exit */
 1326              		.loc 1 169 7 is_stmt 1 view .LVU446
 169:Middlewares/Third_Party/LibJPEG/source/jdcoefct.c **** 	/* Suspension forced; update state counters and exit */
 1327              		.loc 1 169 20 is_stmt 0 view .LVU447
 1328 012e DBF8D031 		ldr	r3, [fp, #464]
 169:Middlewares/Third_Party/LibJPEG/source/jdcoefct.c **** 	/* Suspension forced; update state counters and exit */
 1329              		.loc 1 169 14 view .LVU448
 1330 0132 5B68     		ldr	r3, [r3, #4]
 1331 0134 0AF12001 		add	r1, r10, #32
 1332 0138 5846     		mov	r0, fp
 1333 013a 9847     		blx	r3
 1334              	.LVL142:
 169:Middlewares/Third_Party/LibJPEG/source/jdcoefct.c **** 	/* Suspension forced; update state counters and exit */
 1335              		.loc 1 169 10 discriminator 1 view .LVU449
 1336 013c 0346     		mov	r3, r0
 1337 013e 0028     		cmp	r0, #0
 1338 0140 83D0     		beq	.L107
 181:Middlewares/Third_Party/LibJPEG/source/jdcoefct.c **** 	compptr = cinfo->cur_comp_info[ci];
 1339              		.loc 1 181 15 view .LVU450
 1340 0142 0026     		movs	r6, #0
 180:Middlewares/Third_Party/LibJPEG/source/jdcoefct.c ****       for (ci = 0; ci < cinfo->comps_in_scan; ci++) {
 1341              		.loc 1 180 12 view .LVU451
 1342 0144 B146     		mov	r9, r6
 1343 0146 DBE7     		b	.L82
 1344              	.L105:
 211:Middlewares/Third_Party/LibJPEG/source/jdcoefct.c ****   }
 1345              		.loc 1 211 5 is_stmt 1 view .LVU452
 211:Middlewares/Third_Party/LibJPEG/source/jdcoefct.c ****   }
 1346              		.loc 1 211 19 is_stmt 0 view .LVU453
 1347 0148 0023     		movs	r3, #0
 1348 014a CAF81430 		str	r3, [r10, #20]
 162:Middlewares/Third_Party/LibJPEG/source/jdcoefct.c ****     for (MCU_col_num = coef->MCU_ctr; MCU_col_num <= last_MCU_col;
 1349              		.loc 1 162 15 is_stmt 1 view .LVU454
 1350 014e 069B     		ldr	r3, [sp, #24]
 1351 0150 0133     		adds	r3, r3, #1
 1352 0152 0693     		str	r3, [sp, #24]
 1353              	.LVL143:
 162:Middlewares/Third_Party/LibJPEG/source/jdcoefct.c ****     for (MCU_col_num = coef->MCU_ctr; MCU_col_num <= last_MCU_col;
 1354              		.loc 1 162 15 is_stmt 0 view .LVU455
 1355 0154 67E7     		b	.L79
 1356              	.LVL144:
 1357              	.L102:
 214:Middlewares/Third_Party/LibJPEG/source/jdcoefct.c ****   if (++(cinfo->input_iMCU_row) < cinfo->total_iMCU_rows) {
 1358              		.loc 1 214 3 is_stmt 1 view .LVU456
 214:Middlewares/Third_Party/LibJPEG/source/jdcoefct.c ****   if (++(cinfo->input_iMCU_row) < cinfo->total_iMCU_rows) {
 1359              		.loc 1 214 8 is_stmt 0 view .LVU457
 1360 0156 DBF89C30 		ldr	r3, [fp, #156]
 214:Middlewares/Third_Party/LibJPEG/source/jdcoefct.c ****   if (++(cinfo->input_iMCU_row) < cinfo->total_iMCU_rows) {
 1361              		.loc 1 214 25 view .LVU458
ARM GAS  /var/folders/mq/wg13gp494590nh4zyt09lxf00000gn/T//ccLgMMOG.s 			page 38


 1362 015a 0133     		adds	r3, r3, #1
 1363 015c CBF89C30 		str	r3, [fp, #156]
 215:Middlewares/Third_Party/LibJPEG/source/jdcoefct.c ****     start_iMCU_row(cinfo);
 1364              		.loc 1 215 3 is_stmt 1 view .LVU459
 215:Middlewares/Third_Party/LibJPEG/source/jdcoefct.c ****     start_iMCU_row(cinfo);
 1365              		.loc 1 215 15 is_stmt 0 view .LVU460
 1366 0160 DBF89430 		ldr	r3, [fp, #148]
 215:Middlewares/Third_Party/LibJPEG/source/jdcoefct.c ****     start_iMCU_row(cinfo);
 1367              		.loc 1 215 7 view .LVU461
 1368 0164 0133     		adds	r3, r3, #1
 215:Middlewares/Third_Party/LibJPEG/source/jdcoefct.c ****     start_iMCU_row(cinfo);
 1369              		.loc 1 215 6 view .LVU462
 1370 0166 CBF89430 		str	r3, [fp, #148]
 215:Middlewares/Third_Party/LibJPEG/source/jdcoefct.c ****     start_iMCU_row(cinfo);
 1371              		.loc 1 215 40 view .LVU463
 1372 016a DBF84821 		ldr	r2, [fp, #328]
 1373              	.LVL145:
 215:Middlewares/Third_Party/LibJPEG/source/jdcoefct.c ****     start_iMCU_row(cinfo);
 1374              		.loc 1 215 6 view .LVU464
 1375 016e 9342     		cmp	r3, r2
 1376 0170 06D3     		bcc	.L108
 220:Middlewares/Third_Party/LibJPEG/source/jdcoefct.c ****   return JPEG_SCAN_COMPLETED;
 1377              		.loc 1 220 3 is_stmt 1 view .LVU465
 220:Middlewares/Third_Party/LibJPEG/source/jdcoefct.c ****   return JPEG_SCAN_COMPLETED;
 1378              		.loc 1 220 10 is_stmt 0 view .LVU466
 1379 0172 DBF8C831 		ldr	r3, [fp, #456]
 220:Middlewares/Third_Party/LibJPEG/source/jdcoefct.c ****   return JPEG_SCAN_COMPLETED;
 1380              		.loc 1 220 4 view .LVU467
 1381 0176 DB68     		ldr	r3, [r3, #12]
 1382 0178 5846     		mov	r0, fp
 1383 017a 9847     		blx	r3
 1384              	.LVL146:
 221:Middlewares/Third_Party/LibJPEG/source/jdcoefct.c **** }
 1385              		.loc 1 221 3 is_stmt 1 view .LVU468
 221:Middlewares/Third_Party/LibJPEG/source/jdcoefct.c **** }
 1386              		.loc 1 221 10 is_stmt 0 view .LVU469
 1387 017c 0423     		movs	r3, #4
 1388 017e 69E7     		b	.L78
 1389              	.L108:
 216:Middlewares/Third_Party/LibJPEG/source/jdcoefct.c ****     return JPEG_ROW_COMPLETED;
 1390              		.loc 1 216 5 is_stmt 1 view .LVU470
 1391 0180 5846     		mov	r0, fp
 1392 0182 FFF7FEFF 		bl	start_iMCU_row
 1393              	.LVL147:
 217:Middlewares/Third_Party/LibJPEG/source/jdcoefct.c ****   }
 1394              		.loc 1 217 5 view .LVU471
 217:Middlewares/Third_Party/LibJPEG/source/jdcoefct.c ****   }
 1395              		.loc 1 217 12 is_stmt 0 view .LVU472
 1396 0186 0323     		movs	r3, #3
 1397 0188 64E7     		b	.L78
 1398              		.cfi_endproc
 1399              	.LFE150:
 1401              		.section	.text.decompress_smooth_data,"ax",%progbits
 1402              		.align	1
 1403              		.syntax unified
 1404              		.thumb
 1405              		.thumb_func
ARM GAS  /var/folders/mq/wg13gp494590nh4zyt09lxf00000gn/T//ccLgMMOG.s 			page 39


 1407              	decompress_smooth_data:
 1408              	.LVL148:
 1409              	.LFB155:
 456:Middlewares/Third_Party/LibJPEG/source/jdcoefct.c **** 
 457:Middlewares/Third_Party/LibJPEG/source/jdcoefct.c **** 
 458:Middlewares/Third_Party/LibJPEG/source/jdcoefct.c **** /*
 459:Middlewares/Third_Party/LibJPEG/source/jdcoefct.c ****  * Variant of decompress_data for use when doing block smoothing.
 460:Middlewares/Third_Party/LibJPEG/source/jdcoefct.c ****  */
 461:Middlewares/Third_Party/LibJPEG/source/jdcoefct.c **** 
 462:Middlewares/Third_Party/LibJPEG/source/jdcoefct.c **** METHODDEF(int)
 463:Middlewares/Third_Party/LibJPEG/source/jdcoefct.c **** decompress_smooth_data (j_decompress_ptr cinfo, JSAMPIMAGE output_buf)
 464:Middlewares/Third_Party/LibJPEG/source/jdcoefct.c **** {
 1410              		.loc 1 464 1 is_stmt 1 view -0
 1411              		.cfi_startproc
 1412              		@ args = 0, pretend = 0, frame = 240
 1413              		@ frame_needed = 0, uses_anonymous_args = 0
 1414              		.loc 1 464 1 is_stmt 0 view .LVU474
 1415 0000 2DE9F04F 		push	{r4, r5, r6, r7, r8, r9, r10, fp, lr}
 1416              	.LCFI15:
 1417              		.cfi_def_cfa_offset 36
 1418              		.cfi_offset 4, -36
 1419              		.cfi_offset 5, -32
 1420              		.cfi_offset 6, -28
 1421              		.cfi_offset 7, -24
 1422              		.cfi_offset 8, -20
 1423              		.cfi_offset 9, -16
 1424              		.cfi_offset 10, -12
 1425              		.cfi_offset 11, -8
 1426              		.cfi_offset 14, -4
 1427 0004 BFB0     		sub	sp, sp, #252
 1428              	.LCFI16:
 1429              		.cfi_def_cfa_offset 288
 1430 0006 0446     		mov	r4, r0
 1431 0008 0E90     		str	r0, [sp, #56]
 1432 000a 8946     		mov	r9, r1
 465:Middlewares/Third_Party/LibJPEG/source/jdcoefct.c ****   my_coef_ptr coef = (my_coef_ptr) cinfo->coef;
 1433              		.loc 1 465 3 is_stmt 1 view .LVU475
 1434              		.loc 1 465 15 is_stmt 0 view .LVU476
 1435 000c D0F8C071 		ldr	r7, [r0, #448]
 1436              	.LVL149:
 466:Middlewares/Third_Party/LibJPEG/source/jdcoefct.c ****   JDIMENSION last_iMCU_row = cinfo->total_iMCU_rows - 1;
 1437              		.loc 1 466 3 is_stmt 1 view .LVU477
 1438              		.loc 1 466 35 is_stmt 0 view .LVU478
 1439 0010 D0F84831 		ldr	r3, [r0, #328]
 1440              		.loc 1 466 14 view .LVU479
 1441 0014 03F1FF3A 		add	r10, r3, #-1
 1442              	.LVL150:
 467:Middlewares/Third_Party/LibJPEG/source/jdcoefct.c ****   JDIMENSION block_num, last_block_column;
 1443              		.loc 1 467 3 is_stmt 1 view .LVU480
 468:Middlewares/Third_Party/LibJPEG/source/jdcoefct.c ****   int ci, block_row, block_rows, access_rows;
 1444              		.loc 1 468 3 view .LVU481
 469:Middlewares/Third_Party/LibJPEG/source/jdcoefct.c ****   JBLOCKARRAY buffer;
 1445              		.loc 1 469 3 view .LVU482
 470:Middlewares/Third_Party/LibJPEG/source/jdcoefct.c ****   JBLOCKROW buffer_ptr, prev_block_row, next_block_row;
 1446              		.loc 1 470 3 view .LVU483
 471:Middlewares/Third_Party/LibJPEG/source/jdcoefct.c ****   JSAMPARRAY output_ptr;
 1447              		.loc 1 471 3 view .LVU484
ARM GAS  /var/folders/mq/wg13gp494590nh4zyt09lxf00000gn/T//ccLgMMOG.s 			page 40


 472:Middlewares/Third_Party/LibJPEG/source/jdcoefct.c ****   JDIMENSION output_col;
 1448              		.loc 1 472 3 view .LVU485
 473:Middlewares/Third_Party/LibJPEG/source/jdcoefct.c ****   jpeg_component_info *compptr;
 1449              		.loc 1 473 3 view .LVU486
 474:Middlewares/Third_Party/LibJPEG/source/jdcoefct.c ****   inverse_DCT_method_ptr inverse_DCT;
 1450              		.loc 1 474 3 view .LVU487
 475:Middlewares/Third_Party/LibJPEG/source/jdcoefct.c ****   boolean first_row, last_row;
 1451              		.loc 1 475 3 view .LVU488
 476:Middlewares/Third_Party/LibJPEG/source/jdcoefct.c ****   JBLOCK workspace;
 1452              		.loc 1 476 3 view .LVU489
 477:Middlewares/Third_Party/LibJPEG/source/jdcoefct.c ****   int *coef_bits;
 1453              		.loc 1 477 3 view .LVU490
 478:Middlewares/Third_Party/LibJPEG/source/jdcoefct.c ****   JQUANT_TBL *quanttbl;
 1454              		.loc 1 478 3 view .LVU491
 479:Middlewares/Third_Party/LibJPEG/source/jdcoefct.c ****   INT32 Q00,Q01,Q02,Q10,Q11,Q20, num;
 1455              		.loc 1 479 3 view .LVU492
 480:Middlewares/Third_Party/LibJPEG/source/jdcoefct.c ****   int DC1,DC2,DC3,DC4,DC5,DC6,DC7,DC8,DC9;
 1456              		.loc 1 480 3 view .LVU493
 481:Middlewares/Third_Party/LibJPEG/source/jdcoefct.c ****   int Al, pred;
 1457              		.loc 1 481 3 view .LVU494
 482:Middlewares/Third_Party/LibJPEG/source/jdcoefct.c **** 
 483:Middlewares/Third_Party/LibJPEG/source/jdcoefct.c ****   /* Force some input to be done if we are getting ahead of the input. */
 484:Middlewares/Third_Party/LibJPEG/source/jdcoefct.c ****   while (cinfo->input_scan_number <= cinfo->output_scan_number &&
 1458              		.loc 1 484 3 view .LVU495
 1459              		.loc 1 484 9 is_stmt 0 view .LVU496
 1460 0018 06E0     		b	.L110
 1461              	.LVL151:
 1462              	.L111:
 485:Middlewares/Third_Party/LibJPEG/source/jdcoefct.c **** 	 ! cinfo->inputctl->eoi_reached) {
 486:Middlewares/Third_Party/LibJPEG/source/jdcoefct.c ****     if (cinfo->input_scan_number == cinfo->output_scan_number) {
 487:Middlewares/Third_Party/LibJPEG/source/jdcoefct.c ****       /* If input is working on current scan, we ordinarily want it to
 488:Middlewares/Third_Party/LibJPEG/source/jdcoefct.c ****        * have completed the current row.  But if input scan is DC,
 489:Middlewares/Third_Party/LibJPEG/source/jdcoefct.c ****        * we want it to keep one row ahead so that next block row's DC
 490:Middlewares/Third_Party/LibJPEG/source/jdcoefct.c ****        * values are up to date.
 491:Middlewares/Third_Party/LibJPEG/source/jdcoefct.c ****        */
 492:Middlewares/Third_Party/LibJPEG/source/jdcoefct.c ****       JDIMENSION delta = (cinfo->Ss == 0) ? 1 : 0;
 493:Middlewares/Third_Party/LibJPEG/source/jdcoefct.c ****       if (cinfo->input_iMCU_row > cinfo->output_iMCU_row+delta)
 494:Middlewares/Third_Party/LibJPEG/source/jdcoefct.c **** 	break;
 495:Middlewares/Third_Party/LibJPEG/source/jdcoefct.c ****     }
 496:Middlewares/Third_Party/LibJPEG/source/jdcoefct.c ****     if ((*cinfo->inputctl->consume_input)(cinfo) == JPEG_SUSPENDED)
 1463              		.loc 1 496 5 is_stmt 1 view .LVU497
 1464              		.loc 1 496 10 is_stmt 0 view .LVU498
 1465 001a 0B68     		ldr	r3, [r1]
 1466 001c 2046     		mov	r0, r4
 1467 001e 9847     		blx	r3
 1468              	.LVL152:
 1469              		.loc 1 496 8 discriminator 1 view .LVU499
 1470 0020 0346     		mov	r3, r0
 1471 0022 0028     		cmp	r0, #0
 1472 0024 00F02282 		beq	.L109
 1473              	.L110:
 484:Middlewares/Third_Party/LibJPEG/source/jdcoefct.c **** 	 ! cinfo->inputctl->eoi_reached) {
 1474              		.loc 1 484 64 is_stmt 1 view .LVU500
 484:Middlewares/Third_Party/LibJPEG/source/jdcoefct.c **** 	 ! cinfo->inputctl->eoi_reached) {
 1475              		.loc 1 484 15 is_stmt 0 view .LVU501
 1476 0028 D4F89030 		ldr	r3, [r4, #144]
 484:Middlewares/Third_Party/LibJPEG/source/jdcoefct.c **** 	 ! cinfo->inputctl->eoi_reached) {
ARM GAS  /var/folders/mq/wg13gp494590nh4zyt09lxf00000gn/T//ccLgMMOG.s 			page 41


 1477              		.loc 1 484 43 view .LVU502
 1478 002c D4F89820 		ldr	r2, [r4, #152]
 484:Middlewares/Third_Party/LibJPEG/source/jdcoefct.c **** 	 ! cinfo->inputctl->eoi_reached) {
 1479              		.loc 1 484 64 view .LVU503
 1480 0030 9342     		cmp	r3, r2
 1481 0032 10DC     		bgt	.L112
 485:Middlewares/Third_Party/LibJPEG/source/jdcoefct.c **** 	 ! cinfo->inputctl->eoi_reached) {
 1482              		.loc 1 485 10 view .LVU504
 1483 0034 D4F8C811 		ldr	r1, [r4, #456]
 485:Middlewares/Third_Party/LibJPEG/source/jdcoefct.c **** 	 ! cinfo->inputctl->eoi_reached) {
 1484              		.loc 1 485 20 view .LVU505
 1485 0038 4869     		ldr	r0, [r1, #20]
 484:Middlewares/Third_Party/LibJPEG/source/jdcoefct.c **** 	 ! cinfo->inputctl->eoi_reached) {
 1486              		.loc 1 484 64 discriminator 1 view .LVU506
 1487 003a 60B9     		cbnz	r0, .L112
 486:Middlewares/Third_Party/LibJPEG/source/jdcoefct.c ****       /* If input is working on current scan, we ordinarily want it to
 1488              		.loc 1 486 5 is_stmt 1 view .LVU507
 486:Middlewares/Third_Party/LibJPEG/source/jdcoefct.c ****       /* If input is working on current scan, we ordinarily want it to
 1489              		.loc 1 486 8 is_stmt 0 view .LVU508
 1490 003c 9342     		cmp	r3, r2
 1491 003e ECD1     		bne	.L111
 1492              	.LBB2:
 492:Middlewares/Third_Party/LibJPEG/source/jdcoefct.c ****       if (cinfo->input_iMCU_row > cinfo->output_iMCU_row+delta)
 1493              		.loc 1 492 7 is_stmt 1 view .LVU509
 492:Middlewares/Third_Party/LibJPEG/source/jdcoefct.c ****       if (cinfo->input_iMCU_row > cinfo->output_iMCU_row+delta)
 1494              		.loc 1 492 32 is_stmt 0 view .LVU510
 1495 0040 D4F89801 		ldr	r0, [r4, #408]
 1496              	.LVL153:
 493:Middlewares/Third_Party/LibJPEG/source/jdcoefct.c **** 	break;
 1497              		.loc 1 493 7 is_stmt 1 view .LVU511
 493:Middlewares/Third_Party/LibJPEG/source/jdcoefct.c **** 	break;
 1498              		.loc 1 493 16 is_stmt 0 view .LVU512
 1499 0044 D4F89420 		ldr	r2, [r4, #148]
 493:Middlewares/Third_Party/LibJPEG/source/jdcoefct.c **** 	break;
 1500              		.loc 1 493 40 view .LVU513
 1501 0048 D4F89C30 		ldr	r3, [r4, #156]
 493:Middlewares/Third_Party/LibJPEG/source/jdcoefct.c **** 	break;
 1502              		.loc 1 493 57 view .LVU514
 1503 004c 0028     		cmp	r0, #0
 1504 004e 08BF     		it	eq
 1505 0050 0133     		addeq	r3, r3, #1
 493:Middlewares/Third_Party/LibJPEG/source/jdcoefct.c **** 	break;
 1506              		.loc 1 493 10 view .LVU515
 1507 0052 9A42     		cmp	r2, r3
 1508 0054 E1D9     		bls	.L111
 1509              	.LVL154:
 1510              	.L112:
 493:Middlewares/Third_Party/LibJPEG/source/jdcoefct.c **** 	break;
 1511              		.loc 1 493 10 view .LVU516
 1512              	.LBE2:
 497:Middlewares/Third_Party/LibJPEG/source/jdcoefct.c ****       return JPEG_SUSPENDED;
 498:Middlewares/Third_Party/LibJPEG/source/jdcoefct.c ****   }
 499:Middlewares/Third_Party/LibJPEG/source/jdcoefct.c **** 
 500:Middlewares/Third_Party/LibJPEG/source/jdcoefct.c ****   /* OK, output from the virtual arrays. */
 501:Middlewares/Third_Party/LibJPEG/source/jdcoefct.c ****   for (ci = 0, compptr = cinfo->comp_info; ci < cinfo->num_components;
 1513              		.loc 1 501 3 is_stmt 1 view .LVU517
 1514              		.loc 1 501 24 is_stmt 0 view .LVU518
ARM GAS  /var/folders/mq/wg13gp494590nh4zyt09lxf00000gn/T//ccLgMMOG.s 			page 42


 1515 0056 0E9B     		ldr	r3, [sp, #56]
 1516 0058 D3F8D880 		ldr	r8, [r3, #216]
 1517              	.LVL155:
 1518              		.loc 1 501 11 view .LVU519
 1519 005c 0026     		movs	r6, #0
 1520 005e B346     		mov	fp, r6
 1521 0060 3B46     		mov	r3, r7
 1522 0062 4746     		mov	r7, r8
 1523              	.LVL156:
 1524              		.loc 1 501 11 view .LVU520
 1525 0064 CDF870A0 		str	r10, [sp, #112]
 1526 0068 CDF87490 		str	r9, [sp, #116]
 1527 006c 9846     		mov	r8, r3
 1528              	.LVL157:
 1529              		.loc 1 501 3 view .LVU521
 1530 006e A2E1     		b	.L115
 1531              	.LVL158:
 1532              	.L117:
 502:Middlewares/Third_Party/LibJPEG/source/jdcoefct.c ****        ci++, compptr++) {
 503:Middlewares/Third_Party/LibJPEG/source/jdcoefct.c ****     /* Don't bother to IDCT an uninteresting component. */
 504:Middlewares/Third_Party/LibJPEG/source/jdcoefct.c ****     if (! compptr->component_needed)
 505:Middlewares/Third_Party/LibJPEG/source/jdcoefct.c ****       continue;
 506:Middlewares/Third_Party/LibJPEG/source/jdcoefct.c ****     /* Count non-dummy DCT block rows in this iMCU row. */
 507:Middlewares/Third_Party/LibJPEG/source/jdcoefct.c ****     if (cinfo->output_iMCU_row < last_iMCU_row) {
 508:Middlewares/Third_Party/LibJPEG/source/jdcoefct.c ****       block_rows = compptr->v_samp_factor;
 509:Middlewares/Third_Party/LibJPEG/source/jdcoefct.c ****       access_rows = block_rows * 2; /* this and next iMCU row */
 510:Middlewares/Third_Party/LibJPEG/source/jdcoefct.c ****       last_row = FALSE;
 511:Middlewares/Third_Party/LibJPEG/source/jdcoefct.c ****     } else {
 512:Middlewares/Third_Party/LibJPEG/source/jdcoefct.c ****       /* NB: can't use last_row_height here; it is input-side-dependent! */
 513:Middlewares/Third_Party/LibJPEG/source/jdcoefct.c ****       block_rows = (int) (compptr->height_in_blocks % compptr->v_samp_factor);
 1533              		.loc 1 513 7 is_stmt 1 view .LVU522
 1534              		.loc 1 513 34 is_stmt 0 view .LVU523
 1535 0070 3B6A     		ldr	r3, [r7, #32]
 1536              		.loc 1 513 62 view .LVU524
 1537 0072 F868     		ldr	r0, [r7, #12]
 1538 0074 1790     		str	r0, [sp, #92]
 1539              		.loc 1 513 53 view .LVU525
 1540 0076 B3FBF0F2 		udiv	r2, r3, r0
 1541 007a 00FB1233 		mls	r3, r0, r2, r3
 1542              	.LVL159:
 514:Middlewares/Third_Party/LibJPEG/source/jdcoefct.c ****       if (block_rows == 0) block_rows = compptr->v_samp_factor;
 1543              		.loc 1 514 7 is_stmt 1 view .LVU526
 1544              		.loc 1 514 10 is_stmt 0 view .LVU527
 1545 007e 1BB1     		cbz	r3, .L150
 513:Middlewares/Third_Party/LibJPEG/source/jdcoefct.c ****       if (block_rows == 0) block_rows = compptr->v_samp_factor;
 1546              		.loc 1 513 18 view .LVU528
 1547 0080 1793     		str	r3, [sp, #92]
 515:Middlewares/Third_Party/LibJPEG/source/jdcoefct.c ****       access_rows = block_rows; /* this iMCU row only */
 516:Middlewares/Third_Party/LibJPEG/source/jdcoefct.c ****       last_row = TRUE;
 1548              		.loc 1 516 16 view .LVU529
 1549 0082 0122     		movs	r2, #1
 1550 0084 1992     		str	r2, [sp, #100]
 1551 0086 A9E1     		b	.L118
 1552              	.L150:
 514:Middlewares/Third_Party/LibJPEG/source/jdcoefct.c ****       access_rows = block_rows; /* this iMCU row only */
 1553              		.loc 1 514 39 discriminator 1 view .LVU530
 1554 0088 179B     		ldr	r3, [sp, #92]
ARM GAS  /var/folders/mq/wg13gp494590nh4zyt09lxf00000gn/T//ccLgMMOG.s 			page 43


 1555              	.LVL160:
 1556              		.loc 1 516 16 view .LVU531
 1557 008a 0122     		movs	r2, #1
 1558              	.LVL161:
 1559              		.loc 1 516 16 view .LVU532
 1560 008c 1992     		str	r2, [sp, #100]
 1561 008e A5E1     		b	.L118
 1562              	.LVL162:
 1563              	.L119:
 517:Middlewares/Third_Party/LibJPEG/source/jdcoefct.c ****     }
 518:Middlewares/Third_Party/LibJPEG/source/jdcoefct.c ****     /* Align the virtual buffer for this component. */
 519:Middlewares/Third_Party/LibJPEG/source/jdcoefct.c ****     if (cinfo->output_iMCU_row > 0) {
 520:Middlewares/Third_Party/LibJPEG/source/jdcoefct.c ****       access_rows += compptr->v_samp_factor; /* prior iMCU row too */
 521:Middlewares/Third_Party/LibJPEG/source/jdcoefct.c ****       buffer = (*cinfo->mem->access_virt_barray)
 522:Middlewares/Third_Party/LibJPEG/source/jdcoefct.c **** 	((j_common_ptr) cinfo, coef->whole_image[ci],
 523:Middlewares/Third_Party/LibJPEG/source/jdcoefct.c **** 	 (cinfo->output_iMCU_row - 1) * compptr->v_samp_factor,
 524:Middlewares/Third_Party/LibJPEG/source/jdcoefct.c **** 	 (JDIMENSION) access_rows, FALSE);
 525:Middlewares/Third_Party/LibJPEG/source/jdcoefct.c ****       buffer += compptr->v_samp_factor;	/* point to current iMCU row */
 526:Middlewares/Third_Party/LibJPEG/source/jdcoefct.c ****       first_row = FALSE;
 527:Middlewares/Third_Party/LibJPEG/source/jdcoefct.c ****     } else {
 528:Middlewares/Third_Party/LibJPEG/source/jdcoefct.c ****       buffer = (*cinfo->mem->access_virt_barray)
 1564              		.loc 1 528 7 is_stmt 1 view .LVU533
 1565              		.loc 1 528 23 is_stmt 0 view .LVU534
 1566 0090 0E9D     		ldr	r5, [sp, #56]
 1567 0092 6868     		ldr	r0, [r5, #4]
 1568              		.loc 1 528 17 view .LVU535
 1569 0094 0BF11202 		add	r2, fp, #18
 1570 0098 58F82210 		ldr	r1, [r8, r2, lsl #2]
 1571 009c 0022     		movs	r2, #0
 1572 009e 0092     		str	r2, [sp]
 1573 00a0 046A     		ldr	r4, [r0, #32]
 1574 00a2 2846     		mov	r0, r5
 1575 00a4 A047     		blx	r4
 1576              	.LVL163:
 1577              		.loc 1 528 17 view .LVU536
 1578 00a6 8446     		mov	ip, r0
 1579              	.LVL164:
 529:Middlewares/Third_Party/LibJPEG/source/jdcoefct.c **** 	((j_common_ptr) cinfo, coef->whole_image[ci],
 530:Middlewares/Third_Party/LibJPEG/source/jdcoefct.c **** 	 (JDIMENSION) 0, (JDIMENSION) access_rows, FALSE);
 531:Middlewares/Third_Party/LibJPEG/source/jdcoefct.c ****       first_row = TRUE;
 1580              		.loc 1 531 7 is_stmt 1 view .LVU537
 1581              		.loc 1 531 17 is_stmt 0 view .LVU538
 1582 00a8 0123     		movs	r3, #1
 1583 00aa 1893     		str	r3, [sp, #96]
 1584 00ac ADE1     		b	.L120
 1585              	.LVL165:
 1586              	.L151:
 532:Middlewares/Third_Party/LibJPEG/source/jdcoefct.c ****     }
 533:Middlewares/Third_Party/LibJPEG/source/jdcoefct.c ****     /* Fetch component-dependent info */
 534:Middlewares/Third_Party/LibJPEG/source/jdcoefct.c ****     coef_bits = coef->coef_bits_latch + (ci * SAVED_COEFS);
 535:Middlewares/Third_Party/LibJPEG/source/jdcoefct.c ****     quanttbl = compptr->quant_table;
 536:Middlewares/Third_Party/LibJPEG/source/jdcoefct.c ****     Q00 = quanttbl->quantval[0];
 537:Middlewares/Third_Party/LibJPEG/source/jdcoefct.c ****     Q01 = quanttbl->quantval[Q01_POS];
 538:Middlewares/Third_Party/LibJPEG/source/jdcoefct.c ****     Q10 = quanttbl->quantval[Q10_POS];
 539:Middlewares/Third_Party/LibJPEG/source/jdcoefct.c ****     Q20 = quanttbl->quantval[Q20_POS];
 540:Middlewares/Third_Party/LibJPEG/source/jdcoefct.c ****     Q11 = quanttbl->quantval[Q11_POS];
 541:Middlewares/Third_Party/LibJPEG/source/jdcoefct.c ****     Q02 = quanttbl->quantval[Q02_POS];
ARM GAS  /var/folders/mq/wg13gp494590nh4zyt09lxf00000gn/T//ccLgMMOG.s 			page 44


 542:Middlewares/Third_Party/LibJPEG/source/jdcoefct.c ****     inverse_DCT = cinfo->idct->inverse_DCT[ci];
 543:Middlewares/Third_Party/LibJPEG/source/jdcoefct.c ****     output_ptr = output_buf[ci];
 544:Middlewares/Third_Party/LibJPEG/source/jdcoefct.c ****     /* Loop over all DCT blocks to be processed. */
 545:Middlewares/Third_Party/LibJPEG/source/jdcoefct.c ****     for (block_row = 0; block_row < block_rows; block_row++) {
 546:Middlewares/Third_Party/LibJPEG/source/jdcoefct.c ****       buffer_ptr = buffer[block_row];
 547:Middlewares/Third_Party/LibJPEG/source/jdcoefct.c ****       if (first_row && block_row == 0)
 548:Middlewares/Third_Party/LibJPEG/source/jdcoefct.c **** 	prev_block_row = buffer_ptr;
 1587              		.loc 1 548 17 view .LVU539
 1588 00ae 2F46     		mov	r7, r5
 1589 00b0 57E1     		b	.L122
 1590              	.LVL166:
 1591              	.L152:
 549:Middlewares/Third_Party/LibJPEG/source/jdcoefct.c ****       else
 550:Middlewares/Third_Party/LibJPEG/source/jdcoefct.c **** 	prev_block_row = buffer[block_row-1];
 551:Middlewares/Third_Party/LibJPEG/source/jdcoefct.c ****       if (last_row && block_row == block_rows-1)
 552:Middlewares/Third_Party/LibJPEG/source/jdcoefct.c **** 	next_block_row = buffer_ptr;
 1592              		.loc 1 552 17 view .LVU540
 1593 00b2 A846     		mov	r8, r5
 1594 00b4 5FE1     		b	.L124
 1595              	.LVL167:
 1596              	.L153:
 1597              		.loc 1 552 17 view .LVU541
 1598 00b6 059B     		ldr	r3, [sp, #20]
 1599 00b8 0993     		str	r3, [sp, #36]
 1600 00ba 049B     		ldr	r3, [sp, #16]
 1601 00bc 0793     		str	r3, [sp, #28]
 1602 00be 039B     		ldr	r3, [sp, #12]
 1603 00c0 0893     		str	r3, [sp, #32]
 1604 00c2 07E1     		b	.L126
 1605              	.LVL168:
 1606              	.L128:
 553:Middlewares/Third_Party/LibJPEG/source/jdcoefct.c ****       else
 554:Middlewares/Third_Party/LibJPEG/source/jdcoefct.c **** 	next_block_row = buffer[block_row+1];
 555:Middlewares/Third_Party/LibJPEG/source/jdcoefct.c ****       /* We fetch the surrounding DC values using a sliding-register approach.
 556:Middlewares/Third_Party/LibJPEG/source/jdcoefct.c ****        * Initialize all nine here so as to do the right thing on narrow pics.
 557:Middlewares/Third_Party/LibJPEG/source/jdcoefct.c ****        */
 558:Middlewares/Third_Party/LibJPEG/source/jdcoefct.c ****       DC1 = DC2 = DC3 = (int) prev_block_row[0][0];
 559:Middlewares/Third_Party/LibJPEG/source/jdcoefct.c ****       DC4 = DC5 = DC6 = (int) buffer_ptr[0][0];
 560:Middlewares/Third_Party/LibJPEG/source/jdcoefct.c ****       DC7 = DC8 = DC9 = (int) next_block_row[0][0];
 561:Middlewares/Third_Party/LibJPEG/source/jdcoefct.c ****       output_col = 0;
 562:Middlewares/Third_Party/LibJPEG/source/jdcoefct.c ****       last_block_column = compptr->width_in_blocks - 1;
 563:Middlewares/Third_Party/LibJPEG/source/jdcoefct.c ****       for (block_num = 0; block_num <= last_block_column; block_num++) {
 564:Middlewares/Third_Party/LibJPEG/source/jdcoefct.c **** 	/* Fetch current DCT block into workspace so we can modify it. */
 565:Middlewares/Third_Party/LibJPEG/source/jdcoefct.c **** 	jcopy_block_row(buffer_ptr, (JBLOCKROW) workspace, (JDIMENSION) 1);
 566:Middlewares/Third_Party/LibJPEG/source/jdcoefct.c **** 	/* Update DC values */
 567:Middlewares/Third_Party/LibJPEG/source/jdcoefct.c **** 	if (block_num < last_block_column) {
 568:Middlewares/Third_Party/LibJPEG/source/jdcoefct.c **** 	  DC3 = (int) prev_block_row[1][0];
 569:Middlewares/Third_Party/LibJPEG/source/jdcoefct.c **** 	  DC6 = (int) buffer_ptr[1][0];
 570:Middlewares/Third_Party/LibJPEG/source/jdcoefct.c **** 	  DC9 = (int) next_block_row[1][0];
 571:Middlewares/Third_Party/LibJPEG/source/jdcoefct.c **** 	}
 572:Middlewares/Third_Party/LibJPEG/source/jdcoefct.c **** 	/* Compute coefficient estimates per K.8.
 573:Middlewares/Third_Party/LibJPEG/source/jdcoefct.c **** 	 * An estimate is applied only if coefficient is still zero,
 574:Middlewares/Third_Party/LibJPEG/source/jdcoefct.c **** 	 * and is not known to be fully accurate.
 575:Middlewares/Third_Party/LibJPEG/source/jdcoefct.c **** 	 */
 576:Middlewares/Third_Party/LibJPEG/source/jdcoefct.c **** 	/* AC01 */
 577:Middlewares/Third_Party/LibJPEG/source/jdcoefct.c **** 	if ((Al=coef_bits[1]) != 0 && workspace[1] == 0) {
 578:Middlewares/Third_Party/LibJPEG/source/jdcoefct.c **** 	  num = 36 * Q00 * (DC4 - DC6);
ARM GAS  /var/folders/mq/wg13gp494590nh4zyt09lxf00000gn/T//ccLgMMOG.s 			page 45


 579:Middlewares/Third_Party/LibJPEG/source/jdcoefct.c **** 	  if (num >= 0) {
 580:Middlewares/Third_Party/LibJPEG/source/jdcoefct.c **** 	    pred = (int) (((Q01<<7) + num) / (Q01<<8));
 581:Middlewares/Third_Party/LibJPEG/source/jdcoefct.c **** 	    if (Al > 0 && pred >= (1<<Al))
 582:Middlewares/Third_Party/LibJPEG/source/jdcoefct.c **** 	      pred = (1<<Al)-1;
 583:Middlewares/Third_Party/LibJPEG/source/jdcoefct.c **** 	  } else {
 584:Middlewares/Third_Party/LibJPEG/source/jdcoefct.c **** 	    pred = (int) (((Q01<<7) - num) / (Q01<<8));
 1607              		.loc 1 584 6 is_stmt 1 view .LVU542
 1608              		.loc 1 584 30 is_stmt 0 view .LVU543
 1609 00c4 1099     		ldr	r1, [sp, #64]
 1610 00c6 C3EBC113 		rsb	r3, r3, r1, lsl #7
 1611              	.LVL169:
 1612              		.loc 1 584 43 view .LVU544
 1613 00ca 0902     		lsls	r1, r1, #8
 1614              		.loc 1 584 11 view .LVU545
 1615 00cc 93FBF1F3 		sdiv	r3, r3, r1
 1616              	.LVL170:
 585:Middlewares/Third_Party/LibJPEG/source/jdcoefct.c **** 	    if (Al > 0 && pred >= (1<<Al))
 1617              		.loc 1 585 6 is_stmt 1 view .LVU546
 1618              		.loc 1 585 9 is_stmt 0 view .LVU547
 1619 00d0 002A     		cmp	r2, #0
 1620 00d2 05DD     		ble	.L130
 1621              		.loc 1 585 30 discriminator 1 view .LVU548
 1622 00d4 0121     		movs	r1, #1
 1623 00d6 01FA02F2 		lsl	r2, r1, r2
 1624              	.LVL171:
 1625              		.loc 1 585 17 discriminator 1 view .LVU549
 1626 00da 9A42     		cmp	r2, r3
 1627 00dc 00DC     		bgt	.L130
 586:Middlewares/Third_Party/LibJPEG/source/jdcoefct.c **** 	      pred = (1<<Al)-1;
 1628              		.loc 1 586 8 is_stmt 1 view .LVU550
 1629              		.loc 1 586 13 is_stmt 0 view .LVU551
 1630 00de 531E     		subs	r3, r2, #1
 1631              	.LVL172:
 1632              	.L130:
 587:Middlewares/Third_Party/LibJPEG/source/jdcoefct.c **** 	    pred = -pred;
 1633              		.loc 1 587 6 is_stmt 1 view .LVU552
 1634              		.loc 1 587 11 is_stmt 0 view .LVU553
 1635 00e0 5B42     		rsbs	r3, r3, #0
 1636              	.LVL173:
 1637              	.L129:
 588:Middlewares/Third_Party/LibJPEG/source/jdcoefct.c **** 	  }
 589:Middlewares/Third_Party/LibJPEG/source/jdcoefct.c **** 	  workspace[1] = (JCOEF) pred;
 1638              		.loc 1 589 4 is_stmt 1 view .LVU554
 1639              		.loc 1 589 17 is_stmt 0 view .LVU555
 1640 00e2 ADF87A30 		strh	r3, [sp, #122]	@ movhi
 1641              	.LVL174:
 1642              	.L127:
 590:Middlewares/Third_Party/LibJPEG/source/jdcoefct.c **** 	}
 591:Middlewares/Third_Party/LibJPEG/source/jdcoefct.c **** 	/* AC10 */
 592:Middlewares/Third_Party/LibJPEG/source/jdcoefct.c **** 	if ((Al=coef_bits[2]) != 0 && workspace[8] == 0) {
 1643              		.loc 1 592 2 is_stmt 1 view .LVU556
 1644              		.loc 1 592 9 is_stmt 0 view .LVU557
 1645 00e6 DAF80820 		ldr	r2, [r10, #8]
 1646              	.LVL175:
 1647              		.loc 1 592 5 view .LVU558
 1648 00ea 62B3     		cbz	r2, .L131
 1649              		.loc 1 592 41 discriminator 1 view .LVU559
ARM GAS  /var/folders/mq/wg13gp494590nh4zyt09lxf00000gn/T//ccLgMMOG.s 			page 46


 1650 00ec BDF98830 		ldrsh	r3, [sp, #136]
 1651              		.loc 1 592 29 discriminator 1 view .LVU560
 1652 00f0 4BBB     		cbnz	r3, .L131
 593:Middlewares/Third_Party/LibJPEG/source/jdcoefct.c **** 	  num = 36 * Q00 * (DC2 - DC8);
 1653              		.loc 1 593 4 is_stmt 1 view .LVU561
 1654              		.loc 1 593 26 is_stmt 0 view .LVU562
 1655 00f2 039B     		ldr	r3, [sp, #12]
 1656 00f4 0599     		ldr	r1, [sp, #20]
 1657 00f6 5B1A     		subs	r3, r3, r1
 1658              		.loc 1 593 19 view .LVU563
 1659 00f8 0D99     		ldr	r1, [sp, #52]
 1660 00fa 01FB03F3 		mul	r3, r1, r3
 1661              		.loc 1 593 8 view .LVU564
 1662 00fe 03EBC303 		add	r3, r3, r3, lsl #3
 1663              	.LVL176:
 594:Middlewares/Third_Party/LibJPEG/source/jdcoefct.c **** 	  if (num >= 0) {
 1664              		.loc 1 594 4 is_stmt 1 view .LVU565
 1665              		.loc 1 594 7 is_stmt 0 view .LVU566
 1666 0102 9B00     		lsls	r3, r3, #2
 1667              	.LVL177:
 1668              		.loc 1 594 7 view .LVU567
 1669 0104 0ED4     		bmi	.L132
 595:Middlewares/Third_Party/LibJPEG/source/jdcoefct.c **** 	    pred = (int) (((Q10<<7) + num) / (Q10<<8));
 1670              		.loc 1 595 6 is_stmt 1 view .LVU568
 1671              		.loc 1 595 30 is_stmt 0 view .LVU569
 1672 0106 1199     		ldr	r1, [sp, #68]
 1673 0108 03EBC113 		add	r3, r3, r1, lsl #7
 1674              	.LVL178:
 1675              		.loc 1 595 43 view .LVU570
 1676 010c 0902     		lsls	r1, r1, #8
 1677              		.loc 1 595 11 view .LVU571
 1678 010e 93FBF1F3 		sdiv	r3, r3, r1
 1679              	.LVL179:
 596:Middlewares/Third_Party/LibJPEG/source/jdcoefct.c **** 	    if (Al > 0 && pred >= (1<<Al))
 1680              		.loc 1 596 6 is_stmt 1 view .LVU572
 1681              		.loc 1 596 9 is_stmt 0 view .LVU573
 1682 0112 002A     		cmp	r2, #0
 1683 0114 15DD     		ble	.L133
 1684              		.loc 1 596 30 discriminator 1 view .LVU574
 1685 0116 0121     		movs	r1, #1
 1686 0118 01FA02F2 		lsl	r2, r1, r2
 1687              	.LVL180:
 1688              		.loc 1 596 17 discriminator 1 view .LVU575
 1689 011c 9A42     		cmp	r2, r3
 1690 011e 10DC     		bgt	.L133
 597:Middlewares/Third_Party/LibJPEG/source/jdcoefct.c **** 	      pred = (1<<Al)-1;
 1691              		.loc 1 597 8 is_stmt 1 view .LVU576
 1692              		.loc 1 597 13 is_stmt 0 view .LVU577
 1693 0120 531E     		subs	r3, r2, #1
 1694              	.LVL181:
 1695              		.loc 1 597 13 view .LVU578
 1696 0122 0EE0     		b	.L133
 1697              	.LVL182:
 1698              	.L132:
 598:Middlewares/Third_Party/LibJPEG/source/jdcoefct.c **** 	  } else {
 599:Middlewares/Third_Party/LibJPEG/source/jdcoefct.c **** 	    pred = (int) (((Q10<<7) - num) / (Q10<<8));
 1699              		.loc 1 599 6 is_stmt 1 view .LVU579
ARM GAS  /var/folders/mq/wg13gp494590nh4zyt09lxf00000gn/T//ccLgMMOG.s 			page 47


 1700              		.loc 1 599 30 is_stmt 0 view .LVU580
 1701 0124 1199     		ldr	r1, [sp, #68]
 1702 0126 C3EBC113 		rsb	r3, r3, r1, lsl #7
 1703              	.LVL183:
 1704              		.loc 1 599 43 view .LVU581
 1705 012a 0902     		lsls	r1, r1, #8
 1706              		.loc 1 599 11 view .LVU582
 1707 012c 93FBF1F3 		sdiv	r3, r3, r1
 1708              	.LVL184:
 600:Middlewares/Third_Party/LibJPEG/source/jdcoefct.c **** 	    if (Al > 0 && pred >= (1<<Al))
 1709              		.loc 1 600 6 is_stmt 1 view .LVU583
 1710              		.loc 1 600 9 is_stmt 0 view .LVU584
 1711 0130 002A     		cmp	r2, #0
 1712 0132 05DD     		ble	.L134
 1713              		.loc 1 600 30 discriminator 1 view .LVU585
 1714 0134 0121     		movs	r1, #1
 1715 0136 01FA02F2 		lsl	r2, r1, r2
 1716              	.LVL185:
 1717              		.loc 1 600 17 discriminator 1 view .LVU586
 1718 013a 9A42     		cmp	r2, r3
 1719 013c 00DC     		bgt	.L134
 601:Middlewares/Third_Party/LibJPEG/source/jdcoefct.c **** 	      pred = (1<<Al)-1;
 1720              		.loc 1 601 8 is_stmt 1 view .LVU587
 1721              		.loc 1 601 13 is_stmt 0 view .LVU588
 1722 013e 531E     		subs	r3, r2, #1
 1723              	.LVL186:
 1724              	.L134:
 602:Middlewares/Third_Party/LibJPEG/source/jdcoefct.c **** 	    pred = -pred;
 1725              		.loc 1 602 6 is_stmt 1 view .LVU589
 1726              		.loc 1 602 11 is_stmt 0 view .LVU590
 1727 0140 5B42     		rsbs	r3, r3, #0
 1728              	.LVL187:
 1729              	.L133:
 603:Middlewares/Third_Party/LibJPEG/source/jdcoefct.c **** 	  }
 604:Middlewares/Third_Party/LibJPEG/source/jdcoefct.c **** 	  workspace[8] = (JCOEF) pred;
 1730              		.loc 1 604 4 is_stmt 1 view .LVU591
 1731              		.loc 1 604 17 is_stmt 0 view .LVU592
 1732 0142 ADF88830 		strh	r3, [sp, #136]	@ movhi
 1733              	.LVL188:
 1734              	.L131:
 605:Middlewares/Third_Party/LibJPEG/source/jdcoefct.c **** 	}
 606:Middlewares/Third_Party/LibJPEG/source/jdcoefct.c **** 	/* AC20 */
 607:Middlewares/Third_Party/LibJPEG/source/jdcoefct.c **** 	if ((Al=coef_bits[3]) != 0 && workspace[16] == 0) {
 1735              		.loc 1 607 2 is_stmt 1 view .LVU593
 1736              		.loc 1 607 9 is_stmt 0 view .LVU594
 1737 0146 DAF80C20 		ldr	r2, [r10, #12]
 1738              	.LVL189:
 1739              		.loc 1 607 5 view .LVU595
 1740 014a 72B3     		cbz	r2, .L135
 1741              		.loc 1 607 41 discriminator 1 view .LVU596
 1742 014c BDF99830 		ldrsh	r3, [sp, #152]
 1743              		.loc 1 607 29 discriminator 1 view .LVU597
 1744 0150 5BBB     		cbnz	r3, .L135
 608:Middlewares/Third_Party/LibJPEG/source/jdcoefct.c **** 	  num = 9 * Q00 * (DC2 + DC8 - 2*DC5);
 1745              		.loc 1 608 4 is_stmt 1 view .LVU598
 1746              		.loc 1 608 25 is_stmt 0 view .LVU599
 1747 0152 039B     		ldr	r3, [sp, #12]
ARM GAS  /var/folders/mq/wg13gp494590nh4zyt09lxf00000gn/T//ccLgMMOG.s 			page 48


 1748 0154 0599     		ldr	r1, [sp, #20]
 1749 0156 0B44     		add	r3, r3, r1
 1750              		.loc 1 608 31 view .LVU600
 1751 0158 0499     		ldr	r1, [sp, #16]
 1752 015a A3EB4103 		sub	r3, r3, r1, lsl #1
 1753              		.loc 1 608 18 view .LVU601
 1754 015e 0D99     		ldr	r1, [sp, #52]
 1755 0160 01FB03F3 		mul	r3, r1, r3
 1756              	.LVL190:
 609:Middlewares/Third_Party/LibJPEG/source/jdcoefct.c **** 	  if (num >= 0) {
 1757              		.loc 1 609 4 is_stmt 1 view .LVU602
 1758              		.loc 1 609 7 is_stmt 0 view .LVU603
 1759 0164 13EBC303 		adds	r3, r3, r3, lsl #3
 1760              	.LVL191:
 1761              		.loc 1 609 7 view .LVU604
 1762 0168 0ED4     		bmi	.L136
 610:Middlewares/Third_Party/LibJPEG/source/jdcoefct.c **** 	    pred = (int) (((Q20<<7) + num) / (Q20<<8));
 1763              		.loc 1 610 6 is_stmt 1 view .LVU605
 1764              		.loc 1 610 30 is_stmt 0 view .LVU606
 1765 016a 1299     		ldr	r1, [sp, #72]
 1766 016c 03EBC113 		add	r3, r3, r1, lsl #7
 1767              	.LVL192:
 1768              		.loc 1 610 43 view .LVU607
 1769 0170 0902     		lsls	r1, r1, #8
 1770              		.loc 1 610 11 view .LVU608
 1771 0172 93FBF1F3 		sdiv	r3, r3, r1
 1772              	.LVL193:
 611:Middlewares/Third_Party/LibJPEG/source/jdcoefct.c **** 	    if (Al > 0 && pred >= (1<<Al))
 1773              		.loc 1 611 6 is_stmt 1 view .LVU609
 1774              		.loc 1 611 9 is_stmt 0 view .LVU610
 1775 0176 002A     		cmp	r2, #0
 1776 0178 15DD     		ble	.L137
 1777              		.loc 1 611 30 discriminator 1 view .LVU611
 1778 017a 0121     		movs	r1, #1
 1779 017c 01FA02F2 		lsl	r2, r1, r2
 1780              	.LVL194:
 1781              		.loc 1 611 17 discriminator 1 view .LVU612
 1782 0180 9A42     		cmp	r2, r3
 1783 0182 10DC     		bgt	.L137
 612:Middlewares/Third_Party/LibJPEG/source/jdcoefct.c **** 	      pred = (1<<Al)-1;
 1784              		.loc 1 612 8 is_stmt 1 view .LVU613
 1785              		.loc 1 612 13 is_stmt 0 view .LVU614
 1786 0184 531E     		subs	r3, r2, #1
 1787              	.LVL195:
 1788              		.loc 1 612 13 view .LVU615
 1789 0186 0EE0     		b	.L137
 1790              	.LVL196:
 1791              	.L136:
 613:Middlewares/Third_Party/LibJPEG/source/jdcoefct.c **** 	  } else {
 614:Middlewares/Third_Party/LibJPEG/source/jdcoefct.c **** 	    pred = (int) (((Q20<<7) - num) / (Q20<<8));
 1792              		.loc 1 614 6 is_stmt 1 view .LVU616
 1793              		.loc 1 614 30 is_stmt 0 view .LVU617
 1794 0188 1299     		ldr	r1, [sp, #72]
 1795 018a C3EBC113 		rsb	r3, r3, r1, lsl #7
 1796              	.LVL197:
 1797              		.loc 1 614 43 view .LVU618
 1798 018e 0902     		lsls	r1, r1, #8
ARM GAS  /var/folders/mq/wg13gp494590nh4zyt09lxf00000gn/T//ccLgMMOG.s 			page 49


 1799              		.loc 1 614 11 view .LVU619
 1800 0190 93FBF1F3 		sdiv	r3, r3, r1
 1801              	.LVL198:
 615:Middlewares/Third_Party/LibJPEG/source/jdcoefct.c **** 	    if (Al > 0 && pred >= (1<<Al))
 1802              		.loc 1 615 6 is_stmt 1 view .LVU620
 1803              		.loc 1 615 9 is_stmt 0 view .LVU621
 1804 0194 002A     		cmp	r2, #0
 1805 0196 05DD     		ble	.L138
 1806              		.loc 1 615 30 discriminator 1 view .LVU622
 1807 0198 0121     		movs	r1, #1
 1808 019a 01FA02F2 		lsl	r2, r1, r2
 1809              	.LVL199:
 1810              		.loc 1 615 17 discriminator 1 view .LVU623
 1811 019e 9A42     		cmp	r2, r3
 1812 01a0 00DC     		bgt	.L138
 616:Middlewares/Third_Party/LibJPEG/source/jdcoefct.c **** 	      pred = (1<<Al)-1;
 1813              		.loc 1 616 8 is_stmt 1 view .LVU624
 1814              		.loc 1 616 13 is_stmt 0 view .LVU625
 1815 01a2 531E     		subs	r3, r2, #1
 1816              	.LVL200:
 1817              	.L138:
 617:Middlewares/Third_Party/LibJPEG/source/jdcoefct.c **** 	    pred = -pred;
 1818              		.loc 1 617 6 is_stmt 1 view .LVU626
 1819              		.loc 1 617 11 is_stmt 0 view .LVU627
 1820 01a4 5B42     		rsbs	r3, r3, #0
 1821              	.LVL201:
 1822              	.L137:
 618:Middlewares/Third_Party/LibJPEG/source/jdcoefct.c **** 	  }
 619:Middlewares/Third_Party/LibJPEG/source/jdcoefct.c **** 	  workspace[16] = (JCOEF) pred;
 1823              		.loc 1 619 4 is_stmt 1 view .LVU628
 1824              		.loc 1 619 18 is_stmt 0 view .LVU629
 1825 01a6 ADF89830 		strh	r3, [sp, #152]	@ movhi
 1826              	.LVL202:
 1827              	.L135:
 620:Middlewares/Third_Party/LibJPEG/source/jdcoefct.c **** 	}
 621:Middlewares/Third_Party/LibJPEG/source/jdcoefct.c **** 	/* AC11 */
 622:Middlewares/Third_Party/LibJPEG/source/jdcoefct.c **** 	if ((Al=coef_bits[4]) != 0 && workspace[9] == 0) {
 1828              		.loc 1 622 2 is_stmt 1 view .LVU630
 1829              		.loc 1 622 9 is_stmt 0 view .LVU631
 1830 01aa DAF81020 		ldr	r2, [r10, #16]
 1831              	.LVL203:
 1832              		.loc 1 622 5 view .LVU632
 1833 01ae 72B3     		cbz	r2, .L139
 1834              		.loc 1 622 41 discriminator 1 view .LVU633
 1835 01b0 BDF98A30 		ldrsh	r3, [sp, #138]
 1836              		.loc 1 622 29 discriminator 1 view .LVU634
 1837 01b4 5BBB     		cbnz	r3, .L139
 623:Middlewares/Third_Party/LibJPEG/source/jdcoefct.c **** 	  num = 5 * Q00 * (DC1 - DC3 - DC7 + DC9);
 1838              		.loc 1 623 4 is_stmt 1 view .LVU635
 1839              		.loc 1 623 25 is_stmt 0 view .LVU636
 1840 01b6 0899     		ldr	r1, [sp, #32]
 1841 01b8 7B1A     		subs	r3, r7, r1
 1842              		.loc 1 623 31 view .LVU637
 1843 01ba 0B99     		ldr	r1, [sp, #44]
 1844 01bc 5B1A     		subs	r3, r3, r1
 1845              		.loc 1 623 37 view .LVU638
 1846 01be 0999     		ldr	r1, [sp, #36]
ARM GAS  /var/folders/mq/wg13gp494590nh4zyt09lxf00000gn/T//ccLgMMOG.s 			page 50


 1847 01c0 0B44     		add	r3, r3, r1
 1848              		.loc 1 623 18 view .LVU639
 1849 01c2 0D99     		ldr	r1, [sp, #52]
 1850 01c4 01FB03F3 		mul	r3, r1, r3
 1851              	.LVL204:
 624:Middlewares/Third_Party/LibJPEG/source/jdcoefct.c **** 	  if (num >= 0) {
 1852              		.loc 1 624 4 is_stmt 1 view .LVU640
 1853              		.loc 1 624 7 is_stmt 0 view .LVU641
 1854 01c8 13EB8303 		adds	r3, r3, r3, lsl #2
 1855              	.LVL205:
 1856              		.loc 1 624 7 view .LVU642
 1857 01cc 0ED4     		bmi	.L140
 625:Middlewares/Third_Party/LibJPEG/source/jdcoefct.c **** 	    pred = (int) (((Q11<<7) + num) / (Q11<<8));
 1858              		.loc 1 625 6 is_stmt 1 view .LVU643
 1859              		.loc 1 625 30 is_stmt 0 view .LVU644
 1860 01ce 1399     		ldr	r1, [sp, #76]
 1861 01d0 03EBC113 		add	r3, r3, r1, lsl #7
 1862              	.LVL206:
 1863              		.loc 1 625 43 view .LVU645
 1864 01d4 0902     		lsls	r1, r1, #8
 1865              		.loc 1 625 11 view .LVU646
 1866 01d6 93FBF1F3 		sdiv	r3, r3, r1
 1867              	.LVL207:
 626:Middlewares/Third_Party/LibJPEG/source/jdcoefct.c **** 	    if (Al > 0 && pred >= (1<<Al))
 1868              		.loc 1 626 6 is_stmt 1 view .LVU647
 1869              		.loc 1 626 9 is_stmt 0 view .LVU648
 1870 01da 002A     		cmp	r2, #0
 1871 01dc 15DD     		ble	.L141
 1872              		.loc 1 626 30 discriminator 1 view .LVU649
 1873 01de 0121     		movs	r1, #1
 1874 01e0 01FA02F2 		lsl	r2, r1, r2
 1875              	.LVL208:
 1876              		.loc 1 626 17 discriminator 1 view .LVU650
 1877 01e4 9A42     		cmp	r2, r3
 1878 01e6 10DC     		bgt	.L141
 627:Middlewares/Third_Party/LibJPEG/source/jdcoefct.c **** 	      pred = (1<<Al)-1;
 1879              		.loc 1 627 8 is_stmt 1 view .LVU651
 1880              		.loc 1 627 13 is_stmt 0 view .LVU652
 1881 01e8 531E     		subs	r3, r2, #1
 1882              	.LVL209:
 1883              		.loc 1 627 13 view .LVU653
 1884 01ea 0EE0     		b	.L141
 1885              	.LVL210:
 1886              	.L140:
 628:Middlewares/Third_Party/LibJPEG/source/jdcoefct.c **** 	  } else {
 629:Middlewares/Third_Party/LibJPEG/source/jdcoefct.c **** 	    pred = (int) (((Q11<<7) - num) / (Q11<<8));
 1887              		.loc 1 629 6 is_stmt 1 view .LVU654
 1888              		.loc 1 629 30 is_stmt 0 view .LVU655
 1889 01ec 1399     		ldr	r1, [sp, #76]
 1890 01ee C3EBC113 		rsb	r3, r3, r1, lsl #7
 1891              	.LVL211:
 1892              		.loc 1 629 43 view .LVU656
 1893 01f2 0902     		lsls	r1, r1, #8
 1894              		.loc 1 629 11 view .LVU657
 1895 01f4 93FBF1F3 		sdiv	r3, r3, r1
 1896              	.LVL212:
 630:Middlewares/Third_Party/LibJPEG/source/jdcoefct.c **** 	    if (Al > 0 && pred >= (1<<Al))
ARM GAS  /var/folders/mq/wg13gp494590nh4zyt09lxf00000gn/T//ccLgMMOG.s 			page 51


 1897              		.loc 1 630 6 is_stmt 1 view .LVU658
 1898              		.loc 1 630 9 is_stmt 0 view .LVU659
 1899 01f8 002A     		cmp	r2, #0
 1900 01fa 05DD     		ble	.L142
 1901              		.loc 1 630 30 discriminator 1 view .LVU660
 1902 01fc 0121     		movs	r1, #1
 1903 01fe 01FA02F2 		lsl	r2, r1, r2
 1904              	.LVL213:
 1905              		.loc 1 630 17 discriminator 1 view .LVU661
 1906 0202 9A42     		cmp	r2, r3
 1907 0204 00DC     		bgt	.L142
 631:Middlewares/Third_Party/LibJPEG/source/jdcoefct.c **** 	      pred = (1<<Al)-1;
 1908              		.loc 1 631 8 is_stmt 1 view .LVU662
 1909              		.loc 1 631 13 is_stmt 0 view .LVU663
 1910 0206 531E     		subs	r3, r2, #1
 1911              	.LVL214:
 1912              	.L142:
 632:Middlewares/Third_Party/LibJPEG/source/jdcoefct.c **** 	    pred = -pred;
 1913              		.loc 1 632 6 is_stmt 1 view .LVU664
 1914              		.loc 1 632 11 is_stmt 0 view .LVU665
 1915 0208 5B42     		rsbs	r3, r3, #0
 1916              	.LVL215:
 1917              	.L141:
 633:Middlewares/Third_Party/LibJPEG/source/jdcoefct.c **** 	  }
 634:Middlewares/Third_Party/LibJPEG/source/jdcoefct.c **** 	  workspace[9] = (JCOEF) pred;
 1918              		.loc 1 634 4 is_stmt 1 view .LVU666
 1919              		.loc 1 634 17 is_stmt 0 view .LVU667
 1920 020a ADF88A30 		strh	r3, [sp, #138]	@ movhi
 1921              	.LVL216:
 1922              	.L139:
 635:Middlewares/Third_Party/LibJPEG/source/jdcoefct.c **** 	}
 636:Middlewares/Third_Party/LibJPEG/source/jdcoefct.c **** 	/* AC02 */
 637:Middlewares/Third_Party/LibJPEG/source/jdcoefct.c **** 	if ((Al=coef_bits[5]) != 0 && workspace[2] == 0) {
 1923              		.loc 1 637 2 is_stmt 1 view .LVU668
 1924              		.loc 1 637 9 is_stmt 0 view .LVU669
 1925 020e DAF81420 		ldr	r2, [r10, #20]
 1926              	.LVL217:
 1927              		.loc 1 637 5 view .LVU670
 1928 0212 72B3     		cbz	r2, .L143
 1929              		.loc 1 637 41 discriminator 1 view .LVU671
 1930 0214 BDF97C30 		ldrsh	r3, [sp, #124]
 1931              		.loc 1 637 29 discriminator 1 view .LVU672
 1932 0218 5BBB     		cbnz	r3, .L143
 638:Middlewares/Third_Party/LibJPEG/source/jdcoefct.c **** 	  num = 9 * Q00 * (DC4 + DC6 - 2*DC5);
 1933              		.loc 1 638 4 is_stmt 1 view .LVU673
 1934              		.loc 1 638 25 is_stmt 0 view .LVU674
 1935 021a 0A9B     		ldr	r3, [sp, #40]
 1936 021c 0799     		ldr	r1, [sp, #28]
 1937 021e 0B44     		add	r3, r3, r1
 1938              		.loc 1 638 31 view .LVU675
 1939 0220 0499     		ldr	r1, [sp, #16]
 1940 0222 A3EB4103 		sub	r3, r3, r1, lsl #1
 1941              		.loc 1 638 18 view .LVU676
 1942 0226 0D99     		ldr	r1, [sp, #52]
 1943 0228 01FB03F3 		mul	r3, r1, r3
 1944              	.LVL218:
 639:Middlewares/Third_Party/LibJPEG/source/jdcoefct.c **** 	  if (num >= 0) {
ARM GAS  /var/folders/mq/wg13gp494590nh4zyt09lxf00000gn/T//ccLgMMOG.s 			page 52


 1945              		.loc 1 639 4 is_stmt 1 view .LVU677
 1946              		.loc 1 639 7 is_stmt 0 view .LVU678
 1947 022c 13EBC303 		adds	r3, r3, r3, lsl #3
 1948              	.LVL219:
 1949              		.loc 1 639 7 view .LVU679
 1950 0230 0ED4     		bmi	.L144
 640:Middlewares/Third_Party/LibJPEG/source/jdcoefct.c **** 	    pred = (int) (((Q02<<7) + num) / (Q02<<8));
 1951              		.loc 1 640 6 is_stmt 1 view .LVU680
 1952              		.loc 1 640 30 is_stmt 0 view .LVU681
 1953 0232 1499     		ldr	r1, [sp, #80]
 1954 0234 03EBC113 		add	r3, r3, r1, lsl #7
 1955              	.LVL220:
 1956              		.loc 1 640 43 view .LVU682
 1957 0238 0902     		lsls	r1, r1, #8
 1958              		.loc 1 640 11 view .LVU683
 1959 023a 93FBF1F3 		sdiv	r3, r3, r1
 1960              	.LVL221:
 641:Middlewares/Third_Party/LibJPEG/source/jdcoefct.c **** 	    if (Al > 0 && pred >= (1<<Al))
 1961              		.loc 1 641 6 is_stmt 1 view .LVU684
 1962              		.loc 1 641 9 is_stmt 0 view .LVU685
 1963 023e 002A     		cmp	r2, #0
 1964 0240 15DD     		ble	.L145
 1965              		.loc 1 641 30 discriminator 1 view .LVU686
 1966 0242 0121     		movs	r1, #1
 1967 0244 01FA02F2 		lsl	r2, r1, r2
 1968              	.LVL222:
 1969              		.loc 1 641 17 discriminator 1 view .LVU687
 1970 0248 9A42     		cmp	r2, r3
 1971 024a 10DC     		bgt	.L145
 642:Middlewares/Third_Party/LibJPEG/source/jdcoefct.c **** 	      pred = (1<<Al)-1;
 1972              		.loc 1 642 8 is_stmt 1 view .LVU688
 1973              		.loc 1 642 13 is_stmt 0 view .LVU689
 1974 024c 531E     		subs	r3, r2, #1
 1975              	.LVL223:
 1976              		.loc 1 642 13 view .LVU690
 1977 024e 0EE0     		b	.L145
 1978              	.LVL224:
 1979              	.L144:
 643:Middlewares/Third_Party/LibJPEG/source/jdcoefct.c **** 	  } else {
 644:Middlewares/Third_Party/LibJPEG/source/jdcoefct.c **** 	    pred = (int) (((Q02<<7) - num) / (Q02<<8));
 1980              		.loc 1 644 6 is_stmt 1 view .LVU691
 1981              		.loc 1 644 30 is_stmt 0 view .LVU692
 1982 0250 1499     		ldr	r1, [sp, #80]
 1983 0252 C3EBC113 		rsb	r3, r3, r1, lsl #7
 1984              	.LVL225:
 1985              		.loc 1 644 43 view .LVU693
 1986 0256 0902     		lsls	r1, r1, #8
 1987              		.loc 1 644 11 view .LVU694
 1988 0258 93FBF1F3 		sdiv	r3, r3, r1
 1989              	.LVL226:
 645:Middlewares/Third_Party/LibJPEG/source/jdcoefct.c **** 	    if (Al > 0 && pred >= (1<<Al))
 1990              		.loc 1 645 6 is_stmt 1 view .LVU695
 1991              		.loc 1 645 9 is_stmt 0 view .LVU696
 1992 025c 002A     		cmp	r2, #0
 1993 025e 05DD     		ble	.L146
 1994              		.loc 1 645 30 discriminator 1 view .LVU697
 1995 0260 0121     		movs	r1, #1
ARM GAS  /var/folders/mq/wg13gp494590nh4zyt09lxf00000gn/T//ccLgMMOG.s 			page 53


 1996 0262 01FA02F2 		lsl	r2, r1, r2
 1997              	.LVL227:
 1998              		.loc 1 645 17 discriminator 1 view .LVU698
 1999 0266 9A42     		cmp	r2, r3
 2000 0268 00DC     		bgt	.L146
 646:Middlewares/Third_Party/LibJPEG/source/jdcoefct.c **** 	      pred = (1<<Al)-1;
 2001              		.loc 1 646 8 is_stmt 1 view .LVU699
 2002              		.loc 1 646 13 is_stmt 0 view .LVU700
 2003 026a 531E     		subs	r3, r2, #1
 2004              	.LVL228:
 2005              	.L146:
 647:Middlewares/Third_Party/LibJPEG/source/jdcoefct.c **** 	    pred = -pred;
 2006              		.loc 1 647 6 is_stmt 1 view .LVU701
 2007              		.loc 1 647 11 is_stmt 0 view .LVU702
 2008 026c 5B42     		rsbs	r3, r3, #0
 2009              	.LVL229:
 2010              	.L145:
 648:Middlewares/Third_Party/LibJPEG/source/jdcoefct.c **** 	  }
 649:Middlewares/Third_Party/LibJPEG/source/jdcoefct.c **** 	  workspace[2] = (JCOEF) pred;
 2011              		.loc 1 649 4 is_stmt 1 view .LVU703
 2012              		.loc 1 649 17 is_stmt 0 view .LVU704
 2013 026e ADF87C30 		strh	r3, [sp, #124]	@ movhi
 2014              	.LVL230:
 2015              	.L143:
 650:Middlewares/Third_Party/LibJPEG/source/jdcoefct.c **** 	}
 651:Middlewares/Third_Party/LibJPEG/source/jdcoefct.c **** 	/* OK, do the IDCT */
 652:Middlewares/Third_Party/LibJPEG/source/jdcoefct.c **** 	(*inverse_DCT) (cinfo, compptr, (JCOEFPTR) workspace,
 2016              		.loc 1 652 2 is_stmt 1 view .LVU705
 2017              		.loc 1 652 3 is_stmt 0 view .LVU706
 2018 0272 0096     		str	r6, [sp]
 2019              	.LVL231:
 2020              		.loc 1 652 3 view .LVU707
 2021 0274 0C9B     		ldr	r3, [sp, #48]
 2022 0276 1EAA     		add	r2, sp, #120
 2023 0278 5946     		mov	r1, fp
 2024 027a 0E98     		ldr	r0, [sp, #56]
 2025 027c 0F9F     		ldr	r7, [sp, #60]
 2026              	.LVL232:
 2027              		.loc 1 652 3 view .LVU708
 2028 027e B847     		blx	r7
 2029              	.LVL233:
 653:Middlewares/Third_Party/LibJPEG/source/jdcoefct.c **** 			output_ptr, output_col);
 654:Middlewares/Third_Party/LibJPEG/source/jdcoefct.c **** 	/* Advance for next column */
 655:Middlewares/Third_Party/LibJPEG/source/jdcoefct.c **** 	DC1 = DC2; DC2 = DC3;
 2030              		.loc 1 655 2 is_stmt 1 view .LVU709
 2031              		.loc 1 655 13 view .LVU710
 656:Middlewares/Third_Party/LibJPEG/source/jdcoefct.c **** 	DC4 = DC5; DC5 = DC6;
 2032              		.loc 1 656 2 view .LVU711
 2033              		.loc 1 656 13 view .LVU712
 657:Middlewares/Third_Party/LibJPEG/source/jdcoefct.c **** 	DC7 = DC8; DC8 = DC9;
 2034              		.loc 1 657 2 view .LVU713
 2035              		.loc 1 657 13 view .LVU714
 658:Middlewares/Third_Party/LibJPEG/source/jdcoefct.c **** 	buffer_ptr++, prev_block_row++, next_block_row++;
 2036              		.loc 1 658 2 view .LVU715
 2037              		.loc 1 658 12 is_stmt 0 view .LVU716
 2038 0280 8035     		adds	r5, r5, #128
 2039              	.LVL234:
ARM GAS  /var/folders/mq/wg13gp494590nh4zyt09lxf00000gn/T//ccLgMMOG.s 			page 54


 2040              		.loc 1 658 30 view .LVU717
 2041 0282 069B     		ldr	r3, [sp, #24]
 2042 0284 8033     		adds	r3, r3, #128
 2043 0286 0693     		str	r3, [sp, #24]
 2044              	.LVL235:
 2045              		.loc 1 658 48 view .LVU718
 2046 0288 08F18008 		add	r8, r8, #128
 2047              	.LVL236:
 659:Middlewares/Third_Party/LibJPEG/source/jdcoefct.c **** 	output_col += compptr->DCT_h_scaled_size;
 2048              		.loc 1 659 2 is_stmt 1 view .LVU719
 2049              		.loc 1 659 23 is_stmt 0 view .LVU720
 2050 028c DBF82430 		ldr	r3, [fp, #36]
 2051              	.LVL237:
 2052              		.loc 1 659 13 view .LVU721
 2053 0290 1E44     		add	r6, r6, r3
 2054              	.LVL238:
 563:Middlewares/Third_Party/LibJPEG/source/jdcoefct.c **** 	/* Fetch current DCT block into workspace so we can modify it. */
 2055              		.loc 1 563 68 is_stmt 1 discriminator 2 view .LVU722
 2056 0292 0134     		adds	r4, r4, #1
 2057              	.LVL239:
 657:Middlewares/Third_Party/LibJPEG/source/jdcoefct.c **** 	buffer_ptr++, prev_block_row++, next_block_row++;
 2058              		.loc 1 657 6 is_stmt 0 view .LVU723
 2059 0294 059B     		ldr	r3, [sp, #20]
 2060 0296 0B93     		str	r3, [sp, #44]
 657:Middlewares/Third_Party/LibJPEG/source/jdcoefct.c **** 	buffer_ptr++, prev_block_row++, next_block_row++;
 2061              		.loc 1 657 17 view .LVU724
 2062 0298 099B     		ldr	r3, [sp, #36]
 2063 029a 0593     		str	r3, [sp, #20]
 2064              	.LVL240:
 656:Middlewares/Third_Party/LibJPEG/source/jdcoefct.c **** 	DC7 = DC8; DC8 = DC9;
 2065              		.loc 1 656 6 view .LVU725
 2066 029c 049B     		ldr	r3, [sp, #16]
 2067 029e 0A93     		str	r3, [sp, #40]
 656:Middlewares/Third_Party/LibJPEG/source/jdcoefct.c **** 	DC7 = DC8; DC8 = DC9;
 2068              		.loc 1 656 17 view .LVU726
 2069 02a0 079B     		ldr	r3, [sp, #28]
 2070 02a2 0493     		str	r3, [sp, #16]
 2071              	.LVL241:
 655:Middlewares/Third_Party/LibJPEG/source/jdcoefct.c **** 	DC4 = DC5; DC5 = DC6;
 2072              		.loc 1 655 6 view .LVU727
 2073 02a4 039B     		ldr	r3, [sp, #12]
 2074 02a6 1F46     		mov	r7, r3
 655:Middlewares/Third_Party/LibJPEG/source/jdcoefct.c **** 	DC4 = DC5; DC5 = DC6;
 2075              		.loc 1 655 17 view .LVU728
 2076 02a8 089B     		ldr	r3, [sp, #32]
 2077 02aa 0393     		str	r3, [sp, #12]
 2078              	.LVL242:
 2079              	.L125:
 563:Middlewares/Third_Party/LibJPEG/source/jdcoefct.c **** 	/* Fetch current DCT block into workspace so we can modify it. */
 2080              		.loc 1 563 37 is_stmt 1 discriminator 1 view .LVU729
 2081 02ac 4C45     		cmp	r4, r9
 2082 02ae 37D8     		bhi	.L157
 565:Middlewares/Third_Party/LibJPEG/source/jdcoefct.c **** 	/* Update DC values */
 2083              		.loc 1 565 2 view .LVU730
 2084 02b0 0122     		movs	r2, #1
 2085 02b2 1EA9     		add	r1, sp, #120
 2086 02b4 2846     		mov	r0, r5
ARM GAS  /var/folders/mq/wg13gp494590nh4zyt09lxf00000gn/T//ccLgMMOG.s 			page 55


 2087 02b6 FFF7FEFF 		bl	jcopy_block_row
 2088              	.LVL243:
 567:Middlewares/Third_Party/LibJPEG/source/jdcoefct.c **** 	  DC3 = (int) prev_block_row[1][0];
 2089              		.loc 1 567 2 view .LVU731
 567:Middlewares/Third_Party/LibJPEG/source/jdcoefct.c **** 	  DC3 = (int) prev_block_row[1][0];
 2090              		.loc 1 567 5 is_stmt 0 view .LVU732
 2091 02ba 4C45     		cmp	r4, r9
 2092 02bc BFF4FBAE 		bcs	.L153
 568:Middlewares/Third_Party/LibJPEG/source/jdcoefct.c **** 	  DC6 = (int) buffer_ptr[1][0];
 2093              		.loc 1 568 4 is_stmt 1 view .LVU733
 568:Middlewares/Third_Party/LibJPEG/source/jdcoefct.c **** 	  DC6 = (int) buffer_ptr[1][0];
 2094              		.loc 1 568 33 is_stmt 0 view .LVU734
 2095 02c0 069B     		ldr	r3, [sp, #24]
 2096 02c2 B3F98030 		ldrsh	r3, [r3, #128]
 2097 02c6 0893     		str	r3, [sp, #32]
 2098              	.LVL244:
 569:Middlewares/Third_Party/LibJPEG/source/jdcoefct.c **** 	  DC9 = (int) next_block_row[1][0];
 2099              		.loc 1 569 4 is_stmt 1 view .LVU735
 569:Middlewares/Third_Party/LibJPEG/source/jdcoefct.c **** 	  DC9 = (int) next_block_row[1][0];
 2100              		.loc 1 569 29 is_stmt 0 view .LVU736
 2101 02c8 B5F98030 		ldrsh	r3, [r5, #128]
 2102              	.LVL245:
 569:Middlewares/Third_Party/LibJPEG/source/jdcoefct.c **** 	  DC9 = (int) next_block_row[1][0];
 2103              		.loc 1 569 29 view .LVU737
 2104 02cc 0793     		str	r3, [sp, #28]
 2105              	.LVL246:
 570:Middlewares/Third_Party/LibJPEG/source/jdcoefct.c **** 	}
 2106              		.loc 1 570 4 is_stmt 1 view .LVU738
 570:Middlewares/Third_Party/LibJPEG/source/jdcoefct.c **** 	}
 2107              		.loc 1 570 33 is_stmt 0 view .LVU739
 2108 02ce B8F98030 		ldrsh	r3, [r8, #128]
 2109              	.LVL247:
 570:Middlewares/Third_Party/LibJPEG/source/jdcoefct.c **** 	}
 2110              		.loc 1 570 33 view .LVU740
 2111 02d2 0993     		str	r3, [sp, #36]
 2112              	.LVL248:
 2113              	.L126:
 577:Middlewares/Third_Party/LibJPEG/source/jdcoefct.c **** 	  num = 36 * Q00 * (DC4 - DC6);
 2114              		.loc 1 577 2 is_stmt 1 view .LVU741
 577:Middlewares/Third_Party/LibJPEG/source/jdcoefct.c **** 	  num = 36 * Q00 * (DC4 - DC6);
 2115              		.loc 1 577 9 is_stmt 0 view .LVU742
 2116 02d4 DAF80420 		ldr	r2, [r10, #4]
 2117              	.LVL249:
 577:Middlewares/Third_Party/LibJPEG/source/jdcoefct.c **** 	  num = 36 * Q00 * (DC4 - DC6);
 2118              		.loc 1 577 5 view .LVU743
 2119 02d8 002A     		cmp	r2, #0
 2120 02da 3FF404AF 		beq	.L127
 577:Middlewares/Third_Party/LibJPEG/source/jdcoefct.c **** 	  num = 36 * Q00 * (DC4 - DC6);
 2121              		.loc 1 577 41 discriminator 1 view .LVU744
 2122 02de BDF97A30 		ldrsh	r3, [sp, #122]
 577:Middlewares/Third_Party/LibJPEG/source/jdcoefct.c **** 	  num = 36 * Q00 * (DC4 - DC6);
 2123              		.loc 1 577 29 discriminator 1 view .LVU745
 2124 02e2 002B     		cmp	r3, #0
 2125 02e4 7FF4FFAE 		bne	.L127
 578:Middlewares/Third_Party/LibJPEG/source/jdcoefct.c **** 	  if (num >= 0) {
 2126              		.loc 1 578 4 is_stmt 1 view .LVU746
 578:Middlewares/Third_Party/LibJPEG/source/jdcoefct.c **** 	  if (num >= 0) {
ARM GAS  /var/folders/mq/wg13gp494590nh4zyt09lxf00000gn/T//ccLgMMOG.s 			page 56


 2127              		.loc 1 578 26 is_stmt 0 view .LVU747
 2128 02e8 0A9B     		ldr	r3, [sp, #40]
 2129 02ea 0799     		ldr	r1, [sp, #28]
 2130 02ec 5B1A     		subs	r3, r3, r1
 578:Middlewares/Third_Party/LibJPEG/source/jdcoefct.c **** 	  if (num >= 0) {
 2131              		.loc 1 578 19 view .LVU748
 2132 02ee 0D99     		ldr	r1, [sp, #52]
 2133 02f0 01FB03F3 		mul	r3, r1, r3
 578:Middlewares/Third_Party/LibJPEG/source/jdcoefct.c **** 	  if (num >= 0) {
 2134              		.loc 1 578 8 view .LVU749
 2135 02f4 03EBC303 		add	r3, r3, r3, lsl #3
 2136              	.LVL250:
 579:Middlewares/Third_Party/LibJPEG/source/jdcoefct.c **** 	    pred = (int) (((Q01<<7) + num) / (Q01<<8));
 2137              		.loc 1 579 4 is_stmt 1 view .LVU750
 579:Middlewares/Third_Party/LibJPEG/source/jdcoefct.c **** 	    pred = (int) (((Q01<<7) + num) / (Q01<<8));
 2138              		.loc 1 579 7 is_stmt 0 view .LVU751
 2139 02f8 9B00     		lsls	r3, r3, #2
 2140              	.LVL251:
 579:Middlewares/Third_Party/LibJPEG/source/jdcoefct.c **** 	    pred = (int) (((Q01<<7) + num) / (Q01<<8));
 2141              		.loc 1 579 7 view .LVU752
 2142 02fa 3FF5E3AE 		bmi	.L128
 580:Middlewares/Third_Party/LibJPEG/source/jdcoefct.c **** 	    if (Al > 0 && pred >= (1<<Al))
 2143              		.loc 1 580 6 is_stmt 1 view .LVU753
 580:Middlewares/Third_Party/LibJPEG/source/jdcoefct.c **** 	    if (Al > 0 && pred >= (1<<Al))
 2144              		.loc 1 580 30 is_stmt 0 view .LVU754
 2145 02fe 1099     		ldr	r1, [sp, #64]
 2146 0300 03EBC113 		add	r3, r3, r1, lsl #7
 2147              	.LVL252:
 580:Middlewares/Third_Party/LibJPEG/source/jdcoefct.c **** 	    if (Al > 0 && pred >= (1<<Al))
 2148              		.loc 1 580 43 view .LVU755
 2149 0304 0902     		lsls	r1, r1, #8
 580:Middlewares/Third_Party/LibJPEG/source/jdcoefct.c **** 	    if (Al > 0 && pred >= (1<<Al))
 2150              		.loc 1 580 11 view .LVU756
 2151 0306 93FBF1F3 		sdiv	r3, r3, r1
 2152              	.LVL253:
 581:Middlewares/Third_Party/LibJPEG/source/jdcoefct.c **** 	      pred = (1<<Al)-1;
 2153              		.loc 1 581 6 is_stmt 1 view .LVU757
 581:Middlewares/Third_Party/LibJPEG/source/jdcoefct.c **** 	      pred = (1<<Al)-1;
 2154              		.loc 1 581 9 is_stmt 0 view .LVU758
 2155 030a 002A     		cmp	r2, #0
 2156 030c 7FF7E9AE 		ble	.L129
 581:Middlewares/Third_Party/LibJPEG/source/jdcoefct.c **** 	      pred = (1<<Al)-1;
 2157              		.loc 1 581 30 discriminator 1 view .LVU759
 2158 0310 0121     		movs	r1, #1
 2159 0312 01FA02F2 		lsl	r2, r1, r2
 2160              	.LVL254:
 581:Middlewares/Third_Party/LibJPEG/source/jdcoefct.c **** 	      pred = (1<<Al)-1;
 2161              		.loc 1 581 17 discriminator 1 view .LVU760
 2162 0316 9A42     		cmp	r2, r3
 2163 0318 3FF7E3AE 		bgt	.L129
 582:Middlewares/Third_Party/LibJPEG/source/jdcoefct.c **** 	  } else {
 2164              		.loc 1 582 8 is_stmt 1 view .LVU761
 582:Middlewares/Third_Party/LibJPEG/source/jdcoefct.c **** 	  } else {
 2165              		.loc 1 582 13 is_stmt 0 view .LVU762
 2166 031c 531E     		subs	r3, r2, #1
 2167              	.LVL255:
 582:Middlewares/Third_Party/LibJPEG/source/jdcoefct.c **** 	  } else {
ARM GAS  /var/folders/mq/wg13gp494590nh4zyt09lxf00000gn/T//ccLgMMOG.s 			page 57


 2168              		.loc 1 582 13 view .LVU763
 2169 031e E0E6     		b	.L129
 2170              	.LVL256:
 2171              	.L157:
 660:Middlewares/Third_Party/LibJPEG/source/jdcoefct.c ****       }
 661:Middlewares/Third_Party/LibJPEG/source/jdcoefct.c ****       output_ptr += compptr->DCT_v_scaled_size;
 2172              		.loc 1 661 28 view .LVU764
 2173 0320 DDF854E0 		ldr	lr, [sp, #84]
 2174 0324 DDF858C0 		ldr	ip, [sp, #88]
 2175              		.loc 1 661 7 is_stmt 1 view .LVU765
 2176              		.loc 1 661 28 is_stmt 0 view .LVU766
 2177 0328 DBF82830 		ldr	r3, [fp, #40]
 2178              		.loc 1 661 18 view .LVU767
 2179 032c 0C9A     		ldr	r2, [sp, #48]
 2180 032e 02EB8303 		add	r3, r2, r3, lsl #2
 2181 0332 0C93     		str	r3, [sp, #48]
 2182              	.LVL257:
 545:Middlewares/Third_Party/LibJPEG/source/jdcoefct.c ****       buffer_ptr = buffer[block_row];
 2183              		.loc 1 545 58 is_stmt 1 discriminator 2 view .LVU768
 2184 0334 0EF1010E 		add	lr, lr, #1
 2185              	.LVL258:
 2186              	.L121:
 545:Middlewares/Third_Party/LibJPEG/source/jdcoefct.c ****       buffer_ptr = buffer[block_row];
 2187              		.loc 1 545 35 discriminator 1 view .LVU769
 2188 0338 179B     		ldr	r3, [sp, #92]
 2189 033a 9E45     		cmp	lr, r3
 2190 033c 33DA     		bge	.L158
 546:Middlewares/Third_Party/LibJPEG/source/jdcoefct.c ****       if (first_row && block_row == 0)
 2191              		.loc 1 546 7 view .LVU770
 546:Middlewares/Third_Party/LibJPEG/source/jdcoefct.c ****       if (first_row && block_row == 0)
 2192              		.loc 1 546 26 is_stmt 0 view .LVU771
 2193 033e 7346     		mov	r3, lr
 546:Middlewares/Third_Party/LibJPEG/source/jdcoefct.c ****       if (first_row && block_row == 0)
 2194              		.loc 1 546 18 view .LVU772
 2195 0340 5CF82E50 		ldr	r5, [ip, lr, lsl #2]
 2196              	.LVL259:
 547:Middlewares/Third_Party/LibJPEG/source/jdcoefct.c **** 	prev_block_row = buffer_ptr;
 2197              		.loc 1 547 7 is_stmt 1 view .LVU773
 547:Middlewares/Third_Party/LibJPEG/source/jdcoefct.c **** 	prev_block_row = buffer_ptr;
 2198              		.loc 1 547 21 is_stmt 0 view .LVU774
 2199 0344 189A     		ldr	r2, [sp, #96]
 2200 0346 BEF1000F 		cmp	lr, #0
 2201 034a 14BF     		ite	ne
 2202 034c 0022     		movne	r2, #0
 2203 034e 02F00102 		andeq	r2, r2, #1
 547:Middlewares/Third_Party/LibJPEG/source/jdcoefct.c **** 	prev_block_row = buffer_ptr;
 2204              		.loc 1 547 10 view .LVU775
 2205 0352 002A     		cmp	r2, #0
 2206 0354 7FF4ABAE 		bne	.L151
 550:Middlewares/Third_Party/LibJPEG/source/jdcoefct.c ****       if (last_row && block_row == block_rows-1)
 2207              		.loc 1 550 2 is_stmt 1 view .LVU776
 550:Middlewares/Third_Party/LibJPEG/source/jdcoefct.c ****       if (last_row && block_row == block_rows-1)
 2208              		.loc 1 550 25 is_stmt 0 view .LVU777
 2209 0358 6FF04042 		mvn	r2, #-1073741824
 2210 035c 7244     		add	r2, r2, lr
 550:Middlewares/Third_Party/LibJPEG/source/jdcoefct.c ****       if (last_row && block_row == block_rows-1)
 2211              		.loc 1 550 17 view .LVU778
ARM GAS  /var/folders/mq/wg13gp494590nh4zyt09lxf00000gn/T//ccLgMMOG.s 			page 58


 2212 035e 5CF82270 		ldr	r7, [ip, r2, lsl #2]
 2213              	.LVL260:
 2214              	.L122:
 551:Middlewares/Third_Party/LibJPEG/source/jdcoefct.c **** 	next_block_row = buffer_ptr;
 2215              		.loc 1 551 7 is_stmt 1 view .LVU779
 551:Middlewares/Third_Party/LibJPEG/source/jdcoefct.c **** 	next_block_row = buffer_ptr;
 2216              		.loc 1 551 10 is_stmt 0 view .LVU780
 2217 0362 199A     		ldr	r2, [sp, #100]
 2218 0364 22B1     		cbz	r2, .L123
 551:Middlewares/Third_Party/LibJPEG/source/jdcoefct.c **** 	next_block_row = buffer_ptr;
 2219              		.loc 1 551 46 discriminator 1 view .LVU781
 2220 0366 179A     		ldr	r2, [sp, #92]
 2221 0368 501E     		subs	r0, r2, #1
 551:Middlewares/Third_Party/LibJPEG/source/jdcoefct.c **** 	next_block_row = buffer_ptr;
 2222              		.loc 1 551 20 discriminator 1 view .LVU782
 2223 036a 7045     		cmp	r0, lr
 2224 036c 3FF4A1AE 		beq	.L152
 2225              	.LVL261:
 2226              	.L123:
 554:Middlewares/Third_Party/LibJPEG/source/jdcoefct.c ****       /* We fetch the surrounding DC values using a sliding-register approach.
 2227              		.loc 1 554 2 is_stmt 1 view .LVU783
 554:Middlewares/Third_Party/LibJPEG/source/jdcoefct.c ****       /* We fetch the surrounding DC values using a sliding-register approach.
 2228              		.loc 1 554 25 is_stmt 0 view .LVU784
 2229 0370 0133     		adds	r3, r3, #1
 2230              	.LVL262:
 554:Middlewares/Third_Party/LibJPEG/source/jdcoefct.c ****       /* We fetch the surrounding DC values using a sliding-register approach.
 2231              		.loc 1 554 17 view .LVU785
 2232 0372 5CF82380 		ldr	r8, [ip, r3, lsl #2]
 2233              	.LVL263:
 2234              	.L124:
 558:Middlewares/Third_Party/LibJPEG/source/jdcoefct.c ****       DC4 = DC5 = DC6 = (int) buffer_ptr[0][0];
 2235              		.loc 1 558 7 is_stmt 1 view .LVU786
 558:Middlewares/Third_Party/LibJPEG/source/jdcoefct.c ****       DC4 = DC5 = DC6 = (int) buffer_ptr[0][0];
 2236              		.loc 1 558 48 is_stmt 0 view .LVU787
 2237 0376 B7F90010 		ldrsh	r1, [r7]
 2238              	.LVL264:
 559:Middlewares/Third_Party/LibJPEG/source/jdcoefct.c ****       DC7 = DC8 = DC9 = (int) next_block_row[0][0];
 2239              		.loc 1 559 7 is_stmt 1 view .LVU788
 559:Middlewares/Third_Party/LibJPEG/source/jdcoefct.c ****       DC7 = DC8 = DC9 = (int) next_block_row[0][0];
 2240              		.loc 1 559 44 is_stmt 0 view .LVU789
 2241 037a B5F90020 		ldrsh	r2, [r5]
 2242 037e 0A92     		str	r2, [sp, #40]
 2243              	.LVL265:
 560:Middlewares/Third_Party/LibJPEG/source/jdcoefct.c ****       output_col = 0;
 2244              		.loc 1 560 7 is_stmt 1 view .LVU790
 560:Middlewares/Third_Party/LibJPEG/source/jdcoefct.c ****       output_col = 0;
 2245              		.loc 1 560 48 is_stmt 0 view .LVU791
 2246 0380 B8F90000 		ldrsh	r0, [r8]
 2247 0384 0B90     		str	r0, [sp, #44]
 2248              	.LVL266:
 561:Middlewares/Third_Party/LibJPEG/source/jdcoefct.c ****       last_block_column = compptr->width_in_blocks - 1;
 2249              		.loc 1 561 7 is_stmt 1 view .LVU792
 562:Middlewares/Third_Party/LibJPEG/source/jdcoefct.c ****       for (block_num = 0; block_num <= last_block_column; block_num++) {
 2250              		.loc 1 562 7 view .LVU793
 562:Middlewares/Third_Party/LibJPEG/source/jdcoefct.c ****       for (block_num = 0; block_num <= last_block_column; block_num++) {
 2251              		.loc 1 562 34 is_stmt 0 view .LVU794
 2252 0386 DBF81C30 		ldr	r3, [fp, #28]
ARM GAS  /var/folders/mq/wg13gp494590nh4zyt09lxf00000gn/T//ccLgMMOG.s 			page 59


 562:Middlewares/Third_Party/LibJPEG/source/jdcoefct.c ****       for (block_num = 0; block_num <= last_block_column; block_num++) {
 2253              		.loc 1 562 25 view .LVU795
 2254 038a 03F1FF39 		add	r9, r3, #-1
 2255              	.LVL267:
 563:Middlewares/Third_Party/LibJPEG/source/jdcoefct.c **** 	/* Fetch current DCT block into workspace so we can modify it. */
 2256              		.loc 1 563 7 is_stmt 1 view .LVU796
 560:Middlewares/Third_Party/LibJPEG/source/jdcoefct.c ****       output_col = 0;
 2257              		.loc 1 560 17 is_stmt 0 view .LVU797
 2258 038e 0590     		str	r0, [sp, #20]
 559:Middlewares/Third_Party/LibJPEG/source/jdcoefct.c ****       DC7 = DC8 = DC9 = (int) next_block_row[0][0];
 2259              		.loc 1 559 17 view .LVU798
 2260 0390 0492     		str	r2, [sp, #16]
 558:Middlewares/Third_Party/LibJPEG/source/jdcoefct.c ****       DC4 = DC5 = DC6 = (int) buffer_ptr[0][0];
 2261              		.loc 1 558 17 view .LVU799
 2262 0392 0391     		str	r1, [sp, #12]
 561:Middlewares/Third_Party/LibJPEG/source/jdcoefct.c ****       last_block_column = compptr->width_in_blocks - 1;
 2263              		.loc 1 561 18 view .LVU800
 2264 0394 0026     		movs	r6, #0
 563:Middlewares/Third_Party/LibJPEG/source/jdcoefct.c **** 	/* Fetch current DCT block into workspace so we can modify it. */
 2265              		.loc 1 563 22 view .LVU801
 2266 0396 3446     		mov	r4, r6
 2267 0398 CDF854E0 		str	lr, [sp, #84]
 2268 039c CDF858C0 		str	ip, [sp, #88]
 2269 03a0 0697     		str	r7, [sp, #24]
 2270 03a2 0F46     		mov	r7, r1
 2271              	.LVL268:
 563:Middlewares/Third_Party/LibJPEG/source/jdcoefct.c **** 	/* Fetch current DCT block into workspace so we can modify it. */
 2272              		.loc 1 563 7 view .LVU802
 2273 03a4 82E7     		b	.L125
 2274              	.LVL269:
 2275              	.L158:
 563:Middlewares/Third_Party/LibJPEG/source/jdcoefct.c **** 	/* Fetch current DCT block into workspace so we can modify it. */
 2276              		.loc 1 563 7 view .LVU803
 2277 03a6 5F46     		mov	r7, fp
 2278 03a8 DDF868B0 		ldr	fp, [sp, #104]
 2279              	.LVL270:
 563:Middlewares/Third_Party/LibJPEG/source/jdcoefct.c **** 	/* Fetch current DCT block into workspace so we can modify it. */
 2280              		.loc 1 563 7 view .LVU804
 2281 03ac DDF86C80 		ldr	r8, [sp, #108]
 2282              	.LVL271:
 2283              	.L116:
 502:Middlewares/Third_Party/LibJPEG/source/jdcoefct.c ****     /* Don't bother to IDCT an uninteresting component. */
 2284              		.loc 1 502 12 is_stmt 1 view .LVU805
 502:Middlewares/Third_Party/LibJPEG/source/jdcoefct.c ****     /* Don't bother to IDCT an uninteresting component. */
 2285              		.loc 1 502 10 is_stmt 0 view .LVU806
 2286 03b0 0BF1010B 		add	fp, fp, #1
 2287              	.LVL272:
 502:Middlewares/Third_Party/LibJPEG/source/jdcoefct.c ****     /* Don't bother to IDCT an uninteresting component. */
 2288              		.loc 1 502 21 view .LVU807
 2289 03b4 5837     		adds	r7, r7, #88
 2290              	.LVL273:
 2291              	.L115:
 501:Middlewares/Third_Party/LibJPEG/source/jdcoefct.c ****        ci++, compptr++) {
 2292              		.loc 1 501 47 is_stmt 1 discriminator 1 view .LVU808
 501:Middlewares/Third_Party/LibJPEG/source/jdcoefct.c ****        ci++, compptr++) {
 2293              		.loc 1 501 54 is_stmt 0 discriminator 1 view .LVU809
 2294 03b6 0E9B     		ldr	r3, [sp, #56]
ARM GAS  /var/folders/mq/wg13gp494590nh4zyt09lxf00000gn/T//ccLgMMOG.s 			page 60


 2295 03b8 5B6A     		ldr	r3, [r3, #36]
 501:Middlewares/Third_Party/LibJPEG/source/jdcoefct.c ****        ci++, compptr++) {
 2296              		.loc 1 501 47 discriminator 1 view .LVU810
 2297 03ba 5B45     		cmp	r3, fp
 2298 03bc 4BDD     		ble	.L159
 504:Middlewares/Third_Party/LibJPEG/source/jdcoefct.c ****       continue;
 2299              		.loc 1 504 5 is_stmt 1 view .LVU811
 504:Middlewares/Third_Party/LibJPEG/source/jdcoefct.c ****       continue;
 2300              		.loc 1 504 18 is_stmt 0 view .LVU812
 2301 03be 7B6B     		ldr	r3, [r7, #52]
 504:Middlewares/Third_Party/LibJPEG/source/jdcoefct.c ****       continue;
 2302              		.loc 1 504 8 view .LVU813
 2303 03c0 002B     		cmp	r3, #0
 2304 03c2 F5D0     		beq	.L116
 507:Middlewares/Third_Party/LibJPEG/source/jdcoefct.c ****       block_rows = compptr->v_samp_factor;
 2305              		.loc 1 507 5 is_stmt 1 view .LVU814
 507:Middlewares/Third_Party/LibJPEG/source/jdcoefct.c ****       block_rows = compptr->v_samp_factor;
 2306              		.loc 1 507 14 is_stmt 0 view .LVU815
 2307 03c4 0E9B     		ldr	r3, [sp, #56]
 2308 03c6 D3F89C10 		ldr	r1, [r3, #156]
 507:Middlewares/Third_Party/LibJPEG/source/jdcoefct.c ****       block_rows = compptr->v_samp_factor;
 2309              		.loc 1 507 8 view .LVU816
 2310 03ca 1C9B     		ldr	r3, [sp, #112]
 2311 03cc 9942     		cmp	r1, r3
 2312 03ce BFF44FAE 		bcs	.L117
 508:Middlewares/Third_Party/LibJPEG/source/jdcoefct.c ****       access_rows = block_rows * 2; /* this and next iMCU row */
 2313              		.loc 1 508 7 is_stmt 1 view .LVU817
 508:Middlewares/Third_Party/LibJPEG/source/jdcoefct.c ****       access_rows = block_rows * 2; /* this and next iMCU row */
 2314              		.loc 1 508 18 is_stmt 0 view .LVU818
 2315 03d2 FB68     		ldr	r3, [r7, #12]
 2316 03d4 1793     		str	r3, [sp, #92]
 2317              	.LVL274:
 509:Middlewares/Third_Party/LibJPEG/source/jdcoefct.c ****       last_row = FALSE;
 2318              		.loc 1 509 7 is_stmt 1 view .LVU819
 509:Middlewares/Third_Party/LibJPEG/source/jdcoefct.c ****       last_row = FALSE;
 2319              		.loc 1 509 19 is_stmt 0 view .LVU820
 2320 03d6 5B00     		lsls	r3, r3, #1
 2321              	.LVL275:
 510:Middlewares/Third_Party/LibJPEG/source/jdcoefct.c ****     } else {
 2322              		.loc 1 510 7 is_stmt 1 view .LVU821
 510:Middlewares/Third_Party/LibJPEG/source/jdcoefct.c ****     } else {
 2323              		.loc 1 510 16 is_stmt 0 view .LVU822
 2324 03d8 0022     		movs	r2, #0
 2325 03da 1992     		str	r2, [sp, #100]
 2326              	.LVL276:
 2327              	.L118:
 519:Middlewares/Third_Party/LibJPEG/source/jdcoefct.c ****       access_rows += compptr->v_samp_factor; /* prior iMCU row too */
 2328              		.loc 1 519 5 is_stmt 1 view .LVU823
 519:Middlewares/Third_Party/LibJPEG/source/jdcoefct.c ****       access_rows += compptr->v_samp_factor; /* prior iMCU row too */
 2329              		.loc 1 519 8 is_stmt 0 view .LVU824
 2330 03dc 0029     		cmp	r1, #0
 2331 03de 3FF457AE 		beq	.L119
 520:Middlewares/Third_Party/LibJPEG/source/jdcoefct.c ****       buffer = (*cinfo->mem->access_virt_barray)
 2332              		.loc 1 520 7 is_stmt 1 view .LVU825
 520:Middlewares/Third_Party/LibJPEG/source/jdcoefct.c ****       buffer = (*cinfo->mem->access_virt_barray)
 2333              		.loc 1 520 29 is_stmt 0 view .LVU826
 2334 03e2 F868     		ldr	r0, [r7, #12]
ARM GAS  /var/folders/mq/wg13gp494590nh4zyt09lxf00000gn/T//ccLgMMOG.s 			page 61


 2335              	.LVL277:
 521:Middlewares/Third_Party/LibJPEG/source/jdcoefct.c **** 	((j_common_ptr) cinfo, coef->whole_image[ci],
 2336              		.loc 1 521 7 is_stmt 1 view .LVU827
 521:Middlewares/Third_Party/LibJPEG/source/jdcoefct.c **** 	((j_common_ptr) cinfo, coef->whole_image[ci],
 2337              		.loc 1 521 23 is_stmt 0 view .LVU828
 2338 03e4 0E9E     		ldr	r6, [sp, #56]
 2339 03e6 7568     		ldr	r5, [r6, #4]
 523:Middlewares/Third_Party/LibJPEG/source/jdcoefct.c **** 	 (JDIMENSION) access_rows, FALSE);
 2340              		.loc 1 523 27 view .LVU829
 2341 03e8 4A1E     		subs	r2, r1, #1
 521:Middlewares/Third_Party/LibJPEG/source/jdcoefct.c **** 	((j_common_ptr) cinfo, coef->whole_image[ci],
 2342              		.loc 1 521 17 view .LVU830
 2343 03ea 0BF11201 		add	r1, fp, #18
 2344 03ee 58F82110 		ldr	r1, [r8, r1, lsl #2]
 2345 03f2 0024     		movs	r4, #0
 2346 03f4 0094     		str	r4, [sp]
 2347 03f6 2D6A     		ldr	r5, [r5, #32]
 2348 03f8 0344     		add	r3, r3, r0
 2349              	.LVL278:
 521:Middlewares/Third_Party/LibJPEG/source/jdcoefct.c **** 	((j_common_ptr) cinfo, coef->whole_image[ci],
 2350              		.loc 1 521 17 view .LVU831
 2351 03fa 00FB02F2 		mul	r2, r0, r2
 2352 03fe 3046     		mov	r0, r6
 2353 0400 A847     		blx	r5
 2354              	.LVL279:
 525:Middlewares/Third_Party/LibJPEG/source/jdcoefct.c ****       first_row = FALSE;
 2355              		.loc 1 525 7 is_stmt 1 view .LVU832
 525:Middlewares/Third_Party/LibJPEG/source/jdcoefct.c ****       first_row = FALSE;
 2356              		.loc 1 525 24 is_stmt 0 view .LVU833
 2357 0402 FB68     		ldr	r3, [r7, #12]
 525:Middlewares/Third_Party/LibJPEG/source/jdcoefct.c ****       first_row = FALSE;
 2358              		.loc 1 525 14 view .LVU834
 2359 0404 00EB830C 		add	ip, r0, r3, lsl #2
 2360              	.LVL280:
 526:Middlewares/Third_Party/LibJPEG/source/jdcoefct.c ****     } else {
 2361              		.loc 1 526 7 is_stmt 1 view .LVU835
 526:Middlewares/Third_Party/LibJPEG/source/jdcoefct.c ****     } else {
 2362              		.loc 1 526 17 is_stmt 0 view .LVU836
 2363 0408 1894     		str	r4, [sp, #96]
 2364              	.LVL281:
 2365              	.L120:
 534:Middlewares/Third_Party/LibJPEG/source/jdcoefct.c ****     quanttbl = compptr->quant_table;
 2366              		.loc 1 534 5 is_stmt 1 view .LVU837
 534:Middlewares/Third_Party/LibJPEG/source/jdcoefct.c ****     quanttbl = compptr->quant_table;
 2367              		.loc 1 534 21 is_stmt 0 view .LVU838
 2368 040a D8F87030 		ldr	r3, [r8, #112]
 534:Middlewares/Third_Party/LibJPEG/source/jdcoefct.c ****     quanttbl = compptr->quant_table;
 2369              		.loc 1 534 39 view .LVU839
 2370 040e 0BEB4B02 		add	r2, fp, fp, lsl #1
 534:Middlewares/Third_Party/LibJPEG/source/jdcoefct.c ****     quanttbl = compptr->quant_table;
 2371              		.loc 1 534 15 view .LVU840
 2372 0412 03EBC20A 		add	r10, r3, r2, lsl #3
 2373              	.LVL282:
 535:Middlewares/Third_Party/LibJPEG/source/jdcoefct.c ****     Q00 = quanttbl->quantval[0];
 2374              		.loc 1 535 5 is_stmt 1 view .LVU841
 535:Middlewares/Third_Party/LibJPEG/source/jdcoefct.c ****     Q00 = quanttbl->quantval[0];
 2375              		.loc 1 535 14 is_stmt 0 view .LVU842
ARM GAS  /var/folders/mq/wg13gp494590nh4zyt09lxf00000gn/T//ccLgMMOG.s 			page 62


 2376 0416 3B6D     		ldr	r3, [r7, #80]
 2377              	.LVL283:
 536:Middlewares/Third_Party/LibJPEG/source/jdcoefct.c ****     Q01 = quanttbl->quantval[Q01_POS];
 2378              		.loc 1 536 5 is_stmt 1 view .LVU843
 536:Middlewares/Third_Party/LibJPEG/source/jdcoefct.c ****     Q01 = quanttbl->quantval[Q01_POS];
 2379              		.loc 1 536 29 is_stmt 0 view .LVU844
 2380 0418 1A88     		ldrh	r2, [r3]
 2381 041a 0D92     		str	r2, [sp, #52]
 2382              	.LVL284:
 537:Middlewares/Third_Party/LibJPEG/source/jdcoefct.c ****     Q10 = quanttbl->quantval[Q10_POS];
 2383              		.loc 1 537 5 is_stmt 1 view .LVU845
 537:Middlewares/Third_Party/LibJPEG/source/jdcoefct.c ****     Q10 = quanttbl->quantval[Q10_POS];
 2384              		.loc 1 537 29 is_stmt 0 view .LVU846
 2385 041c 5A88     		ldrh	r2, [r3, #2]
 2386              	.LVL285:
 537:Middlewares/Third_Party/LibJPEG/source/jdcoefct.c ****     Q10 = quanttbl->quantval[Q10_POS];
 2387              		.loc 1 537 29 view .LVU847
 2388 041e 1092     		str	r2, [sp, #64]
 2389              	.LVL286:
 538:Middlewares/Third_Party/LibJPEG/source/jdcoefct.c ****     Q20 = quanttbl->quantval[Q20_POS];
 2390              		.loc 1 538 5 is_stmt 1 view .LVU848
 538:Middlewares/Third_Party/LibJPEG/source/jdcoefct.c ****     Q20 = quanttbl->quantval[Q20_POS];
 2391              		.loc 1 538 29 is_stmt 0 view .LVU849
 2392 0420 1A8A     		ldrh	r2, [r3, #16]
 2393              	.LVL287:
 538:Middlewares/Third_Party/LibJPEG/source/jdcoefct.c ****     Q20 = quanttbl->quantval[Q20_POS];
 2394              		.loc 1 538 29 view .LVU850
 2395 0422 1192     		str	r2, [sp, #68]
 2396              	.LVL288:
 539:Middlewares/Third_Party/LibJPEG/source/jdcoefct.c ****     Q11 = quanttbl->quantval[Q11_POS];
 2397              		.loc 1 539 5 is_stmt 1 view .LVU851
 539:Middlewares/Third_Party/LibJPEG/source/jdcoefct.c ****     Q11 = quanttbl->quantval[Q11_POS];
 2398              		.loc 1 539 29 is_stmt 0 view .LVU852
 2399 0424 1A8C     		ldrh	r2, [r3, #32]
 2400              	.LVL289:
 539:Middlewares/Third_Party/LibJPEG/source/jdcoefct.c ****     Q11 = quanttbl->quantval[Q11_POS];
 2401              		.loc 1 539 29 view .LVU853
 2402 0426 1292     		str	r2, [sp, #72]
 2403              	.LVL290:
 540:Middlewares/Third_Party/LibJPEG/source/jdcoefct.c ****     Q02 = quanttbl->quantval[Q02_POS];
 2404              		.loc 1 540 5 is_stmt 1 view .LVU854
 540:Middlewares/Third_Party/LibJPEG/source/jdcoefct.c ****     Q02 = quanttbl->quantval[Q02_POS];
 2405              		.loc 1 540 29 is_stmt 0 view .LVU855
 2406 0428 5A8A     		ldrh	r2, [r3, #18]
 2407              	.LVL291:
 540:Middlewares/Third_Party/LibJPEG/source/jdcoefct.c ****     Q02 = quanttbl->quantval[Q02_POS];
 2408              		.loc 1 540 29 view .LVU856
 2409 042a 1392     		str	r2, [sp, #76]
 2410              	.LVL292:
 541:Middlewares/Third_Party/LibJPEG/source/jdcoefct.c ****     inverse_DCT = cinfo->idct->inverse_DCT[ci];
 2411              		.loc 1 541 5 is_stmt 1 view .LVU857
 541:Middlewares/Third_Party/LibJPEG/source/jdcoefct.c ****     inverse_DCT = cinfo->idct->inverse_DCT[ci];
 2412              		.loc 1 541 29 is_stmt 0 view .LVU858
 2413 042c 9B88     		ldrh	r3, [r3, #4]
 2414              	.LVL293:
 541:Middlewares/Third_Party/LibJPEG/source/jdcoefct.c ****     inverse_DCT = cinfo->idct->inverse_DCT[ci];
 2415              		.loc 1 541 29 view .LVU859
ARM GAS  /var/folders/mq/wg13gp494590nh4zyt09lxf00000gn/T//ccLgMMOG.s 			page 63


 2416 042e 1493     		str	r3, [sp, #80]
 2417              	.LVL294:
 542:Middlewares/Third_Party/LibJPEG/source/jdcoefct.c ****     output_ptr = output_buf[ci];
 2418              		.loc 1 542 5 is_stmt 1 view .LVU860
 542:Middlewares/Third_Party/LibJPEG/source/jdcoefct.c ****     output_ptr = output_buf[ci];
 2419              		.loc 1 542 24 is_stmt 0 view .LVU861
 2420 0430 0E9B     		ldr	r3, [sp, #56]
 2421              	.LVL295:
 542:Middlewares/Third_Party/LibJPEG/source/jdcoefct.c ****     output_ptr = output_buf[ci];
 2422              		.loc 1 542 24 view .LVU862
 2423 0432 D3F8D431 		ldr	r3, [r3, #468]
 542:Middlewares/Third_Party/LibJPEG/source/jdcoefct.c ****     output_ptr = output_buf[ci];
 2424              		.loc 1 542 17 view .LVU863
 2425 0436 03EB8B03 		add	r3, r3, fp, lsl #2
 2426 043a 5B68     		ldr	r3, [r3, #4]
 2427 043c 0F93     		str	r3, [sp, #60]
 2428              	.LVL296:
 543:Middlewares/Third_Party/LibJPEG/source/jdcoefct.c ****     /* Loop over all DCT blocks to be processed. */
 2429              		.loc 1 543 5 is_stmt 1 view .LVU864
 543:Middlewares/Third_Party/LibJPEG/source/jdcoefct.c ****     /* Loop over all DCT blocks to be processed. */
 2430              		.loc 1 543 16 is_stmt 0 view .LVU865
 2431 043e 1D9B     		ldr	r3, [sp, #116]
 2432              	.LVL297:
 543:Middlewares/Third_Party/LibJPEG/source/jdcoefct.c ****     /* Loop over all DCT blocks to be processed. */
 2433              		.loc 1 543 16 view .LVU866
 2434 0440 53F82B30 		ldr	r3, [r3, fp, lsl #2]
 2435 0444 0C93     		str	r3, [sp, #48]
 2436              	.LVL298:
 545:Middlewares/Third_Party/LibJPEG/source/jdcoefct.c ****       buffer_ptr = buffer[block_row];
 2437              		.loc 1 545 5 is_stmt 1 view .LVU867
 545:Middlewares/Third_Party/LibJPEG/source/jdcoefct.c ****       buffer_ptr = buffer[block_row];
 2438              		.loc 1 545 20 is_stmt 0 view .LVU868
 2439 0446 4FF0000E 		mov	lr, #0
 2440 044a CDF868B0 		str	fp, [sp, #104]
 2441 044e BB46     		mov	fp, r7
 2442              	.LVL299:
 545:Middlewares/Third_Party/LibJPEG/source/jdcoefct.c ****       buffer_ptr = buffer[block_row];
 2443              		.loc 1 545 20 view .LVU869
 2444 0450 CDF86C80 		str	r8, [sp, #108]
 545:Middlewares/Third_Party/LibJPEG/source/jdcoefct.c ****       buffer_ptr = buffer[block_row];
 2445              		.loc 1 545 5 view .LVU870
 2446 0454 70E7     		b	.L121
 2447              	.LVL300:
 2448              	.L159:
 662:Middlewares/Third_Party/LibJPEG/source/jdcoefct.c ****     }
 663:Middlewares/Third_Party/LibJPEG/source/jdcoefct.c ****   }
 664:Middlewares/Third_Party/LibJPEG/source/jdcoefct.c **** 
 665:Middlewares/Third_Party/LibJPEG/source/jdcoefct.c ****   if (++(cinfo->output_iMCU_row) < cinfo->total_iMCU_rows)
 2449              		.loc 1 665 3 is_stmt 1 view .LVU871
 2450              		.loc 1 665 15 is_stmt 0 view .LVU872
 2451 0456 0E9A     		ldr	r2, [sp, #56]
 2452 0458 D2F89C30 		ldr	r3, [r2, #156]
 2453              		.loc 1 665 7 view .LVU873
 2454 045c 0133     		adds	r3, r3, #1
 2455              		.loc 1 665 6 view .LVU874
 2456 045e C2F89C30 		str	r3, [r2, #156]
 2457              		.loc 1 665 41 view .LVU875
ARM GAS  /var/folders/mq/wg13gp494590nh4zyt09lxf00000gn/T//ccLgMMOG.s 			page 64


 2458 0462 D2F84821 		ldr	r2, [r2, #328]
 2459              		.loc 1 665 6 view .LVU876
 2460 0466 9342     		cmp	r3, r2
 2461 0468 04D3     		bcc	.L154
 666:Middlewares/Third_Party/LibJPEG/source/jdcoefct.c ****     return JPEG_ROW_COMPLETED;
 667:Middlewares/Third_Party/LibJPEG/source/jdcoefct.c ****   return JPEG_SCAN_COMPLETED;
 2462              		.loc 1 667 10 view .LVU877
 2463 046a 0423     		movs	r3, #4
 2464              	.LVL301:
 2465              	.L109:
 668:Middlewares/Third_Party/LibJPEG/source/jdcoefct.c **** }
 2466              		.loc 1 668 1 view .LVU878
 2467 046c 1846     		mov	r0, r3
 2468 046e 3FB0     		add	sp, sp, #252
 2469              	.LCFI17:
 2470              		.cfi_remember_state
 2471              		.cfi_def_cfa_offset 36
 2472              		@ sp needed
 2473 0470 BDE8F08F 		pop	{r4, r5, r6, r7, r8, r9, r10, fp, pc}
 2474              	.LVL302:
 2475              	.L154:
 2476              	.LCFI18:
 2477              		.cfi_restore_state
 666:Middlewares/Third_Party/LibJPEG/source/jdcoefct.c ****     return JPEG_ROW_COMPLETED;
 2478              		.loc 1 666 12 view .LVU879
 2479 0474 0323     		movs	r3, #3
 2480 0476 F9E7     		b	.L109
 2481              		.cfi_endproc
 2482              	.LFE155:
 2484              		.section	.text.jinit_d_coef_controller,"ax",%progbits
 2485              		.align	1
 2486              		.global	jinit_d_coef_controller
 2487              		.syntax unified
 2488              		.thumb
 2489              		.thumb_func
 2491              	jinit_d_coef_controller:
 2492              	.LVL303:
 2493              	.LFB156:
 669:Middlewares/Third_Party/LibJPEG/source/jdcoefct.c **** 
 670:Middlewares/Third_Party/LibJPEG/source/jdcoefct.c **** #endif /* BLOCK_SMOOTHING_SUPPORTED */
 671:Middlewares/Third_Party/LibJPEG/source/jdcoefct.c **** 
 672:Middlewares/Third_Party/LibJPEG/source/jdcoefct.c **** 
 673:Middlewares/Third_Party/LibJPEG/source/jdcoefct.c **** /*
 674:Middlewares/Third_Party/LibJPEG/source/jdcoefct.c ****  * Initialize coefficient buffer controller.
 675:Middlewares/Third_Party/LibJPEG/source/jdcoefct.c ****  */
 676:Middlewares/Third_Party/LibJPEG/source/jdcoefct.c **** 
 677:Middlewares/Third_Party/LibJPEG/source/jdcoefct.c **** GLOBAL(void)
 678:Middlewares/Third_Party/LibJPEG/source/jdcoefct.c **** jinit_d_coef_controller (j_decompress_ptr cinfo, boolean need_full_buffer)
 679:Middlewares/Third_Party/LibJPEG/source/jdcoefct.c **** {
 2494              		.loc 1 679 1 is_stmt 1 view -0
 2495              		.cfi_startproc
 2496              		@ args = 0, pretend = 0, frame = 0
 2497              		@ frame_needed = 0, uses_anonymous_args = 0
 2498              		.loc 1 679 1 is_stmt 0 view .LVU881
 2499 0000 2DE9F047 		push	{r4, r5, r6, r7, r8, r9, r10, lr}
 2500              	.LCFI19:
 2501              		.cfi_def_cfa_offset 32
ARM GAS  /var/folders/mq/wg13gp494590nh4zyt09lxf00000gn/T//ccLgMMOG.s 			page 65


 2502              		.cfi_offset 4, -32
 2503              		.cfi_offset 5, -28
 2504              		.cfi_offset 6, -24
 2505              		.cfi_offset 7, -20
 2506              		.cfi_offset 8, -16
 2507              		.cfi_offset 9, -12
 2508              		.cfi_offset 10, -8
 2509              		.cfi_offset 14, -4
 2510 0004 82B0     		sub	sp, sp, #8
 2511              	.LCFI20:
 2512              		.cfi_def_cfa_offset 40
 2513 0006 0546     		mov	r5, r0
 2514 0008 0C46     		mov	r4, r1
 680:Middlewares/Third_Party/LibJPEG/source/jdcoefct.c ****   my_coef_ptr coef;
 2515              		.loc 1 680 3 is_stmt 1 view .LVU882
 681:Middlewares/Third_Party/LibJPEG/source/jdcoefct.c **** 
 682:Middlewares/Third_Party/LibJPEG/source/jdcoefct.c ****   coef = (my_coef_ptr)
 2516              		.loc 1 682 3 view .LVU883
 683:Middlewares/Third_Party/LibJPEG/source/jdcoefct.c ****     (*cinfo->mem->alloc_small) ((j_common_ptr) cinfo, JPOOL_IMAGE,
 2517              		.loc 1 683 12 is_stmt 0 view .LVU884
 2518 000a 4368     		ldr	r3, [r0, #4]
 2519              		.loc 1 683 6 view .LVU885
 2520 000c 1B68     		ldr	r3, [r3]
 2521 000e 7422     		movs	r2, #116
 2522 0010 0121     		movs	r1, #1
 2523              	.LVL304:
 2524              		.loc 1 683 6 view .LVU886
 2525 0012 9847     		blx	r3
 2526              	.LVL305:
 2527              		.loc 1 683 6 view .LVU887
 2528 0014 0646     		mov	r6, r0
 2529              	.LVL306:
 684:Middlewares/Third_Party/LibJPEG/source/jdcoefct.c **** 				SIZEOF(my_coef_controller));
 685:Middlewares/Third_Party/LibJPEG/source/jdcoefct.c ****   cinfo->coef = (struct jpeg_d_coef_controller *) coef;
 2530              		.loc 1 685 3 is_stmt 1 view .LVU888
 2531              		.loc 1 685 15 is_stmt 0 view .LVU889
 2532 0016 C5F8C001 		str	r0, [r5, #448]
 686:Middlewares/Third_Party/LibJPEG/source/jdcoefct.c ****   coef->pub.start_input_pass = start_input_pass;
 2533              		.loc 1 686 3 is_stmt 1 view .LVU890
 2534              		.loc 1 686 30 is_stmt 0 view .LVU891
 2535 001a 2E4B     		ldr	r3, .L172
 2536 001c 0360     		str	r3, [r0]
 687:Middlewares/Third_Party/LibJPEG/source/jdcoefct.c ****   coef->pub.start_output_pass = start_output_pass;
 2537              		.loc 1 687 3 is_stmt 1 view .LVU892
 2538              		.loc 1 687 31 is_stmt 0 view .LVU893
 2539 001e 2E4B     		ldr	r3, .L172+4
 2540 0020 8360     		str	r3, [r0, #8]
 688:Middlewares/Third_Party/LibJPEG/source/jdcoefct.c **** #ifdef BLOCK_SMOOTHING_SUPPORTED
 689:Middlewares/Third_Party/LibJPEG/source/jdcoefct.c ****   coef->coef_bits_latch = NULL;
 2541              		.loc 1 689 3 is_stmt 1 view .LVU894
 2542              		.loc 1 689 25 is_stmt 0 view .LVU895
 2543 0022 0023     		movs	r3, #0
 2544 0024 0367     		str	r3, [r0, #112]
 690:Middlewares/Third_Party/LibJPEG/source/jdcoefct.c **** #endif
 691:Middlewares/Third_Party/LibJPEG/source/jdcoefct.c **** 
 692:Middlewares/Third_Party/LibJPEG/source/jdcoefct.c ****   /* Create the coefficient buffer. */
 693:Middlewares/Third_Party/LibJPEG/source/jdcoefct.c ****   if (need_full_buffer) {
ARM GAS  /var/folders/mq/wg13gp494590nh4zyt09lxf00000gn/T//ccLgMMOG.s 			page 66


 2545              		.loc 1 693 3 is_stmt 1 view .LVU896
 2546              		.loc 1 693 6 is_stmt 0 view .LVU897
 2547 0026 002C     		cmp	r4, #0
 2548 0028 33D0     		beq	.L161
 2549              	.LBB3:
 694:Middlewares/Third_Party/LibJPEG/source/jdcoefct.c **** #ifdef D_MULTISCAN_FILES_SUPPORTED
 695:Middlewares/Third_Party/LibJPEG/source/jdcoefct.c ****     /* Allocate a full-image virtual array for each component, */
 696:Middlewares/Third_Party/LibJPEG/source/jdcoefct.c ****     /* padded to a multiple of samp_factor DCT blocks in each direction. */
 697:Middlewares/Third_Party/LibJPEG/source/jdcoefct.c ****     /* Note we ask for a pre-zeroed array. */
 698:Middlewares/Third_Party/LibJPEG/source/jdcoefct.c ****     int ci, access_rows;
 2550              		.loc 1 698 5 is_stmt 1 view .LVU898
 699:Middlewares/Third_Party/LibJPEG/source/jdcoefct.c ****     jpeg_component_info *compptr;
 2551              		.loc 1 699 5 view .LVU899
 700:Middlewares/Third_Party/LibJPEG/source/jdcoefct.c **** 
 701:Middlewares/Third_Party/LibJPEG/source/jdcoefct.c ****     for (ci = 0, compptr = cinfo->comp_info; ci < cinfo->num_components;
 2552              		.loc 1 701 5 view .LVU900
 2553              	.LVL307:
 2554              		.loc 1 701 26 is_stmt 0 view .LVU901
 2555 002a D5F8D840 		ldr	r4, [r5, #216]
 2556              	.LVL308:
 2557              		.loc 1 701 13 view .LVU902
 2558 002e 1F46     		mov	r7, r3
 2559              		.loc 1 701 5 view .LVU903
 2560 0030 19E0     		b	.L162
 2561              	.LVL309:
 2562              	.L163:
 702:Middlewares/Third_Party/LibJPEG/source/jdcoefct.c **** 	 ci++, compptr++) {
 703:Middlewares/Third_Party/LibJPEG/source/jdcoefct.c ****       access_rows = compptr->v_samp_factor;
 704:Middlewares/Third_Party/LibJPEG/source/jdcoefct.c **** #ifdef BLOCK_SMOOTHING_SUPPORTED
 705:Middlewares/Third_Party/LibJPEG/source/jdcoefct.c ****       /* If block smoothing could be used, need a bigger window */
 706:Middlewares/Third_Party/LibJPEG/source/jdcoefct.c ****       if (cinfo->progressive_mode)
 707:Middlewares/Third_Party/LibJPEG/source/jdcoefct.c **** 	access_rows *= 3;
 708:Middlewares/Third_Party/LibJPEG/source/jdcoefct.c **** #endif
 709:Middlewares/Third_Party/LibJPEG/source/jdcoefct.c ****       coef->whole_image[ci] = (*cinfo->mem->request_virt_barray)
 2563              		.loc 1 709 7 is_stmt 1 view .LVU904
 2564              		.loc 1 709 38 is_stmt 0 view .LVU905
 2565 0032 6B68     		ldr	r3, [r5, #4]
 2566              		.loc 1 709 32 view .LVU906
 2567 0034 D3F814A0 		ldr	r10, [r3, #20]
 710:Middlewares/Third_Party/LibJPEG/source/jdcoefct.c **** 	((j_common_ptr) cinfo, JPOOL_IMAGE, TRUE,
 711:Middlewares/Third_Party/LibJPEG/source/jdcoefct.c **** 	 (JDIMENSION) jround_up((long) compptr->width_in_blocks,
 2568              		.loc 1 711 16 view .LVU907
 2569 0038 A168     		ldr	r1, [r4, #8]
 2570 003a E069     		ldr	r0, [r4, #28]
 2571 003c FFF7FEFF 		bl	jround_up
 2572              	.LVL310:
 2573 0040 8046     		mov	r8, r0
 712:Middlewares/Third_Party/LibJPEG/source/jdcoefct.c **** 				(long) compptr->h_samp_factor),
 713:Middlewares/Third_Party/LibJPEG/source/jdcoefct.c **** 	 (JDIMENSION) jround_up((long) compptr->height_in_blocks,
 2574              		.loc 1 713 16 view .LVU908
 2575 0042 E168     		ldr	r1, [r4, #12]
 2576 0044 206A     		ldr	r0, [r4, #32]
 2577 0046 FFF7FEFF 		bl	jround_up
 2578              	.LVL311:
 709:Middlewares/Third_Party/LibJPEG/source/jdcoefct.c **** 	((j_common_ptr) cinfo, JPOOL_IMAGE, TRUE,
 2579              		.loc 1 709 32 view .LVU909
 2580 004a CDF80490 		str	r9, [sp, #4]
ARM GAS  /var/folders/mq/wg13gp494590nh4zyt09lxf00000gn/T//ccLgMMOG.s 			page 67


 2581 004e 0090     		str	r0, [sp]
 2582 0050 4346     		mov	r3, r8
 2583 0052 0122     		movs	r2, #1
 2584 0054 1146     		mov	r1, r2
 2585 0056 2846     		mov	r0, r5
 2586 0058 D047     		blx	r10
 2587              	.LVL312:
 709:Middlewares/Third_Party/LibJPEG/source/jdcoefct.c **** 	((j_common_ptr) cinfo, JPOOL_IMAGE, TRUE,
 2588              		.loc 1 709 29 discriminator 1 view .LVU910
 2589 005a 07F11203 		add	r3, r7, #18
 2590 005e 46F82300 		str	r0, [r6, r3, lsl #2]
 702:Middlewares/Third_Party/LibJPEG/source/jdcoefct.c ****       access_rows = compptr->v_samp_factor;
 2591              		.loc 1 702 7 is_stmt 1 view .LVU911
 702:Middlewares/Third_Party/LibJPEG/source/jdcoefct.c ****       access_rows = compptr->v_samp_factor;
 2592              		.loc 1 702 5 is_stmt 0 view .LVU912
 2593 0062 0137     		adds	r7, r7, #1
 2594              	.LVL313:
 702:Middlewares/Third_Party/LibJPEG/source/jdcoefct.c ****       access_rows = compptr->v_samp_factor;
 2595              		.loc 1 702 16 view .LVU913
 2596 0064 5834     		adds	r4, r4, #88
 2597              	.LVL314:
 2598              	.L162:
 701:Middlewares/Third_Party/LibJPEG/source/jdcoefct.c **** 	 ci++, compptr++) {
 2599              		.loc 1 701 49 is_stmt 1 discriminator 1 view .LVU914
 701:Middlewares/Third_Party/LibJPEG/source/jdcoefct.c **** 	 ci++, compptr++) {
 2600              		.loc 1 701 56 is_stmt 0 discriminator 1 view .LVU915
 2601 0066 6B6A     		ldr	r3, [r5, #36]
 701:Middlewares/Third_Party/LibJPEG/source/jdcoefct.c **** 	 ci++, compptr++) {
 2602              		.loc 1 701 49 discriminator 1 view .LVU916
 2603 0068 BB42     		cmp	r3, r7
 2604 006a 08DD     		ble	.L170
 703:Middlewares/Third_Party/LibJPEG/source/jdcoefct.c **** #ifdef BLOCK_SMOOTHING_SUPPORTED
 2605              		.loc 1 703 7 is_stmt 1 view .LVU917
 703:Middlewares/Third_Party/LibJPEG/source/jdcoefct.c **** #ifdef BLOCK_SMOOTHING_SUPPORTED
 2606              		.loc 1 703 19 is_stmt 0 view .LVU918
 2607 006c D4F80C90 		ldr	r9, [r4, #12]
 2608              	.LVL315:
 706:Middlewares/Third_Party/LibJPEG/source/jdcoefct.c **** 	access_rows *= 3;
 2609              		.loc 1 706 7 is_stmt 1 view .LVU919
 706:Middlewares/Third_Party/LibJPEG/source/jdcoefct.c **** 	access_rows *= 3;
 2610              		.loc 1 706 16 is_stmt 0 view .LVU920
 2611 0070 D5F8E030 		ldr	r3, [r5, #224]
 706:Middlewares/Third_Party/LibJPEG/source/jdcoefct.c **** 	access_rows *= 3;
 2612              		.loc 1 706 10 view .LVU921
 2613 0074 002B     		cmp	r3, #0
 2614 0076 DCD0     		beq	.L163
 707:Middlewares/Third_Party/LibJPEG/source/jdcoefct.c **** #endif
 2615              		.loc 1 707 2 is_stmt 1 view .LVU922
 707:Middlewares/Third_Party/LibJPEG/source/jdcoefct.c **** #endif
 2616              		.loc 1 707 14 is_stmt 0 view .LVU923
 2617 0078 09EB4909 		add	r9, r9, r9, lsl #1
 2618              	.LVL316:
 707:Middlewares/Third_Party/LibJPEG/source/jdcoefct.c **** #endif
 2619              		.loc 1 707 14 view .LVU924
 2620 007c D9E7     		b	.L163
 2621              	.LVL317:
 2622              	.L170:
ARM GAS  /var/folders/mq/wg13gp494590nh4zyt09lxf00000gn/T//ccLgMMOG.s 			page 68


 714:Middlewares/Third_Party/LibJPEG/source/jdcoefct.c **** 				(long) compptr->v_samp_factor),
 715:Middlewares/Third_Party/LibJPEG/source/jdcoefct.c **** 	 (JDIMENSION) access_rows);
 716:Middlewares/Third_Party/LibJPEG/source/jdcoefct.c ****     }
 717:Middlewares/Third_Party/LibJPEG/source/jdcoefct.c ****     coef->pub.consume_data = consume_data;
 2623              		.loc 1 717 5 is_stmt 1 view .LVU925
 2624              		.loc 1 717 28 is_stmt 0 view .LVU926
 2625 007e 174B     		ldr	r3, .L172+8
 2626 0080 7360     		str	r3, [r6, #4]
 718:Middlewares/Third_Party/LibJPEG/source/jdcoefct.c ****     coef->pub.decompress_data = decompress_data;
 2627              		.loc 1 718 5 is_stmt 1 view .LVU927
 2628              		.loc 1 718 31 is_stmt 0 view .LVU928
 2629 0082 174B     		ldr	r3, .L172+12
 2630 0084 F360     		str	r3, [r6, #12]
 719:Middlewares/Third_Party/LibJPEG/source/jdcoefct.c ****     coef->pub.coef_arrays = coef->whole_image; /* link to virtual arrays */
 2631              		.loc 1 719 5 is_stmt 1 view .LVU929
 2632              		.loc 1 719 29 is_stmt 0 view .LVU930
 2633 0086 06F14803 		add	r3, r6, #72
 2634              		.loc 1 719 27 view .LVU931
 2635 008a 3361     		str	r3, [r6, #16]
 2636              	.LVL318:
 2637              	.L160:
 2638              		.loc 1 719 27 view .LVU932
 2639              	.LBE3:
 720:Middlewares/Third_Party/LibJPEG/source/jdcoefct.c **** #else
 721:Middlewares/Third_Party/LibJPEG/source/jdcoefct.c ****     ERREXIT(cinfo, JERR_NOT_COMPILED);
 722:Middlewares/Third_Party/LibJPEG/source/jdcoefct.c **** #endif
 723:Middlewares/Third_Party/LibJPEG/source/jdcoefct.c ****   } else {
 724:Middlewares/Third_Party/LibJPEG/source/jdcoefct.c ****     /* We only need a single-MCU buffer. */
 725:Middlewares/Third_Party/LibJPEG/source/jdcoefct.c ****     JBLOCKROW buffer;
 726:Middlewares/Third_Party/LibJPEG/source/jdcoefct.c ****     int i;
 727:Middlewares/Third_Party/LibJPEG/source/jdcoefct.c **** 
 728:Middlewares/Third_Party/LibJPEG/source/jdcoefct.c ****     buffer = (JBLOCKROW)
 729:Middlewares/Third_Party/LibJPEG/source/jdcoefct.c ****       (*cinfo->mem->alloc_large) ((j_common_ptr) cinfo, JPOOL_IMAGE,
 730:Middlewares/Third_Party/LibJPEG/source/jdcoefct.c **** 				  D_MAX_BLOCKS_IN_MCU * SIZEOF(JBLOCK));
 731:Middlewares/Third_Party/LibJPEG/source/jdcoefct.c ****     for (i = 0; i < D_MAX_BLOCKS_IN_MCU; i++) {
 732:Middlewares/Third_Party/LibJPEG/source/jdcoefct.c ****       coef->MCU_buffer[i] = buffer + i;
 733:Middlewares/Third_Party/LibJPEG/source/jdcoefct.c ****     }
 734:Middlewares/Third_Party/LibJPEG/source/jdcoefct.c ****     if (cinfo->lim_Se == 0)	/* DC only case: want to bypass later */
 735:Middlewares/Third_Party/LibJPEG/source/jdcoefct.c ****       FMEMZERO((void FAR *) buffer,
 736:Middlewares/Third_Party/LibJPEG/source/jdcoefct.c **** 	       (size_t) (D_MAX_BLOCKS_IN_MCU * SIZEOF(JBLOCK)));
 737:Middlewares/Third_Party/LibJPEG/source/jdcoefct.c ****     coef->pub.consume_data = dummy_consume_data;
 738:Middlewares/Third_Party/LibJPEG/source/jdcoefct.c ****     coef->pub.decompress_data = decompress_onepass;
 739:Middlewares/Third_Party/LibJPEG/source/jdcoefct.c ****     coef->pub.coef_arrays = NULL; /* flag for no virtual arrays */
 740:Middlewares/Third_Party/LibJPEG/source/jdcoefct.c ****   }
 741:Middlewares/Third_Party/LibJPEG/source/jdcoefct.c **** }
 2640              		.loc 1 741 1 view .LVU933
 2641 008c 02B0     		add	sp, sp, #8
 2642              	.LCFI21:
 2643              		.cfi_remember_state
 2644              		.cfi_def_cfa_offset 32
 2645              		@ sp needed
 2646 008e BDE8F087 		pop	{r4, r5, r6, r7, r8, r9, r10, pc}
 2647              	.LVL319:
 2648              	.L161:
 2649              	.LCFI22:
 2650              		.cfi_restore_state
 2651              	.LBB4:
ARM GAS  /var/folders/mq/wg13gp494590nh4zyt09lxf00000gn/T//ccLgMMOG.s 			page 69


 725:Middlewares/Third_Party/LibJPEG/source/jdcoefct.c ****     int i;
 2652              		.loc 1 725 5 is_stmt 1 view .LVU934
 726:Middlewares/Third_Party/LibJPEG/source/jdcoefct.c **** 
 2653              		.loc 1 726 5 view .LVU935
 728:Middlewares/Third_Party/LibJPEG/source/jdcoefct.c ****       (*cinfo->mem->alloc_large) ((j_common_ptr) cinfo, JPOOL_IMAGE,
 2654              		.loc 1 728 5 view .LVU936
 729:Middlewares/Third_Party/LibJPEG/source/jdcoefct.c **** 				  D_MAX_BLOCKS_IN_MCU * SIZEOF(JBLOCK));
 2655              		.loc 1 729 14 is_stmt 0 view .LVU937
 2656 0092 6B68     		ldr	r3, [r5, #4]
 729:Middlewares/Third_Party/LibJPEG/source/jdcoefct.c **** 				  D_MAX_BLOCKS_IN_MCU * SIZEOF(JBLOCK));
 2657              		.loc 1 729 8 view .LVU938
 2658 0094 5B68     		ldr	r3, [r3, #4]
 2659 0096 4FF4A062 		mov	r2, #1280
 2660 009a 0121     		movs	r1, #1
 2661 009c 2846     		mov	r0, r5
 2662              	.LVL320:
 729:Middlewares/Third_Party/LibJPEG/source/jdcoefct.c **** 				  D_MAX_BLOCKS_IN_MCU * SIZEOF(JBLOCK));
 2663              		.loc 1 729 8 view .LVU939
 2664 009e 9847     		blx	r3
 2665              	.LVL321:
 731:Middlewares/Third_Party/LibJPEG/source/jdcoefct.c ****       coef->MCU_buffer[i] = buffer + i;
 2666              		.loc 1 731 5 is_stmt 1 view .LVU940
 731:Middlewares/Third_Party/LibJPEG/source/jdcoefct.c ****       coef->MCU_buffer[i] = buffer + i;
 2667              		.loc 1 731 5 is_stmt 0 view .LVU941
 2668 00a0 06E0     		b	.L166
 2669              	.LVL322:
 2670              	.L167:
 732:Middlewares/Third_Party/LibJPEG/source/jdcoefct.c ****     }
 2671              		.loc 1 732 7 is_stmt 1 view .LVU942
 732:Middlewares/Third_Party/LibJPEG/source/jdcoefct.c ****     }
 2672              		.loc 1 732 36 is_stmt 0 view .LVU943
 2673 00a2 00EBC412 		add	r2, r0, r4, lsl #7
 732:Middlewares/Third_Party/LibJPEG/source/jdcoefct.c ****     }
 2674              		.loc 1 732 27 view .LVU944
 2675 00a6 04F10803 		add	r3, r4, #8
 2676 00aa 46F82320 		str	r2, [r6, r3, lsl #2]
 731:Middlewares/Third_Party/LibJPEG/source/jdcoefct.c ****       coef->MCU_buffer[i] = buffer + i;
 2677              		.loc 1 731 43 is_stmt 1 discriminator 3 view .LVU945
 2678 00ae 0134     		adds	r4, r4, #1
 2679              	.LVL323:
 2680              	.L166:
 731:Middlewares/Third_Party/LibJPEG/source/jdcoefct.c ****       coef->MCU_buffer[i] = buffer + i;
 2681              		.loc 1 731 19 discriminator 1 view .LVU946
 2682 00b0 092C     		cmp	r4, #9
 2683 00b2 F6DD     		ble	.L167
 734:Middlewares/Third_Party/LibJPEG/source/jdcoefct.c ****       FMEMZERO((void FAR *) buffer,
 2684              		.loc 1 734 5 view .LVU947
 734:Middlewares/Third_Party/LibJPEG/source/jdcoefct.c ****       FMEMZERO((void FAR *) buffer,
 2685              		.loc 1 734 14 is_stmt 0 view .LVU948
 2686 00b4 D5F8B031 		ldr	r3, [r5, #432]
 734:Middlewares/Third_Party/LibJPEG/source/jdcoefct.c ****       FMEMZERO((void FAR *) buffer,
 2687              		.loc 1 734 8 view .LVU949
 2688 00b8 33B1     		cbz	r3, .L171
 2689              	.LVL324:
 2690              	.L168:
 737:Middlewares/Third_Party/LibJPEG/source/jdcoefct.c ****     coef->pub.decompress_data = decompress_onepass;
 2691              		.loc 1 737 5 is_stmt 1 view .LVU950
ARM GAS  /var/folders/mq/wg13gp494590nh4zyt09lxf00000gn/T//ccLgMMOG.s 			page 70


 737:Middlewares/Third_Party/LibJPEG/source/jdcoefct.c ****     coef->pub.decompress_data = decompress_onepass;
 2692              		.loc 1 737 28 is_stmt 0 view .LVU951
 2693 00ba 0A4B     		ldr	r3, .L172+16
 2694 00bc 7360     		str	r3, [r6, #4]
 738:Middlewares/Third_Party/LibJPEG/source/jdcoefct.c ****     coef->pub.coef_arrays = NULL; /* flag for no virtual arrays */
 2695              		.loc 1 738 5 is_stmt 1 view .LVU952
 738:Middlewares/Third_Party/LibJPEG/source/jdcoefct.c ****     coef->pub.coef_arrays = NULL; /* flag for no virtual arrays */
 2696              		.loc 1 738 31 is_stmt 0 view .LVU953
 2697 00be 0A4B     		ldr	r3, .L172+20
 2698 00c0 F360     		str	r3, [r6, #12]
 739:Middlewares/Third_Party/LibJPEG/source/jdcoefct.c ****   }
 2699              		.loc 1 739 5 is_stmt 1 view .LVU954
 739:Middlewares/Third_Party/LibJPEG/source/jdcoefct.c ****   }
 2700              		.loc 1 739 27 is_stmt 0 view .LVU955
 2701 00c2 0023     		movs	r3, #0
 2702 00c4 3361     		str	r3, [r6, #16]
 2703              	.LBE4:
 2704              		.loc 1 741 1 view .LVU956
 2705 00c6 E1E7     		b	.L160
 2706              	.LVL325:
 2707              	.L171:
 2708              	.LBB5:
 735:Middlewares/Third_Party/LibJPEG/source/jdcoefct.c **** 	       (size_t) (D_MAX_BLOCKS_IN_MCU * SIZEOF(JBLOCK)));
 2709              		.loc 1 735 7 is_stmt 1 view .LVU957
 2710 00c8 4FF4A062 		mov	r2, #1280
 2711 00cc 0021     		movs	r1, #0
 2712 00ce FFF7FEFF 		bl	memset
 2713              	.LVL326:
 735:Middlewares/Third_Party/LibJPEG/source/jdcoefct.c **** 	       (size_t) (D_MAX_BLOCKS_IN_MCU * SIZEOF(JBLOCK)));
 2714              		.loc 1 735 7 is_stmt 0 view .LVU958
 2715 00d2 F2E7     		b	.L168
 2716              	.L173:
 2717              		.align	2
 2718              	.L172:
 2719 00d4 00000000 		.word	start_input_pass
 2720 00d8 00000000 		.word	start_output_pass
 2721 00dc 00000000 		.word	consume_data
 2722 00e0 00000000 		.word	decompress_data
 2723 00e4 00000000 		.word	dummy_consume_data
 2724 00e8 00000000 		.word	decompress_onepass
 2725              	.LBE5:
 2726              		.cfi_endproc
 2727              	.LFE156:
 2729              		.text
 2730              	.Letext0:
 2731              		.file 2 "/Applications/ArmGNUToolchain/13.3.rel1/arm-none-eabi/lib/gcc/arm-none-eabi/13.3.1/includ
 2732              		.file 3 "Inc/jmorecfg.h"
 2733              		.file 4 "Middlewares/Third_Party/LibJPEG/include/jpeglib.h"
 2734              		.file 5 "Middlewares/Third_Party/LibJPEG/include/jpegint.h"
 2735              		.file 6 "/Applications/ArmGNUToolchain/13.3.rel1/arm-none-eabi/arm-none-eabi/include/string.h"
 2736              		.file 7 "<built-in>"
ARM GAS  /var/folders/mq/wg13gp494590nh4zyt09lxf00000gn/T//ccLgMMOG.s 			page 71

