ARM GAS  /var/folders/mq/wg13gp494590nh4zyt09lxf00000gn/T//ccUYufpr.s 			page 1


   1              		.cpu cortex-m7
   2              		.arch armv7e-m
   3              		.fpu fpv5-d16
   4              		.eabi_attribute 28, 1
   5              		.eabi_attribute 20, 1
   6              		.eabi_attribute 21, 1
   7              		.eabi_attribute 23, 3
   8              		.eabi_attribute 24, 1
   9              		.eabi_attribute 25, 1
  10              		.eabi_attribute 26, 1
  11              		.eabi_attribute 30, 1
  12              		.eabi_attribute 34, 1
  13              		.eabi_attribute 18, 4
  14              		.file	"jdhuff.c"
  15              		.text
  16              	.Ltext0:
  17              		.cfi_sections	.debug_frame
  18              		.file 1 "Middlewares/Third_Party/LibJPEG/source/jdhuff.c"
  19              		.section	.text.jpeg_fill_bit_buffer,"ax",%progbits
  20              		.align	1
  21              		.syntax unified
  22              		.thumb
  23              		.thumb_func
  25              	jpeg_fill_bit_buffer:
  26              	.LVL0:
  27              	.LFB148:
   1:Middlewares/Third_Party/LibJPEG/source/jdhuff.c **** /*
   2:Middlewares/Third_Party/LibJPEG/source/jdhuff.c ****  * jdhuff.c
   3:Middlewares/Third_Party/LibJPEG/source/jdhuff.c ****  *
   4:Middlewares/Third_Party/LibJPEG/source/jdhuff.c ****  * Copyright (C) 1991-1997, Thomas G. Lane.
   5:Middlewares/Third_Party/LibJPEG/source/jdhuff.c ****  * Modified 2006-2009 by Guido Vollbeding.
   6:Middlewares/Third_Party/LibJPEG/source/jdhuff.c ****  * This file is part of the Independent JPEG Group's software.
   7:Middlewares/Third_Party/LibJPEG/source/jdhuff.c ****  * For conditions of distribution and use, see the accompanying README file.
   8:Middlewares/Third_Party/LibJPEG/source/jdhuff.c ****  *
   9:Middlewares/Third_Party/LibJPEG/source/jdhuff.c ****  * This file contains Huffman entropy decoding routines.
  10:Middlewares/Third_Party/LibJPEG/source/jdhuff.c ****  * Both sequential and progressive modes are supported in this single module.
  11:Middlewares/Third_Party/LibJPEG/source/jdhuff.c ****  *
  12:Middlewares/Third_Party/LibJPEG/source/jdhuff.c ****  * Much of the complexity here has to do with supporting input suspension.
  13:Middlewares/Third_Party/LibJPEG/source/jdhuff.c ****  * If the data source module demands suspension, we want to be able to back
  14:Middlewares/Third_Party/LibJPEG/source/jdhuff.c ****  * up to the start of the current MCU.  To do this, we copy state variables
  15:Middlewares/Third_Party/LibJPEG/source/jdhuff.c ****  * into local working storage, and update them back to the permanent
  16:Middlewares/Third_Party/LibJPEG/source/jdhuff.c ****  * storage only upon successful completion of an MCU.
  17:Middlewares/Third_Party/LibJPEG/source/jdhuff.c ****  */
  18:Middlewares/Third_Party/LibJPEG/source/jdhuff.c **** 
  19:Middlewares/Third_Party/LibJPEG/source/jdhuff.c **** #define JPEG_INTERNALS
  20:Middlewares/Third_Party/LibJPEG/source/jdhuff.c **** #include "jinclude.h"
  21:Middlewares/Third_Party/LibJPEG/source/jdhuff.c **** #include "jpeglib.h"
  22:Middlewares/Third_Party/LibJPEG/source/jdhuff.c **** 
  23:Middlewares/Third_Party/LibJPEG/source/jdhuff.c **** 
  24:Middlewares/Third_Party/LibJPEG/source/jdhuff.c **** /* Derived data constructed for each Huffman table */
  25:Middlewares/Third_Party/LibJPEG/source/jdhuff.c **** 
  26:Middlewares/Third_Party/LibJPEG/source/jdhuff.c **** #define HUFF_LOOKAHEAD	8	/* # of bits of lookahead */
  27:Middlewares/Third_Party/LibJPEG/source/jdhuff.c **** 
  28:Middlewares/Third_Party/LibJPEG/source/jdhuff.c **** typedef struct {
  29:Middlewares/Third_Party/LibJPEG/source/jdhuff.c ****   /* Basic tables: (element [0] of each array is unused) */
  30:Middlewares/Third_Party/LibJPEG/source/jdhuff.c ****   INT32 maxcode[18];		/* largest code of length k (-1 if none) */
  31:Middlewares/Third_Party/LibJPEG/source/jdhuff.c ****   /* (maxcode[17] is a sentinel to ensure jpeg_huff_decode terminates) */
ARM GAS  /var/folders/mq/wg13gp494590nh4zyt09lxf00000gn/T//ccUYufpr.s 			page 2


  32:Middlewares/Third_Party/LibJPEG/source/jdhuff.c ****   INT32 valoffset[17];		/* huffval[] offset for codes of length k */
  33:Middlewares/Third_Party/LibJPEG/source/jdhuff.c ****   /* valoffset[k] = huffval[] index of 1st symbol of code length k, less
  34:Middlewares/Third_Party/LibJPEG/source/jdhuff.c ****    * the smallest code of length k; so given a code of length k, the
  35:Middlewares/Third_Party/LibJPEG/source/jdhuff.c ****    * corresponding symbol is huffval[code + valoffset[k]]
  36:Middlewares/Third_Party/LibJPEG/source/jdhuff.c ****    */
  37:Middlewares/Third_Party/LibJPEG/source/jdhuff.c **** 
  38:Middlewares/Third_Party/LibJPEG/source/jdhuff.c ****   /* Link to public Huffman table (needed only in jpeg_huff_decode) */
  39:Middlewares/Third_Party/LibJPEG/source/jdhuff.c ****   JHUFF_TBL *pub;
  40:Middlewares/Third_Party/LibJPEG/source/jdhuff.c **** 
  41:Middlewares/Third_Party/LibJPEG/source/jdhuff.c ****   /* Lookahead tables: indexed by the next HUFF_LOOKAHEAD bits of
  42:Middlewares/Third_Party/LibJPEG/source/jdhuff.c ****    * the input data stream.  If the next Huffman code is no more
  43:Middlewares/Third_Party/LibJPEG/source/jdhuff.c ****    * than HUFF_LOOKAHEAD bits long, we can obtain its length and
  44:Middlewares/Third_Party/LibJPEG/source/jdhuff.c ****    * the corresponding symbol directly from these tables.
  45:Middlewares/Third_Party/LibJPEG/source/jdhuff.c ****    */
  46:Middlewares/Third_Party/LibJPEG/source/jdhuff.c ****   int look_nbits[1<<HUFF_LOOKAHEAD]; /* # bits, or 0 if too long */
  47:Middlewares/Third_Party/LibJPEG/source/jdhuff.c ****   UINT8 look_sym[1<<HUFF_LOOKAHEAD]; /* symbol, or unused */
  48:Middlewares/Third_Party/LibJPEG/source/jdhuff.c **** } d_derived_tbl;
  49:Middlewares/Third_Party/LibJPEG/source/jdhuff.c **** 
  50:Middlewares/Third_Party/LibJPEG/source/jdhuff.c **** 
  51:Middlewares/Third_Party/LibJPEG/source/jdhuff.c **** /*
  52:Middlewares/Third_Party/LibJPEG/source/jdhuff.c ****  * Fetching the next N bits from the input stream is a time-critical operation
  53:Middlewares/Third_Party/LibJPEG/source/jdhuff.c ****  * for the Huffman decoders.  We implement it with a combination of inline
  54:Middlewares/Third_Party/LibJPEG/source/jdhuff.c ****  * macros and out-of-line subroutines.  Note that N (the number of bits
  55:Middlewares/Third_Party/LibJPEG/source/jdhuff.c ****  * demanded at one time) never exceeds 15 for JPEG use.
  56:Middlewares/Third_Party/LibJPEG/source/jdhuff.c ****  *
  57:Middlewares/Third_Party/LibJPEG/source/jdhuff.c ****  * We read source bytes into get_buffer and dole out bits as needed.
  58:Middlewares/Third_Party/LibJPEG/source/jdhuff.c ****  * If get_buffer already contains enough bits, they are fetched in-line
  59:Middlewares/Third_Party/LibJPEG/source/jdhuff.c ****  * by the macros CHECK_BIT_BUFFER and GET_BITS.  When there aren't enough
  60:Middlewares/Third_Party/LibJPEG/source/jdhuff.c ****  * bits, jpeg_fill_bit_buffer is called; it will attempt to fill get_buffer
  61:Middlewares/Third_Party/LibJPEG/source/jdhuff.c ****  * as full as possible (not just to the number of bits needed; this
  62:Middlewares/Third_Party/LibJPEG/source/jdhuff.c ****  * prefetching reduces the overhead cost of calling jpeg_fill_bit_buffer).
  63:Middlewares/Third_Party/LibJPEG/source/jdhuff.c ****  * Note that jpeg_fill_bit_buffer may return FALSE to indicate suspension.
  64:Middlewares/Third_Party/LibJPEG/source/jdhuff.c ****  * On TRUE return, jpeg_fill_bit_buffer guarantees that get_buffer contains
  65:Middlewares/Third_Party/LibJPEG/source/jdhuff.c ****  * at least the requested number of bits --- dummy zeroes are inserted if
  66:Middlewares/Third_Party/LibJPEG/source/jdhuff.c ****  * necessary.
  67:Middlewares/Third_Party/LibJPEG/source/jdhuff.c ****  */
  68:Middlewares/Third_Party/LibJPEG/source/jdhuff.c **** 
  69:Middlewares/Third_Party/LibJPEG/source/jdhuff.c **** typedef INT32 bit_buf_type;	/* type of bit-extraction buffer */
  70:Middlewares/Third_Party/LibJPEG/source/jdhuff.c **** #define BIT_BUF_SIZE  32	/* size of buffer in bits */
  71:Middlewares/Third_Party/LibJPEG/source/jdhuff.c **** 
  72:Middlewares/Third_Party/LibJPEG/source/jdhuff.c **** /* If long is > 32 bits on your machine, and shifting/masking longs is
  73:Middlewares/Third_Party/LibJPEG/source/jdhuff.c ****  * reasonably fast, making bit_buf_type be long and setting BIT_BUF_SIZE
  74:Middlewares/Third_Party/LibJPEG/source/jdhuff.c ****  * appropriately should be a win.  Unfortunately we can't define the size
  75:Middlewares/Third_Party/LibJPEG/source/jdhuff.c ****  * with something like  #define BIT_BUF_SIZE (sizeof(bit_buf_type)*8)
  76:Middlewares/Third_Party/LibJPEG/source/jdhuff.c ****  * because not all machines measure sizeof in 8-bit bytes.
  77:Middlewares/Third_Party/LibJPEG/source/jdhuff.c ****  */
  78:Middlewares/Third_Party/LibJPEG/source/jdhuff.c **** 
  79:Middlewares/Third_Party/LibJPEG/source/jdhuff.c **** typedef struct {		/* Bitreading state saved across MCUs */
  80:Middlewares/Third_Party/LibJPEG/source/jdhuff.c ****   bit_buf_type get_buffer;	/* current bit-extraction buffer */
  81:Middlewares/Third_Party/LibJPEG/source/jdhuff.c ****   int bits_left;		/* # of unused bits in it */
  82:Middlewares/Third_Party/LibJPEG/source/jdhuff.c **** } bitread_perm_state;
  83:Middlewares/Third_Party/LibJPEG/source/jdhuff.c **** 
  84:Middlewares/Third_Party/LibJPEG/source/jdhuff.c **** typedef struct {		/* Bitreading working state within an MCU */
  85:Middlewares/Third_Party/LibJPEG/source/jdhuff.c ****   /* Current data source location */
  86:Middlewares/Third_Party/LibJPEG/source/jdhuff.c ****   /* We need a copy, rather than munging the original, in case of suspension */
  87:Middlewares/Third_Party/LibJPEG/source/jdhuff.c ****   const JOCTET * next_input_byte; /* => next byte to read from source */
  88:Middlewares/Third_Party/LibJPEG/source/jdhuff.c ****   size_t bytes_in_buffer;	/* # of bytes remaining in source buffer */
ARM GAS  /var/folders/mq/wg13gp494590nh4zyt09lxf00000gn/T//ccUYufpr.s 			page 3


  89:Middlewares/Third_Party/LibJPEG/source/jdhuff.c ****   /* Bit input buffer --- note these values are kept in register variables,
  90:Middlewares/Third_Party/LibJPEG/source/jdhuff.c ****    * not in this struct, inside the inner loops.
  91:Middlewares/Third_Party/LibJPEG/source/jdhuff.c ****    */
  92:Middlewares/Third_Party/LibJPEG/source/jdhuff.c ****   bit_buf_type get_buffer;	/* current bit-extraction buffer */
  93:Middlewares/Third_Party/LibJPEG/source/jdhuff.c ****   int bits_left;		/* # of unused bits in it */
  94:Middlewares/Third_Party/LibJPEG/source/jdhuff.c ****   /* Pointer needed by jpeg_fill_bit_buffer. */
  95:Middlewares/Third_Party/LibJPEG/source/jdhuff.c ****   j_decompress_ptr cinfo;	/* back link to decompress master record */
  96:Middlewares/Third_Party/LibJPEG/source/jdhuff.c **** } bitread_working_state;
  97:Middlewares/Third_Party/LibJPEG/source/jdhuff.c **** 
  98:Middlewares/Third_Party/LibJPEG/source/jdhuff.c **** /* Macros to declare and load/save bitread local variables. */
  99:Middlewares/Third_Party/LibJPEG/source/jdhuff.c **** #define BITREAD_STATE_VARS  \
 100:Middlewares/Third_Party/LibJPEG/source/jdhuff.c **** 	register bit_buf_type get_buffer;  \
 101:Middlewares/Third_Party/LibJPEG/source/jdhuff.c **** 	register int bits_left;  \
 102:Middlewares/Third_Party/LibJPEG/source/jdhuff.c **** 	bitread_working_state br_state
 103:Middlewares/Third_Party/LibJPEG/source/jdhuff.c **** 
 104:Middlewares/Third_Party/LibJPEG/source/jdhuff.c **** #define BITREAD_LOAD_STATE(cinfop,permstate)  \
 105:Middlewares/Third_Party/LibJPEG/source/jdhuff.c **** 	br_state.cinfo = cinfop; \
 106:Middlewares/Third_Party/LibJPEG/source/jdhuff.c **** 	br_state.next_input_byte = cinfop->src->next_input_byte; \
 107:Middlewares/Third_Party/LibJPEG/source/jdhuff.c **** 	br_state.bytes_in_buffer = cinfop->src->bytes_in_buffer; \
 108:Middlewares/Third_Party/LibJPEG/source/jdhuff.c **** 	get_buffer = permstate.get_buffer; \
 109:Middlewares/Third_Party/LibJPEG/source/jdhuff.c **** 	bits_left = permstate.bits_left;
 110:Middlewares/Third_Party/LibJPEG/source/jdhuff.c **** 
 111:Middlewares/Third_Party/LibJPEG/source/jdhuff.c **** #define BITREAD_SAVE_STATE(cinfop,permstate)  \
 112:Middlewares/Third_Party/LibJPEG/source/jdhuff.c **** 	cinfop->src->next_input_byte = br_state.next_input_byte; \
 113:Middlewares/Third_Party/LibJPEG/source/jdhuff.c **** 	cinfop->src->bytes_in_buffer = br_state.bytes_in_buffer; \
 114:Middlewares/Third_Party/LibJPEG/source/jdhuff.c **** 	permstate.get_buffer = get_buffer; \
 115:Middlewares/Third_Party/LibJPEG/source/jdhuff.c **** 	permstate.bits_left = bits_left
 116:Middlewares/Third_Party/LibJPEG/source/jdhuff.c **** 
 117:Middlewares/Third_Party/LibJPEG/source/jdhuff.c **** /*
 118:Middlewares/Third_Party/LibJPEG/source/jdhuff.c ****  * These macros provide the in-line portion of bit fetching.
 119:Middlewares/Third_Party/LibJPEG/source/jdhuff.c ****  * Use CHECK_BIT_BUFFER to ensure there are N bits in get_buffer
 120:Middlewares/Third_Party/LibJPEG/source/jdhuff.c ****  * before using GET_BITS, PEEK_BITS, or DROP_BITS.
 121:Middlewares/Third_Party/LibJPEG/source/jdhuff.c ****  * The variables get_buffer and bits_left are assumed to be locals,
 122:Middlewares/Third_Party/LibJPEG/source/jdhuff.c ****  * but the state struct might not be (jpeg_huff_decode needs this).
 123:Middlewares/Third_Party/LibJPEG/source/jdhuff.c ****  *	CHECK_BIT_BUFFER(state,n,action);
 124:Middlewares/Third_Party/LibJPEG/source/jdhuff.c ****  *		Ensure there are N bits in get_buffer; if suspend, take action.
 125:Middlewares/Third_Party/LibJPEG/source/jdhuff.c ****  *      val = GET_BITS(n);
 126:Middlewares/Third_Party/LibJPEG/source/jdhuff.c ****  *		Fetch next N bits.
 127:Middlewares/Third_Party/LibJPEG/source/jdhuff.c ****  *      val = PEEK_BITS(n);
 128:Middlewares/Third_Party/LibJPEG/source/jdhuff.c ****  *		Fetch next N bits without removing them from the buffer.
 129:Middlewares/Third_Party/LibJPEG/source/jdhuff.c ****  *	DROP_BITS(n);
 130:Middlewares/Third_Party/LibJPEG/source/jdhuff.c ****  *		Discard next N bits.
 131:Middlewares/Third_Party/LibJPEG/source/jdhuff.c ****  * The value N should be a simple variable, not an expression, because it
 132:Middlewares/Third_Party/LibJPEG/source/jdhuff.c ****  * is evaluated multiple times.
 133:Middlewares/Third_Party/LibJPEG/source/jdhuff.c ****  */
 134:Middlewares/Third_Party/LibJPEG/source/jdhuff.c **** 
 135:Middlewares/Third_Party/LibJPEG/source/jdhuff.c **** #define CHECK_BIT_BUFFER(state,nbits,action) \
 136:Middlewares/Third_Party/LibJPEG/source/jdhuff.c **** 	{ if (bits_left < (nbits)) {  \
 137:Middlewares/Third_Party/LibJPEG/source/jdhuff.c **** 	    if (! jpeg_fill_bit_buffer(&(state),get_buffer,bits_left,nbits))  \
 138:Middlewares/Third_Party/LibJPEG/source/jdhuff.c **** 	      { action; }  \
 139:Middlewares/Third_Party/LibJPEG/source/jdhuff.c **** 	    get_buffer = (state).get_buffer; bits_left = (state).bits_left; } }
 140:Middlewares/Third_Party/LibJPEG/source/jdhuff.c **** 
 141:Middlewares/Third_Party/LibJPEG/source/jdhuff.c **** #define GET_BITS(nbits) \
 142:Middlewares/Third_Party/LibJPEG/source/jdhuff.c **** 	(((int) (get_buffer >> (bits_left -= (nbits)))) & BIT_MASK(nbits))
 143:Middlewares/Third_Party/LibJPEG/source/jdhuff.c **** 
 144:Middlewares/Third_Party/LibJPEG/source/jdhuff.c **** #define PEEK_BITS(nbits) \
 145:Middlewares/Third_Party/LibJPEG/source/jdhuff.c **** 	(((int) (get_buffer >> (bits_left -  (nbits)))) & BIT_MASK(nbits))
ARM GAS  /var/folders/mq/wg13gp494590nh4zyt09lxf00000gn/T//ccUYufpr.s 			page 4


 146:Middlewares/Third_Party/LibJPEG/source/jdhuff.c **** 
 147:Middlewares/Third_Party/LibJPEG/source/jdhuff.c **** #define DROP_BITS(nbits) \
 148:Middlewares/Third_Party/LibJPEG/source/jdhuff.c **** 	(bits_left -= (nbits))
 149:Middlewares/Third_Party/LibJPEG/source/jdhuff.c **** 
 150:Middlewares/Third_Party/LibJPEG/source/jdhuff.c **** 
 151:Middlewares/Third_Party/LibJPEG/source/jdhuff.c **** /*
 152:Middlewares/Third_Party/LibJPEG/source/jdhuff.c ****  * Code for extracting next Huffman-coded symbol from input bit stream.
 153:Middlewares/Third_Party/LibJPEG/source/jdhuff.c ****  * Again, this is time-critical and we make the main paths be macros.
 154:Middlewares/Third_Party/LibJPEG/source/jdhuff.c ****  *
 155:Middlewares/Third_Party/LibJPEG/source/jdhuff.c ****  * We use a lookahead table to process codes of up to HUFF_LOOKAHEAD bits
 156:Middlewares/Third_Party/LibJPEG/source/jdhuff.c ****  * without looping.  Usually, more than 95% of the Huffman codes will be 8
 157:Middlewares/Third_Party/LibJPEG/source/jdhuff.c ****  * or fewer bits long.  The few overlength codes are handled with a loop,
 158:Middlewares/Third_Party/LibJPEG/source/jdhuff.c ****  * which need not be inline code.
 159:Middlewares/Third_Party/LibJPEG/source/jdhuff.c ****  *
 160:Middlewares/Third_Party/LibJPEG/source/jdhuff.c ****  * Notes about the HUFF_DECODE macro:
 161:Middlewares/Third_Party/LibJPEG/source/jdhuff.c ****  * 1. Near the end of the data segment, we may fail to get enough bits
 162:Middlewares/Third_Party/LibJPEG/source/jdhuff.c ****  *    for a lookahead.  In that case, we do it the hard way.
 163:Middlewares/Third_Party/LibJPEG/source/jdhuff.c ****  * 2. If the lookahead table contains no entry, the next code must be
 164:Middlewares/Third_Party/LibJPEG/source/jdhuff.c ****  *    more than HUFF_LOOKAHEAD bits long.
 165:Middlewares/Third_Party/LibJPEG/source/jdhuff.c ****  * 3. jpeg_huff_decode returns -1 if forced to suspend.
 166:Middlewares/Third_Party/LibJPEG/source/jdhuff.c ****  */
 167:Middlewares/Third_Party/LibJPEG/source/jdhuff.c **** 
 168:Middlewares/Third_Party/LibJPEG/source/jdhuff.c **** #define HUFF_DECODE(result,state,htbl,failaction,slowlabel) \
 169:Middlewares/Third_Party/LibJPEG/source/jdhuff.c **** { register int nb, look; \
 170:Middlewares/Third_Party/LibJPEG/source/jdhuff.c ****   if (bits_left < HUFF_LOOKAHEAD) { \
 171:Middlewares/Third_Party/LibJPEG/source/jdhuff.c ****     if (! jpeg_fill_bit_buffer(&state,get_buffer,bits_left, 0)) {failaction;} \
 172:Middlewares/Third_Party/LibJPEG/source/jdhuff.c ****     get_buffer = state.get_buffer; bits_left = state.bits_left; \
 173:Middlewares/Third_Party/LibJPEG/source/jdhuff.c ****     if (bits_left < HUFF_LOOKAHEAD) { \
 174:Middlewares/Third_Party/LibJPEG/source/jdhuff.c ****       nb = 1; goto slowlabel; \
 175:Middlewares/Third_Party/LibJPEG/source/jdhuff.c ****     } \
 176:Middlewares/Third_Party/LibJPEG/source/jdhuff.c ****   } \
 177:Middlewares/Third_Party/LibJPEG/source/jdhuff.c ****   look = PEEK_BITS(HUFF_LOOKAHEAD); \
 178:Middlewares/Third_Party/LibJPEG/source/jdhuff.c ****   if ((nb = htbl->look_nbits[look]) != 0) { \
 179:Middlewares/Third_Party/LibJPEG/source/jdhuff.c ****     DROP_BITS(nb); \
 180:Middlewares/Third_Party/LibJPEG/source/jdhuff.c ****     result = htbl->look_sym[look]; \
 181:Middlewares/Third_Party/LibJPEG/source/jdhuff.c ****   } else { \
 182:Middlewares/Third_Party/LibJPEG/source/jdhuff.c ****     nb = HUFF_LOOKAHEAD+1; \
 183:Middlewares/Third_Party/LibJPEG/source/jdhuff.c **** slowlabel: \
 184:Middlewares/Third_Party/LibJPEG/source/jdhuff.c ****     if ((result=jpeg_huff_decode(&state,get_buffer,bits_left,htbl,nb)) < 0) \
 185:Middlewares/Third_Party/LibJPEG/source/jdhuff.c **** 	{ failaction; } \
 186:Middlewares/Third_Party/LibJPEG/source/jdhuff.c ****     get_buffer = state.get_buffer; bits_left = state.bits_left; \
 187:Middlewares/Third_Party/LibJPEG/source/jdhuff.c ****   } \
 188:Middlewares/Third_Party/LibJPEG/source/jdhuff.c **** }
 189:Middlewares/Third_Party/LibJPEG/source/jdhuff.c **** 
 190:Middlewares/Third_Party/LibJPEG/source/jdhuff.c **** 
 191:Middlewares/Third_Party/LibJPEG/source/jdhuff.c **** /*
 192:Middlewares/Third_Party/LibJPEG/source/jdhuff.c ****  * Expanded entropy decoder object for Huffman decoding.
 193:Middlewares/Third_Party/LibJPEG/source/jdhuff.c ****  *
 194:Middlewares/Third_Party/LibJPEG/source/jdhuff.c ****  * The savable_state subrecord contains fields that change within an MCU,
 195:Middlewares/Third_Party/LibJPEG/source/jdhuff.c ****  * but must not be updated permanently until we complete the MCU.
 196:Middlewares/Third_Party/LibJPEG/source/jdhuff.c ****  */
 197:Middlewares/Third_Party/LibJPEG/source/jdhuff.c **** 
 198:Middlewares/Third_Party/LibJPEG/source/jdhuff.c **** typedef struct {
 199:Middlewares/Third_Party/LibJPEG/source/jdhuff.c ****   unsigned int EOBRUN;			/* remaining EOBs in EOBRUN */
 200:Middlewares/Third_Party/LibJPEG/source/jdhuff.c ****   int last_dc_val[MAX_COMPS_IN_SCAN];	/* last DC coef for each component */
 201:Middlewares/Third_Party/LibJPEG/source/jdhuff.c **** } savable_state;
 202:Middlewares/Third_Party/LibJPEG/source/jdhuff.c **** 
ARM GAS  /var/folders/mq/wg13gp494590nh4zyt09lxf00000gn/T//ccUYufpr.s 			page 5


 203:Middlewares/Third_Party/LibJPEG/source/jdhuff.c **** /* This macro is to work around compilers with missing or broken
 204:Middlewares/Third_Party/LibJPEG/source/jdhuff.c ****  * structure assignment.  You'll need to fix this code if you have
 205:Middlewares/Third_Party/LibJPEG/source/jdhuff.c ****  * such a compiler and you change MAX_COMPS_IN_SCAN.
 206:Middlewares/Third_Party/LibJPEG/source/jdhuff.c ****  */
 207:Middlewares/Third_Party/LibJPEG/source/jdhuff.c **** 
 208:Middlewares/Third_Party/LibJPEG/source/jdhuff.c **** #ifndef NO_STRUCT_ASSIGN
 209:Middlewares/Third_Party/LibJPEG/source/jdhuff.c **** #define ASSIGN_STATE(dest,src)  ((dest) = (src))
 210:Middlewares/Third_Party/LibJPEG/source/jdhuff.c **** #else
 211:Middlewares/Third_Party/LibJPEG/source/jdhuff.c **** #if MAX_COMPS_IN_SCAN == 4
 212:Middlewares/Third_Party/LibJPEG/source/jdhuff.c **** #define ASSIGN_STATE(dest,src)  \
 213:Middlewares/Third_Party/LibJPEG/source/jdhuff.c **** 	((dest).EOBRUN = (src).EOBRUN, \
 214:Middlewares/Third_Party/LibJPEG/source/jdhuff.c **** 	 (dest).last_dc_val[0] = (src).last_dc_val[0], \
 215:Middlewares/Third_Party/LibJPEG/source/jdhuff.c **** 	 (dest).last_dc_val[1] = (src).last_dc_val[1], \
 216:Middlewares/Third_Party/LibJPEG/source/jdhuff.c **** 	 (dest).last_dc_val[2] = (src).last_dc_val[2], \
 217:Middlewares/Third_Party/LibJPEG/source/jdhuff.c **** 	 (dest).last_dc_val[3] = (src).last_dc_val[3])
 218:Middlewares/Third_Party/LibJPEG/source/jdhuff.c **** #endif
 219:Middlewares/Third_Party/LibJPEG/source/jdhuff.c **** #endif
 220:Middlewares/Third_Party/LibJPEG/source/jdhuff.c **** 
 221:Middlewares/Third_Party/LibJPEG/source/jdhuff.c **** 
 222:Middlewares/Third_Party/LibJPEG/source/jdhuff.c **** typedef struct {
 223:Middlewares/Third_Party/LibJPEG/source/jdhuff.c ****   struct jpeg_entropy_decoder pub; /* public fields */
 224:Middlewares/Third_Party/LibJPEG/source/jdhuff.c **** 
 225:Middlewares/Third_Party/LibJPEG/source/jdhuff.c ****   /* These fields are loaded into local variables at start of each MCU.
 226:Middlewares/Third_Party/LibJPEG/source/jdhuff.c ****    * In case of suspension, we exit WITHOUT updating them.
 227:Middlewares/Third_Party/LibJPEG/source/jdhuff.c ****    */
 228:Middlewares/Third_Party/LibJPEG/source/jdhuff.c ****   bitread_perm_state bitstate;	/* Bit buffer at start of MCU */
 229:Middlewares/Third_Party/LibJPEG/source/jdhuff.c ****   savable_state saved;		/* Other state at start of MCU */
 230:Middlewares/Third_Party/LibJPEG/source/jdhuff.c **** 
 231:Middlewares/Third_Party/LibJPEG/source/jdhuff.c ****   /* These fields are NOT loaded into local working state. */
 232:Middlewares/Third_Party/LibJPEG/source/jdhuff.c ****   boolean insufficient_data;	/* set TRUE after emitting warning */
 233:Middlewares/Third_Party/LibJPEG/source/jdhuff.c ****   unsigned int restarts_to_go;	/* MCUs left in this restart interval */
 234:Middlewares/Third_Party/LibJPEG/source/jdhuff.c **** 
 235:Middlewares/Third_Party/LibJPEG/source/jdhuff.c ****   /* Following two fields used only in progressive mode */
 236:Middlewares/Third_Party/LibJPEG/source/jdhuff.c **** 
 237:Middlewares/Third_Party/LibJPEG/source/jdhuff.c ****   /* Pointers to derived tables (these workspaces have image lifespan) */
 238:Middlewares/Third_Party/LibJPEG/source/jdhuff.c ****   d_derived_tbl * derived_tbls[NUM_HUFF_TBLS];
 239:Middlewares/Third_Party/LibJPEG/source/jdhuff.c **** 
 240:Middlewares/Third_Party/LibJPEG/source/jdhuff.c ****   d_derived_tbl * ac_derived_tbl; /* active table during an AC scan */
 241:Middlewares/Third_Party/LibJPEG/source/jdhuff.c **** 
 242:Middlewares/Third_Party/LibJPEG/source/jdhuff.c ****   /* Following fields used only in sequential mode */
 243:Middlewares/Third_Party/LibJPEG/source/jdhuff.c **** 
 244:Middlewares/Third_Party/LibJPEG/source/jdhuff.c ****   /* Pointers to derived tables (these workspaces have image lifespan) */
 245:Middlewares/Third_Party/LibJPEG/source/jdhuff.c ****   d_derived_tbl * dc_derived_tbls[NUM_HUFF_TBLS];
 246:Middlewares/Third_Party/LibJPEG/source/jdhuff.c ****   d_derived_tbl * ac_derived_tbls[NUM_HUFF_TBLS];
 247:Middlewares/Third_Party/LibJPEG/source/jdhuff.c **** 
 248:Middlewares/Third_Party/LibJPEG/source/jdhuff.c ****   /* Precalculated info set up by start_pass for use in decode_mcu: */
 249:Middlewares/Third_Party/LibJPEG/source/jdhuff.c **** 
 250:Middlewares/Third_Party/LibJPEG/source/jdhuff.c ****   /* Pointers to derived tables to be used for each block within an MCU */
 251:Middlewares/Third_Party/LibJPEG/source/jdhuff.c ****   d_derived_tbl * dc_cur_tbls[D_MAX_BLOCKS_IN_MCU];
 252:Middlewares/Third_Party/LibJPEG/source/jdhuff.c ****   d_derived_tbl * ac_cur_tbls[D_MAX_BLOCKS_IN_MCU];
 253:Middlewares/Third_Party/LibJPEG/source/jdhuff.c ****   /* Whether we care about the DC and AC coefficient values for each block */
 254:Middlewares/Third_Party/LibJPEG/source/jdhuff.c ****   int coef_limit[D_MAX_BLOCKS_IN_MCU];
 255:Middlewares/Third_Party/LibJPEG/source/jdhuff.c **** } huff_entropy_decoder;
 256:Middlewares/Third_Party/LibJPEG/source/jdhuff.c **** 
 257:Middlewares/Third_Party/LibJPEG/source/jdhuff.c **** typedef huff_entropy_decoder * huff_entropy_ptr;
 258:Middlewares/Third_Party/LibJPEG/source/jdhuff.c **** 
 259:Middlewares/Third_Party/LibJPEG/source/jdhuff.c **** 
ARM GAS  /var/folders/mq/wg13gp494590nh4zyt09lxf00000gn/T//ccUYufpr.s 			page 6


 260:Middlewares/Third_Party/LibJPEG/source/jdhuff.c **** static const int jpeg_zigzag_order[8][8] = {
 261:Middlewares/Third_Party/LibJPEG/source/jdhuff.c ****   {  0,  1,  5,  6, 14, 15, 27, 28 },
 262:Middlewares/Third_Party/LibJPEG/source/jdhuff.c ****   {  2,  4,  7, 13, 16, 26, 29, 42 },
 263:Middlewares/Third_Party/LibJPEG/source/jdhuff.c ****   {  3,  8, 12, 17, 25, 30, 41, 43 },
 264:Middlewares/Third_Party/LibJPEG/source/jdhuff.c ****   {  9, 11, 18, 24, 31, 40, 44, 53 },
 265:Middlewares/Third_Party/LibJPEG/source/jdhuff.c ****   { 10, 19, 23, 32, 39, 45, 52, 54 },
 266:Middlewares/Third_Party/LibJPEG/source/jdhuff.c ****   { 20, 22, 33, 38, 46, 51, 55, 60 },
 267:Middlewares/Third_Party/LibJPEG/source/jdhuff.c ****   { 21, 34, 37, 47, 50, 56, 59, 61 },
 268:Middlewares/Third_Party/LibJPEG/source/jdhuff.c ****   { 35, 36, 48, 49, 57, 58, 62, 63 }
 269:Middlewares/Third_Party/LibJPEG/source/jdhuff.c **** };
 270:Middlewares/Third_Party/LibJPEG/source/jdhuff.c **** 
 271:Middlewares/Third_Party/LibJPEG/source/jdhuff.c **** static const int jpeg_zigzag_order7[7][7] = {
 272:Middlewares/Third_Party/LibJPEG/source/jdhuff.c ****   {  0,  1,  5,  6, 14, 15, 27 },
 273:Middlewares/Third_Party/LibJPEG/source/jdhuff.c ****   {  2,  4,  7, 13, 16, 26, 28 },
 274:Middlewares/Third_Party/LibJPEG/source/jdhuff.c ****   {  3,  8, 12, 17, 25, 29, 38 },
 275:Middlewares/Third_Party/LibJPEG/source/jdhuff.c ****   {  9, 11, 18, 24, 30, 37, 39 },
 276:Middlewares/Third_Party/LibJPEG/source/jdhuff.c ****   { 10, 19, 23, 31, 36, 40, 45 },
 277:Middlewares/Third_Party/LibJPEG/source/jdhuff.c ****   { 20, 22, 32, 35, 41, 44, 46 },
 278:Middlewares/Third_Party/LibJPEG/source/jdhuff.c ****   { 21, 33, 34, 42, 43, 47, 48 }
 279:Middlewares/Third_Party/LibJPEG/source/jdhuff.c **** };
 280:Middlewares/Third_Party/LibJPEG/source/jdhuff.c **** 
 281:Middlewares/Third_Party/LibJPEG/source/jdhuff.c **** static const int jpeg_zigzag_order6[6][6] = {
 282:Middlewares/Third_Party/LibJPEG/source/jdhuff.c ****   {  0,  1,  5,  6, 14, 15 },
 283:Middlewares/Third_Party/LibJPEG/source/jdhuff.c ****   {  2,  4,  7, 13, 16, 25 },
 284:Middlewares/Third_Party/LibJPEG/source/jdhuff.c ****   {  3,  8, 12, 17, 24, 26 },
 285:Middlewares/Third_Party/LibJPEG/source/jdhuff.c ****   {  9, 11, 18, 23, 27, 32 },
 286:Middlewares/Third_Party/LibJPEG/source/jdhuff.c ****   { 10, 19, 22, 28, 31, 33 },
 287:Middlewares/Third_Party/LibJPEG/source/jdhuff.c ****   { 20, 21, 29, 30, 34, 35 }
 288:Middlewares/Third_Party/LibJPEG/source/jdhuff.c **** };
 289:Middlewares/Third_Party/LibJPEG/source/jdhuff.c **** 
 290:Middlewares/Third_Party/LibJPEG/source/jdhuff.c **** static const int jpeg_zigzag_order5[5][5] = {
 291:Middlewares/Third_Party/LibJPEG/source/jdhuff.c ****   {  0,  1,  5,  6, 14 },
 292:Middlewares/Third_Party/LibJPEG/source/jdhuff.c ****   {  2,  4,  7, 13, 15 },
 293:Middlewares/Third_Party/LibJPEG/source/jdhuff.c ****   {  3,  8, 12, 16, 21 },
 294:Middlewares/Third_Party/LibJPEG/source/jdhuff.c ****   {  9, 11, 17, 20, 22 },
 295:Middlewares/Third_Party/LibJPEG/source/jdhuff.c ****   { 10, 18, 19, 23, 24 }
 296:Middlewares/Third_Party/LibJPEG/source/jdhuff.c **** };
 297:Middlewares/Third_Party/LibJPEG/source/jdhuff.c **** 
 298:Middlewares/Third_Party/LibJPEG/source/jdhuff.c **** static const int jpeg_zigzag_order4[4][4] = {
 299:Middlewares/Third_Party/LibJPEG/source/jdhuff.c ****   { 0,  1,  5,  6 },
 300:Middlewares/Third_Party/LibJPEG/source/jdhuff.c ****   { 2,  4,  7, 12 },
 301:Middlewares/Third_Party/LibJPEG/source/jdhuff.c ****   { 3,  8, 11, 13 },
 302:Middlewares/Third_Party/LibJPEG/source/jdhuff.c ****   { 9, 10, 14, 15 }
 303:Middlewares/Third_Party/LibJPEG/source/jdhuff.c **** };
 304:Middlewares/Third_Party/LibJPEG/source/jdhuff.c **** 
 305:Middlewares/Third_Party/LibJPEG/source/jdhuff.c **** static const int jpeg_zigzag_order3[3][3] = {
 306:Middlewares/Third_Party/LibJPEG/source/jdhuff.c ****   { 0, 1, 5 },
 307:Middlewares/Third_Party/LibJPEG/source/jdhuff.c ****   { 2, 4, 6 },
 308:Middlewares/Third_Party/LibJPEG/source/jdhuff.c ****   { 3, 7, 8 }
 309:Middlewares/Third_Party/LibJPEG/source/jdhuff.c **** };
 310:Middlewares/Third_Party/LibJPEG/source/jdhuff.c **** 
 311:Middlewares/Third_Party/LibJPEG/source/jdhuff.c **** static const int jpeg_zigzag_order2[2][2] = {
 312:Middlewares/Third_Party/LibJPEG/source/jdhuff.c ****   { 0, 1 },
 313:Middlewares/Third_Party/LibJPEG/source/jdhuff.c ****   { 2, 3 }
 314:Middlewares/Third_Party/LibJPEG/source/jdhuff.c **** };
 315:Middlewares/Third_Party/LibJPEG/source/jdhuff.c **** 
 316:Middlewares/Third_Party/LibJPEG/source/jdhuff.c **** 
ARM GAS  /var/folders/mq/wg13gp494590nh4zyt09lxf00000gn/T//ccUYufpr.s 			page 7


 317:Middlewares/Third_Party/LibJPEG/source/jdhuff.c **** /*
 318:Middlewares/Third_Party/LibJPEG/source/jdhuff.c ****  * Compute the derived values for a Huffman table.
 319:Middlewares/Third_Party/LibJPEG/source/jdhuff.c ****  * This routine also performs some validation checks on the table.
 320:Middlewares/Third_Party/LibJPEG/source/jdhuff.c ****  */
 321:Middlewares/Third_Party/LibJPEG/source/jdhuff.c **** 
 322:Middlewares/Third_Party/LibJPEG/source/jdhuff.c **** LOCAL(void)
 323:Middlewares/Third_Party/LibJPEG/source/jdhuff.c **** jpeg_make_d_derived_tbl (j_decompress_ptr cinfo, boolean isDC, int tblno,
 324:Middlewares/Third_Party/LibJPEG/source/jdhuff.c **** 			 d_derived_tbl ** pdtbl)
 325:Middlewares/Third_Party/LibJPEG/source/jdhuff.c **** {
 326:Middlewares/Third_Party/LibJPEG/source/jdhuff.c ****   JHUFF_TBL *htbl;
 327:Middlewares/Third_Party/LibJPEG/source/jdhuff.c ****   d_derived_tbl *dtbl;
 328:Middlewares/Third_Party/LibJPEG/source/jdhuff.c ****   int p, i, l, si, numsymbols;
 329:Middlewares/Third_Party/LibJPEG/source/jdhuff.c ****   int lookbits, ctr;
 330:Middlewares/Third_Party/LibJPEG/source/jdhuff.c ****   char huffsize[257];
 331:Middlewares/Third_Party/LibJPEG/source/jdhuff.c ****   unsigned int huffcode[257];
 332:Middlewares/Third_Party/LibJPEG/source/jdhuff.c ****   unsigned int code;
 333:Middlewares/Third_Party/LibJPEG/source/jdhuff.c **** 
 334:Middlewares/Third_Party/LibJPEG/source/jdhuff.c ****   /* Note that huffsize[] and huffcode[] are filled in code-length order,
 335:Middlewares/Third_Party/LibJPEG/source/jdhuff.c ****    * paralleling the order of the symbols themselves in htbl->huffval[].
 336:Middlewares/Third_Party/LibJPEG/source/jdhuff.c ****    */
 337:Middlewares/Third_Party/LibJPEG/source/jdhuff.c **** 
 338:Middlewares/Third_Party/LibJPEG/source/jdhuff.c ****   /* Find the input Huffman table */
 339:Middlewares/Third_Party/LibJPEG/source/jdhuff.c ****   if (tblno < 0 || tblno >= NUM_HUFF_TBLS)
 340:Middlewares/Third_Party/LibJPEG/source/jdhuff.c ****     ERREXIT1(cinfo, JERR_NO_HUFF_TABLE, tblno);
 341:Middlewares/Third_Party/LibJPEG/source/jdhuff.c ****   htbl =
 342:Middlewares/Third_Party/LibJPEG/source/jdhuff.c ****     isDC ? cinfo->dc_huff_tbl_ptrs[tblno] : cinfo->ac_huff_tbl_ptrs[tblno];
 343:Middlewares/Third_Party/LibJPEG/source/jdhuff.c ****   if (htbl == NULL)
 344:Middlewares/Third_Party/LibJPEG/source/jdhuff.c ****     ERREXIT1(cinfo, JERR_NO_HUFF_TABLE, tblno);
 345:Middlewares/Third_Party/LibJPEG/source/jdhuff.c **** 
 346:Middlewares/Third_Party/LibJPEG/source/jdhuff.c ****   /* Allocate a workspace if we haven't already done so. */
 347:Middlewares/Third_Party/LibJPEG/source/jdhuff.c ****   if (*pdtbl == NULL)
 348:Middlewares/Third_Party/LibJPEG/source/jdhuff.c ****     *pdtbl = (d_derived_tbl *)
 349:Middlewares/Third_Party/LibJPEG/source/jdhuff.c ****       (*cinfo->mem->alloc_small) ((j_common_ptr) cinfo, JPOOL_IMAGE,
 350:Middlewares/Third_Party/LibJPEG/source/jdhuff.c **** 				  SIZEOF(d_derived_tbl));
 351:Middlewares/Third_Party/LibJPEG/source/jdhuff.c ****   dtbl = *pdtbl;
 352:Middlewares/Third_Party/LibJPEG/source/jdhuff.c ****   dtbl->pub = htbl;		/* fill in back link */
 353:Middlewares/Third_Party/LibJPEG/source/jdhuff.c ****   
 354:Middlewares/Third_Party/LibJPEG/source/jdhuff.c ****   /* Figure C.1: make table of Huffman code length for each symbol */
 355:Middlewares/Third_Party/LibJPEG/source/jdhuff.c **** 
 356:Middlewares/Third_Party/LibJPEG/source/jdhuff.c ****   p = 0;
 357:Middlewares/Third_Party/LibJPEG/source/jdhuff.c ****   for (l = 1; l <= 16; l++) {
 358:Middlewares/Third_Party/LibJPEG/source/jdhuff.c ****     i = (int) htbl->bits[l];
 359:Middlewares/Third_Party/LibJPEG/source/jdhuff.c ****     if (i < 0 || p + i > 256)	/* protect against table overrun */
 360:Middlewares/Third_Party/LibJPEG/source/jdhuff.c ****       ERREXIT(cinfo, JERR_BAD_HUFF_TABLE);
 361:Middlewares/Third_Party/LibJPEG/source/jdhuff.c ****     while (i--)
 362:Middlewares/Third_Party/LibJPEG/source/jdhuff.c ****       huffsize[p++] = (char) l;
 363:Middlewares/Third_Party/LibJPEG/source/jdhuff.c ****   }
 364:Middlewares/Third_Party/LibJPEG/source/jdhuff.c ****   huffsize[p] = 0;
 365:Middlewares/Third_Party/LibJPEG/source/jdhuff.c ****   numsymbols = p;
 366:Middlewares/Third_Party/LibJPEG/source/jdhuff.c ****   
 367:Middlewares/Third_Party/LibJPEG/source/jdhuff.c ****   /* Figure C.2: generate the codes themselves */
 368:Middlewares/Third_Party/LibJPEG/source/jdhuff.c ****   /* We also validate that the counts represent a legal Huffman code tree. */
 369:Middlewares/Third_Party/LibJPEG/source/jdhuff.c ****   
 370:Middlewares/Third_Party/LibJPEG/source/jdhuff.c ****   code = 0;
 371:Middlewares/Third_Party/LibJPEG/source/jdhuff.c ****   si = huffsize[0];
 372:Middlewares/Third_Party/LibJPEG/source/jdhuff.c ****   p = 0;
 373:Middlewares/Third_Party/LibJPEG/source/jdhuff.c ****   while (huffsize[p]) {
ARM GAS  /var/folders/mq/wg13gp494590nh4zyt09lxf00000gn/T//ccUYufpr.s 			page 8


 374:Middlewares/Third_Party/LibJPEG/source/jdhuff.c ****     while (((int) huffsize[p]) == si) {
 375:Middlewares/Third_Party/LibJPEG/source/jdhuff.c ****       huffcode[p++] = code;
 376:Middlewares/Third_Party/LibJPEG/source/jdhuff.c ****       code++;
 377:Middlewares/Third_Party/LibJPEG/source/jdhuff.c ****     }
 378:Middlewares/Third_Party/LibJPEG/source/jdhuff.c ****     /* code is now 1 more than the last code used for codelength si; but
 379:Middlewares/Third_Party/LibJPEG/source/jdhuff.c ****      * it must still fit in si bits, since no code is allowed to be all ones.
 380:Middlewares/Third_Party/LibJPEG/source/jdhuff.c ****      */
 381:Middlewares/Third_Party/LibJPEG/source/jdhuff.c ****     if (((INT32) code) >= (((INT32) 1) << si))
 382:Middlewares/Third_Party/LibJPEG/source/jdhuff.c ****       ERREXIT(cinfo, JERR_BAD_HUFF_TABLE);
 383:Middlewares/Third_Party/LibJPEG/source/jdhuff.c ****     code <<= 1;
 384:Middlewares/Third_Party/LibJPEG/source/jdhuff.c ****     si++;
 385:Middlewares/Third_Party/LibJPEG/source/jdhuff.c ****   }
 386:Middlewares/Third_Party/LibJPEG/source/jdhuff.c **** 
 387:Middlewares/Third_Party/LibJPEG/source/jdhuff.c ****   /* Figure F.15: generate decoding tables for bit-sequential decoding */
 388:Middlewares/Third_Party/LibJPEG/source/jdhuff.c **** 
 389:Middlewares/Third_Party/LibJPEG/source/jdhuff.c ****   p = 0;
 390:Middlewares/Third_Party/LibJPEG/source/jdhuff.c ****   for (l = 1; l <= 16; l++) {
 391:Middlewares/Third_Party/LibJPEG/source/jdhuff.c ****     if (htbl->bits[l]) {
 392:Middlewares/Third_Party/LibJPEG/source/jdhuff.c ****       /* valoffset[l] = huffval[] index of 1st symbol of code length l,
 393:Middlewares/Third_Party/LibJPEG/source/jdhuff.c ****        * minus the minimum code of length l
 394:Middlewares/Third_Party/LibJPEG/source/jdhuff.c ****        */
 395:Middlewares/Third_Party/LibJPEG/source/jdhuff.c ****       dtbl->valoffset[l] = (INT32) p - (INT32) huffcode[p];
 396:Middlewares/Third_Party/LibJPEG/source/jdhuff.c ****       p += htbl->bits[l];
 397:Middlewares/Third_Party/LibJPEG/source/jdhuff.c ****       dtbl->maxcode[l] = huffcode[p-1]; /* maximum code of length l */
 398:Middlewares/Third_Party/LibJPEG/source/jdhuff.c ****     } else {
 399:Middlewares/Third_Party/LibJPEG/source/jdhuff.c ****       dtbl->maxcode[l] = -1;	/* -1 if no codes of this length */
 400:Middlewares/Third_Party/LibJPEG/source/jdhuff.c ****     }
 401:Middlewares/Third_Party/LibJPEG/source/jdhuff.c ****   }
 402:Middlewares/Third_Party/LibJPEG/source/jdhuff.c ****   dtbl->maxcode[17] = 0xFFFFFL; /* ensures jpeg_huff_decode terminates */
 403:Middlewares/Third_Party/LibJPEG/source/jdhuff.c **** 
 404:Middlewares/Third_Party/LibJPEG/source/jdhuff.c ****   /* Compute lookahead tables to speed up decoding.
 405:Middlewares/Third_Party/LibJPEG/source/jdhuff.c ****    * First we set all the table entries to 0, indicating "too long";
 406:Middlewares/Third_Party/LibJPEG/source/jdhuff.c ****    * then we iterate through the Huffman codes that are short enough and
 407:Middlewares/Third_Party/LibJPEG/source/jdhuff.c ****    * fill in all the entries that correspond to bit sequences starting
 408:Middlewares/Third_Party/LibJPEG/source/jdhuff.c ****    * with that code.
 409:Middlewares/Third_Party/LibJPEG/source/jdhuff.c ****    */
 410:Middlewares/Third_Party/LibJPEG/source/jdhuff.c **** 
 411:Middlewares/Third_Party/LibJPEG/source/jdhuff.c ****   MEMZERO(dtbl->look_nbits, SIZEOF(dtbl->look_nbits));
 412:Middlewares/Third_Party/LibJPEG/source/jdhuff.c **** 
 413:Middlewares/Third_Party/LibJPEG/source/jdhuff.c ****   p = 0;
 414:Middlewares/Third_Party/LibJPEG/source/jdhuff.c ****   for (l = 1; l <= HUFF_LOOKAHEAD; l++) {
 415:Middlewares/Third_Party/LibJPEG/source/jdhuff.c ****     for (i = 1; i <= (int) htbl->bits[l]; i++, p++) {
 416:Middlewares/Third_Party/LibJPEG/source/jdhuff.c ****       /* l = current code's length, p = its index in huffcode[] & huffval[]. */
 417:Middlewares/Third_Party/LibJPEG/source/jdhuff.c ****       /* Generate left-justified code followed by all possible bit sequences */
 418:Middlewares/Third_Party/LibJPEG/source/jdhuff.c ****       lookbits = huffcode[p] << (HUFF_LOOKAHEAD-l);
 419:Middlewares/Third_Party/LibJPEG/source/jdhuff.c ****       for (ctr = 1 << (HUFF_LOOKAHEAD-l); ctr > 0; ctr--) {
 420:Middlewares/Third_Party/LibJPEG/source/jdhuff.c **** 	dtbl->look_nbits[lookbits] = l;
 421:Middlewares/Third_Party/LibJPEG/source/jdhuff.c **** 	dtbl->look_sym[lookbits] = htbl->huffval[p];
 422:Middlewares/Third_Party/LibJPEG/source/jdhuff.c **** 	lookbits++;
 423:Middlewares/Third_Party/LibJPEG/source/jdhuff.c ****       }
 424:Middlewares/Third_Party/LibJPEG/source/jdhuff.c ****     }
 425:Middlewares/Third_Party/LibJPEG/source/jdhuff.c ****   }
 426:Middlewares/Third_Party/LibJPEG/source/jdhuff.c **** 
 427:Middlewares/Third_Party/LibJPEG/source/jdhuff.c ****   /* Validate symbols as being reasonable.
 428:Middlewares/Third_Party/LibJPEG/source/jdhuff.c ****    * For AC tables, we make no check, but accept all byte values 0..255.
 429:Middlewares/Third_Party/LibJPEG/source/jdhuff.c ****    * For DC tables, we require the symbols to be in range 0..15.
 430:Middlewares/Third_Party/LibJPEG/source/jdhuff.c ****    * (Tighter bounds could be applied depending on the data depth and mode,
ARM GAS  /var/folders/mq/wg13gp494590nh4zyt09lxf00000gn/T//ccUYufpr.s 			page 9


 431:Middlewares/Third_Party/LibJPEG/source/jdhuff.c ****    * but this is sufficient to ensure safe decoding.)
 432:Middlewares/Third_Party/LibJPEG/source/jdhuff.c ****    */
 433:Middlewares/Third_Party/LibJPEG/source/jdhuff.c ****   if (isDC) {
 434:Middlewares/Third_Party/LibJPEG/source/jdhuff.c ****     for (i = 0; i < numsymbols; i++) {
 435:Middlewares/Third_Party/LibJPEG/source/jdhuff.c ****       int sym = htbl->huffval[i];
 436:Middlewares/Third_Party/LibJPEG/source/jdhuff.c ****       if (sym < 0 || sym > 15)
 437:Middlewares/Third_Party/LibJPEG/source/jdhuff.c **** 	ERREXIT(cinfo, JERR_BAD_HUFF_TABLE);
 438:Middlewares/Third_Party/LibJPEG/source/jdhuff.c ****     }
 439:Middlewares/Third_Party/LibJPEG/source/jdhuff.c ****   }
 440:Middlewares/Third_Party/LibJPEG/source/jdhuff.c **** }
 441:Middlewares/Third_Party/LibJPEG/source/jdhuff.c **** 
 442:Middlewares/Third_Party/LibJPEG/source/jdhuff.c **** 
 443:Middlewares/Third_Party/LibJPEG/source/jdhuff.c **** /*
 444:Middlewares/Third_Party/LibJPEG/source/jdhuff.c ****  * Out-of-line code for bit fetching.
 445:Middlewares/Third_Party/LibJPEG/source/jdhuff.c ****  * Note: current values of get_buffer and bits_left are passed as parameters,
 446:Middlewares/Third_Party/LibJPEG/source/jdhuff.c ****  * but are returned in the corresponding fields of the state struct.
 447:Middlewares/Third_Party/LibJPEG/source/jdhuff.c ****  *
 448:Middlewares/Third_Party/LibJPEG/source/jdhuff.c ****  * On most machines MIN_GET_BITS should be 25 to allow the full 32-bit width
 449:Middlewares/Third_Party/LibJPEG/source/jdhuff.c ****  * of get_buffer to be used.  (On machines with wider words, an even larger
 450:Middlewares/Third_Party/LibJPEG/source/jdhuff.c ****  * buffer could be used.)  However, on some machines 32-bit shifts are
 451:Middlewares/Third_Party/LibJPEG/source/jdhuff.c ****  * quite slow and take time proportional to the number of places shifted.
 452:Middlewares/Third_Party/LibJPEG/source/jdhuff.c ****  * (This is true with most PC compilers, for instance.)  In this case it may
 453:Middlewares/Third_Party/LibJPEG/source/jdhuff.c ****  * be a win to set MIN_GET_BITS to the minimum value of 15.  This reduces the
 454:Middlewares/Third_Party/LibJPEG/source/jdhuff.c ****  * average shift distance at the cost of more calls to jpeg_fill_bit_buffer.
 455:Middlewares/Third_Party/LibJPEG/source/jdhuff.c ****  */
 456:Middlewares/Third_Party/LibJPEG/source/jdhuff.c **** 
 457:Middlewares/Third_Party/LibJPEG/source/jdhuff.c **** #ifdef SLOW_SHIFT_32
 458:Middlewares/Third_Party/LibJPEG/source/jdhuff.c **** #define MIN_GET_BITS  15	/* minimum allowable value */
 459:Middlewares/Third_Party/LibJPEG/source/jdhuff.c **** #else
 460:Middlewares/Third_Party/LibJPEG/source/jdhuff.c **** #define MIN_GET_BITS  (BIT_BUF_SIZE-7)
 461:Middlewares/Third_Party/LibJPEG/source/jdhuff.c **** #endif
 462:Middlewares/Third_Party/LibJPEG/source/jdhuff.c **** 
 463:Middlewares/Third_Party/LibJPEG/source/jdhuff.c **** 
 464:Middlewares/Third_Party/LibJPEG/source/jdhuff.c **** LOCAL(boolean)
 465:Middlewares/Third_Party/LibJPEG/source/jdhuff.c **** jpeg_fill_bit_buffer (bitread_working_state * state,
 466:Middlewares/Third_Party/LibJPEG/source/jdhuff.c **** 		      register bit_buf_type get_buffer, register int bits_left,
 467:Middlewares/Third_Party/LibJPEG/source/jdhuff.c **** 		      int nbits)
 468:Middlewares/Third_Party/LibJPEG/source/jdhuff.c **** /* Load up the bit buffer to a depth of at least nbits */
 469:Middlewares/Third_Party/LibJPEG/source/jdhuff.c **** {
  28              		.loc 1 469 1 view -0
  29              		.cfi_startproc
  30              		@ args = 0, pretend = 0, frame = 0
  31              		@ frame_needed = 0, uses_anonymous_args = 0
  32              		.loc 1 469 1 is_stmt 0 view .LVU1
  33 0000 2DE9F047 		push	{r4, r5, r6, r7, r8, r9, r10, lr}
  34              	.LCFI0:
  35              		.cfi_def_cfa_offset 32
  36              		.cfi_offset 4, -32
  37              		.cfi_offset 5, -28
  38              		.cfi_offset 6, -24
  39              		.cfi_offset 7, -20
  40              		.cfi_offset 8, -16
  41              		.cfi_offset 9, -12
  42              		.cfi_offset 10, -8
  43              		.cfi_offset 14, -4
  44 0004 8146     		mov	r9, r0
  45 0006 8846     		mov	r8, r1
ARM GAS  /var/folders/mq/wg13gp494590nh4zyt09lxf00000gn/T//ccUYufpr.s 			page 10


  46 0008 1646     		mov	r6, r2
  47 000a 9A46     		mov	r10, r3
 470:Middlewares/Third_Party/LibJPEG/source/jdhuff.c ****   /* Copy heavily used state fields into locals (hopefully registers) */
 471:Middlewares/Third_Party/LibJPEG/source/jdhuff.c ****   register const JOCTET * next_input_byte = state->next_input_byte;
  48              		.loc 1 471 3 is_stmt 1 view .LVU2
  49              		.loc 1 471 27 is_stmt 0 view .LVU3
  50 000c 0768     		ldr	r7, [r0]
  51              	.LVL1:
 472:Middlewares/Third_Party/LibJPEG/source/jdhuff.c ****   register size_t bytes_in_buffer = state->bytes_in_buffer;
  52              		.loc 1 472 3 is_stmt 1 view .LVU4
  53              		.loc 1 472 19 is_stmt 0 view .LVU5
  54 000e 4468     		ldr	r4, [r0, #4]
  55              	.LVL2:
 473:Middlewares/Third_Party/LibJPEG/source/jdhuff.c ****   j_decompress_ptr cinfo = state->cinfo;
  56              		.loc 1 473 3 is_stmt 1 view .LVU6
  57              		.loc 1 473 20 is_stmt 0 view .LVU7
  58 0010 0569     		ldr	r5, [r0, #16]
  59              	.LVL3:
 474:Middlewares/Third_Party/LibJPEG/source/jdhuff.c **** 
 475:Middlewares/Third_Party/LibJPEG/source/jdhuff.c ****   /* Attempt to load at least MIN_GET_BITS bits into get_buffer. */
 476:Middlewares/Third_Party/LibJPEG/source/jdhuff.c ****   /* (It is assumed that no request will be for more than that many bits.) */
 477:Middlewares/Third_Party/LibJPEG/source/jdhuff.c ****   /* We fail to do so only if we hit a marker or are forced to suspend. */
 478:Middlewares/Third_Party/LibJPEG/source/jdhuff.c **** 
 479:Middlewares/Third_Party/LibJPEG/source/jdhuff.c ****   if (cinfo->unread_marker == 0) {	/* cannot advance past a marker */
  60              		.loc 1 479 3 is_stmt 1 view .LVU8
  61              		.loc 1 479 12 is_stmt 0 view .LVU9
  62 0012 D5F8B431 		ldr	r3, [r5, #436]
  63              	.LVL4:
  64              		.loc 1 479 6 view .LVU10
  65 0016 6BB3     		cbz	r3, .L2
  66              	.LVL5:
  67              	.L3:
 480:Middlewares/Third_Party/LibJPEG/source/jdhuff.c ****     while (bits_left < MIN_GET_BITS) {
 481:Middlewares/Third_Party/LibJPEG/source/jdhuff.c ****       register int c;
 482:Middlewares/Third_Party/LibJPEG/source/jdhuff.c **** 
 483:Middlewares/Third_Party/LibJPEG/source/jdhuff.c ****       /* Attempt to read a byte */
 484:Middlewares/Third_Party/LibJPEG/source/jdhuff.c ****       if (bytes_in_buffer == 0) {
 485:Middlewares/Third_Party/LibJPEG/source/jdhuff.c **** 	if (! (*cinfo->src->fill_input_buffer) (cinfo))
 486:Middlewares/Third_Party/LibJPEG/source/jdhuff.c **** 	  return FALSE;
 487:Middlewares/Third_Party/LibJPEG/source/jdhuff.c **** 	next_input_byte = cinfo->src->next_input_byte;
 488:Middlewares/Third_Party/LibJPEG/source/jdhuff.c **** 	bytes_in_buffer = cinfo->src->bytes_in_buffer;
 489:Middlewares/Third_Party/LibJPEG/source/jdhuff.c ****       }
 490:Middlewares/Third_Party/LibJPEG/source/jdhuff.c ****       bytes_in_buffer--;
 491:Middlewares/Third_Party/LibJPEG/source/jdhuff.c ****       c = GETJOCTET(*next_input_byte++);
 492:Middlewares/Third_Party/LibJPEG/source/jdhuff.c **** 
 493:Middlewares/Third_Party/LibJPEG/source/jdhuff.c ****       /* If it's 0xFF, check and discard stuffed zero byte */
 494:Middlewares/Third_Party/LibJPEG/source/jdhuff.c ****       if (c == 0xFF) {
 495:Middlewares/Third_Party/LibJPEG/source/jdhuff.c **** 	/* Loop here to discard any padding FF's on terminating marker,
 496:Middlewares/Third_Party/LibJPEG/source/jdhuff.c **** 	 * so that we can save a valid unread_marker value.  NOTE: we will
 497:Middlewares/Third_Party/LibJPEG/source/jdhuff.c **** 	 * accept multiple FF's followed by a 0 as meaning a single FF data
 498:Middlewares/Third_Party/LibJPEG/source/jdhuff.c **** 	 * byte.  This data pattern is not valid according to the standard.
 499:Middlewares/Third_Party/LibJPEG/source/jdhuff.c **** 	 */
 500:Middlewares/Third_Party/LibJPEG/source/jdhuff.c **** 	do {
 501:Middlewares/Third_Party/LibJPEG/source/jdhuff.c **** 	  if (bytes_in_buffer == 0) {
 502:Middlewares/Third_Party/LibJPEG/source/jdhuff.c **** 	    if (! (*cinfo->src->fill_input_buffer) (cinfo))
 503:Middlewares/Third_Party/LibJPEG/source/jdhuff.c **** 	      return FALSE;
 504:Middlewares/Third_Party/LibJPEG/source/jdhuff.c **** 	    next_input_byte = cinfo->src->next_input_byte;
ARM GAS  /var/folders/mq/wg13gp494590nh4zyt09lxf00000gn/T//ccUYufpr.s 			page 11


 505:Middlewares/Third_Party/LibJPEG/source/jdhuff.c **** 	    bytes_in_buffer = cinfo->src->bytes_in_buffer;
 506:Middlewares/Third_Party/LibJPEG/source/jdhuff.c **** 	  }
 507:Middlewares/Third_Party/LibJPEG/source/jdhuff.c **** 	  bytes_in_buffer--;
 508:Middlewares/Third_Party/LibJPEG/source/jdhuff.c **** 	  c = GETJOCTET(*next_input_byte++);
 509:Middlewares/Third_Party/LibJPEG/source/jdhuff.c **** 	} while (c == 0xFF);
 510:Middlewares/Third_Party/LibJPEG/source/jdhuff.c **** 
 511:Middlewares/Third_Party/LibJPEG/source/jdhuff.c **** 	if (c == 0) {
 512:Middlewares/Third_Party/LibJPEG/source/jdhuff.c **** 	  /* Found FF/00, which represents an FF data byte */
 513:Middlewares/Third_Party/LibJPEG/source/jdhuff.c **** 	  c = 0xFF;
 514:Middlewares/Third_Party/LibJPEG/source/jdhuff.c **** 	} else {
 515:Middlewares/Third_Party/LibJPEG/source/jdhuff.c **** 	  /* Oops, it's actually a marker indicating end of compressed data.
 516:Middlewares/Third_Party/LibJPEG/source/jdhuff.c **** 	   * Save the marker code for later use.
 517:Middlewares/Third_Party/LibJPEG/source/jdhuff.c **** 	   * Fine point: it might appear that we should save the marker into
 518:Middlewares/Third_Party/LibJPEG/source/jdhuff.c **** 	   * bitread working state, not straight into permanent state.  But
 519:Middlewares/Third_Party/LibJPEG/source/jdhuff.c **** 	   * once we have hit a marker, we cannot need to suspend within the
 520:Middlewares/Third_Party/LibJPEG/source/jdhuff.c **** 	   * current MCU, because we will read no more bytes from the data
 521:Middlewares/Third_Party/LibJPEG/source/jdhuff.c **** 	   * source.  So it is OK to update permanent state right away.
 522:Middlewares/Third_Party/LibJPEG/source/jdhuff.c **** 	   */
 523:Middlewares/Third_Party/LibJPEG/source/jdhuff.c **** 	  cinfo->unread_marker = c;
 524:Middlewares/Third_Party/LibJPEG/source/jdhuff.c **** 	  /* See if we need to insert some fake zero bits. */
 525:Middlewares/Third_Party/LibJPEG/source/jdhuff.c **** 	  goto no_more_bytes;
 526:Middlewares/Third_Party/LibJPEG/source/jdhuff.c **** 	}
 527:Middlewares/Third_Party/LibJPEG/source/jdhuff.c ****       }
 528:Middlewares/Third_Party/LibJPEG/source/jdhuff.c **** 
 529:Middlewares/Third_Party/LibJPEG/source/jdhuff.c ****       /* OK, load c into get_buffer */
 530:Middlewares/Third_Party/LibJPEG/source/jdhuff.c ****       get_buffer = (get_buffer << 8) | c;
 531:Middlewares/Third_Party/LibJPEG/source/jdhuff.c ****       bits_left += 8;
 532:Middlewares/Third_Party/LibJPEG/source/jdhuff.c ****     } /* end while */
 533:Middlewares/Third_Party/LibJPEG/source/jdhuff.c ****   } else {
 534:Middlewares/Third_Party/LibJPEG/source/jdhuff.c ****   no_more_bytes:
 535:Middlewares/Third_Party/LibJPEG/source/jdhuff.c ****     /* We get here if we've read the marker that terminates the compressed
 536:Middlewares/Third_Party/LibJPEG/source/jdhuff.c ****      * data segment.  There should be enough bits in the buffer register
 537:Middlewares/Third_Party/LibJPEG/source/jdhuff.c ****      * to satisfy the request; if so, no problem.
 538:Middlewares/Third_Party/LibJPEG/source/jdhuff.c ****      */
 539:Middlewares/Third_Party/LibJPEG/source/jdhuff.c ****     if (nbits > bits_left) {
  68              		.loc 1 539 5 is_stmt 1 view .LVU11
  69              		.loc 1 539 8 is_stmt 0 view .LVU12
  70 0018 5645     		cmp	r6, r10
  71 001a 15DA     		bge	.L10
 540:Middlewares/Third_Party/LibJPEG/source/jdhuff.c ****       /* Uh-oh.  Report corrupted data to user and stuff zeroes into
 541:Middlewares/Third_Party/LibJPEG/source/jdhuff.c ****        * the data stream, so that we can produce some kind of image.
 542:Middlewares/Third_Party/LibJPEG/source/jdhuff.c ****        * We use a nonvolatile flag to ensure that only one warning message
 543:Middlewares/Third_Party/LibJPEG/source/jdhuff.c ****        * appears per data segment.
 544:Middlewares/Third_Party/LibJPEG/source/jdhuff.c ****        */
 545:Middlewares/Third_Party/LibJPEG/source/jdhuff.c ****       if (! ((huff_entropy_ptr) cinfo->entropy)->insufficient_data) {
  72              		.loc 1 545 7 is_stmt 1 view .LVU13
  73              		.loc 1 545 38 is_stmt 0 view .LVU14
  74 001c D5F8D031 		ldr	r3, [r5, #464]
  75              		.loc 1 545 48 view .LVU15
  76 0020 5B6A     		ldr	r3, [r3, #36]
  77              		.loc 1 545 10 view .LVU16
  78 0022 63B9     		cbnz	r3, .L11
 546:Middlewares/Third_Party/LibJPEG/source/jdhuff.c **** 	WARNMS(cinfo, JWRN_HIT_MARKER);
  79              		.loc 1 546 2 is_stmt 1 view .LVU17
  80 0024 2B68     		ldr	r3, [r5]
  81 0026 7822     		movs	r2, #120
  82 0028 5A61     		str	r2, [r3, #20]
ARM GAS  /var/folders/mq/wg13gp494590nh4zyt09lxf00000gn/T//ccUYufpr.s 			page 12


  83 002a 2B68     		ldr	r3, [r5]
  84 002c 5B68     		ldr	r3, [r3, #4]
  85 002e 4FF0FF31 		mov	r1, #-1
  86 0032 2846     		mov	r0, r5
  87 0034 9847     		blx	r3
  88              	.LVL6:
 547:Middlewares/Third_Party/LibJPEG/source/jdhuff.c **** 	((huff_entropy_ptr) cinfo->entropy)->insufficient_data = TRUE;
  89              		.loc 1 547 2 view .LVU18
  90              		.loc 1 547 27 is_stmt 0 view .LVU19
  91 0036 D5F8D031 		ldr	r3, [r5, #464]
  92              		.loc 1 547 57 view .LVU20
  93 003a 0122     		movs	r2, #1
  94 003c 5A62     		str	r2, [r3, #36]
  95              	.L11:
 548:Middlewares/Third_Party/LibJPEG/source/jdhuff.c ****       }
 549:Middlewares/Third_Party/LibJPEG/source/jdhuff.c ****       /* Fill the buffer with zero bits */
 550:Middlewares/Third_Party/LibJPEG/source/jdhuff.c ****       get_buffer <<= MIN_GET_BITS - bits_left;
  96              		.loc 1 550 7 is_stmt 1 view .LVU21
  97              		.loc 1 550 35 is_stmt 0 view .LVU22
  98 003e C6F11906 		rsb	r6, r6, #25
  99              	.LVL7:
 100              		.loc 1 550 18 view .LVU23
 101 0042 08FA06F8 		lsl	r8, r8, r6
 102              	.LVL8:
 551:Middlewares/Third_Party/LibJPEG/source/jdhuff.c ****       bits_left = MIN_GET_BITS;
 103              		.loc 1 551 7 is_stmt 1 view .LVU24
 104              		.loc 1 551 17 is_stmt 0 view .LVU25
 105 0046 1926     		movs	r6, #25
 106              	.LVL9:
 107              	.L10:
 552:Middlewares/Third_Party/LibJPEG/source/jdhuff.c ****     }
 553:Middlewares/Third_Party/LibJPEG/source/jdhuff.c ****   }
 554:Middlewares/Third_Party/LibJPEG/source/jdhuff.c **** 
 555:Middlewares/Third_Party/LibJPEG/source/jdhuff.c ****   /* Unload the local registers */
 556:Middlewares/Third_Party/LibJPEG/source/jdhuff.c ****   state->next_input_byte = next_input_byte;
 108              		.loc 1 556 3 is_stmt 1 view .LVU26
 109              		.loc 1 556 26 is_stmt 0 view .LVU27
 110 0048 C9F80070 		str	r7, [r9]
 557:Middlewares/Third_Party/LibJPEG/source/jdhuff.c ****   state->bytes_in_buffer = bytes_in_buffer;
 111              		.loc 1 557 3 is_stmt 1 view .LVU28
 112              		.loc 1 557 26 is_stmt 0 view .LVU29
 113 004c C9F80440 		str	r4, [r9, #4]
 558:Middlewares/Third_Party/LibJPEG/source/jdhuff.c ****   state->get_buffer = get_buffer;
 114              		.loc 1 558 3 is_stmt 1 view .LVU30
 115              		.loc 1 558 21 is_stmt 0 view .LVU31
 116 0050 C9F80880 		str	r8, [r9, #8]
 559:Middlewares/Third_Party/LibJPEG/source/jdhuff.c ****   state->bits_left = bits_left;
 117              		.loc 1 559 3 is_stmt 1 view .LVU32
 118              		.loc 1 559 20 is_stmt 0 view .LVU33
 119 0054 C9F80C60 		str	r6, [r9, #12]
 560:Middlewares/Third_Party/LibJPEG/source/jdhuff.c **** 
 561:Middlewares/Third_Party/LibJPEG/source/jdhuff.c ****   return TRUE;
 120              		.loc 1 561 3 is_stmt 1 view .LVU34
 121              		.loc 1 561 10 is_stmt 0 view .LVU35
 122 0058 0123     		movs	r3, #1
 123              	.LVL10:
 124              	.L1:
ARM GAS  /var/folders/mq/wg13gp494590nh4zyt09lxf00000gn/T//ccUYufpr.s 			page 13


 562:Middlewares/Third_Party/LibJPEG/source/jdhuff.c **** }
 125              		.loc 1 562 1 view .LVU36
 126 005a 1846     		mov	r0, r3
 127 005c BDE8F087 		pop	{r4, r5, r6, r7, r8, r9, r10, pc}
 128              	.LVL11:
 129              	.L4:
 130              	.LBB2:
 490:Middlewares/Third_Party/LibJPEG/source/jdhuff.c ****       c = GETJOCTET(*next_input_byte++);
 131              		.loc 1 490 7 is_stmt 1 view .LVU37
 490:Middlewares/Third_Party/LibJPEG/source/jdhuff.c ****       c = GETJOCTET(*next_input_byte++);
 132              		.loc 1 490 22 is_stmt 0 view .LVU38
 133 0060 013C     		subs	r4, r4, #1
 134              	.LVL12:
 491:Middlewares/Third_Party/LibJPEG/source/jdhuff.c **** 
 135              		.loc 1 491 7 is_stmt 1 view .LVU39
 491:Middlewares/Third_Party/LibJPEG/source/jdhuff.c **** 
 136              		.loc 1 491 11 is_stmt 0 view .LVU40
 137 0062 BC46     		mov	ip, r7
 138              	.LVL13:
 491:Middlewares/Third_Party/LibJPEG/source/jdhuff.c **** 
 139              		.loc 1 491 11 view .LVU41
 140 0064 1CF8017B 		ldrb	r7, [ip], #1	@ zero_extendqisi2
 141              	.LVL14:
 494:Middlewares/Third_Party/LibJPEG/source/jdhuff.c **** 	/* Loop here to discard any padding FF's on terminating marker,
 142              		.loc 1 494 7 is_stmt 1 view .LVU42
 494:Middlewares/Third_Party/LibJPEG/source/jdhuff.c **** 	/* Loop here to discard any padding FF's on terminating marker,
 143              		.loc 1 494 10 is_stmt 0 view .LVU43
 144 0068 FF2F     		cmp	r7, #255
 145 006a 17D0     		beq	.L8
 146              	.LVL15:
 147              	.L6:
 530:Middlewares/Third_Party/LibJPEG/source/jdhuff.c ****       bits_left += 8;
 148              		.loc 1 530 7 is_stmt 1 view .LVU44
 530:Middlewares/Third_Party/LibJPEG/source/jdhuff.c ****       bits_left += 8;
 149              		.loc 1 530 18 is_stmt 0 view .LVU45
 150 006c 47EA0828 		orr	r8, r7, r8, lsl #8
 151              	.LVL16:
 531:Middlewares/Third_Party/LibJPEG/source/jdhuff.c ****     } /* end while */
 152              		.loc 1 531 7 is_stmt 1 view .LVU46
 531:Middlewares/Third_Party/LibJPEG/source/jdhuff.c ****     } /* end while */
 153              		.loc 1 531 17 is_stmt 0 view .LVU47
 154 0070 0836     		adds	r6, r6, #8
 155              	.LVL17:
 531:Middlewares/Third_Party/LibJPEG/source/jdhuff.c ****     } /* end while */
 156              		.loc 1 531 17 view .LVU48
 157 0072 6746     		mov	r7, ip
 158              	.LVL18:
 159              	.L2:
 531:Middlewares/Third_Party/LibJPEG/source/jdhuff.c ****     } /* end while */
 160              		.loc 1 531 17 view .LVU49
 161              	.LBE2:
 480:Middlewares/Third_Party/LibJPEG/source/jdhuff.c ****       register int c;
 162              		.loc 1 480 22 is_stmt 1 view .LVU50
 163 0074 182E     		cmp	r6, #24
 164 0076 E7DC     		bgt	.L10
 165              	.LBB3:
 481:Middlewares/Third_Party/LibJPEG/source/jdhuff.c **** 
ARM GAS  /var/folders/mq/wg13gp494590nh4zyt09lxf00000gn/T//ccUYufpr.s 			page 14


 166              		.loc 1 481 7 view .LVU51
 484:Middlewares/Third_Party/LibJPEG/source/jdhuff.c **** 	if (! (*cinfo->src->fill_input_buffer) (cinfo))
 167              		.loc 1 484 7 view .LVU52
 484:Middlewares/Third_Party/LibJPEG/source/jdhuff.c **** 	if (! (*cinfo->src->fill_input_buffer) (cinfo))
 168              		.loc 1 484 10 is_stmt 0 view .LVU53
 169 0078 002C     		cmp	r4, #0
 170 007a F1D1     		bne	.L4
 485:Middlewares/Third_Party/LibJPEG/source/jdhuff.c **** 	  return FALSE;
 171              		.loc 1 485 2 is_stmt 1 view .LVU54
 485:Middlewares/Third_Party/LibJPEG/source/jdhuff.c **** 	  return FALSE;
 172              		.loc 1 485 15 is_stmt 0 view .LVU55
 173 007c AB69     		ldr	r3, [r5, #24]
 485:Middlewares/Third_Party/LibJPEG/source/jdhuff.c **** 	  return FALSE;
 174              		.loc 1 485 9 view .LVU56
 175 007e DB68     		ldr	r3, [r3, #12]
 176 0080 2846     		mov	r0, r5
 177 0082 9847     		blx	r3
 178              	.LVL19:
 485:Middlewares/Third_Party/LibJPEG/source/jdhuff.c **** 	  return FALSE;
 179              		.loc 1 485 5 discriminator 1 view .LVU57
 180 0084 0346     		mov	r3, r0
 181 0086 0028     		cmp	r0, #0
 182 0088 E7D0     		beq	.L1
 487:Middlewares/Third_Party/LibJPEG/source/jdhuff.c **** 	bytes_in_buffer = cinfo->src->bytes_in_buffer;
 183              		.loc 1 487 2 is_stmt 1 view .LVU58
 487:Middlewares/Third_Party/LibJPEG/source/jdhuff.c **** 	bytes_in_buffer = cinfo->src->bytes_in_buffer;
 184              		.loc 1 487 25 is_stmt 0 view .LVU59
 185 008a AB69     		ldr	r3, [r5, #24]
 487:Middlewares/Third_Party/LibJPEG/source/jdhuff.c **** 	bytes_in_buffer = cinfo->src->bytes_in_buffer;
 186              		.loc 1 487 18 view .LVU60
 187 008c 1F68     		ldr	r7, [r3]
 188              	.LVL20:
 488:Middlewares/Third_Party/LibJPEG/source/jdhuff.c ****       }
 189              		.loc 1 488 2 is_stmt 1 view .LVU61
 488:Middlewares/Third_Party/LibJPEG/source/jdhuff.c ****       }
 190              		.loc 1 488 18 is_stmt 0 view .LVU62
 191 008e 5C68     		ldr	r4, [r3, #4]
 192              	.LVL21:
 488:Middlewares/Third_Party/LibJPEG/source/jdhuff.c ****       }
 193              		.loc 1 488 18 view .LVU63
 194 0090 E6E7     		b	.L4
 195              	.LVL22:
 196              	.L7:
 507:Middlewares/Third_Party/LibJPEG/source/jdhuff.c **** 	  c = GETJOCTET(*next_input_byte++);
 197              		.loc 1 507 4 is_stmt 1 view .LVU64
 507:Middlewares/Third_Party/LibJPEG/source/jdhuff.c **** 	  c = GETJOCTET(*next_input_byte++);
 198              		.loc 1 507 19 is_stmt 0 view .LVU65
 199 0092 013C     		subs	r4, r4, #1
 200              	.LVL23:
 508:Middlewares/Third_Party/LibJPEG/source/jdhuff.c **** 	} while (c == 0xFF);
 201              		.loc 1 508 4 is_stmt 1 view .LVU66
 508:Middlewares/Third_Party/LibJPEG/source/jdhuff.c **** 	} while (c == 0xFF);
 202              		.loc 1 508 8 is_stmt 0 view .LVU67
 203 0094 1CF8013B 		ldrb	r3, [ip], #1	@ zero_extendqisi2
 204              	.LVL24:
 509:Middlewares/Third_Party/LibJPEG/source/jdhuff.c **** 
 205              		.loc 1 509 13 is_stmt 1 view .LVU68
ARM GAS  /var/folders/mq/wg13gp494590nh4zyt09lxf00000gn/T//ccUYufpr.s 			page 15


 206 0098 FF2B     		cmp	r3, #255
 207 009a 0DD1     		bne	.L14
 208              	.LVL25:
 209              	.L8:
 500:Middlewares/Third_Party/LibJPEG/source/jdhuff.c **** 	  if (bytes_in_buffer == 0) {
 210              		.loc 1 500 2 view .LVU69
 501:Middlewares/Third_Party/LibJPEG/source/jdhuff.c **** 	    if (! (*cinfo->src->fill_input_buffer) (cinfo))
 211              		.loc 1 501 4 view .LVU70
 501:Middlewares/Third_Party/LibJPEG/source/jdhuff.c **** 	    if (! (*cinfo->src->fill_input_buffer) (cinfo))
 212              		.loc 1 501 7 is_stmt 0 view .LVU71
 213 009c 002C     		cmp	r4, #0
 214 009e F8D1     		bne	.L7
 502:Middlewares/Third_Party/LibJPEG/source/jdhuff.c **** 	      return FALSE;
 215              		.loc 1 502 6 is_stmt 1 view .LVU72
 502:Middlewares/Third_Party/LibJPEG/source/jdhuff.c **** 	      return FALSE;
 216              		.loc 1 502 19 is_stmt 0 view .LVU73
 217 00a0 AB69     		ldr	r3, [r5, #24]
 502:Middlewares/Third_Party/LibJPEG/source/jdhuff.c **** 	      return FALSE;
 218              		.loc 1 502 13 view .LVU74
 219 00a2 DB68     		ldr	r3, [r3, #12]
 220 00a4 2846     		mov	r0, r5
 221 00a6 9847     		blx	r3
 222              	.LVL26:
 502:Middlewares/Third_Party/LibJPEG/source/jdhuff.c **** 	      return FALSE;
 223              		.loc 1 502 9 discriminator 1 view .LVU75
 224 00a8 0346     		mov	r3, r0
 225 00aa 0028     		cmp	r0, #0
 226 00ac D5D0     		beq	.L1
 504:Middlewares/Third_Party/LibJPEG/source/jdhuff.c **** 	    bytes_in_buffer = cinfo->src->bytes_in_buffer;
 227              		.loc 1 504 6 is_stmt 1 view .LVU76
 504:Middlewares/Third_Party/LibJPEG/source/jdhuff.c **** 	    bytes_in_buffer = cinfo->src->bytes_in_buffer;
 228              		.loc 1 504 29 is_stmt 0 view .LVU77
 229 00ae AB69     		ldr	r3, [r5, #24]
 504:Middlewares/Third_Party/LibJPEG/source/jdhuff.c **** 	    bytes_in_buffer = cinfo->src->bytes_in_buffer;
 230              		.loc 1 504 22 view .LVU78
 231 00b0 D3F800C0 		ldr	ip, [r3]
 232              	.LVL27:
 505:Middlewares/Third_Party/LibJPEG/source/jdhuff.c **** 	  }
 233              		.loc 1 505 6 is_stmt 1 view .LVU79
 505:Middlewares/Third_Party/LibJPEG/source/jdhuff.c **** 	  }
 234              		.loc 1 505 22 is_stmt 0 view .LVU80
 235 00b4 5C68     		ldr	r4, [r3, #4]
 236              	.LVL28:
 505:Middlewares/Third_Party/LibJPEG/source/jdhuff.c **** 	  }
 237              		.loc 1 505 22 view .LVU81
 238 00b6 ECE7     		b	.L7
 239              	.LVL29:
 240              	.L14:
 511:Middlewares/Third_Party/LibJPEG/source/jdhuff.c **** 	  /* Found FF/00, which represents an FF data byte */
 241              		.loc 1 511 2 is_stmt 1 view .LVU82
 511:Middlewares/Third_Party/LibJPEG/source/jdhuff.c **** 	  /* Found FF/00, which represents an FF data byte */
 242              		.loc 1 511 5 is_stmt 0 view .LVU83
 243 00b8 002B     		cmp	r3, #0
 244 00ba D7D0     		beq	.L6
 523:Middlewares/Third_Party/LibJPEG/source/jdhuff.c **** 	  /* See if we need to insert some fake zero bits. */
 245              		.loc 1 523 4 is_stmt 1 view .LVU84
 523:Middlewares/Third_Party/LibJPEG/source/jdhuff.c **** 	  /* See if we need to insert some fake zero bits. */
ARM GAS  /var/folders/mq/wg13gp494590nh4zyt09lxf00000gn/T//ccUYufpr.s 			page 16


 246              		.loc 1 523 25 is_stmt 0 view .LVU85
 247 00bc C5F8B431 		str	r3, [r5, #436]
 525:Middlewares/Third_Party/LibJPEG/source/jdhuff.c **** 	}
 248              		.loc 1 525 4 is_stmt 1 view .LVU86
 508:Middlewares/Third_Party/LibJPEG/source/jdhuff.c **** 	} while (c == 0xFF);
 249              		.loc 1 508 8 is_stmt 0 view .LVU87
 250 00c0 6746     		mov	r7, ip
 525:Middlewares/Third_Party/LibJPEG/source/jdhuff.c **** 	}
 251              		.loc 1 525 4 view .LVU88
 252 00c2 A9E7     		b	.L3
 253              	.LBE3:
 254              		.cfi_endproc
 255              	.LFE148:
 257              		.section	.text.jpeg_huff_decode,"ax",%progbits
 258              		.align	1
 259              		.syntax unified
 260              		.thumb
 261              		.thumb_func
 263              	jpeg_huff_decode:
 264              	.LVL30:
 265              	.LFB149:
 563:Middlewares/Third_Party/LibJPEG/source/jdhuff.c **** 
 564:Middlewares/Third_Party/LibJPEG/source/jdhuff.c **** 
 565:Middlewares/Third_Party/LibJPEG/source/jdhuff.c **** /*
 566:Middlewares/Third_Party/LibJPEG/source/jdhuff.c ****  * Figure F.12: extend sign bit.
 567:Middlewares/Third_Party/LibJPEG/source/jdhuff.c ****  * On some machines, a shift and sub will be faster than a table lookup.
 568:Middlewares/Third_Party/LibJPEG/source/jdhuff.c ****  */
 569:Middlewares/Third_Party/LibJPEG/source/jdhuff.c **** 
 570:Middlewares/Third_Party/LibJPEG/source/jdhuff.c **** #ifdef AVOID_TABLES
 571:Middlewares/Third_Party/LibJPEG/source/jdhuff.c **** 
 572:Middlewares/Third_Party/LibJPEG/source/jdhuff.c **** #define BIT_MASK(nbits)   ((1<<(nbits))-1)
 573:Middlewares/Third_Party/LibJPEG/source/jdhuff.c **** #define HUFF_EXTEND(x,s)  ((x) < (1<<((s)-1)) ? (x) - ((1<<(s))-1) : (x))
 574:Middlewares/Third_Party/LibJPEG/source/jdhuff.c **** 
 575:Middlewares/Third_Party/LibJPEG/source/jdhuff.c **** #else
 576:Middlewares/Third_Party/LibJPEG/source/jdhuff.c **** 
 577:Middlewares/Third_Party/LibJPEG/source/jdhuff.c **** #define BIT_MASK(nbits)   bmask[nbits]
 578:Middlewares/Third_Party/LibJPEG/source/jdhuff.c **** #define HUFF_EXTEND(x,s)  ((x) <= bmask[(s) - 1] ? (x) - bmask[s] : (x))
 579:Middlewares/Third_Party/LibJPEG/source/jdhuff.c **** 
 580:Middlewares/Third_Party/LibJPEG/source/jdhuff.c **** static const int bmask[16] =	/* bmask[n] is mask for n rightmost bits */
 581:Middlewares/Third_Party/LibJPEG/source/jdhuff.c ****   { 0, 0x0001, 0x0003, 0x0007, 0x000F, 0x001F, 0x003F, 0x007F, 0x00FF,
 582:Middlewares/Third_Party/LibJPEG/source/jdhuff.c ****     0x01FF, 0x03FF, 0x07FF, 0x0FFF, 0x1FFF, 0x3FFF, 0x7FFF };
 583:Middlewares/Third_Party/LibJPEG/source/jdhuff.c **** 
 584:Middlewares/Third_Party/LibJPEG/source/jdhuff.c **** #endif /* AVOID_TABLES */
 585:Middlewares/Third_Party/LibJPEG/source/jdhuff.c **** 
 586:Middlewares/Third_Party/LibJPEG/source/jdhuff.c **** 
 587:Middlewares/Third_Party/LibJPEG/source/jdhuff.c **** /*
 588:Middlewares/Third_Party/LibJPEG/source/jdhuff.c ****  * Out-of-line code for Huffman code decoding.
 589:Middlewares/Third_Party/LibJPEG/source/jdhuff.c ****  */
 590:Middlewares/Third_Party/LibJPEG/source/jdhuff.c **** 
 591:Middlewares/Third_Party/LibJPEG/source/jdhuff.c **** LOCAL(int)
 592:Middlewares/Third_Party/LibJPEG/source/jdhuff.c **** jpeg_huff_decode (bitread_working_state * state,
 593:Middlewares/Third_Party/LibJPEG/source/jdhuff.c **** 		  register bit_buf_type get_buffer, register int bits_left,
 594:Middlewares/Third_Party/LibJPEG/source/jdhuff.c **** 		  d_derived_tbl * htbl, int min_bits)
 595:Middlewares/Third_Party/LibJPEG/source/jdhuff.c **** {
 266              		.loc 1 595 1 is_stmt 1 view -0
 267              		.cfi_startproc
 268              		@ args = 4, pretend = 0, frame = 0
ARM GAS  /var/folders/mq/wg13gp494590nh4zyt09lxf00000gn/T//ccUYufpr.s 			page 17


 269              		@ frame_needed = 0, uses_anonymous_args = 0
 270              		.loc 1 595 1 is_stmt 0 view .LVU90
 271 0000 F8B5     		push	{r3, r4, r5, r6, r7, lr}
 272              	.LCFI1:
 273              		.cfi_def_cfa_offset 24
 274              		.cfi_offset 3, -24
 275              		.cfi_offset 4, -20
 276              		.cfi_offset 5, -16
 277              		.cfi_offset 6, -12
 278              		.cfi_offset 7, -8
 279              		.cfi_offset 14, -4
 280 0002 0646     		mov	r6, r0
 281 0004 1F46     		mov	r7, r3
 282 0006 069D     		ldr	r5, [sp, #24]
 596:Middlewares/Third_Party/LibJPEG/source/jdhuff.c ****   register int l = min_bits;
 283              		.loc 1 596 3 is_stmt 1 view .LVU91
 284              	.LVL31:
 597:Middlewares/Third_Party/LibJPEG/source/jdhuff.c ****   register INT32 code;
 285              		.loc 1 597 3 view .LVU92
 598:Middlewares/Third_Party/LibJPEG/source/jdhuff.c **** 
 599:Middlewares/Third_Party/LibJPEG/source/jdhuff.c ****   /* HUFF_DECODE has determined that the code is at least min_bits */
 600:Middlewares/Third_Party/LibJPEG/source/jdhuff.c ****   /* bits long, so fetch that many bits in one swoop. */
 601:Middlewares/Third_Party/LibJPEG/source/jdhuff.c **** 
 602:Middlewares/Third_Party/LibJPEG/source/jdhuff.c ****   CHECK_BIT_BUFFER(*state, l, return -1);
 286              		.loc 1 602 3 view .LVU93
 287 0008 9542     		cmp	r5, r2
 288 000a 08DC     		bgt	.L25
 289              	.LVL32:
 290              	.L16:
 291              		.loc 1 602 41 discriminator 5 view .LVU94
 603:Middlewares/Third_Party/LibJPEG/source/jdhuff.c ****   code = GET_BITS(l);
 292              		.loc 1 603 3 view .LVU95
 293              		.loc 1 603 10 is_stmt 0 view .LVU96
 294 000c 521B     		subs	r2, r2, r5
 295              	.LVL33:
 296              		.loc 1 603 10 view .LVU97
 297 000e 41FA02FC 		asr	ip, r1, r2
 298 0012 224B     		ldr	r3, .L29
 299 0014 53F82530 		ldr	r3, [r3, r5, lsl #2]
 300              		.loc 1 603 8 view .LVU98
 301 0018 0CEA030C 		and	ip, ip, r3
 302              	.LVL34:
 604:Middlewares/Third_Party/LibJPEG/source/jdhuff.c **** 
 605:Middlewares/Third_Party/LibJPEG/source/jdhuff.c ****   /* Collect the rest of the Huffman code one bit at a time. */
 606:Middlewares/Third_Party/LibJPEG/source/jdhuff.c ****   /* This is per Figure F.16 in the JPEG spec. */
 607:Middlewares/Third_Party/LibJPEG/source/jdhuff.c **** 
 608:Middlewares/Third_Party/LibJPEG/source/jdhuff.c ****   while (code > htbl->maxcode[l]) {
 303              		.loc 1 608 3 is_stmt 1 view .LVU99
 304              		.loc 1 608 9 is_stmt 0 view .LVU100
 305 001c 11E0     		b	.L18
 306              	.LVL35:
 307              	.L25:
 602:Middlewares/Third_Party/LibJPEG/source/jdhuff.c ****   code = GET_BITS(l);
 308              		.loc 1 602 3 is_stmt 1 discriminator 1 view .LVU101
 309 001e 2B46     		mov	r3, r5
 310              	.LVL36:
 602:Middlewares/Third_Party/LibJPEG/source/jdhuff.c ****   code = GET_BITS(l);
ARM GAS  /var/folders/mq/wg13gp494590nh4zyt09lxf00000gn/T//ccUYufpr.s 			page 18


 311              		.loc 1 602 3 is_stmt 0 discriminator 1 view .LVU102
 312 0020 FFF7FEFF 		bl	jpeg_fill_bit_buffer
 313              	.LVL37:
 602:Middlewares/Third_Party/LibJPEG/source/jdhuff.c ****   code = GET_BITS(l);
 314              		.loc 1 602 3 discriminator 1 view .LVU103
 315 0024 0028     		cmp	r0, #0
 316 0026 36D0     		beq	.L22
 602:Middlewares/Third_Party/LibJPEG/source/jdhuff.c ****   code = GET_BITS(l);
 317              		.loc 1 602 3 is_stmt 1 discriminator 4 view .LVU104
 318 0028 B168     		ldr	r1, [r6, #8]
 319              	.LVL38:
 602:Middlewares/Third_Party/LibJPEG/source/jdhuff.c ****   code = GET_BITS(l);
 320              		.loc 1 602 3 discriminator 4 view .LVU105
 321 002a F268     		ldr	r2, [r6, #12]
 322              	.LVL39:
 602:Middlewares/Third_Party/LibJPEG/source/jdhuff.c ****   code = GET_BITS(l);
 323              		.loc 1 602 3 is_stmt 0 discriminator 4 view .LVU106
 324 002c EEE7     		b	.L16
 325              	.LVL40:
 326              	.L27:
 609:Middlewares/Third_Party/LibJPEG/source/jdhuff.c ****     code <<= 1;
 610:Middlewares/Third_Party/LibJPEG/source/jdhuff.c ****     CHECK_BIT_BUFFER(*state, 1, return -1);
 327              		.loc 1 610 5 is_stmt 1 discriminator 4 view .LVU107
 328 002e B168     		ldr	r1, [r6, #8]
 329              	.LVL41:
 330              		.loc 1 610 5 discriminator 4 view .LVU108
 331 0030 F268     		ldr	r2, [r6, #12]
 332              	.LVL42:
 333              	.L19:
 334              		.loc 1 610 43 discriminator 5 view .LVU109
 611:Middlewares/Third_Party/LibJPEG/source/jdhuff.c ****     code |= GET_BITS(1);
 335              		.loc 1 611 5 view .LVU110
 336              		.loc 1 611 13 is_stmt 0 view .LVU111
 337 0032 013A     		subs	r2, r2, #1
 338              	.LVL43:
 339              		.loc 1 611 13 view .LVU112
 340 0034 41FA02F3 		asr	r3, r1, r2
 341 0038 03F00103 		and	r3, r3, #1
 342              		.loc 1 611 10 view .LVU113
 343 003c 44EA030C 		orr	ip, r4, r3
 344              	.LVL44:
 612:Middlewares/Third_Party/LibJPEG/source/jdhuff.c ****     l++;
 345              		.loc 1 612 5 is_stmt 1 view .LVU114
 346              		.loc 1 612 6 is_stmt 0 view .LVU115
 347 0040 0135     		adds	r5, r5, #1
 348              	.LVL45:
 349              	.L18:
 608:Middlewares/Third_Party/LibJPEG/source/jdhuff.c ****     code <<= 1;
 350              		.loc 1 608 15 is_stmt 1 view .LVU116
 608:Middlewares/Third_Party/LibJPEG/source/jdhuff.c ****     code <<= 1;
 351              		.loc 1 608 30 is_stmt 0 view .LVU117
 352 0042 57F82530 		ldr	r3, [r7, r5, lsl #2]
 608:Middlewares/Third_Party/LibJPEG/source/jdhuff.c ****     code <<= 1;
 353              		.loc 1 608 15 view .LVU118
 354 0046 6345     		cmp	r3, ip
 355 0048 0CDA     		bge	.L26
 609:Middlewares/Third_Party/LibJPEG/source/jdhuff.c ****     CHECK_BIT_BUFFER(*state, 1, return -1);
ARM GAS  /var/folders/mq/wg13gp494590nh4zyt09lxf00000gn/T//ccUYufpr.s 			page 19


 356              		.loc 1 609 5 is_stmt 1 view .LVU119
 609:Middlewares/Third_Party/LibJPEG/source/jdhuff.c ****     CHECK_BIT_BUFFER(*state, 1, return -1);
 357              		.loc 1 609 10 is_stmt 0 view .LVU120
 358 004a 4FEA4C04 		lsl	r4, ip, #1
 359              	.LVL46:
 610:Middlewares/Third_Party/LibJPEG/source/jdhuff.c ****     code |= GET_BITS(1);
 360              		.loc 1 610 5 is_stmt 1 view .LVU121
 361 004e 002A     		cmp	r2, #0
 362 0050 EFDC     		bgt	.L19
 610:Middlewares/Third_Party/LibJPEG/source/jdhuff.c ****     code |= GET_BITS(1);
 363              		.loc 1 610 5 discriminator 1 view .LVU122
 364 0052 0123     		movs	r3, #1
 365 0054 3046     		mov	r0, r6
 366 0056 FFF7FEFF 		bl	jpeg_fill_bit_buffer
 367              	.LVL47:
 610:Middlewares/Third_Party/LibJPEG/source/jdhuff.c ****     code |= GET_BITS(1);
 368              		.loc 1 610 5 is_stmt 0 discriminator 1 view .LVU123
 369 005a 0028     		cmp	r0, #0
 370 005c E7D1     		bne	.L27
 610:Middlewares/Third_Party/LibJPEG/source/jdhuff.c ****     code |= GET_BITS(1);
 371              		.loc 1 610 5 discriminator 3 view .LVU124
 372 005e 4FF0FF30 		mov	r0, #-1
 373 0062 0BE0     		b	.L15
 374              	.LVL48:
 375              	.L26:
 613:Middlewares/Third_Party/LibJPEG/source/jdhuff.c ****   }
 614:Middlewares/Third_Party/LibJPEG/source/jdhuff.c **** 
 615:Middlewares/Third_Party/LibJPEG/source/jdhuff.c ****   /* Unload the local registers */
 616:Middlewares/Third_Party/LibJPEG/source/jdhuff.c ****   state->get_buffer = get_buffer;
 376              		.loc 1 616 3 is_stmt 1 view .LVU125
 377              		.loc 1 616 21 is_stmt 0 view .LVU126
 378 0064 B160     		str	r1, [r6, #8]
 617:Middlewares/Third_Party/LibJPEG/source/jdhuff.c ****   state->bits_left = bits_left;
 379              		.loc 1 617 3 is_stmt 1 view .LVU127
 380              		.loc 1 617 20 is_stmt 0 view .LVU128
 381 0066 F260     		str	r2, [r6, #12]
 618:Middlewares/Third_Party/LibJPEG/source/jdhuff.c **** 
 619:Middlewares/Third_Party/LibJPEG/source/jdhuff.c ****   /* With garbage input we may reach the sentinel value l = 17. */
 620:Middlewares/Third_Party/LibJPEG/source/jdhuff.c **** 
 621:Middlewares/Third_Party/LibJPEG/source/jdhuff.c ****   if (l > 16) {
 382              		.loc 1 621 3 is_stmt 1 view .LVU129
 383              		.loc 1 621 6 is_stmt 0 view .LVU130
 384 0068 102D     		cmp	r5, #16
 385 006a 08DC     		bgt	.L28
 622:Middlewares/Third_Party/LibJPEG/source/jdhuff.c ****     WARNMS(state->cinfo, JWRN_HUFF_BAD_CODE);
 623:Middlewares/Third_Party/LibJPEG/source/jdhuff.c ****     return 0;			/* fake a zero as the safest result */
 624:Middlewares/Third_Party/LibJPEG/source/jdhuff.c ****   }
 625:Middlewares/Third_Party/LibJPEG/source/jdhuff.c **** 
 626:Middlewares/Third_Party/LibJPEG/source/jdhuff.c ****   return htbl->pub->huffval[ (int) (code + htbl->valoffset[l]) ];
 386              		.loc 1 626 3 is_stmt 1 view .LVU131
 387              		.loc 1 626 14 is_stmt 0 view .LVU132
 388 006c D7F88C30 		ldr	r3, [r7, #140]
 389              		.loc 1 626 59 view .LVU133
 390 0070 1235     		adds	r5, r5, #18
 391              	.LVL49:
 392              		.loc 1 626 59 view .LVU134
 393 0072 57F82520 		ldr	r2, [r7, r5, lsl #2]
ARM GAS  /var/folders/mq/wg13gp494590nh4zyt09lxf00000gn/T//ccUYufpr.s 			page 20


 394              	.LVL50:
 395              		.loc 1 626 42 view .LVU135
 396 0076 6244     		add	r2, r2, ip
 397              		.loc 1 626 28 view .LVU136
 398 0078 1344     		add	r3, r3, r2
 399 007a 587C     		ldrb	r0, [r3, #17]	@ zero_extendqisi2
 400              	.LVL51:
 401              	.L15:
 627:Middlewares/Third_Party/LibJPEG/source/jdhuff.c **** }
 402              		.loc 1 627 1 view .LVU137
 403 007c F8BD     		pop	{r3, r4, r5, r6, r7, pc}
 404              	.LVL52:
 405              	.L28:
 622:Middlewares/Third_Party/LibJPEG/source/jdhuff.c ****     WARNMS(state->cinfo, JWRN_HUFF_BAD_CODE);
 406              		.loc 1 622 5 is_stmt 1 view .LVU138
 407 007e 3369     		ldr	r3, [r6, #16]
 408 0080 1B68     		ldr	r3, [r3]
 409 0082 7922     		movs	r2, #121
 410              	.LVL53:
 622:Middlewares/Third_Party/LibJPEG/source/jdhuff.c ****     WARNMS(state->cinfo, JWRN_HUFF_BAD_CODE);
 411              		.loc 1 622 5 is_stmt 0 view .LVU139
 412 0084 5A61     		str	r2, [r3, #20]
 413              	.LVL54:
 622:Middlewares/Third_Party/LibJPEG/source/jdhuff.c ****     WARNMS(state->cinfo, JWRN_HUFF_BAD_CODE);
 414              		.loc 1 622 5 view .LVU140
 415 0086 3069     		ldr	r0, [r6, #16]
 416 0088 0368     		ldr	r3, [r0]
 417 008a 5B68     		ldr	r3, [r3, #4]
 418 008c 4FF0FF31 		mov	r1, #-1
 419              	.LVL55:
 622:Middlewares/Third_Party/LibJPEG/source/jdhuff.c ****     WARNMS(state->cinfo, JWRN_HUFF_BAD_CODE);
 420              		.loc 1 622 5 view .LVU141
 421 0090 9847     		blx	r3
 422              	.LVL56:
 623:Middlewares/Third_Party/LibJPEG/source/jdhuff.c ****   }
 423              		.loc 1 623 5 is_stmt 1 view .LVU142
 623:Middlewares/Third_Party/LibJPEG/source/jdhuff.c ****   }
 424              		.loc 1 623 12 is_stmt 0 view .LVU143
 425 0092 0020     		movs	r0, #0
 426 0094 F2E7     		b	.L15
 427              	.LVL57:
 428              	.L22:
 602:Middlewares/Third_Party/LibJPEG/source/jdhuff.c ****   code = GET_BITS(l);
 429              		.loc 1 602 3 discriminator 3 view .LVU144
 430 0096 4FF0FF30 		mov	r0, #-1
 431 009a EFE7     		b	.L15
 432              	.L30:
 433              		.align	2
 434              	.L29:
 435 009c 00000000 		.word	bmask
 436              		.cfi_endproc
 437              	.LFE149:
 439              		.section	.text.process_restart,"ax",%progbits
 440              		.align	1
 441              		.syntax unified
 442              		.thumb
 443              		.thumb_func
ARM GAS  /var/folders/mq/wg13gp494590nh4zyt09lxf00000gn/T//ccUYufpr.s 			page 21


 445              	process_restart:
 446              	.LVL58:
 447              	.LFB150:
 628:Middlewares/Third_Party/LibJPEG/source/jdhuff.c **** 
 629:Middlewares/Third_Party/LibJPEG/source/jdhuff.c **** 
 630:Middlewares/Third_Party/LibJPEG/source/jdhuff.c **** /*
 631:Middlewares/Third_Party/LibJPEG/source/jdhuff.c ****  * Check for a restart marker & resynchronize decoder.
 632:Middlewares/Third_Party/LibJPEG/source/jdhuff.c ****  * Returns FALSE if must suspend.
 633:Middlewares/Third_Party/LibJPEG/source/jdhuff.c ****  */
 634:Middlewares/Third_Party/LibJPEG/source/jdhuff.c **** 
 635:Middlewares/Third_Party/LibJPEG/source/jdhuff.c **** LOCAL(boolean)
 636:Middlewares/Third_Party/LibJPEG/source/jdhuff.c **** process_restart (j_decompress_ptr cinfo)
 637:Middlewares/Third_Party/LibJPEG/source/jdhuff.c **** {
 448              		.loc 1 637 1 is_stmt 1 view -0
 449              		.cfi_startproc
 450              		@ args = 0, pretend = 0, frame = 0
 451              		@ frame_needed = 0, uses_anonymous_args = 0
 452              		.loc 1 637 1 is_stmt 0 view .LVU146
 453 0000 38B5     		push	{r3, r4, r5, lr}
 454              	.LCFI2:
 455              		.cfi_def_cfa_offset 16
 456              		.cfi_offset 3, -16
 457              		.cfi_offset 4, -12
 458              		.cfi_offset 5, -8
 459              		.cfi_offset 14, -4
 460 0002 0446     		mov	r4, r0
 638:Middlewares/Third_Party/LibJPEG/source/jdhuff.c ****   huff_entropy_ptr entropy = (huff_entropy_ptr) cinfo->entropy;
 461              		.loc 1 638 3 is_stmt 1 view .LVU147
 462              		.loc 1 638 20 is_stmt 0 view .LVU148
 463 0004 D0F8D051 		ldr	r5, [r0, #464]
 464              	.LVL59:
 639:Middlewares/Third_Party/LibJPEG/source/jdhuff.c ****   int ci;
 465              		.loc 1 639 3 is_stmt 1 view .LVU149
 640:Middlewares/Third_Party/LibJPEG/source/jdhuff.c **** 
 641:Middlewares/Third_Party/LibJPEG/source/jdhuff.c ****   /* Throw away any unused bits remaining in bit buffer; */
 642:Middlewares/Third_Party/LibJPEG/source/jdhuff.c ****   /* include any full bytes in next_marker's count of discarded bytes */
 643:Middlewares/Third_Party/LibJPEG/source/jdhuff.c ****   cinfo->marker->discarded_bytes += entropy->bitstate.bits_left / 8;
 466              		.loc 1 643 3 view .LVU150
 467              		.loc 1 643 8 is_stmt 0 view .LVU151
 468 0008 D0F8CC11 		ldr	r1, [r0, #460]
 469              		.loc 1 643 16 view .LVU152
 470 000c 8B69     		ldr	r3, [r1, #24]
 471              		.loc 1 643 54 view .LVU153
 472 000e EA68     		ldr	r2, [r5, #12]
 473              		.loc 1 643 65 view .LVU154
 474 0010 002A     		cmp	r2, #0
 475 0012 0CDB     		blt	.L38
 476              	.L32:
 477              		.loc 1 643 34 view .LVU155
 478 0014 03EBE203 		add	r3, r3, r2, asr #3
 479 0018 8B61     		str	r3, [r1, #24]
 644:Middlewares/Third_Party/LibJPEG/source/jdhuff.c ****   entropy->bitstate.bits_left = 0;
 480              		.loc 1 644 3 is_stmt 1 view .LVU156
 481              		.loc 1 644 31 is_stmt 0 view .LVU157
 482 001a 0023     		movs	r3, #0
 483 001c EB60     		str	r3, [r5, #12]
 645:Middlewares/Third_Party/LibJPEG/source/jdhuff.c **** 
ARM GAS  /var/folders/mq/wg13gp494590nh4zyt09lxf00000gn/T//ccUYufpr.s 			page 22


 646:Middlewares/Third_Party/LibJPEG/source/jdhuff.c ****   /* Advance past the RSTn marker */
 647:Middlewares/Third_Party/LibJPEG/source/jdhuff.c ****   if (! (*cinfo->marker->read_restart_marker) (cinfo))
 484              		.loc 1 647 3 is_stmt 1 view .LVU158
 485              		.loc 1 647 16 is_stmt 0 view .LVU159
 486 001e D4F8CC31 		ldr	r3, [r4, #460]
 487              		.loc 1 647 10 view .LVU160
 488 0022 9B68     		ldr	r3, [r3, #8]
 489 0024 2046     		mov	r0, r4
 490              	.LVL60:
 491              		.loc 1 647 10 view .LVU161
 492 0026 9847     		blx	r3
 493              	.LVL61:
 494              		.loc 1 647 6 discriminator 1 view .LVU162
 495 0028 B8B1     		cbz	r0, .L31
 648:Middlewares/Third_Party/LibJPEG/source/jdhuff.c ****     return FALSE;
 649:Middlewares/Third_Party/LibJPEG/source/jdhuff.c **** 
 650:Middlewares/Third_Party/LibJPEG/source/jdhuff.c ****   /* Re-initialize DC predictions to 0 */
 651:Middlewares/Third_Party/LibJPEG/source/jdhuff.c ****   for (ci = 0; ci < cinfo->comps_in_scan; ci++)
 496              		.loc 1 651 11 view .LVU163
 497 002a 0023     		movs	r3, #0
 498 002c 07E0     		b	.L34
 499              	.LVL62:
 500              	.L38:
 643:Middlewares/Third_Party/LibJPEG/source/jdhuff.c ****   entropy->bitstate.bits_left = 0;
 501              		.loc 1 643 65 view .LVU164
 502 002e 0732     		adds	r2, r2, #7
 503 0030 F0E7     		b	.L32
 504              	.LVL63:
 505              	.L35:
 652:Middlewares/Third_Party/LibJPEG/source/jdhuff.c ****     entropy->saved.last_dc_val[ci] = 0;
 506              		.loc 1 652 5 is_stmt 1 view .LVU165
 507              		.loc 1 652 36 is_stmt 0 view .LVU166
 508 0032 1A1D     		adds	r2, r3, #4
 509 0034 05EB8202 		add	r2, r5, r2, lsl #2
 510 0038 0021     		movs	r1, #0
 511 003a 5160     		str	r1, [r2, #4]
 651:Middlewares/Third_Party/LibJPEG/source/jdhuff.c ****     entropy->saved.last_dc_val[ci] = 0;
 512              		.loc 1 651 45 is_stmt 1 discriminator 3 view .LVU167
 513 003c 0133     		adds	r3, r3, #1
 514              	.LVL64:
 515              	.L34:
 651:Middlewares/Third_Party/LibJPEG/source/jdhuff.c ****     entropy->saved.last_dc_val[ci] = 0;
 516              		.loc 1 651 19 discriminator 1 view .LVU168
 651:Middlewares/Third_Party/LibJPEG/source/jdhuff.c ****     entropy->saved.last_dc_val[ci] = 0;
 517              		.loc 1 651 26 is_stmt 0 discriminator 1 view .LVU169
 518 003e D4F85021 		ldr	r2, [r4, #336]
 651:Middlewares/Third_Party/LibJPEG/source/jdhuff.c ****     entropy->saved.last_dc_val[ci] = 0;
 519              		.loc 1 651 19 discriminator 1 view .LVU170
 520 0042 9A42     		cmp	r2, r3
 521 0044 F5DC     		bgt	.L35
 653:Middlewares/Third_Party/LibJPEG/source/jdhuff.c ****   /* Re-init EOB run count, too */
 654:Middlewares/Third_Party/LibJPEG/source/jdhuff.c ****   entropy->saved.EOBRUN = 0;
 522              		.loc 1 654 3 is_stmt 1 view .LVU171
 523              		.loc 1 654 25 is_stmt 0 view .LVU172
 524 0046 0023     		movs	r3, #0
 525              	.LVL65:
 526              		.loc 1 654 25 view .LVU173
ARM GAS  /var/folders/mq/wg13gp494590nh4zyt09lxf00000gn/T//ccUYufpr.s 			page 23


 527 0048 2B61     		str	r3, [r5, #16]
 655:Middlewares/Third_Party/LibJPEG/source/jdhuff.c **** 
 656:Middlewares/Third_Party/LibJPEG/source/jdhuff.c ****   /* Reset restart counter */
 657:Middlewares/Third_Party/LibJPEG/source/jdhuff.c ****   entropy->restarts_to_go = cinfo->restart_interval;
 528              		.loc 1 657 3 is_stmt 1 view .LVU174
 529              		.loc 1 657 34 is_stmt 0 view .LVU175
 530 004a D4F81831 		ldr	r3, [r4, #280]
 531              		.loc 1 657 27 view .LVU176
 532 004e AB62     		str	r3, [r5, #40]
 658:Middlewares/Third_Party/LibJPEG/source/jdhuff.c **** 
 659:Middlewares/Third_Party/LibJPEG/source/jdhuff.c ****   /* Reset out-of-data flag, unless read_restart_marker left us smack up
 660:Middlewares/Third_Party/LibJPEG/source/jdhuff.c ****    * against a marker.  In that case we will end up treating the next data
 661:Middlewares/Third_Party/LibJPEG/source/jdhuff.c ****    * segment as empty, and we can avoid producing bogus output pixels by
 662:Middlewares/Third_Party/LibJPEG/source/jdhuff.c ****    * leaving the flag set.
 663:Middlewares/Third_Party/LibJPEG/source/jdhuff.c ****    */
 664:Middlewares/Third_Party/LibJPEG/source/jdhuff.c ****   if (cinfo->unread_marker == 0)
 533              		.loc 1 664 3 is_stmt 1 view .LVU177
 534              		.loc 1 664 12 is_stmt 0 view .LVU178
 535 0050 D4F8B431 		ldr	r3, [r4, #436]
 536              		.loc 1 664 6 view .LVU179
 537 0054 13B9     		cbnz	r3, .L36
 665:Middlewares/Third_Party/LibJPEG/source/jdhuff.c ****     entropy->insufficient_data = FALSE;
 538              		.loc 1 665 5 is_stmt 1 view .LVU180
 539              		.loc 1 665 32 is_stmt 0 view .LVU181
 540 0056 6B62     		str	r3, [r5, #36]
 666:Middlewares/Third_Party/LibJPEG/source/jdhuff.c **** 
 667:Middlewares/Third_Party/LibJPEG/source/jdhuff.c ****   return TRUE;
 541              		.loc 1 667 10 view .LVU182
 542 0058 0120     		movs	r0, #1
 543              	.LVL66:
 544              	.L31:
 668:Middlewares/Third_Party/LibJPEG/source/jdhuff.c **** }
 545              		.loc 1 668 1 view .LVU183
 546 005a 38BD     		pop	{r3, r4, r5, pc}
 547              	.LVL67:
 548              	.L36:
 667:Middlewares/Third_Party/LibJPEG/source/jdhuff.c **** }
 549              		.loc 1 667 10 view .LVU184
 550 005c 0120     		movs	r0, #1
 551 005e FCE7     		b	.L31
 552              		.cfi_endproc
 553              	.LFE150:
 555              		.section	.text.decode_mcu_DC_first,"ax",%progbits
 556              		.align	1
 557              		.syntax unified
 558              		.thumb
 559              		.thumb_func
 561              	decode_mcu_DC_first:
 562              	.LVL68:
 563              	.LFB151:
 669:Middlewares/Third_Party/LibJPEG/source/jdhuff.c **** 
 670:Middlewares/Third_Party/LibJPEG/source/jdhuff.c **** 
 671:Middlewares/Third_Party/LibJPEG/source/jdhuff.c **** /*
 672:Middlewares/Third_Party/LibJPEG/source/jdhuff.c ****  * Huffman MCU decoding.
 673:Middlewares/Third_Party/LibJPEG/source/jdhuff.c ****  * Each of these routines decodes and returns one MCU's worth of
 674:Middlewares/Third_Party/LibJPEG/source/jdhuff.c ****  * Huffman-compressed coefficients. 
 675:Middlewares/Third_Party/LibJPEG/source/jdhuff.c ****  * The coefficients are reordered from zigzag order into natural array order,
ARM GAS  /var/folders/mq/wg13gp494590nh4zyt09lxf00000gn/T//ccUYufpr.s 			page 24


 676:Middlewares/Third_Party/LibJPEG/source/jdhuff.c ****  * but are not dequantized.
 677:Middlewares/Third_Party/LibJPEG/source/jdhuff.c ****  *
 678:Middlewares/Third_Party/LibJPEG/source/jdhuff.c ****  * The i'th block of the MCU is stored into the block pointed to by
 679:Middlewares/Third_Party/LibJPEG/source/jdhuff.c ****  * MCU_data[i].  WE ASSUME THIS AREA IS INITIALLY ZEROED BY THE CALLER.
 680:Middlewares/Third_Party/LibJPEG/source/jdhuff.c ****  * (Wholesale zeroing is usually a little faster than retail...)
 681:Middlewares/Third_Party/LibJPEG/source/jdhuff.c ****  *
 682:Middlewares/Third_Party/LibJPEG/source/jdhuff.c ****  * We return FALSE if data source requested suspension.  In that case no
 683:Middlewares/Third_Party/LibJPEG/source/jdhuff.c ****  * changes have been made to permanent state.  (Exception: some output
 684:Middlewares/Third_Party/LibJPEG/source/jdhuff.c ****  * coefficients may already have been assigned.  This is harmless for
 685:Middlewares/Third_Party/LibJPEG/source/jdhuff.c ****  * spectral selection, since we'll just re-assign them on the next call.
 686:Middlewares/Third_Party/LibJPEG/source/jdhuff.c ****  * Successive approximation AC refinement has to be more careful, however.)
 687:Middlewares/Third_Party/LibJPEG/source/jdhuff.c ****  */
 688:Middlewares/Third_Party/LibJPEG/source/jdhuff.c **** 
 689:Middlewares/Third_Party/LibJPEG/source/jdhuff.c **** /*
 690:Middlewares/Third_Party/LibJPEG/source/jdhuff.c ****  * MCU decoding for DC initial scan (either spectral selection,
 691:Middlewares/Third_Party/LibJPEG/source/jdhuff.c ****  * or first pass of successive approximation).
 692:Middlewares/Third_Party/LibJPEG/source/jdhuff.c ****  */
 693:Middlewares/Third_Party/LibJPEG/source/jdhuff.c **** 
 694:Middlewares/Third_Party/LibJPEG/source/jdhuff.c **** METHODDEF(boolean)
 695:Middlewares/Third_Party/LibJPEG/source/jdhuff.c **** decode_mcu_DC_first (j_decompress_ptr cinfo, JBLOCKROW *MCU_data)
 696:Middlewares/Third_Party/LibJPEG/source/jdhuff.c **** {   
 564              		.loc 1 696 1 is_stmt 1 view -0
 565              		.cfi_startproc
 566              		@ args = 0, pretend = 0, frame = 48
 567              		@ frame_needed = 0, uses_anonymous_args = 0
 568              		.loc 1 696 1 is_stmt 0 view .LVU186
 569 0000 2DE9F04F 		push	{r4, r5, r6, r7, r8, r9, r10, fp, lr}
 570              	.LCFI3:
 571              		.cfi_def_cfa_offset 36
 572              		.cfi_offset 4, -36
 573              		.cfi_offset 5, -32
 574              		.cfi_offset 6, -28
 575              		.cfi_offset 7, -24
 576              		.cfi_offset 8, -20
 577              		.cfi_offset 9, -16
 578              		.cfi_offset 10, -12
 579              		.cfi_offset 11, -8
 580              		.cfi_offset 14, -4
 581 0004 8FB0     		sub	sp, sp, #60
 582              	.LCFI4:
 583              		.cfi_def_cfa_offset 96
 584 0006 0746     		mov	r7, r0
 585 0008 8A46     		mov	r10, r1
 697:Middlewares/Third_Party/LibJPEG/source/jdhuff.c ****   huff_entropy_ptr entropy = (huff_entropy_ptr) cinfo->entropy;
 586              		.loc 1 697 3 is_stmt 1 view .LVU187
 587              		.loc 1 697 20 is_stmt 0 view .LVU188
 588 000a D0F8D091 		ldr	r9, [r0, #464]
 589              	.LVL69:
 698:Middlewares/Third_Party/LibJPEG/source/jdhuff.c ****   int Al = cinfo->Al;
 590              		.loc 1 698 3 is_stmt 1 view .LVU189
 591              		.loc 1 698 7 is_stmt 0 view .LVU190
 592 000e D0F8A4B1 		ldr	fp, [r0, #420]
 593              	.LVL70:
 699:Middlewares/Third_Party/LibJPEG/source/jdhuff.c ****   register int s, r;
 594              		.loc 1 699 3 is_stmt 1 view .LVU191
 700:Middlewares/Third_Party/LibJPEG/source/jdhuff.c ****   int blkn, ci;
 595              		.loc 1 700 3 view .LVU192
ARM GAS  /var/folders/mq/wg13gp494590nh4zyt09lxf00000gn/T//ccUYufpr.s 			page 25


 701:Middlewares/Third_Party/LibJPEG/source/jdhuff.c ****   JBLOCKROW block;
 596              		.loc 1 701 3 view .LVU193
 702:Middlewares/Third_Party/LibJPEG/source/jdhuff.c ****   BITREAD_STATE_VARS;
 597              		.loc 1 702 3 view .LVU194
 598              		.loc 1 702 3 view .LVU195
 599              		.loc 1 702 3 view .LVU196
 703:Middlewares/Third_Party/LibJPEG/source/jdhuff.c ****   savable_state state;
 600              		.loc 1 703 3 view .LVU197
 704:Middlewares/Third_Party/LibJPEG/source/jdhuff.c ****   d_derived_tbl * tbl;
 601              		.loc 1 704 3 view .LVU198
 705:Middlewares/Third_Party/LibJPEG/source/jdhuff.c ****   jpeg_component_info * compptr;
 602              		.loc 1 705 3 view .LVU199
 706:Middlewares/Third_Party/LibJPEG/source/jdhuff.c **** 
 707:Middlewares/Third_Party/LibJPEG/source/jdhuff.c ****   /* Process restart marker if needed; may have to suspend */
 708:Middlewares/Third_Party/LibJPEG/source/jdhuff.c ****   if (cinfo->restart_interval) {
 603              		.loc 1 708 3 view .LVU200
 604              		.loc 1 708 12 is_stmt 0 view .LVU201
 605 0012 D0F81831 		ldr	r3, [r0, #280]
 606              		.loc 1 708 6 view .LVU202
 607 0016 13B1     		cbz	r3, .L40
 709:Middlewares/Third_Party/LibJPEG/source/jdhuff.c ****     if (entropy->restarts_to_go == 0)
 608              		.loc 1 709 5 is_stmt 1 view .LVU203
 609              		.loc 1 709 16 is_stmt 0 view .LVU204
 610 0018 D9F82830 		ldr	r3, [r9, #40]
 611              		.loc 1 709 8 view .LVU205
 612 001c D3B1     		cbz	r3, .L57
 613              	.LVL71:
 614              	.L40:
 710:Middlewares/Third_Party/LibJPEG/source/jdhuff.c ****       if (! process_restart(cinfo))
 711:Middlewares/Third_Party/LibJPEG/source/jdhuff.c **** 	return FALSE;
 712:Middlewares/Third_Party/LibJPEG/source/jdhuff.c ****   }
 713:Middlewares/Third_Party/LibJPEG/source/jdhuff.c **** 
 714:Middlewares/Third_Party/LibJPEG/source/jdhuff.c ****   /* If we've run out of data, just leave the MCU set to zeroes.
 715:Middlewares/Third_Party/LibJPEG/source/jdhuff.c ****    * This way, we return uniform gray for the remainder of the segment.
 716:Middlewares/Third_Party/LibJPEG/source/jdhuff.c ****    */
 717:Middlewares/Third_Party/LibJPEG/source/jdhuff.c ****   if (! entropy->insufficient_data) {
 615              		.loc 1 717 3 is_stmt 1 view .LVU206
 616              		.loc 1 717 16 is_stmt 0 view .LVU207
 617 001e D9F82450 		ldr	r5, [r9, #36]
 618              		.loc 1 717 6 view .LVU208
 619 0022 002D     		cmp	r5, #0
 620 0024 40F09580 		bne	.L42
 718:Middlewares/Third_Party/LibJPEG/source/jdhuff.c **** 
 719:Middlewares/Third_Party/LibJPEG/source/jdhuff.c ****     /* Load up working state */
 720:Middlewares/Third_Party/LibJPEG/source/jdhuff.c ****     BITREAD_LOAD_STATE(cinfo,entropy->bitstate);
 621              		.loc 1 720 5 is_stmt 1 view .LVU209
 622 0028 0D97     		str	r7, [sp, #52]
 623              		.loc 1 720 5 view .LVU210
 624 002a BB69     		ldr	r3, [r7, #24]
 625 002c 1A68     		ldr	r2, [r3]
 626 002e 0992     		str	r2, [sp, #36]
 627              		.loc 1 720 5 view .LVU211
 628 0030 5B68     		ldr	r3, [r3, #4]
 629 0032 0A93     		str	r3, [sp, #40]
 630              		.loc 1 720 5 view .LVU212
 631 0034 D9F808E0 		ldr	lr, [r9, #8]
 632              	.LVL72:
ARM GAS  /var/folders/mq/wg13gp494590nh4zyt09lxf00000gn/T//ccUYufpr.s 			page 26


 633              		.loc 1 720 5 view .LVU213
 634 0038 D9F80CC0 		ldr	ip, [r9, #12]
 635              	.LVL73:
 636              		.loc 1 720 48 view .LVU214
 721:Middlewares/Third_Party/LibJPEG/source/jdhuff.c ****     ASSIGN_STATE(state, entropy->saved);
 637              		.loc 1 721 5 view .LVU215
 638 003c 04AC     		add	r4, sp, #16
 639 003e 09F11006 		add	r6, r9, #16
 640 0042 0FCE     		ldmia	r6!, {r0, r1, r2, r3}
 641 0044 0FC4     		stmia	r4!, {r0, r1, r2, r3}
 642 0046 3368     		ldr	r3, [r6]
 643 0048 2360     		str	r3, [r4]
 722:Middlewares/Third_Party/LibJPEG/source/jdhuff.c **** 
 723:Middlewares/Third_Party/LibJPEG/source/jdhuff.c ****     /* Outer loop handles each block in the MCU */
 724:Middlewares/Third_Party/LibJPEG/source/jdhuff.c **** 
 725:Middlewares/Third_Party/LibJPEG/source/jdhuff.c ****     for (blkn = 0; blkn < cinfo->blocks_in_MCU; blkn++) {
 644              		.loc 1 725 5 view .LVU216
 645              	.LVL74:
 646              		.loc 1 725 15 is_stmt 0 view .LVU217
 647 004a 2E46     		mov	r6, r5
 648 004c 7146     		mov	r1, lr
 649 004e 6246     		mov	r2, ip
 650 0050 0395     		str	r5, [sp, #12]
 651              		.loc 1 725 5 view .LVU218
 652 0052 45E0     		b	.L43
 653              	.LVL75:
 654              	.L57:
 710:Middlewares/Third_Party/LibJPEG/source/jdhuff.c **** 	return FALSE;
 655              		.loc 1 710 7 is_stmt 1 view .LVU219
 710:Middlewares/Third_Party/LibJPEG/source/jdhuff.c **** 	return FALSE;
 656              		.loc 1 710 13 is_stmt 0 view .LVU220
 657 0054 FFF7FEFF 		bl	process_restart
 658              	.LVL76:
 710:Middlewares/Third_Party/LibJPEG/source/jdhuff.c **** 	return FALSE;
 659              		.loc 1 710 10 discriminator 1 view .LVU221
 660 0058 0546     		mov	r5, r0
 661 005a 0028     		cmp	r0, #0
 662 005c DFD1     		bne	.L40
 663 005e 7EE0     		b	.L39
 664              	.LVL77:
 665              	.L60:
 666              	.LBB4:
 726:Middlewares/Third_Party/LibJPEG/source/jdhuff.c ****       block = MCU_data[blkn];
 727:Middlewares/Third_Party/LibJPEG/source/jdhuff.c ****       ci = cinfo->MCU_membership[blkn];
 728:Middlewares/Third_Party/LibJPEG/source/jdhuff.c ****       compptr = cinfo->cur_comp_info[ci];
 729:Middlewares/Third_Party/LibJPEG/source/jdhuff.c ****       tbl = entropy->derived_tbls[compptr->dc_tbl_no];
 730:Middlewares/Third_Party/LibJPEG/source/jdhuff.c **** 
 731:Middlewares/Third_Party/LibJPEG/source/jdhuff.c ****       /* Decode a single block's worth of coefficients */
 732:Middlewares/Third_Party/LibJPEG/source/jdhuff.c **** 
 733:Middlewares/Third_Party/LibJPEG/source/jdhuff.c ****       /* Section F.2.2.1: decode the DC coefficient difference */
 734:Middlewares/Third_Party/LibJPEG/source/jdhuff.c ****       HUFF_DECODE(s, br_state, tbl, return FALSE, label1);
 667              		.loc 1 734 7 is_stmt 1 discriminator 1 view .LVU222
 668 0060 0023     		movs	r3, #0
 669 0062 09A8     		add	r0, sp, #36
 670 0064 FFF7FEFF 		bl	jpeg_fill_bit_buffer
 671              	.LVL78:
 672              		.loc 1 734 7 is_stmt 0 discriminator 1 view .LVU223
ARM GAS  /var/folders/mq/wg13gp494590nh4zyt09lxf00000gn/T//ccUYufpr.s 			page 27


 673 0068 0028     		cmp	r0, #0
 674 006a 7CD0     		beq	.L50
 675              		.loc 1 734 7 is_stmt 1 discriminator 4 view .LVU224
 676 006c 0B99     		ldr	r1, [sp, #44]
 677              	.LVL79:
 678              		.loc 1 734 7 discriminator 4 view .LVU225
 679 006e 0C9A     		ldr	r2, [sp, #48]
 680              	.LVL80:
 681              		.loc 1 734 7 discriminator 4 view .LVU226
 682 0070 072A     		cmp	r2, #7
 683 0072 4BDC     		bgt	.L44
 684              		.loc 1 734 7 is_stmt 0 discriminator 5 view .LVU227
 685 0074 0123     		movs	r3, #1
 686 0076 00E0     		b	.L45
 687              	.LVL81:
 688              	.L52:
 689              		.loc 1 734 7 discriminator 9 view .LVU228
 690 0078 0923     		movs	r3, #9
 691              	.LVL82:
 692              	.L45:
 693              		.loc 1 734 7 is_stmt 1 discriminator 11 view .LVU229
 694 007a 0093     		str	r3, [sp]
 695 007c 2346     		mov	r3, r4
 696              	.LVL83:
 697              		.loc 1 734 7 is_stmt 0 discriminator 11 view .LVU230
 698 007e 09A8     		add	r0, sp, #36
 699 0080 FFF7FEFF 		bl	jpeg_huff_decode
 700              	.LVL84:
 701              		.loc 1 734 7 discriminator 1 view .LVU231
 702 0084 041E     		subs	r4, r0, #0
 703              	.LVL85:
 704              		.loc 1 734 7 discriminator 1 view .LVU232
 705 0086 72DB     		blt	.L55
 706              		.loc 1 734 7 is_stmt 1 discriminator 13 view .LVU233
 707 0088 0B99     		ldr	r1, [sp, #44]
 708              	.LVL86:
 709              		.loc 1 734 7 discriminator 13 view .LVU234
 710 008a 0C9A     		ldr	r2, [sp, #48]
 711              	.LVL87:
 712              	.L46:
 713              		.loc 1 734 7 is_stmt 0 discriminator 13 view .LVU235
 714              	.LBE4:
 715              		.loc 1 734 58 is_stmt 1 discriminator 14 view .LVU236
 735:Middlewares/Third_Party/LibJPEG/source/jdhuff.c ****       if (s) {
 716              		.loc 1 735 7 view .LVU237
 717              		.loc 1 735 10 is_stmt 0 view .LVU238
 718 008c DCB1     		cbz	r4, .L47
 736:Middlewares/Third_Party/LibJPEG/source/jdhuff.c **** 	CHECK_BIT_BUFFER(br_state, s, return FALSE);
 719              		.loc 1 736 2 is_stmt 1 view .LVU239
 720 008e 9442     		cmp	r4, r2
 721 0090 0FDC     		bgt	.L58
 722              	.L48:
 723              		.loc 1 736 45 discriminator 5 view .LVU240
 737:Middlewares/Third_Party/LibJPEG/source/jdhuff.c **** 	r = GET_BITS(s);
 724              		.loc 1 737 2 view .LVU241
 725              		.loc 1 737 6 is_stmt 0 view .LVU242
 726 0092 121B     		subs	r2, r2, r4
ARM GAS  /var/folders/mq/wg13gp494590nh4zyt09lxf00000gn/T//ccUYufpr.s 			page 28


 727              	.LVL88:
 728              		.loc 1 737 6 view .LVU243
 729 0094 41FA02F3 		asr	r3, r1, r2
 730 0098 3648     		ldr	r0, .L61
 731 009a 50F824C0 		ldr	ip, [r0, r4, lsl #2]
 732              		.loc 1 737 4 view .LVU244
 733 009e 03EA0C03 		and	r3, r3, ip
 734              	.LVL89:
 738:Middlewares/Third_Party/LibJPEG/source/jdhuff.c **** 	s = HUFF_EXTEND(r, s);
 735              		.loc 1 738 2 is_stmt 1 view .LVU245
 736              		.loc 1 738 6 is_stmt 0 view .LVU246
 737 00a2 013C     		subs	r4, r4, #1
 738              	.LVL90:
 739              		.loc 1 738 6 view .LVU247
 740 00a4 50F82400 		ldr	r0, [r0, r4, lsl #2]
 741 00a8 9842     		cmp	r0, r3
 742 00aa 0BDB     		blt	.L54
 743              		.loc 1 738 6 discriminator 1 view .LVU248
 744 00ac A3EB0C04 		sub	r4, r3, ip
 745              	.LVL91:
 746              		.loc 1 738 6 discriminator 1 view .LVU249
 747 00b0 09E0     		b	.L47
 748              	.LVL92:
 749              	.L58:
 736:Middlewares/Third_Party/LibJPEG/source/jdhuff.c **** 	CHECK_BIT_BUFFER(br_state, s, return FALSE);
 750              		.loc 1 736 2 is_stmt 1 discriminator 1 view .LVU250
 751 00b2 2346     		mov	r3, r4
 752 00b4 09A8     		add	r0, sp, #36
 753 00b6 FFF7FEFF 		bl	jpeg_fill_bit_buffer
 754              	.LVL93:
 736:Middlewares/Third_Party/LibJPEG/source/jdhuff.c **** 	CHECK_BIT_BUFFER(br_state, s, return FALSE);
 755              		.loc 1 736 2 is_stmt 0 discriminator 1 view .LVU251
 756 00ba 0028     		cmp	r0, #0
 757 00bc 55D0     		beq	.L53
 736:Middlewares/Third_Party/LibJPEG/source/jdhuff.c **** 	CHECK_BIT_BUFFER(br_state, s, return FALSE);
 758              		.loc 1 736 2 is_stmt 1 discriminator 4 view .LVU252
 759 00be 0B99     		ldr	r1, [sp, #44]
 760              	.LVL94:
 736:Middlewares/Third_Party/LibJPEG/source/jdhuff.c **** 	CHECK_BIT_BUFFER(br_state, s, return FALSE);
 761              		.loc 1 736 2 discriminator 4 view .LVU253
 762 00c0 0C9A     		ldr	r2, [sp, #48]
 763              	.LVL95:
 736:Middlewares/Third_Party/LibJPEG/source/jdhuff.c **** 	CHECK_BIT_BUFFER(br_state, s, return FALSE);
 764              		.loc 1 736 2 is_stmt 0 discriminator 4 view .LVU254
 765 00c2 E6E7     		b	.L48
 766              	.LVL96:
 767              	.L54:
 768              		.loc 1 738 6 discriminator 2 view .LVU255
 769 00c4 1C46     		mov	r4, r3
 770              	.LVL97:
 771              	.L47:
 739:Middlewares/Third_Party/LibJPEG/source/jdhuff.c ****       }
 740:Middlewares/Third_Party/LibJPEG/source/jdhuff.c **** 
 741:Middlewares/Third_Party/LibJPEG/source/jdhuff.c ****       /* Convert DC difference to actual value, update last_dc_val */
 742:Middlewares/Third_Party/LibJPEG/source/jdhuff.c ****       s += state.last_dc_val[ci];
 772              		.loc 1 742 7 is_stmt 1 view .LVU256
 773              		.loc 1 742 29 is_stmt 0 view .LVU257
ARM GAS  /var/folders/mq/wg13gp494590nh4zyt09lxf00000gn/T//ccUYufpr.s 			page 29


 774 00c6 0EAB     		add	r3, sp, #56
 775 00c8 03EB8505 		add	r5, r3, r5, lsl #2
 776              	.LVL98:
 777              		.loc 1 742 29 view .LVU258
 778 00cc 55F8243C 		ldr	r3, [r5, #-36]
 779              		.loc 1 742 9 view .LVU259
 780 00d0 2344     		add	r3, r3, r4
 781              	.LVL99:
 743:Middlewares/Third_Party/LibJPEG/source/jdhuff.c ****       state.last_dc_val[ci] = s;
 782              		.loc 1 743 7 is_stmt 1 view .LVU260
 783              		.loc 1 743 29 is_stmt 0 view .LVU261
 784 00d2 45F8243C 		str	r3, [r5, #-36]
 744:Middlewares/Third_Party/LibJPEG/source/jdhuff.c ****       /* Scale and output the coefficient (assumes jpeg_natural_order[0]=0) */
 745:Middlewares/Third_Party/LibJPEG/source/jdhuff.c ****       (*block)[0] = (JCOEF) (s << Al);
 785              		.loc 1 745 7 is_stmt 1 view .LVU262
 786              		.loc 1 745 32 is_stmt 0 view .LVU263
 787 00d6 03FA0BF3 		lsl	r3, r3, fp
 788              	.LVL100:
 789              		.loc 1 745 19 view .LVU264
 790 00da A8F80030 		strh	r3, [r8]	@ movhi
 725:Middlewares/Third_Party/LibJPEG/source/jdhuff.c ****       block = MCU_data[blkn];
 791              		.loc 1 725 53 is_stmt 1 discriminator 2 view .LVU265
 792 00de 0136     		adds	r6, r6, #1
 793              	.LVL101:
 794              	.L43:
 725:Middlewares/Third_Party/LibJPEG/source/jdhuff.c ****       block = MCU_data[blkn];
 795              		.loc 1 725 25 discriminator 1 view .LVU266
 725:Middlewares/Third_Party/LibJPEG/source/jdhuff.c ****       block = MCU_data[blkn];
 796              		.loc 1 725 32 is_stmt 0 discriminator 1 view .LVU267
 797 00e0 D7F86C31 		ldr	r3, [r7, #364]
 725:Middlewares/Third_Party/LibJPEG/source/jdhuff.c ****       block = MCU_data[blkn];
 798              		.loc 1 725 25 discriminator 1 view .LVU268
 799 00e4 B342     		cmp	r3, r6
 800 00e6 21DD     		ble	.L59
 726:Middlewares/Third_Party/LibJPEG/source/jdhuff.c ****       ci = cinfo->MCU_membership[blkn];
 801              		.loc 1 726 7 is_stmt 1 view .LVU269
 726:Middlewares/Third_Party/LibJPEG/source/jdhuff.c ****       ci = cinfo->MCU_membership[blkn];
 802              		.loc 1 726 13 is_stmt 0 view .LVU270
 803 00e8 5AF82680 		ldr	r8, [r10, r6, lsl #2]
 804              	.LVL102:
 727:Middlewares/Third_Party/LibJPEG/source/jdhuff.c ****       compptr = cinfo->cur_comp_info[ci];
 805              		.loc 1 727 7 is_stmt 1 view .LVU271
 727:Middlewares/Third_Party/LibJPEG/source/jdhuff.c ****       compptr = cinfo->cur_comp_info[ci];
 806              		.loc 1 727 10 is_stmt 0 view .LVU272
 807 00ec 06F15C03 		add	r3, r6, #92
 808 00f0 57F82350 		ldr	r5, [r7, r3, lsl #2]
 809              	.LVL103:
 728:Middlewares/Third_Party/LibJPEG/source/jdhuff.c ****       tbl = entropy->derived_tbls[compptr->dc_tbl_no];
 810              		.loc 1 728 7 is_stmt 1 view .LVU273
 728:Middlewares/Third_Party/LibJPEG/source/jdhuff.c ****       tbl = entropy->derived_tbls[compptr->dc_tbl_no];
 811              		.loc 1 728 15 is_stmt 0 view .LVU274
 812 00f4 05F15403 		add	r3, r5, #84
 813 00f8 07EB8303 		add	r3, r7, r3, lsl #2
 814 00fc 5B68     		ldr	r3, [r3, #4]
 815              	.LVL104:
 729:Middlewares/Third_Party/LibJPEG/source/jdhuff.c **** 
 816              		.loc 1 729 7 is_stmt 1 view .LVU275
ARM GAS  /var/folders/mq/wg13gp494590nh4zyt09lxf00000gn/T//ccUYufpr.s 			page 30


 729:Middlewares/Third_Party/LibJPEG/source/jdhuff.c **** 
 817              		.loc 1 729 42 is_stmt 0 view .LVU276
 818 00fe 5B69     		ldr	r3, [r3, #20]
 819              	.LVL105:
 729:Middlewares/Third_Party/LibJPEG/source/jdhuff.c **** 
 820              		.loc 1 729 11 view .LVU277
 821 0100 0A33     		adds	r3, r3, #10
 822 0102 09EB8303 		add	r3, r9, r3, lsl #2
 823 0106 5C68     		ldr	r4, [r3, #4]
 824              	.LVL106:
 825              	.LBB5:
 734:Middlewares/Third_Party/LibJPEG/source/jdhuff.c ****       if (s) {
 826              		.loc 1 734 7 is_stmt 1 view .LVU278
 734:Middlewares/Third_Party/LibJPEG/source/jdhuff.c ****       if (s) {
 827              		.loc 1 734 7 view .LVU279
 828 0108 072A     		cmp	r2, #7
 829 010a A9DD     		ble	.L60
 830              	.LVL107:
 831              	.L44:
 734:Middlewares/Third_Party/LibJPEG/source/jdhuff.c ****       if (s) {
 832              		.loc 1 734 7 discriminator 6 view .LVU280
 833 010c A2F10803 		sub	r3, r2, #8
 834 0110 41FA03F3 		asr	r3, r1, r3
 835 0114 DBB2     		uxtb	r3, r3
 836              	.LVL108:
 734:Middlewares/Third_Party/LibJPEG/source/jdhuff.c ****       if (s) {
 837              		.loc 1 734 7 discriminator 6 view .LVU281
 838 0116 03F12400 		add	r0, r3, #36
 839 011a 54F82000 		ldr	r0, [r4, r0, lsl #2]
 840              	.LVL109:
 734:Middlewares/Third_Party/LibJPEG/source/jdhuff.c ****       if (s) {
 841              		.loc 1 734 7 is_stmt 0 discriminator 6 view .LVU282
 842 011e 0028     		cmp	r0, #0
 843 0120 AAD0     		beq	.L52
 734:Middlewares/Third_Party/LibJPEG/source/jdhuff.c ****       if (s) {
 844              		.loc 1 734 7 is_stmt 1 discriminator 8 view .LVU283
 845 0122 121A     		subs	r2, r2, r0
 846              	.LVL110:
 734:Middlewares/Third_Party/LibJPEG/source/jdhuff.c ****       if (s) {
 847              		.loc 1 734 7 discriminator 8 view .LVU284
 848 0124 2344     		add	r3, r3, r4
 849              	.LVL111:
 734:Middlewares/Third_Party/LibJPEG/source/jdhuff.c ****       if (s) {
 850              		.loc 1 734 7 is_stmt 0 discriminator 8 view .LVU285
 851 0126 93F89044 		ldrb	r4, [r3, #1168]	@ zero_extendqisi2
 852              	.LVL112:
 734:Middlewares/Third_Party/LibJPEG/source/jdhuff.c ****       if (s) {
 853              		.loc 1 734 7 discriminator 8 view .LVU286
 854 012a AFE7     		b	.L46
 855              	.LVL113:
 856              	.L59:
 734:Middlewares/Third_Party/LibJPEG/source/jdhuff.c ****       if (s) {
 857              		.loc 1 734 7 discriminator 8 view .LVU287
 858              	.LBE5:
 746:Middlewares/Third_Party/LibJPEG/source/jdhuff.c ****     }
 747:Middlewares/Third_Party/LibJPEG/source/jdhuff.c **** 
 748:Middlewares/Third_Party/LibJPEG/source/jdhuff.c ****     /* Completed MCU, so update state */
ARM GAS  /var/folders/mq/wg13gp494590nh4zyt09lxf00000gn/T//ccUYufpr.s 			page 31


 749:Middlewares/Third_Party/LibJPEG/source/jdhuff.c ****     BITREAD_SAVE_STATE(cinfo,entropy->bitstate);
 859              		.loc 1 749 5 view .LVU288
 860 012c 8E46     		mov	lr, r1
 861 012e 9446     		mov	ip, r2
 862              		.loc 1 749 5 is_stmt 1 view .LVU289
 863 0130 BB69     		ldr	r3, [r7, #24]
 864 0132 099A     		ldr	r2, [sp, #36]
 865              	.LVL114:
 866              		.loc 1 749 5 is_stmt 0 view .LVU290
 867 0134 1A60     		str	r2, [r3]
 868              		.loc 1 749 5 is_stmt 1 view .LVU291
 869 0136 BB69     		ldr	r3, [r7, #24]
 870 0138 0A9A     		ldr	r2, [sp, #40]
 871 013a 5A60     		str	r2, [r3, #4]
 872              		.loc 1 749 5 view .LVU292
 873 013c C9F80810 		str	r1, [r9, #8]
 874              		.loc 1 749 5 view .LVU293
 875 0140 C9F80CC0 		str	ip, [r9, #12]
 750:Middlewares/Third_Party/LibJPEG/source/jdhuff.c ****     ASSIGN_STATE(entropy->saved, state);
 876              		.loc 1 750 5 view .LVU294
 877 0144 09F11004 		add	r4, r9, #16
 878 0148 04AD     		add	r5, sp, #16
 879 014a 0FCD     		ldmia	r5!, {r0, r1, r2, r3}
 880              	.LVL115:
 881              		.loc 1 750 5 is_stmt 0 view .LVU295
 882 014c 0FC4     		stmia	r4!, {r0, r1, r2, r3}
 883 014e 2B68     		ldr	r3, [r5]
 884 0150 2360     		str	r3, [r4]
 885              	.LVL116:
 886              	.L42:
 751:Middlewares/Third_Party/LibJPEG/source/jdhuff.c ****   }
 752:Middlewares/Third_Party/LibJPEG/source/jdhuff.c **** 
 753:Middlewares/Third_Party/LibJPEG/source/jdhuff.c ****   /* Account for restart interval (no-op if not using restarts) */
 754:Middlewares/Third_Party/LibJPEG/source/jdhuff.c ****   entropy->restarts_to_go--;
 887              		.loc 1 754 3 is_stmt 1 view .LVU296
 888              		.loc 1 754 10 is_stmt 0 view .LVU297
 889 0152 D9F82830 		ldr	r3, [r9, #40]
 890              		.loc 1 754 26 view .LVU298
 891 0156 013B     		subs	r3, r3, #1
 892 0158 C9F82830 		str	r3, [r9, #40]
 755:Middlewares/Third_Party/LibJPEG/source/jdhuff.c **** 
 756:Middlewares/Third_Party/LibJPEG/source/jdhuff.c ****   return TRUE;
 893              		.loc 1 756 3 is_stmt 1 view .LVU299
 894              		.loc 1 756 10 is_stmt 0 view .LVU300
 895 015c 0125     		movs	r5, #1
 896              	.L39:
 757:Middlewares/Third_Party/LibJPEG/source/jdhuff.c **** }
 897              		.loc 1 757 1 view .LVU301
 898 015e 2846     		mov	r0, r5
 899 0160 0FB0     		add	sp, sp, #60
 900              	.LCFI5:
 901              		.cfi_remember_state
 902              		.cfi_def_cfa_offset 36
 903              		@ sp needed
 904 0162 BDE8F08F 		pop	{r4, r5, r6, r7, r8, r9, r10, fp, pc}
 905              	.LVL117:
 906              	.L50:
ARM GAS  /var/folders/mq/wg13gp494590nh4zyt09lxf00000gn/T//ccUYufpr.s 			page 32


 907              	.LCFI6:
 908              		.cfi_restore_state
 909              	.LBB6:
 734:Middlewares/Third_Party/LibJPEG/source/jdhuff.c ****       if (s) {
 910              		.loc 1 734 7 discriminator 3 view .LVU302
 911 0166 0546     		mov	r5, r0
 912              	.LVL118:
 734:Middlewares/Third_Party/LibJPEG/source/jdhuff.c ****       if (s) {
 913              		.loc 1 734 7 discriminator 3 view .LVU303
 914 0168 F9E7     		b	.L39
 915              	.LVL119:
 916              	.L53:
 734:Middlewares/Third_Party/LibJPEG/source/jdhuff.c ****       if (s) {
 917              		.loc 1 734 7 discriminator 3 view .LVU304
 918              	.LBE6:
 736:Middlewares/Third_Party/LibJPEG/source/jdhuff.c **** 	r = GET_BITS(s);
 919              		.loc 1 736 2 discriminator 3 view .LVU305
 920 016a 0546     		mov	r5, r0
 921              	.LVL120:
 736:Middlewares/Third_Party/LibJPEG/source/jdhuff.c **** 	r = GET_BITS(s);
 922              		.loc 1 736 2 discriminator 3 view .LVU306
 923 016c F7E7     		b	.L39
 924              	.LVL121:
 925              	.L55:
 736:Middlewares/Third_Party/LibJPEG/source/jdhuff.c **** 	r = GET_BITS(s);
 926              		.loc 1 736 2 discriminator 3 view .LVU307
 927 016e 039D     		ldr	r5, [sp, #12]
 928              	.LVL122:
 736:Middlewares/Third_Party/LibJPEG/source/jdhuff.c **** 	r = GET_BITS(s);
 929              		.loc 1 736 2 discriminator 3 view .LVU308
 930 0170 F5E7     		b	.L39
 931              	.L62:
 932 0172 00BF     		.align	2
 933              	.L61:
 934 0174 00000000 		.word	bmask
 935              		.cfi_endproc
 936              	.LFE151:
 938              		.section	.text.decode_mcu_AC_first,"ax",%progbits
 939              		.align	1
 940              		.syntax unified
 941              		.thumb
 942              		.thumb_func
 944              	decode_mcu_AC_first:
 945              	.LVL123:
 946              	.LFB152:
 758:Middlewares/Third_Party/LibJPEG/source/jdhuff.c **** 
 759:Middlewares/Third_Party/LibJPEG/source/jdhuff.c **** 
 760:Middlewares/Third_Party/LibJPEG/source/jdhuff.c **** /*
 761:Middlewares/Third_Party/LibJPEG/source/jdhuff.c ****  * MCU decoding for AC initial scan (either spectral selection,
 762:Middlewares/Third_Party/LibJPEG/source/jdhuff.c ****  * or first pass of successive approximation).
 763:Middlewares/Third_Party/LibJPEG/source/jdhuff.c ****  */
 764:Middlewares/Third_Party/LibJPEG/source/jdhuff.c **** 
 765:Middlewares/Third_Party/LibJPEG/source/jdhuff.c **** METHODDEF(boolean)
 766:Middlewares/Third_Party/LibJPEG/source/jdhuff.c **** decode_mcu_AC_first (j_decompress_ptr cinfo, JBLOCKROW *MCU_data)
 767:Middlewares/Third_Party/LibJPEG/source/jdhuff.c **** {   
 947              		.loc 1 767 1 is_stmt 1 view -0
 948              		.cfi_startproc
ARM GAS  /var/folders/mq/wg13gp494590nh4zyt09lxf00000gn/T//ccUYufpr.s 			page 33


 949              		@ args = 0, pretend = 0, frame = 40
 950              		@ frame_needed = 0, uses_anonymous_args = 0
 951              		.loc 1 767 1 is_stmt 0 view .LVU310
 952 0000 2DE9F04F 		push	{r4, r5, r6, r7, r8, r9, r10, fp, lr}
 953              	.LCFI7:
 954              		.cfi_def_cfa_offset 36
 955              		.cfi_offset 4, -36
 956              		.cfi_offset 5, -32
 957              		.cfi_offset 6, -28
 958              		.cfi_offset 7, -24
 959              		.cfi_offset 8, -20
 960              		.cfi_offset 9, -16
 961              		.cfi_offset 10, -12
 962              		.cfi_offset 11, -8
 963              		.cfi_offset 14, -4
 964 0004 8DB0     		sub	sp, sp, #52
 965              	.LCFI8:
 966              		.cfi_def_cfa_offset 88
 967 0006 0746     		mov	r7, r0
 968 0008 0D46     		mov	r5, r1
 768:Middlewares/Third_Party/LibJPEG/source/jdhuff.c ****   huff_entropy_ptr entropy = (huff_entropy_ptr) cinfo->entropy;
 969              		.loc 1 768 3 is_stmt 1 view .LVU311
 970              		.loc 1 768 20 is_stmt 0 view .LVU312
 971 000a D0F8D041 		ldr	r4, [r0, #464]
 972              	.LVL124:
 769:Middlewares/Third_Party/LibJPEG/source/jdhuff.c ****   register int s, k, r;
 973              		.loc 1 769 3 is_stmt 1 view .LVU313
 770:Middlewares/Third_Party/LibJPEG/source/jdhuff.c ****   unsigned int EOBRUN;
 974              		.loc 1 770 3 view .LVU314
 771:Middlewares/Third_Party/LibJPEG/source/jdhuff.c ****   int Se, Al;
 975              		.loc 1 771 3 view .LVU315
 772:Middlewares/Third_Party/LibJPEG/source/jdhuff.c ****   const int * natural_order;
 976              		.loc 1 772 3 view .LVU316
 773:Middlewares/Third_Party/LibJPEG/source/jdhuff.c ****   JBLOCKROW block;
 977              		.loc 1 773 3 view .LVU317
 774:Middlewares/Third_Party/LibJPEG/source/jdhuff.c ****   BITREAD_STATE_VARS;
 978              		.loc 1 774 3 view .LVU318
 979              		.loc 1 774 3 view .LVU319
 980              		.loc 1 774 3 view .LVU320
 775:Middlewares/Third_Party/LibJPEG/source/jdhuff.c ****   d_derived_tbl * tbl;
 981              		.loc 1 775 3 view .LVU321
 776:Middlewares/Third_Party/LibJPEG/source/jdhuff.c **** 
 777:Middlewares/Third_Party/LibJPEG/source/jdhuff.c ****   /* Process restart marker if needed; may have to suspend */
 778:Middlewares/Third_Party/LibJPEG/source/jdhuff.c ****   if (cinfo->restart_interval) {
 982              		.loc 1 778 3 view .LVU322
 983              		.loc 1 778 12 is_stmt 0 view .LVU323
 984 000e D0F81831 		ldr	r3, [r0, #280]
 985              		.loc 1 778 6 view .LVU324
 986 0012 0BB1     		cbz	r3, .L64
 779:Middlewares/Third_Party/LibJPEG/source/jdhuff.c ****     if (entropy->restarts_to_go == 0)
 987              		.loc 1 779 5 is_stmt 1 view .LVU325
 988              		.loc 1 779 16 is_stmt 0 view .LVU326
 989 0014 A36A     		ldr	r3, [r4, #40]
 990              		.loc 1 779 8 view .LVU327
 991 0016 E3B1     		cbz	r3, .L88
 992              	.LVL125:
 993              	.L64:
ARM GAS  /var/folders/mq/wg13gp494590nh4zyt09lxf00000gn/T//ccUYufpr.s 			page 34


 780:Middlewares/Third_Party/LibJPEG/source/jdhuff.c ****       if (! process_restart(cinfo))
 781:Middlewares/Third_Party/LibJPEG/source/jdhuff.c **** 	return FALSE;
 782:Middlewares/Third_Party/LibJPEG/source/jdhuff.c ****   }
 783:Middlewares/Third_Party/LibJPEG/source/jdhuff.c **** 
 784:Middlewares/Third_Party/LibJPEG/source/jdhuff.c ****   /* If we've run out of data, just leave the MCU set to zeroes.
 785:Middlewares/Third_Party/LibJPEG/source/jdhuff.c ****    * This way, we return uniform gray for the remainder of the segment.
 786:Middlewares/Third_Party/LibJPEG/source/jdhuff.c ****    */
 787:Middlewares/Third_Party/LibJPEG/source/jdhuff.c ****   if (! entropy->insufficient_data) {
 994              		.loc 1 787 3 is_stmt 1 view .LVU328
 995              		.loc 1 787 16 is_stmt 0 view .LVU329
 996 0018 D4F824E0 		ldr	lr, [r4, #36]
 997              		.loc 1 787 6 view .LVU330
 998 001c BEF1000F 		cmp	lr, #0
 999 0020 0ED1     		bne	.L66
 788:Middlewares/Third_Party/LibJPEG/source/jdhuff.c **** 
 789:Middlewares/Third_Party/LibJPEG/source/jdhuff.c ****     Se = cinfo->Se;
 1000              		.loc 1 789 5 is_stmt 1 view .LVU331
 1001              		.loc 1 789 8 is_stmt 0 view .LVU332
 1002 0022 D7F89C91 		ldr	r9, [r7, #412]
 1003              	.LVL126:
 790:Middlewares/Third_Party/LibJPEG/source/jdhuff.c ****     Al = cinfo->Al;
 1004              		.loc 1 790 5 is_stmt 1 view .LVU333
 1005              		.loc 1 790 8 is_stmt 0 view .LVU334
 1006 0026 D7F8A4A1 		ldr	r10, [r7, #420]
 1007              	.LVL127:
 791:Middlewares/Third_Party/LibJPEG/source/jdhuff.c ****     natural_order = cinfo->natural_order;
 1008              		.loc 1 791 5 is_stmt 1 view .LVU335
 1009              		.loc 1 791 19 is_stmt 0 view .LVU336
 1010 002a D7F8ACB1 		ldr	fp, [r7, #428]
 1011              	.LVL128:
 792:Middlewares/Third_Party/LibJPEG/source/jdhuff.c **** 
 793:Middlewares/Third_Party/LibJPEG/source/jdhuff.c ****     /* Load up working state.
 794:Middlewares/Third_Party/LibJPEG/source/jdhuff.c ****      * We can avoid loading/saving bitread state if in an EOB run.
 795:Middlewares/Third_Party/LibJPEG/source/jdhuff.c ****      */
 796:Middlewares/Third_Party/LibJPEG/source/jdhuff.c ****     EOBRUN = entropy->saved.EOBRUN;	/* only part of saved state we need */
 1012              		.loc 1 796 5 is_stmt 1 view .LVU337
 1013              		.loc 1 796 12 is_stmt 0 view .LVU338
 1014 002e D4F810C0 		ldr	ip, [r4, #16]
 1015              	.LVL129:
 797:Middlewares/Third_Party/LibJPEG/source/jdhuff.c **** 
 798:Middlewares/Third_Party/LibJPEG/source/jdhuff.c ****     /* There is always only one block per MCU */
 799:Middlewares/Third_Party/LibJPEG/source/jdhuff.c **** 
 800:Middlewares/Third_Party/LibJPEG/source/jdhuff.c ****     if (EOBRUN > 0)		/* if it's a band of zeroes... */
 1016              		.loc 1 800 5 is_stmt 1 view .LVU339
 1017              		.loc 1 800 8 is_stmt 0 view .LVU340
 1018 0032 BCF1000F 		cmp	ip, #0
 1019 0036 12D0     		beq	.L67
 801:Middlewares/Third_Party/LibJPEG/source/jdhuff.c ****       EOBRUN--;			/* ...process it now (we do nothing) */
 1020              		.loc 1 801 7 is_stmt 1 view .LVU341
 1021              		.loc 1 801 13 is_stmt 0 view .LVU342
 1022 0038 0CF1FF3C 		add	ip, ip, #-1
 1023              	.LVL130:
 1024              	.L68:
 802:Middlewares/Third_Party/LibJPEG/source/jdhuff.c ****     else {
 803:Middlewares/Third_Party/LibJPEG/source/jdhuff.c ****       BITREAD_LOAD_STATE(cinfo,entropy->bitstate);
 804:Middlewares/Third_Party/LibJPEG/source/jdhuff.c ****       block = MCU_data[0];
 805:Middlewares/Third_Party/LibJPEG/source/jdhuff.c ****       tbl = entropy->ac_derived_tbl;
ARM GAS  /var/folders/mq/wg13gp494590nh4zyt09lxf00000gn/T//ccUYufpr.s 			page 35


 806:Middlewares/Third_Party/LibJPEG/source/jdhuff.c **** 
 807:Middlewares/Third_Party/LibJPEG/source/jdhuff.c ****       for (k = cinfo->Ss; k <= Se; k++) {
 808:Middlewares/Third_Party/LibJPEG/source/jdhuff.c **** 	HUFF_DECODE(s, br_state, tbl, return FALSE, label2);
 809:Middlewares/Third_Party/LibJPEG/source/jdhuff.c **** 	r = s >> 4;
 810:Middlewares/Third_Party/LibJPEG/source/jdhuff.c **** 	s &= 15;
 811:Middlewares/Third_Party/LibJPEG/source/jdhuff.c **** 	if (s) {
 812:Middlewares/Third_Party/LibJPEG/source/jdhuff.c **** 	  k += r;
 813:Middlewares/Third_Party/LibJPEG/source/jdhuff.c **** 	  CHECK_BIT_BUFFER(br_state, s, return FALSE);
 814:Middlewares/Third_Party/LibJPEG/source/jdhuff.c **** 	  r = GET_BITS(s);
 815:Middlewares/Third_Party/LibJPEG/source/jdhuff.c **** 	  s = HUFF_EXTEND(r, s);
 816:Middlewares/Third_Party/LibJPEG/source/jdhuff.c **** 	  /* Scale and output coefficient in natural (dezigzagged) order */
 817:Middlewares/Third_Party/LibJPEG/source/jdhuff.c **** 	  (*block)[natural_order[k]] = (JCOEF) (s << Al);
 818:Middlewares/Third_Party/LibJPEG/source/jdhuff.c **** 	} else {
 819:Middlewares/Third_Party/LibJPEG/source/jdhuff.c **** 	  if (r == 15) {	/* ZRL */
 820:Middlewares/Third_Party/LibJPEG/source/jdhuff.c **** 	    k += 15;		/* skip 15 zeroes in band */
 821:Middlewares/Third_Party/LibJPEG/source/jdhuff.c **** 	  } else {		/* EOBr, run length is 2^r + appended bits */
 822:Middlewares/Third_Party/LibJPEG/source/jdhuff.c **** 	    EOBRUN = 1 << r;
 823:Middlewares/Third_Party/LibJPEG/source/jdhuff.c **** 	    if (r) {		/* EOBr, r > 0 */
 824:Middlewares/Third_Party/LibJPEG/source/jdhuff.c **** 	      CHECK_BIT_BUFFER(br_state, r, return FALSE);
 825:Middlewares/Third_Party/LibJPEG/source/jdhuff.c **** 	      r = GET_BITS(r);
 826:Middlewares/Third_Party/LibJPEG/source/jdhuff.c **** 	      EOBRUN += r;
 827:Middlewares/Third_Party/LibJPEG/source/jdhuff.c **** 	    }
 828:Middlewares/Third_Party/LibJPEG/source/jdhuff.c **** 	    EOBRUN--;		/* this band is processed at this moment */
 829:Middlewares/Third_Party/LibJPEG/source/jdhuff.c **** 	    break;		/* force end-of-band */
 830:Middlewares/Third_Party/LibJPEG/source/jdhuff.c **** 	  }
 831:Middlewares/Third_Party/LibJPEG/source/jdhuff.c **** 	}
 832:Middlewares/Third_Party/LibJPEG/source/jdhuff.c ****       }
 833:Middlewares/Third_Party/LibJPEG/source/jdhuff.c **** 
 834:Middlewares/Third_Party/LibJPEG/source/jdhuff.c ****       BITREAD_SAVE_STATE(cinfo,entropy->bitstate);
 835:Middlewares/Third_Party/LibJPEG/source/jdhuff.c ****     }
 836:Middlewares/Third_Party/LibJPEG/source/jdhuff.c **** 
 837:Middlewares/Third_Party/LibJPEG/source/jdhuff.c ****     /* Completed MCU, so update state */
 838:Middlewares/Third_Party/LibJPEG/source/jdhuff.c ****     entropy->saved.EOBRUN = EOBRUN;	/* only part of saved state we need */
 1025              		.loc 1 838 5 is_stmt 1 view .LVU343
 1026              		.loc 1 838 27 is_stmt 0 view .LVU344
 1027 003c C4F810C0 		str	ip, [r4, #16]
 1028              	.LVL131:
 1029              	.L66:
 839:Middlewares/Third_Party/LibJPEG/source/jdhuff.c ****   }
 840:Middlewares/Third_Party/LibJPEG/source/jdhuff.c **** 
 841:Middlewares/Third_Party/LibJPEG/source/jdhuff.c ****   /* Account for restart interval (no-op if not using restarts) */
 842:Middlewares/Third_Party/LibJPEG/source/jdhuff.c ****   entropy->restarts_to_go--;
 1030              		.loc 1 842 3 is_stmt 1 view .LVU345
 1031              		.loc 1 842 10 is_stmt 0 view .LVU346
 1032 0040 A36A     		ldr	r3, [r4, #40]
 1033              		.loc 1 842 26 view .LVU347
 1034 0042 013B     		subs	r3, r3, #1
 1035 0044 A362     		str	r3, [r4, #40]
 843:Middlewares/Third_Party/LibJPEG/source/jdhuff.c **** 
 844:Middlewares/Third_Party/LibJPEG/source/jdhuff.c ****   return TRUE;
 1036              		.loc 1 844 3 is_stmt 1 view .LVU348
 1037              		.loc 1 844 10 is_stmt 0 view .LVU349
 1038 0046 4FF0010E 		mov	lr, #1
 1039              	.L63:
 845:Middlewares/Third_Party/LibJPEG/source/jdhuff.c **** }
 1040              		.loc 1 845 1 view .LVU350
 1041 004a 7046     		mov	r0, lr
ARM GAS  /var/folders/mq/wg13gp494590nh4zyt09lxf00000gn/T//ccUYufpr.s 			page 36


 1042 004c 0DB0     		add	sp, sp, #52
 1043              	.LCFI9:
 1044              		.cfi_remember_state
 1045              		.cfi_def_cfa_offset 36
 1046              		@ sp needed
 1047 004e BDE8F08F 		pop	{r4, r5, r6, r7, r8, r9, r10, fp, pc}
 1048              	.LVL132:
 1049              	.L88:
 1050              	.LCFI10:
 1051              		.cfi_restore_state
 780:Middlewares/Third_Party/LibJPEG/source/jdhuff.c **** 	return FALSE;
 1052              		.loc 1 780 7 is_stmt 1 view .LVU351
 780:Middlewares/Third_Party/LibJPEG/source/jdhuff.c **** 	return FALSE;
 1053              		.loc 1 780 13 is_stmt 0 view .LVU352
 1054 0052 FFF7FEFF 		bl	process_restart
 1055              	.LVL133:
 780:Middlewares/Third_Party/LibJPEG/source/jdhuff.c **** 	return FALSE;
 1056              		.loc 1 780 10 discriminator 1 view .LVU353
 1057 0056 8646     		mov	lr, r0
 1058 0058 0028     		cmp	r0, #0
 1059 005a DDD1     		bne	.L64
 1060 005c F5E7     		b	.L63
 1061              	.LVL134:
 1062              	.L67:
 803:Middlewares/Third_Party/LibJPEG/source/jdhuff.c ****       block = MCU_data[0];
 1063              		.loc 1 803 7 is_stmt 1 view .LVU354
 1064 005e 0B97     		str	r7, [sp, #44]
 803:Middlewares/Third_Party/LibJPEG/source/jdhuff.c ****       block = MCU_data[0];
 1065              		.loc 1 803 7 view .LVU355
 1066 0060 BA69     		ldr	r2, [r7, #24]
 1067 0062 1368     		ldr	r3, [r2]
 1068 0064 0793     		str	r3, [sp, #28]
 803:Middlewares/Third_Party/LibJPEG/source/jdhuff.c ****       block = MCU_data[0];
 1069              		.loc 1 803 7 view .LVU356
 1070 0066 5368     		ldr	r3, [r2, #4]
 1071 0068 0893     		str	r3, [sp, #32]
 803:Middlewares/Third_Party/LibJPEG/source/jdhuff.c ****       block = MCU_data[0];
 1072              		.loc 1 803 7 view .LVU357
 1073 006a A168     		ldr	r1, [r4, #8]
 1074              	.LVL135:
 803:Middlewares/Third_Party/LibJPEG/source/jdhuff.c ****       block = MCU_data[0];
 1075              		.loc 1 803 7 view .LVU358
 1076 006c E268     		ldr	r2, [r4, #12]
 1077              	.LVL136:
 803:Middlewares/Third_Party/LibJPEG/source/jdhuff.c ****       block = MCU_data[0];
 1078              		.loc 1 803 50 view .LVU359
 804:Middlewares/Third_Party/LibJPEG/source/jdhuff.c ****       tbl = entropy->ac_derived_tbl;
 1079              		.loc 1 804 7 view .LVU360
 804:Middlewares/Third_Party/LibJPEG/source/jdhuff.c ****       tbl = entropy->ac_derived_tbl;
 1080              		.loc 1 804 13 is_stmt 0 view .LVU361
 1081 006e 2B68     		ldr	r3, [r5]
 1082              	.LVL137:
 805:Middlewares/Third_Party/LibJPEG/source/jdhuff.c **** 
 1083              		.loc 1 805 7 is_stmt 1 view .LVU362
 805:Middlewares/Third_Party/LibJPEG/source/jdhuff.c **** 
 1084              		.loc 1 805 11 is_stmt 0 view .LVU363
 1085 0070 E66B     		ldr	r6, [r4, #60]
ARM GAS  /var/folders/mq/wg13gp494590nh4zyt09lxf00000gn/T//ccUYufpr.s 			page 37


 1086              	.LVL138:
 807:Middlewares/Third_Party/LibJPEG/source/jdhuff.c **** 	HUFF_DECODE(s, br_state, tbl, return FALSE, label2);
 1087              		.loc 1 807 7 is_stmt 1 view .LVU364
 807:Middlewares/Third_Party/LibJPEG/source/jdhuff.c **** 	HUFF_DECODE(s, br_state, tbl, return FALSE, label2);
 1088              		.loc 1 807 14 is_stmt 0 view .LVU365
 1089 0072 D7F89851 		ldr	r5, [r7, #408]
 1090              	.LVL139:
 807:Middlewares/Third_Party/LibJPEG/source/jdhuff.c **** 	HUFF_DECODE(s, br_state, tbl, return FALSE, label2);
 1091              		.loc 1 807 14 view .LVU366
 1092 0076 CDF810C0 		str	ip, [sp, #16]
 1093 007a 0294     		str	r4, [sp, #8]
 1094 007c 9846     		mov	r8, r3
 1095 007e CDF814E0 		str	lr, [sp, #20]
 1096 0082 0397     		str	r7, [sp, #12]
 807:Middlewares/Third_Party/LibJPEG/source/jdhuff.c **** 	HUFF_DECODE(s, br_state, tbl, return FALSE, label2);
 1097              		.loc 1 807 7 view .LVU367
 1098 0084 30E0     		b	.L69
 1099              	.LVL140:
 1100              	.L91:
 1101              	.LBB7:
 808:Middlewares/Third_Party/LibJPEG/source/jdhuff.c **** 	r = s >> 4;
 1102              		.loc 1 808 2 is_stmt 1 discriminator 1 view .LVU368
 1103 0086 0023     		movs	r3, #0
 1104 0088 07A8     		add	r0, sp, #28
 1105 008a FFF7FEFF 		bl	jpeg_fill_bit_buffer
 1106              	.LVL141:
 808:Middlewares/Third_Party/LibJPEG/source/jdhuff.c **** 	r = s >> 4;
 1107              		.loc 1 808 2 is_stmt 0 discriminator 1 view .LVU369
 1108 008e 0028     		cmp	r0, #0
 1109 0090 76D0     		beq	.L82
 808:Middlewares/Third_Party/LibJPEG/source/jdhuff.c **** 	r = s >> 4;
 1110              		.loc 1 808 2 is_stmt 1 discriminator 4 view .LVU370
 1111 0092 0999     		ldr	r1, [sp, #36]
 1112              	.LVL142:
 808:Middlewares/Third_Party/LibJPEG/source/jdhuff.c **** 	r = s >> 4;
 1113              		.loc 1 808 2 discriminator 4 view .LVU371
 1114 0094 0A9A     		ldr	r2, [sp, #40]
 1115              	.LVL143:
 808:Middlewares/Third_Party/LibJPEG/source/jdhuff.c **** 	r = s >> 4;
 1116              		.loc 1 808 2 discriminator 4 view .LVU372
 1117 0096 072A     		cmp	r2, #7
 1118 0098 2ADC     		bgt	.L70
 808:Middlewares/Third_Party/LibJPEG/source/jdhuff.c **** 	r = s >> 4;
 1119              		.loc 1 808 2 is_stmt 0 discriminator 5 view .LVU373
 1120 009a 0123     		movs	r3, #1
 1121 009c 00E0     		b	.L71
 1122              	.LVL144:
 1123              	.L84:
 808:Middlewares/Third_Party/LibJPEG/source/jdhuff.c **** 	r = s >> 4;
 1124              		.loc 1 808 2 discriminator 9 view .LVU374
 1125 009e 0923     		movs	r3, #9
 1126              	.LVL145:
 1127              	.L71:
 808:Middlewares/Third_Party/LibJPEG/source/jdhuff.c **** 	r = s >> 4;
 1128              		.loc 1 808 2 is_stmt 1 discriminator 11 view .LVU375
 1129 00a0 0093     		str	r3, [sp]
 1130 00a2 3346     		mov	r3, r6
ARM GAS  /var/folders/mq/wg13gp494590nh4zyt09lxf00000gn/T//ccUYufpr.s 			page 38


 1131              	.LVL146:
 808:Middlewares/Third_Party/LibJPEG/source/jdhuff.c **** 	r = s >> 4;
 1132              		.loc 1 808 2 is_stmt 0 discriminator 11 view .LVU376
 1133 00a4 07A8     		add	r0, sp, #28
 1134 00a6 FFF7FEFF 		bl	jpeg_huff_decode
 1135              	.LVL147:
 808:Middlewares/Third_Party/LibJPEG/source/jdhuff.c **** 	r = s >> 4;
 1136              		.loc 1 808 2 discriminator 1 view .LVU377
 1137 00aa 041E     		subs	r4, r0, #0
 1138 00ac 6CDB     		blt	.L86
 808:Middlewares/Third_Party/LibJPEG/source/jdhuff.c **** 	r = s >> 4;
 1139              		.loc 1 808 2 is_stmt 1 discriminator 13 view .LVU378
 1140 00ae 0999     		ldr	r1, [sp, #36]
 1141              	.LVL148:
 808:Middlewares/Third_Party/LibJPEG/source/jdhuff.c **** 	r = s >> 4;
 1142              		.loc 1 808 2 discriminator 13 view .LVU379
 1143 00b0 0A9A     		ldr	r2, [sp, #40]
 1144              	.LVL149:
 1145              	.L72:
 808:Middlewares/Third_Party/LibJPEG/source/jdhuff.c **** 	r = s >> 4;
 1146              		.loc 1 808 2 is_stmt 0 discriminator 13 view .LVU380
 1147              	.LBE7:
 808:Middlewares/Third_Party/LibJPEG/source/jdhuff.c **** 	r = s >> 4;
 1148              		.loc 1 808 53 is_stmt 1 discriminator 14 view .LVU381
 809:Middlewares/Third_Party/LibJPEG/source/jdhuff.c **** 	s &= 15;
 1149              		.loc 1 809 2 view .LVU382
 809:Middlewares/Third_Party/LibJPEG/source/jdhuff.c **** 	s &= 15;
 1150              		.loc 1 809 4 is_stmt 0 view .LVU383
 1151 00b2 2311     		asrs	r3, r4, #4
 1152              	.LVL150:
 810:Middlewares/Third_Party/LibJPEG/source/jdhuff.c **** 	if (s) {
 1153              		.loc 1 810 2 is_stmt 1 view .LVU384
 811:Middlewares/Third_Party/LibJPEG/source/jdhuff.c **** 	  k += r;
 1154              		.loc 1 811 2 view .LVU385
 811:Middlewares/Third_Party/LibJPEG/source/jdhuff.c **** 	  k += r;
 1155              		.loc 1 811 5 is_stmt 0 view .LVU386
 1156 00b4 14F00F04 		ands	r4, r4, #15
 1157              	.LVL151:
 811:Middlewares/Third_Party/LibJPEG/source/jdhuff.c **** 	  k += r;
 1158              		.loc 1 811 5 view .LVU387
 1159 00b8 33D0     		beq	.L73
 812:Middlewares/Third_Party/LibJPEG/source/jdhuff.c **** 	  CHECK_BIT_BUFFER(br_state, s, return FALSE);
 1160              		.loc 1 812 4 is_stmt 1 view .LVU388
 812:Middlewares/Third_Party/LibJPEG/source/jdhuff.c **** 	  CHECK_BIT_BUFFER(br_state, s, return FALSE);
 1161              		.loc 1 812 6 is_stmt 0 view .LVU389
 1162 00ba 1D44     		add	r5, r5, r3
 1163              	.LVL152:
 813:Middlewares/Third_Party/LibJPEG/source/jdhuff.c **** 	  r = GET_BITS(s);
 1164              		.loc 1 813 4 is_stmt 1 view .LVU390
 1165 00bc A242     		cmp	r2, r4
 1166 00be 27DB     		blt	.L89
 1167              	.LVL153:
 1168              	.L74:
 813:Middlewares/Third_Party/LibJPEG/source/jdhuff.c **** 	  r = GET_BITS(s);
 1169              		.loc 1 813 47 discriminator 5 view .LVU391
 814:Middlewares/Third_Party/LibJPEG/source/jdhuff.c **** 	  s = HUFF_EXTEND(r, s);
 1170              		.loc 1 814 4 view .LVU392
ARM GAS  /var/folders/mq/wg13gp494590nh4zyt09lxf00000gn/T//ccUYufpr.s 			page 39


 814:Middlewares/Third_Party/LibJPEG/source/jdhuff.c **** 	  s = HUFF_EXTEND(r, s);
 1171              		.loc 1 814 8 is_stmt 0 view .LVU393
 1172 00c0 121B     		subs	r2, r2, r4
 1173              	.LVL154:
 814:Middlewares/Third_Party/LibJPEG/source/jdhuff.c **** 	  s = HUFF_EXTEND(r, s);
 1174              		.loc 1 814 8 view .LVU394
 1175 00c2 41FA02F3 		asr	r3, r1, r2
 1176 00c6 3248     		ldr	r0, .L93
 1177 00c8 50F82470 		ldr	r7, [r0, r4, lsl #2]
 814:Middlewares/Third_Party/LibJPEG/source/jdhuff.c **** 	  s = HUFF_EXTEND(r, s);
 1178              		.loc 1 814 6 view .LVU395
 1179 00cc 3B40     		ands	r3, r3, r7
 1180              	.LVL155:
 815:Middlewares/Third_Party/LibJPEG/source/jdhuff.c **** 	  /* Scale and output coefficient in natural (dezigzagged) order */
 1181              		.loc 1 815 4 is_stmt 1 view .LVU396
 815:Middlewares/Third_Party/LibJPEG/source/jdhuff.c **** 	  /* Scale and output coefficient in natural (dezigzagged) order */
 1182              		.loc 1 815 8 is_stmt 0 view .LVU397
 1183 00ce 013C     		subs	r4, r4, #1
 1184              	.LVL156:
 815:Middlewares/Third_Party/LibJPEG/source/jdhuff.c **** 	  /* Scale and output coefficient in natural (dezigzagged) order */
 1185              		.loc 1 815 8 view .LVU398
 1186 00d0 50F82400 		ldr	r0, [r0, r4, lsl #2]
 1187 00d4 9842     		cmp	r0, r3
 1188 00d6 00DB     		blt	.L75
 815:Middlewares/Third_Party/LibJPEG/source/jdhuff.c **** 	  /* Scale and output coefficient in natural (dezigzagged) order */
 1189              		.loc 1 815 8 discriminator 1 view .LVU399
 1190 00d8 DB1B     		subs	r3, r3, r7
 1191              	.LVL157:
 1192              	.L75:
 817:Middlewares/Third_Party/LibJPEG/source/jdhuff.c **** 	} else {
 1193              		.loc 1 817 4 is_stmt 1 view .LVU400
 817:Middlewares/Third_Party/LibJPEG/source/jdhuff.c **** 	} else {
 1194              		.loc 1 817 44 is_stmt 0 view .LVU401
 1195 00da 03FA0AF3 		lsl	r3, r3, r10
 1196              	.LVL158:
 817:Middlewares/Third_Party/LibJPEG/source/jdhuff.c **** 	} else {
 1197              		.loc 1 817 26 view .LVU402
 1198 00de 5BF82500 		ldr	r0, [fp, r5, lsl #2]
 817:Middlewares/Third_Party/LibJPEG/source/jdhuff.c **** 	} else {
 1199              		.loc 1 817 31 view .LVU403
 1200 00e2 28F81030 		strh	r3, [r8, r0, lsl #1]	@ movhi
 1201              	.LVL159:
 1202              	.L76:
 807:Middlewares/Third_Party/LibJPEG/source/jdhuff.c **** 	HUFF_DECODE(s, br_state, tbl, return FALSE, label2);
 1203              		.loc 1 807 37 is_stmt 1 discriminator 2 view .LVU404
 1204 00e6 0135     		adds	r5, r5, #1
 1205              	.LVL160:
 1206              	.L69:
 807:Middlewares/Third_Party/LibJPEG/source/jdhuff.c **** 	HUFF_DECODE(s, br_state, tbl, return FALSE, label2);
 1207              		.loc 1 807 29 discriminator 1 view .LVU405
 1208 00e8 4D45     		cmp	r5, r9
 1209 00ea 3CDC     		bgt	.L90
 1210              	.LBB8:
 808:Middlewares/Third_Party/LibJPEG/source/jdhuff.c **** 	r = s >> 4;
 1211              		.loc 1 808 2 view .LVU406
 808:Middlewares/Third_Party/LibJPEG/source/jdhuff.c **** 	r = s >> 4;
 1212              		.loc 1 808 2 view .LVU407
ARM GAS  /var/folders/mq/wg13gp494590nh4zyt09lxf00000gn/T//ccUYufpr.s 			page 40


 1213 00ec 072A     		cmp	r2, #7
 1214 00ee CADD     		ble	.L91
 1215              	.L70:
 808:Middlewares/Third_Party/LibJPEG/source/jdhuff.c **** 	r = s >> 4;
 1216              		.loc 1 808 2 discriminator 6 view .LVU408
 1217 00f0 A2F10803 		sub	r3, r2, #8
 1218 00f4 41FA03F3 		asr	r3, r1, r3
 1219 00f8 DBB2     		uxtb	r3, r3
 1220              	.LVL161:
 808:Middlewares/Third_Party/LibJPEG/source/jdhuff.c **** 	r = s >> 4;
 1221              		.loc 1 808 2 discriminator 6 view .LVU409
 1222 00fa 03F12400 		add	r0, r3, #36
 1223 00fe 56F82000 		ldr	r0, [r6, r0, lsl #2]
 1224              	.LVL162:
 808:Middlewares/Third_Party/LibJPEG/source/jdhuff.c **** 	r = s >> 4;
 1225              		.loc 1 808 2 is_stmt 0 discriminator 6 view .LVU410
 1226 0102 0028     		cmp	r0, #0
 1227 0104 CBD0     		beq	.L84
 808:Middlewares/Third_Party/LibJPEG/source/jdhuff.c **** 	r = s >> 4;
 1228              		.loc 1 808 2 is_stmt 1 discriminator 8 view .LVU411
 1229 0106 121A     		subs	r2, r2, r0
 1230              	.LVL163:
 808:Middlewares/Third_Party/LibJPEG/source/jdhuff.c **** 	r = s >> 4;
 1231              		.loc 1 808 2 discriminator 8 view .LVU412
 1232 0108 3344     		add	r3, r3, r6
 1233              	.LVL164:
 808:Middlewares/Third_Party/LibJPEG/source/jdhuff.c **** 	r = s >> 4;
 1234              		.loc 1 808 2 is_stmt 0 discriminator 8 view .LVU413
 1235 010a 93F89044 		ldrb	r4, [r3, #1168]	@ zero_extendqisi2
 1236              	.LVL165:
 808:Middlewares/Third_Party/LibJPEG/source/jdhuff.c **** 	r = s >> 4;
 1237              		.loc 1 808 2 discriminator 8 view .LVU414
 1238 010e D0E7     		b	.L72
 1239              	.LVL166:
 1240              	.L89:
 808:Middlewares/Third_Party/LibJPEG/source/jdhuff.c **** 	r = s >> 4;
 1241              		.loc 1 808 2 discriminator 8 view .LVU415
 1242              	.LBE8:
 813:Middlewares/Third_Party/LibJPEG/source/jdhuff.c **** 	  r = GET_BITS(s);
 1243              		.loc 1 813 4 is_stmt 1 discriminator 1 view .LVU416
 1244 0110 2346     		mov	r3, r4
 1245              	.LVL167:
 813:Middlewares/Third_Party/LibJPEG/source/jdhuff.c **** 	  r = GET_BITS(s);
 1246              		.loc 1 813 4 is_stmt 0 discriminator 1 view .LVU417
 1247 0112 07A8     		add	r0, sp, #28
 1248 0114 FFF7FEFF 		bl	jpeg_fill_bit_buffer
 1249              	.LVL168:
 813:Middlewares/Third_Party/LibJPEG/source/jdhuff.c **** 	  r = GET_BITS(s);
 1250              		.loc 1 813 4 discriminator 1 view .LVU418
 1251 0118 0028     		cmp	r0, #0
 1252 011a 33D0     		beq	.L85
 813:Middlewares/Third_Party/LibJPEG/source/jdhuff.c **** 	  r = GET_BITS(s);
 1253              		.loc 1 813 4 is_stmt 1 discriminator 4 view .LVU419
 1254 011c 0999     		ldr	r1, [sp, #36]
 1255              	.LVL169:
 813:Middlewares/Third_Party/LibJPEG/source/jdhuff.c **** 	  r = GET_BITS(s);
 1256              		.loc 1 813 4 discriminator 4 view .LVU420
ARM GAS  /var/folders/mq/wg13gp494590nh4zyt09lxf00000gn/T//ccUYufpr.s 			page 41


 1257 011e 0A9A     		ldr	r2, [sp, #40]
 1258              	.LVL170:
 813:Middlewares/Third_Party/LibJPEG/source/jdhuff.c **** 	  r = GET_BITS(s);
 1259              		.loc 1 813 4 is_stmt 0 discriminator 4 view .LVU421
 1260 0120 CEE7     		b	.L74
 1261              	.LVL171:
 1262              	.L73:
 819:Middlewares/Third_Party/LibJPEG/source/jdhuff.c **** 	    k += 15;		/* skip 15 zeroes in band */
 1263              		.loc 1 819 4 is_stmt 1 view .LVU422
 819:Middlewares/Third_Party/LibJPEG/source/jdhuff.c **** 	    k += 15;		/* skip 15 zeroes in band */
 1264              		.loc 1 819 7 is_stmt 0 view .LVU423
 1265 0122 0F2B     		cmp	r3, #15
 1266 0124 01D1     		bne	.L77
 820:Middlewares/Third_Party/LibJPEG/source/jdhuff.c **** 	  } else {		/* EOBr, run length is 2^r + appended bits */
 1267              		.loc 1 820 6 is_stmt 1 view .LVU424
 820:Middlewares/Third_Party/LibJPEG/source/jdhuff.c **** 	  } else {		/* EOBr, run length is 2^r + appended bits */
 1268              		.loc 1 820 8 is_stmt 0 view .LVU425
 1269 0126 0F35     		adds	r5, r5, #15
 1270              	.LVL172:
 820:Middlewares/Third_Party/LibJPEG/source/jdhuff.c **** 	  } else {		/* EOBr, run length is 2^r + appended bits */
 1271              		.loc 1 820 8 view .LVU426
 1272 0128 DDE7     		b	.L76
 1273              	.L77:
 822:Middlewares/Third_Party/LibJPEG/source/jdhuff.c **** 	    if (r) {		/* EOBr, r > 0 */
 1274              		.loc 1 822 17 view .LVU427
 1275 012a 029C     		ldr	r4, [sp, #8]
 1276              	.LVL173:
 822:Middlewares/Third_Party/LibJPEG/source/jdhuff.c **** 	    if (r) {		/* EOBr, r > 0 */
 1277              		.loc 1 822 17 view .LVU428
 1278 012c 9846     		mov	r8, r3
 1279              	.LVL174:
 822:Middlewares/Third_Party/LibJPEG/source/jdhuff.c **** 	    if (r) {		/* EOBr, r > 0 */
 1280              		.loc 1 822 17 view .LVU429
 1281 012e 039F     		ldr	r7, [sp, #12]
 822:Middlewares/Third_Party/LibJPEG/source/jdhuff.c **** 	    if (r) {		/* EOBr, r > 0 */
 1282              		.loc 1 822 6 is_stmt 1 view .LVU430
 822:Middlewares/Third_Party/LibJPEG/source/jdhuff.c **** 	    if (r) {		/* EOBr, r > 0 */
 1283              		.loc 1 822 17 is_stmt 0 view .LVU431
 1284 0130 0125     		movs	r5, #1
 1285              	.LVL175:
 822:Middlewares/Third_Party/LibJPEG/source/jdhuff.c **** 	    if (r) {		/* EOBr, r > 0 */
 1286              		.loc 1 822 17 view .LVU432
 1287 0132 9D40     		lsls	r5, r5, r3
 1288              	.LVL176:
 823:Middlewares/Third_Party/LibJPEG/source/jdhuff.c **** 	      CHECK_BIT_BUFFER(br_state, r, return FALSE);
 1289              		.loc 1 823 6 is_stmt 1 view .LVU433
 823:Middlewares/Third_Party/LibJPEG/source/jdhuff.c **** 	      CHECK_BIT_BUFFER(br_state, r, return FALSE);
 1290              		.loc 1 823 9 is_stmt 0 view .LVU434
 1291 0134 53B1     		cbz	r3, .L78
 824:Middlewares/Third_Party/LibJPEG/source/jdhuff.c **** 	      r = GET_BITS(r);
 1292              		.loc 1 824 8 is_stmt 1 view .LVU435
 1293 0136 9A42     		cmp	r2, r3
 1294 0138 0BDB     		blt	.L92
 1295              	.LVL177:
 1296              	.L79:
 824:Middlewares/Third_Party/LibJPEG/source/jdhuff.c **** 	      r = GET_BITS(r);
 1297              		.loc 1 824 51 discriminator 5 view .LVU436
ARM GAS  /var/folders/mq/wg13gp494590nh4zyt09lxf00000gn/T//ccUYufpr.s 			page 42


 825:Middlewares/Third_Party/LibJPEG/source/jdhuff.c **** 	      EOBRUN += r;
 1298              		.loc 1 825 8 view .LVU437
 825:Middlewares/Third_Party/LibJPEG/source/jdhuff.c **** 	      EOBRUN += r;
 1299              		.loc 1 825 12 is_stmt 0 view .LVU438
 1300 013a A2EB0802 		sub	r2, r2, r8
 1301              	.LVL178:
 825:Middlewares/Third_Party/LibJPEG/source/jdhuff.c **** 	      EOBRUN += r;
 1302              		.loc 1 825 12 view .LVU439
 1303 013e 41FA02F3 		asr	r3, r1, r2
 1304 0142 1348     		ldr	r0, .L93
 1305 0144 50F82800 		ldr	r0, [r0, r8, lsl #2]
 825:Middlewares/Third_Party/LibJPEG/source/jdhuff.c **** 	      EOBRUN += r;
 1306              		.loc 1 825 10 view .LVU440
 1307 0148 0340     		ands	r3, r3, r0
 1308              	.LVL179:
 826:Middlewares/Third_Party/LibJPEG/source/jdhuff.c **** 	    }
 1309              		.loc 1 826 8 is_stmt 1 view .LVU441
 826:Middlewares/Third_Party/LibJPEG/source/jdhuff.c **** 	    }
 1310              		.loc 1 826 15 is_stmt 0 view .LVU442
 1311 014a 1D44     		add	r5, r5, r3
 1312              	.LVL180:
 1313              	.L78:
 828:Middlewares/Third_Party/LibJPEG/source/jdhuff.c **** 	    break;		/* force end-of-band */
 1314              		.loc 1 828 6 is_stmt 1 view .LVU443
 828:Middlewares/Third_Party/LibJPEG/source/jdhuff.c **** 	    break;		/* force end-of-band */
 1315              		.loc 1 828 12 is_stmt 0 view .LVU444
 1316 014c 05F1FF3C 		add	ip, r5, #-1
 1317              	.LVL181:
 829:Middlewares/Third_Party/LibJPEG/source/jdhuff.c **** 	  }
 1318              		.loc 1 829 6 is_stmt 1 view .LVU445
 1319 0150 0DE0     		b	.L80
 1320              	.LVL182:
 1321              	.L92:
 824:Middlewares/Third_Party/LibJPEG/source/jdhuff.c **** 	      r = GET_BITS(r);
 1322              		.loc 1 824 8 discriminator 1 view .LVU446
 1323 0152 07A8     		add	r0, sp, #28
 1324 0154 FFF7FEFF 		bl	jpeg_fill_bit_buffer
 1325              	.LVL183:
 824:Middlewares/Third_Party/LibJPEG/source/jdhuff.c **** 	      r = GET_BITS(r);
 1326              		.loc 1 824 8 is_stmt 0 discriminator 1 view .LVU447
 1327 0158 8646     		mov	lr, r0
 1328 015a 0028     		cmp	r0, #0
 1329 015c 3FF475AF 		beq	.L63
 824:Middlewares/Third_Party/LibJPEG/source/jdhuff.c **** 	      r = GET_BITS(r);
 1330              		.loc 1 824 8 is_stmt 1 discriminator 4 view .LVU448
 1331 0160 0999     		ldr	r1, [sp, #36]
 1332              	.LVL184:
 824:Middlewares/Third_Party/LibJPEG/source/jdhuff.c **** 	      r = GET_BITS(r);
 1333              		.loc 1 824 8 discriminator 4 view .LVU449
 1334 0162 0A9A     		ldr	r2, [sp, #40]
 1335              	.LVL185:
 824:Middlewares/Third_Party/LibJPEG/source/jdhuff.c **** 	      r = GET_BITS(r);
 1336              		.loc 1 824 8 is_stmt 0 discriminator 4 view .LVU450
 1337 0164 E9E7     		b	.L79
 1338              	.LVL186:
 1339              	.L90:
 824:Middlewares/Third_Party/LibJPEG/source/jdhuff.c **** 	      r = GET_BITS(r);
ARM GAS  /var/folders/mq/wg13gp494590nh4zyt09lxf00000gn/T//ccUYufpr.s 			page 43


 1340              		.loc 1 824 8 discriminator 4 view .LVU451
 1341 0166 DDF810C0 		ldr	ip, [sp, #16]
 1342 016a 029C     		ldr	r4, [sp, #8]
 1343 016c 039F     		ldr	r7, [sp, #12]
 1344              	.LVL187:
 1345              	.L80:
 834:Middlewares/Third_Party/LibJPEG/source/jdhuff.c ****     }
 1346              		.loc 1 834 7 is_stmt 1 view .LVU452
 1347 016e BB69     		ldr	r3, [r7, #24]
 1348 0170 0798     		ldr	r0, [sp, #28]
 1349 0172 1860     		str	r0, [r3]
 834:Middlewares/Third_Party/LibJPEG/source/jdhuff.c ****     }
 1350              		.loc 1 834 7 view .LVU453
 1351 0174 BB69     		ldr	r3, [r7, #24]
 1352 0176 0898     		ldr	r0, [sp, #32]
 1353 0178 5860     		str	r0, [r3, #4]
 834:Middlewares/Third_Party/LibJPEG/source/jdhuff.c ****     }
 1354              		.loc 1 834 7 view .LVU454
 1355 017a A160     		str	r1, [r4, #8]
 834:Middlewares/Third_Party/LibJPEG/source/jdhuff.c ****     }
 1356              		.loc 1 834 7 view .LVU455
 1357 017c E260     		str	r2, [r4, #12]
 1358 017e 5DE7     		b	.L68
 1359              	.LVL188:
 1360              	.L82:
 1361              	.LBB9:
 808:Middlewares/Third_Party/LibJPEG/source/jdhuff.c **** 	r = s >> 4;
 1362              		.loc 1 808 2 is_stmt 0 discriminator 3 view .LVU456
 1363 0180 8646     		mov	lr, r0
 1364 0182 62E7     		b	.L63
 1365              	.LVL189:
 1366              	.L85:
 808:Middlewares/Third_Party/LibJPEG/source/jdhuff.c **** 	r = s >> 4;
 1367              		.loc 1 808 2 discriminator 3 view .LVU457
 1368              	.LBE9:
 813:Middlewares/Third_Party/LibJPEG/source/jdhuff.c **** 	  r = GET_BITS(s);
 1369              		.loc 1 813 4 discriminator 3 view .LVU458
 1370 0184 8646     		mov	lr, r0
 1371 0186 60E7     		b	.L63
 1372              	.LVL190:
 1373              	.L86:
 813:Middlewares/Third_Party/LibJPEG/source/jdhuff.c **** 	  r = GET_BITS(s);
 1374              		.loc 1 813 4 discriminator 3 view .LVU459
 1375 0188 DDF814E0 		ldr	lr, [sp, #20]
 1376 018c 5DE7     		b	.L63
 1377              	.L94:
 1378 018e 00BF     		.align	2
 1379              	.L93:
 1380 0190 00000000 		.word	bmask
 1381              		.cfi_endproc
 1382              	.LFE152:
 1384              		.section	.text.decode_mcu_DC_refine,"ax",%progbits
 1385              		.align	1
 1386              		.syntax unified
 1387              		.thumb
 1388              		.thumb_func
 1390              	decode_mcu_DC_refine:
ARM GAS  /var/folders/mq/wg13gp494590nh4zyt09lxf00000gn/T//ccUYufpr.s 			page 44


 1391              	.LVL191:
 1392              	.LFB153:
 846:Middlewares/Third_Party/LibJPEG/source/jdhuff.c **** 
 847:Middlewares/Third_Party/LibJPEG/source/jdhuff.c **** 
 848:Middlewares/Third_Party/LibJPEG/source/jdhuff.c **** /*
 849:Middlewares/Third_Party/LibJPEG/source/jdhuff.c ****  * MCU decoding for DC successive approximation refinement scan.
 850:Middlewares/Third_Party/LibJPEG/source/jdhuff.c ****  * Note: we assume such scans can be multi-component, although the spec
 851:Middlewares/Third_Party/LibJPEG/source/jdhuff.c ****  * is not very clear on the point.
 852:Middlewares/Third_Party/LibJPEG/source/jdhuff.c ****  */
 853:Middlewares/Third_Party/LibJPEG/source/jdhuff.c **** 
 854:Middlewares/Third_Party/LibJPEG/source/jdhuff.c **** METHODDEF(boolean)
 855:Middlewares/Third_Party/LibJPEG/source/jdhuff.c **** decode_mcu_DC_refine (j_decompress_ptr cinfo, JBLOCKROW *MCU_data)
 856:Middlewares/Third_Party/LibJPEG/source/jdhuff.c **** {   
 1393              		.loc 1 856 1 is_stmt 1 view -0
 1394              		.cfi_startproc
 1395              		@ args = 0, pretend = 0, frame = 24
 1396              		@ frame_needed = 0, uses_anonymous_args = 0
 1397              		.loc 1 856 1 is_stmt 0 view .LVU461
 1398 0000 2DE9F043 		push	{r4, r5, r6, r7, r8, r9, lr}
 1399              	.LCFI11:
 1400              		.cfi_def_cfa_offset 28
 1401              		.cfi_offset 4, -28
 1402              		.cfi_offset 5, -24
 1403              		.cfi_offset 6, -20
 1404              		.cfi_offset 7, -16
 1405              		.cfi_offset 8, -12
 1406              		.cfi_offset 9, -8
 1407              		.cfi_offset 14, -4
 1408 0004 87B0     		sub	sp, sp, #28
 1409              	.LCFI12:
 1410              		.cfi_def_cfa_offset 56
 1411 0006 0646     		mov	r6, r0
 1412 0008 0F46     		mov	r7, r1
 857:Middlewares/Third_Party/LibJPEG/source/jdhuff.c ****   huff_entropy_ptr entropy = (huff_entropy_ptr) cinfo->entropy;
 1413              		.loc 1 857 3 is_stmt 1 view .LVU462
 1414              		.loc 1 857 20 is_stmt 0 view .LVU463
 1415 000a D0F8D091 		ldr	r9, [r0, #464]
 1416              	.LVL192:
 858:Middlewares/Third_Party/LibJPEG/source/jdhuff.c ****   int p1 = 1 << cinfo->Al;	/* 1 in the bit position being coded */
 1417              		.loc 1 858 3 is_stmt 1 view .LVU464
 1418              		.loc 1 858 22 is_stmt 0 view .LVU465
 1419 000e D0F8A431 		ldr	r3, [r0, #420]
 1420              		.loc 1 858 7 view .LVU466
 1421 0012 4FF00108 		mov	r8, #1
 1422 0016 08FA03F8 		lsl	r8, r8, r3
 1423              	.LVL193:
 859:Middlewares/Third_Party/LibJPEG/source/jdhuff.c ****   int blkn;
 1424              		.loc 1 859 3 is_stmt 1 view .LVU467
 860:Middlewares/Third_Party/LibJPEG/source/jdhuff.c ****   JBLOCKROW block;
 1425              		.loc 1 860 3 view .LVU468
 861:Middlewares/Third_Party/LibJPEG/source/jdhuff.c ****   BITREAD_STATE_VARS;
 1426              		.loc 1 861 3 view .LVU469
 1427              		.loc 1 861 3 view .LVU470
 1428              		.loc 1 861 3 view .LVU471
 862:Middlewares/Third_Party/LibJPEG/source/jdhuff.c **** 
 863:Middlewares/Third_Party/LibJPEG/source/jdhuff.c ****   /* Process restart marker if needed; may have to suspend */
 864:Middlewares/Third_Party/LibJPEG/source/jdhuff.c ****   if (cinfo->restart_interval) {
ARM GAS  /var/folders/mq/wg13gp494590nh4zyt09lxf00000gn/T//ccUYufpr.s 			page 45


 1429              		.loc 1 864 3 view .LVU472
 1430              		.loc 1 864 12 is_stmt 0 view .LVU473
 1431 001a D0F81831 		ldr	r3, [r0, #280]
 1432              		.loc 1 864 6 view .LVU474
 1433 001e 13B1     		cbz	r3, .L96
 865:Middlewares/Third_Party/LibJPEG/source/jdhuff.c ****     if (entropy->restarts_to_go == 0)
 1434              		.loc 1 865 5 is_stmt 1 view .LVU475
 1435              		.loc 1 865 16 is_stmt 0 view .LVU476
 1436 0020 D9F82830 		ldr	r3, [r9, #40]
 1437              		.loc 1 865 8 view .LVU477
 1438 0024 5BB1     		cbz	r3, .L103
 1439              	.LVL194:
 1440              	.L96:
 866:Middlewares/Third_Party/LibJPEG/source/jdhuff.c ****       if (! process_restart(cinfo))
 867:Middlewares/Third_Party/LibJPEG/source/jdhuff.c **** 	return FALSE;
 868:Middlewares/Third_Party/LibJPEG/source/jdhuff.c ****   }
 869:Middlewares/Third_Party/LibJPEG/source/jdhuff.c **** 
 870:Middlewares/Third_Party/LibJPEG/source/jdhuff.c ****   /* Not worth the cycles to check insufficient_data here,
 871:Middlewares/Third_Party/LibJPEG/source/jdhuff.c ****    * since we will not change the data anyway if we read zeroes.
 872:Middlewares/Third_Party/LibJPEG/source/jdhuff.c ****    */
 873:Middlewares/Third_Party/LibJPEG/source/jdhuff.c **** 
 874:Middlewares/Third_Party/LibJPEG/source/jdhuff.c ****   /* Load up working state */
 875:Middlewares/Third_Party/LibJPEG/source/jdhuff.c ****   BITREAD_LOAD_STATE(cinfo,entropy->bitstate);
 1441              		.loc 1 875 3 is_stmt 1 view .LVU478
 1442 0026 0596     		str	r6, [sp, #20]
 1443              		.loc 1 875 3 view .LVU479
 1444 0028 B369     		ldr	r3, [r6, #24]
 1445 002a 1A68     		ldr	r2, [r3]
 1446 002c 0192     		str	r2, [sp, #4]
 1447              		.loc 1 875 3 view .LVU480
 1448 002e 5B68     		ldr	r3, [r3, #4]
 1449 0030 0293     		str	r3, [sp, #8]
 1450              		.loc 1 875 3 view .LVU481
 1451 0032 D9F80810 		ldr	r1, [r9, #8]
 1452              	.LVL195:
 1453              		.loc 1 875 3 view .LVU482
 1454 0036 D9F80C20 		ldr	r2, [r9, #12]
 1455              	.LVL196:
 1456              		.loc 1 875 46 view .LVU483
 876:Middlewares/Third_Party/LibJPEG/source/jdhuff.c **** 
 877:Middlewares/Third_Party/LibJPEG/source/jdhuff.c ****   /* Outer loop handles each block in the MCU */
 878:Middlewares/Third_Party/LibJPEG/source/jdhuff.c **** 
 879:Middlewares/Third_Party/LibJPEG/source/jdhuff.c ****   for (blkn = 0; blkn < cinfo->blocks_in_MCU; blkn++) {
 1457              		.loc 1 879 3 view .LVU484
 1458              		.loc 1 879 13 is_stmt 0 view .LVU485
 1459 003a 0024     		movs	r4, #0
 1460              		.loc 1 879 3 view .LVU486
 1461 003c 0FE0     		b	.L98
 1462              	.LVL197:
 1463              	.L103:
 866:Middlewares/Third_Party/LibJPEG/source/jdhuff.c ****       if (! process_restart(cinfo))
 1464              		.loc 1 866 7 is_stmt 1 view .LVU487
 866:Middlewares/Third_Party/LibJPEG/source/jdhuff.c ****       if (! process_restart(cinfo))
 1465              		.loc 1 866 13 is_stmt 0 view .LVU488
 1466 003e FFF7FEFF 		bl	process_restart
 1467              	.LVL198:
 866:Middlewares/Third_Party/LibJPEG/source/jdhuff.c ****       if (! process_restart(cinfo))
ARM GAS  /var/folders/mq/wg13gp494590nh4zyt09lxf00000gn/T//ccUYufpr.s 			page 46


 1468              		.loc 1 866 10 discriminator 1 view .LVU489
 1469 0042 0346     		mov	r3, r0
 1470 0044 0028     		cmp	r0, #0
 1471 0046 EED1     		bne	.L96
 1472 0048 2DE0     		b	.L95
 1473              	.LVL199:
 1474              	.L105:
 880:Middlewares/Third_Party/LibJPEG/source/jdhuff.c ****     block = MCU_data[blkn];
 881:Middlewares/Third_Party/LibJPEG/source/jdhuff.c **** 
 882:Middlewares/Third_Party/LibJPEG/source/jdhuff.c ****     /* Encoded data is simply the next bit of the two's-complement DC value */
 883:Middlewares/Third_Party/LibJPEG/source/jdhuff.c ****     CHECK_BIT_BUFFER(br_state, 1, return FALSE);
 1475              		.loc 1 883 5 is_stmt 1 discriminator 1 view .LVU490
 1476 004a 0123     		movs	r3, #1
 1477 004c 01A8     		add	r0, sp, #4
 1478 004e FFF7FEFF 		bl	jpeg_fill_bit_buffer
 1479              	.LVL200:
 1480              		.loc 1 883 5 is_stmt 0 discriminator 1 view .LVU491
 1481 0052 0346     		mov	r3, r0
 1482 0054 38B3     		cbz	r0, .L95
 1483              		.loc 1 883 5 is_stmt 1 discriminator 4 view .LVU492
 1484 0056 0399     		ldr	r1, [sp, #12]
 1485              	.LVL201:
 1486              		.loc 1 883 5 discriminator 4 view .LVU493
 1487 0058 049A     		ldr	r2, [sp, #16]
 1488              	.LVL202:
 1489              		.loc 1 883 5 is_stmt 0 discriminator 4 view .LVU494
 1490 005a 08E0     		b	.L99
 1491              	.L100:
 879:Middlewares/Third_Party/LibJPEG/source/jdhuff.c ****     block = MCU_data[blkn];
 1492              		.loc 1 879 51 is_stmt 1 discriminator 2 view .LVU495
 1493 005c 0134     		adds	r4, r4, #1
 1494              	.LVL203:
 1495              	.L98:
 879:Middlewares/Third_Party/LibJPEG/source/jdhuff.c ****     block = MCU_data[blkn];
 1496              		.loc 1 879 23 discriminator 1 view .LVU496
 879:Middlewares/Third_Party/LibJPEG/source/jdhuff.c ****     block = MCU_data[blkn];
 1497              		.loc 1 879 30 is_stmt 0 discriminator 1 view .LVU497
 1498 005e D6F86C31 		ldr	r3, [r6, #364]
 879:Middlewares/Third_Party/LibJPEG/source/jdhuff.c ****     block = MCU_data[blkn];
 1499              		.loc 1 879 23 discriminator 1 view .LVU498
 1500 0062 A342     		cmp	r3, r4
 1501 0064 0FDD     		ble	.L104
 880:Middlewares/Third_Party/LibJPEG/source/jdhuff.c ****     block = MCU_data[blkn];
 1502              		.loc 1 880 5 is_stmt 1 view .LVU499
 880:Middlewares/Third_Party/LibJPEG/source/jdhuff.c ****     block = MCU_data[blkn];
 1503              		.loc 1 880 11 is_stmt 0 view .LVU500
 1504 0066 57F82450 		ldr	r5, [r7, r4, lsl #2]
 1505              	.LVL204:
 1506              		.loc 1 883 5 is_stmt 1 view .LVU501
 1507 006a 002A     		cmp	r2, #0
 1508 006c EDDD     		ble	.L105
 1509              	.L99:
 1510              		.loc 1 883 48 discriminator 5 view .LVU502
 884:Middlewares/Third_Party/LibJPEG/source/jdhuff.c ****     if (GET_BITS(1))
 1511              		.loc 1 884 5 view .LVU503
 1512              		.loc 1 884 9 is_stmt 0 view .LVU504
 1513 006e 013A     		subs	r2, r2, #1
ARM GAS  /var/folders/mq/wg13gp494590nh4zyt09lxf00000gn/T//ccUYufpr.s 			page 47


 1514              	.LVL205:
 1515              		.loc 1 884 9 view .LVU505
 1516 0070 41FA02F3 		asr	r3, r1, r2
 1517              		.loc 1 884 8 view .LVU506
 1518 0074 13F0010F 		tst	r3, #1
 1519 0078 F0D0     		beq	.L100
 885:Middlewares/Third_Party/LibJPEG/source/jdhuff.c ****       (*block)[0] |= p1;
 1520              		.loc 1 885 7 is_stmt 1 view .LVU507
 1521              		.loc 1 885 15 is_stmt 0 view .LVU508
 1522 007a B5F90030 		ldrsh	r3, [r5]
 1523              		.loc 1 885 19 view .LVU509
 1524 007e 43EA0803 		orr	r3, r3, r8
 1525 0082 2B80     		strh	r3, [r5]	@ movhi
 1526 0084 EAE7     		b	.L100
 1527              	.LVL206:
 1528              	.L104:
 886:Middlewares/Third_Party/LibJPEG/source/jdhuff.c ****     /* Note: since we use |=, repeating the assignment later is safe */
 887:Middlewares/Third_Party/LibJPEG/source/jdhuff.c ****   }
 888:Middlewares/Third_Party/LibJPEG/source/jdhuff.c **** 
 889:Middlewares/Third_Party/LibJPEG/source/jdhuff.c ****   /* Completed MCU, so update state */
 890:Middlewares/Third_Party/LibJPEG/source/jdhuff.c ****   BITREAD_SAVE_STATE(cinfo,entropy->bitstate);
 1529              		.loc 1 890 3 is_stmt 1 view .LVU510
 1530 0086 B369     		ldr	r3, [r6, #24]
 1531 0088 0198     		ldr	r0, [sp, #4]
 1532 008a 1860     		str	r0, [r3]
 1533              		.loc 1 890 3 view .LVU511
 1534 008c B369     		ldr	r3, [r6, #24]
 1535 008e 0298     		ldr	r0, [sp, #8]
 1536 0090 5860     		str	r0, [r3, #4]
 1537              		.loc 1 890 3 view .LVU512
 1538 0092 C9F80810 		str	r1, [r9, #8]
 1539              		.loc 1 890 3 view .LVU513
 1540 0096 C9F80C20 		str	r2, [r9, #12]
 891:Middlewares/Third_Party/LibJPEG/source/jdhuff.c **** 
 892:Middlewares/Third_Party/LibJPEG/source/jdhuff.c ****   /* Account for restart interval (no-op if not using restarts) */
 893:Middlewares/Third_Party/LibJPEG/source/jdhuff.c ****   entropy->restarts_to_go--;
 1541              		.loc 1 893 3 view .LVU514
 1542              		.loc 1 893 10 is_stmt 0 view .LVU515
 1543 009a D9F82830 		ldr	r3, [r9, #40]
 1544              		.loc 1 893 26 view .LVU516
 1545 009e 013B     		subs	r3, r3, #1
 1546 00a0 C9F82830 		str	r3, [r9, #40]
 894:Middlewares/Third_Party/LibJPEG/source/jdhuff.c **** 
 895:Middlewares/Third_Party/LibJPEG/source/jdhuff.c ****   return TRUE;
 1547              		.loc 1 895 3 is_stmt 1 view .LVU517
 1548              		.loc 1 895 10 is_stmt 0 view .LVU518
 1549 00a4 0123     		movs	r3, #1
 1550              	.LVL207:
 1551              	.L95:
 896:Middlewares/Third_Party/LibJPEG/source/jdhuff.c **** }
 1552              		.loc 1 896 1 view .LVU519
 1553 00a6 1846     		mov	r0, r3
 1554 00a8 07B0     		add	sp, sp, #28
 1555              	.LCFI13:
 1556              		.cfi_def_cfa_offset 28
 1557              		@ sp needed
 1558 00aa BDE8F083 		pop	{r4, r5, r6, r7, r8, r9, pc}
ARM GAS  /var/folders/mq/wg13gp494590nh4zyt09lxf00000gn/T//ccUYufpr.s 			page 48


 1559              		.loc 1 896 1 view .LVU520
 1560              		.cfi_endproc
 1561              	.LFE153:
 1563              		.section	.text.decode_mcu_AC_refine,"ax",%progbits
 1564              		.align	1
 1565              		.syntax unified
 1566              		.thumb
 1567              		.thumb_func
 1569              	decode_mcu_AC_refine:
 1570              	.LVL208:
 1571              	.LFB154:
 897:Middlewares/Third_Party/LibJPEG/source/jdhuff.c **** 
 898:Middlewares/Third_Party/LibJPEG/source/jdhuff.c **** 
 899:Middlewares/Third_Party/LibJPEG/source/jdhuff.c **** /*
 900:Middlewares/Third_Party/LibJPEG/source/jdhuff.c ****  * MCU decoding for AC successive approximation refinement scan.
 901:Middlewares/Third_Party/LibJPEG/source/jdhuff.c ****  */
 902:Middlewares/Third_Party/LibJPEG/source/jdhuff.c **** 
 903:Middlewares/Third_Party/LibJPEG/source/jdhuff.c **** METHODDEF(boolean)
 904:Middlewares/Third_Party/LibJPEG/source/jdhuff.c **** decode_mcu_AC_refine (j_decompress_ptr cinfo, JBLOCKROW *MCU_data)
 905:Middlewares/Third_Party/LibJPEG/source/jdhuff.c **** {   
 1572              		.loc 1 905 1 is_stmt 1 view -0
 1573              		.cfi_startproc
 1574              		@ args = 0, pretend = 0, frame = 312
 1575              		@ frame_needed = 0, uses_anonymous_args = 0
 1576              		.loc 1 905 1 is_stmt 0 view .LVU522
 1577 0000 2DE9F04F 		push	{r4, r5, r6, r7, r8, r9, r10, fp, lr}
 1578              	.LCFI14:
 1579              		.cfi_def_cfa_offset 36
 1580              		.cfi_offset 4, -36
 1581              		.cfi_offset 5, -32
 1582              		.cfi_offset 6, -28
 1583              		.cfi_offset 7, -24
 1584              		.cfi_offset 8, -20
 1585              		.cfi_offset 9, -16
 1586              		.cfi_offset 10, -12
 1587              		.cfi_offset 11, -8
 1588              		.cfi_offset 14, -4
 1589 0004 D1B0     		sub	sp, sp, #324
 1590              	.LCFI15:
 1591              		.cfi_def_cfa_offset 360
 1592 0006 0646     		mov	r6, r0
 1593 0008 0C46     		mov	r4, r1
 906:Middlewares/Third_Party/LibJPEG/source/jdhuff.c ****   huff_entropy_ptr entropy = (huff_entropy_ptr) cinfo->entropy;
 1594              		.loc 1 906 3 is_stmt 1 view .LVU523
 1595              		.loc 1 906 20 is_stmt 0 view .LVU524
 1596 000a D0F8D031 		ldr	r3, [r0, #464]
 1597 000e 1A46     		mov	r2, r3
 1598 0010 0393     		str	r3, [sp, #12]
 1599              	.LVL209:
 907:Middlewares/Third_Party/LibJPEG/source/jdhuff.c ****   register int s, k, r;
 1600              		.loc 1 907 3 is_stmt 1 view .LVU525
 908:Middlewares/Third_Party/LibJPEG/source/jdhuff.c ****   unsigned int EOBRUN;
 1601              		.loc 1 908 3 view .LVU526
 909:Middlewares/Third_Party/LibJPEG/source/jdhuff.c ****   int Se, p1, m1;
 1602              		.loc 1 909 3 view .LVU527
 910:Middlewares/Third_Party/LibJPEG/source/jdhuff.c ****   const int * natural_order;
 1603              		.loc 1 910 3 view .LVU528
ARM GAS  /var/folders/mq/wg13gp494590nh4zyt09lxf00000gn/T//ccUYufpr.s 			page 49


 911:Middlewares/Third_Party/LibJPEG/source/jdhuff.c ****   JBLOCKROW block;
 1604              		.loc 1 911 3 view .LVU529
 912:Middlewares/Third_Party/LibJPEG/source/jdhuff.c ****   JCOEFPTR thiscoef;
 1605              		.loc 1 912 3 view .LVU530
 913:Middlewares/Third_Party/LibJPEG/source/jdhuff.c ****   BITREAD_STATE_VARS;
 1606              		.loc 1 913 3 view .LVU531
 1607              		.loc 1 913 3 view .LVU532
 1608              		.loc 1 913 3 view .LVU533
 914:Middlewares/Third_Party/LibJPEG/source/jdhuff.c ****   d_derived_tbl * tbl;
 1609              		.loc 1 914 3 view .LVU534
 915:Middlewares/Third_Party/LibJPEG/source/jdhuff.c ****   int num_newnz;
 1610              		.loc 1 915 3 view .LVU535
 916:Middlewares/Third_Party/LibJPEG/source/jdhuff.c ****   int newnz_pos[DCTSIZE2];
 1611              		.loc 1 916 3 view .LVU536
 917:Middlewares/Third_Party/LibJPEG/source/jdhuff.c **** 
 918:Middlewares/Third_Party/LibJPEG/source/jdhuff.c ****   /* Process restart marker if needed; may have to suspend */
 919:Middlewares/Third_Party/LibJPEG/source/jdhuff.c ****   if (cinfo->restart_interval) {
 1612              		.loc 1 919 3 view .LVU537
 1613              		.loc 1 919 12 is_stmt 0 view .LVU538
 1614 0012 D0F81831 		ldr	r3, [r0, #280]
 1615              		.loc 1 919 6 view .LVU539
 1616 0016 13B1     		cbz	r3, .L107
 920:Middlewares/Third_Party/LibJPEG/source/jdhuff.c ****     if (entropy->restarts_to_go == 0)
 1617              		.loc 1 920 5 is_stmt 1 view .LVU540
 1618              		.loc 1 920 16 is_stmt 0 view .LVU541
 1619 0018 936A     		ldr	r3, [r2, #40]
 1620              		.loc 1 920 8 view .LVU542
 1621 001a 002B     		cmp	r3, #0
 1622 001c 40D0     		beq	.L151
 1623              	.LVL210:
 1624              	.L107:
 921:Middlewares/Third_Party/LibJPEG/source/jdhuff.c ****       if (! process_restart(cinfo))
 922:Middlewares/Third_Party/LibJPEG/source/jdhuff.c **** 	return FALSE;
 923:Middlewares/Third_Party/LibJPEG/source/jdhuff.c ****   }
 924:Middlewares/Third_Party/LibJPEG/source/jdhuff.c **** 
 925:Middlewares/Third_Party/LibJPEG/source/jdhuff.c ****   /* If we've run out of data, don't modify the MCU.
 926:Middlewares/Third_Party/LibJPEG/source/jdhuff.c ****    */
 927:Middlewares/Third_Party/LibJPEG/source/jdhuff.c ****   if (! entropy->insufficient_data) {
 1625              		.loc 1 927 3 is_stmt 1 view .LVU543
 1626              		.loc 1 927 16 is_stmt 0 view .LVU544
 1627 001e 0399     		ldr	r1, [sp, #12]
 1628 0020 486A     		ldr	r0, [r1, #36]
 1629 0022 0290     		str	r0, [sp, #8]
 1630              		.loc 1 927 6 view .LVU545
 1631 0024 0028     		cmp	r0, #0
 1632 0026 31D1     		bne	.L109
 928:Middlewares/Third_Party/LibJPEG/source/jdhuff.c **** 
 929:Middlewares/Third_Party/LibJPEG/source/jdhuff.c ****     Se = cinfo->Se;
 1633              		.loc 1 929 5 is_stmt 1 view .LVU546
 1634              		.loc 1 929 8 is_stmt 0 view .LVU547
 1635 0028 D6F89C91 		ldr	r9, [r6, #412]
 1636              	.LVL211:
 930:Middlewares/Third_Party/LibJPEG/source/jdhuff.c ****     p1 = 1 << cinfo->Al;	/* 1 in the bit position being coded */
 1637              		.loc 1 930 5 is_stmt 1 view .LVU548
 1638              		.loc 1 930 20 is_stmt 0 view .LVU549
 1639 002c D6F8A431 		ldr	r3, [r6, #420]
 1640              		.loc 1 930 8 view .LVU550
ARM GAS  /var/folders/mq/wg13gp494590nh4zyt09lxf00000gn/T//ccUYufpr.s 			page 50


 1641 0030 0122     		movs	r2, #1
 1642 0032 9A40     		lsls	r2, r2, r3
 1643 0034 0792     		str	r2, [sp, #28]
 1644              	.LVL212:
 931:Middlewares/Third_Party/LibJPEG/source/jdhuff.c ****     m1 = (-1) << cinfo->Al;	/* -1 in the bit position being coded */
 1645              		.loc 1 931 5 is_stmt 1 view .LVU551
 1646              		.loc 1 931 8 is_stmt 0 view .LVU552
 1647 0036 4FF0FF32 		mov	r2, #-1
 1648              	.LVL213:
 1649              		.loc 1 931 8 view .LVU553
 1650 003a 02FA03F3 		lsl	r3, r2, r3
 1651 003e 0593     		str	r3, [sp, #20]
 1652              	.LVL214:
 932:Middlewares/Third_Party/LibJPEG/source/jdhuff.c ****     natural_order = cinfo->natural_order;
 1653              		.loc 1 932 5 is_stmt 1 view .LVU554
 1654              		.loc 1 932 19 is_stmt 0 view .LVU555
 1655 0040 D6F8ACA1 		ldr	r10, [r6, #428]
 1656              	.LVL215:
 933:Middlewares/Third_Party/LibJPEG/source/jdhuff.c **** 
 934:Middlewares/Third_Party/LibJPEG/source/jdhuff.c ****     /* Load up working state */
 935:Middlewares/Third_Party/LibJPEG/source/jdhuff.c ****     BITREAD_LOAD_STATE(cinfo,entropy->bitstate);
 1657              		.loc 1 935 5 is_stmt 1 view .LVU556
 1658 0044 4F96     		str	r6, [sp, #316]
 1659              		.loc 1 935 5 view .LVU557
 1660 0046 B369     		ldr	r3, [r6, #24]
 1661              	.LVL216:
 1662              		.loc 1 935 5 is_stmt 0 view .LVU558
 1663 0048 1A68     		ldr	r2, [r3]
 1664 004a 4B92     		str	r2, [sp, #300]
 1665              		.loc 1 935 5 is_stmt 1 view .LVU559
 1666 004c 5B68     		ldr	r3, [r3, #4]
 1667 004e 4C93     		str	r3, [sp, #304]
 1668              		.loc 1 935 5 view .LVU560
 1669 0050 D1F808B0 		ldr	fp, [r1, #8]
 1670              	.LVL217:
 1671              		.loc 1 935 5 view .LVU561
 1672 0054 CD68     		ldr	r5, [r1, #12]
 1673              	.LVL218:
 1674              		.loc 1 935 48 view .LVU562
 936:Middlewares/Third_Party/LibJPEG/source/jdhuff.c ****     EOBRUN = entropy->saved.EOBRUN; /* only part of saved state we need */
 1675              		.loc 1 936 5 view .LVU563
 1676              		.loc 1 936 12 is_stmt 0 view .LVU564
 1677 0056 0A69     		ldr	r2, [r1, #16]
 1678 0058 0892     		str	r2, [sp, #32]
 1679              	.LVL219:
 937:Middlewares/Third_Party/LibJPEG/source/jdhuff.c **** 
 938:Middlewares/Third_Party/LibJPEG/source/jdhuff.c ****     /* There is always only one block per MCU */
 939:Middlewares/Third_Party/LibJPEG/source/jdhuff.c ****     block = MCU_data[0];
 1680              		.loc 1 939 5 is_stmt 1 view .LVU565
 1681              		.loc 1 939 11 is_stmt 0 view .LVU566
 1682 005a D4F80080 		ldr	r8, [r4]
 1683              	.LVL220:
 940:Middlewares/Third_Party/LibJPEG/source/jdhuff.c ****     tbl = entropy->ac_derived_tbl;
 1684              		.loc 1 940 5 is_stmt 1 view .LVU567
 1685              		.loc 1 940 9 is_stmt 0 view .LVU568
 1686 005e CB6B     		ldr	r3, [r1, #60]
 1687              	.LVL221:
ARM GAS  /var/folders/mq/wg13gp494590nh4zyt09lxf00000gn/T//ccUYufpr.s 			page 51


 941:Middlewares/Third_Party/LibJPEG/source/jdhuff.c **** 
 942:Middlewares/Third_Party/LibJPEG/source/jdhuff.c ****     /* If we are forced to suspend, we must undo the assignments to any newly
 943:Middlewares/Third_Party/LibJPEG/source/jdhuff.c ****      * nonzero coefficients in the block, because otherwise we'd get confused
 944:Middlewares/Third_Party/LibJPEG/source/jdhuff.c ****      * next time about which coefficients were already nonzero.
 945:Middlewares/Third_Party/LibJPEG/source/jdhuff.c ****      * But we need not undo addition of bits to already-nonzero coefficients;
 946:Middlewares/Third_Party/LibJPEG/source/jdhuff.c ****      * instead, we can test the current bit to see if we already did it.
 947:Middlewares/Third_Party/LibJPEG/source/jdhuff.c ****      */
 948:Middlewares/Third_Party/LibJPEG/source/jdhuff.c ****     num_newnz = 0;
 1688              		.loc 1 948 5 is_stmt 1 view .LVU569
 949:Middlewares/Third_Party/LibJPEG/source/jdhuff.c **** 
 950:Middlewares/Third_Party/LibJPEG/source/jdhuff.c ****     /* initialize coefficient loop counter to start of band */
 951:Middlewares/Third_Party/LibJPEG/source/jdhuff.c ****     k = cinfo->Ss;
 1689              		.loc 1 951 5 view .LVU570
 1690              		.loc 1 951 7 is_stmt 0 view .LVU571
 1691 0060 D6F89841 		ldr	r4, [r6, #408]
 1692              	.LVL222:
 952:Middlewares/Third_Party/LibJPEG/source/jdhuff.c **** 
 953:Middlewares/Third_Party/LibJPEG/source/jdhuff.c ****     if (EOBRUN == 0) {
 1693              		.loc 1 953 5 is_stmt 1 view .LVU572
 1694              		.loc 1 953 8 is_stmt 0 view .LVU573
 1695 0064 002A     		cmp	r2, #0
 1696 0066 00F0ED80 		beq	.L139
 948:Middlewares/Third_Party/LibJPEG/source/jdhuff.c **** 
 1697              		.loc 1 948 15 view .LVU574
 1698 006a 0690     		str	r0, [sp, #24]
 1699              	.LVL223:
 1700              	.L111:
 954:Middlewares/Third_Party/LibJPEG/source/jdhuff.c ****       for (; k <= Se; k++) {
 955:Middlewares/Third_Party/LibJPEG/source/jdhuff.c **** 	HUFF_DECODE(s, br_state, tbl, goto undoit, label3);
 956:Middlewares/Third_Party/LibJPEG/source/jdhuff.c **** 	r = s >> 4;
 957:Middlewares/Third_Party/LibJPEG/source/jdhuff.c **** 	s &= 15;
 958:Middlewares/Third_Party/LibJPEG/source/jdhuff.c **** 	if (s) {
 959:Middlewares/Third_Party/LibJPEG/source/jdhuff.c **** 	  if (s != 1)		/* size of new coef should always be 1 */
 960:Middlewares/Third_Party/LibJPEG/source/jdhuff.c **** 	    WARNMS(cinfo, JWRN_HUFF_BAD_CODE);
 961:Middlewares/Third_Party/LibJPEG/source/jdhuff.c **** 	  CHECK_BIT_BUFFER(br_state, 1, goto undoit);
 962:Middlewares/Third_Party/LibJPEG/source/jdhuff.c **** 	  if (GET_BITS(1))
 963:Middlewares/Third_Party/LibJPEG/source/jdhuff.c **** 	    s = p1;		/* newly nonzero coef is positive */
 964:Middlewares/Third_Party/LibJPEG/source/jdhuff.c **** 	  else
 965:Middlewares/Third_Party/LibJPEG/source/jdhuff.c **** 	    s = m1;		/* newly nonzero coef is negative */
 966:Middlewares/Third_Party/LibJPEG/source/jdhuff.c **** 	} else {
 967:Middlewares/Third_Party/LibJPEG/source/jdhuff.c **** 	  if (r != 15) {
 968:Middlewares/Third_Party/LibJPEG/source/jdhuff.c **** 	    EOBRUN = 1 << r;	/* EOBr, run length is 2^r + appended bits */
 969:Middlewares/Third_Party/LibJPEG/source/jdhuff.c **** 	    if (r) {
 970:Middlewares/Third_Party/LibJPEG/source/jdhuff.c **** 	      CHECK_BIT_BUFFER(br_state, r, goto undoit);
 971:Middlewares/Third_Party/LibJPEG/source/jdhuff.c **** 	      r = GET_BITS(r);
 972:Middlewares/Third_Party/LibJPEG/source/jdhuff.c **** 	      EOBRUN += r;
 973:Middlewares/Third_Party/LibJPEG/source/jdhuff.c **** 	    }
 974:Middlewares/Third_Party/LibJPEG/source/jdhuff.c **** 	    break;		/* rest of block is handled by EOB logic */
 975:Middlewares/Third_Party/LibJPEG/source/jdhuff.c **** 	  }
 976:Middlewares/Third_Party/LibJPEG/source/jdhuff.c **** 	  /* note s = 0 for processing ZRL */
 977:Middlewares/Third_Party/LibJPEG/source/jdhuff.c **** 	}
 978:Middlewares/Third_Party/LibJPEG/source/jdhuff.c **** 	/* Advance over already-nonzero coefs and r still-zero coefs,
 979:Middlewares/Third_Party/LibJPEG/source/jdhuff.c **** 	 * appending correction bits to the nonzeroes.  A correction bit is 1
 980:Middlewares/Third_Party/LibJPEG/source/jdhuff.c **** 	 * if the absolute value of the coefficient must be increased.
 981:Middlewares/Third_Party/LibJPEG/source/jdhuff.c **** 	 */
 982:Middlewares/Third_Party/LibJPEG/source/jdhuff.c **** 	do {
 983:Middlewares/Third_Party/LibJPEG/source/jdhuff.c **** 	  thiscoef = *block + natural_order[k];
ARM GAS  /var/folders/mq/wg13gp494590nh4zyt09lxf00000gn/T//ccUYufpr.s 			page 52


 984:Middlewares/Third_Party/LibJPEG/source/jdhuff.c **** 	  if (*thiscoef != 0) {
 985:Middlewares/Third_Party/LibJPEG/source/jdhuff.c **** 	    CHECK_BIT_BUFFER(br_state, 1, goto undoit);
 986:Middlewares/Third_Party/LibJPEG/source/jdhuff.c **** 	    if (GET_BITS(1)) {
 987:Middlewares/Third_Party/LibJPEG/source/jdhuff.c **** 	      if ((*thiscoef & p1) == 0) { /* do nothing if already set it */
 988:Middlewares/Third_Party/LibJPEG/source/jdhuff.c **** 		if (*thiscoef >= 0)
 989:Middlewares/Third_Party/LibJPEG/source/jdhuff.c **** 		  *thiscoef += p1;
 990:Middlewares/Third_Party/LibJPEG/source/jdhuff.c **** 		else
 991:Middlewares/Third_Party/LibJPEG/source/jdhuff.c **** 		  *thiscoef += m1;
 992:Middlewares/Third_Party/LibJPEG/source/jdhuff.c **** 	      }
 993:Middlewares/Third_Party/LibJPEG/source/jdhuff.c **** 	    }
 994:Middlewares/Third_Party/LibJPEG/source/jdhuff.c **** 	  } else {
 995:Middlewares/Third_Party/LibJPEG/source/jdhuff.c **** 	    if (--r < 0)
 996:Middlewares/Third_Party/LibJPEG/source/jdhuff.c **** 	      break;		/* reached target zero coefficient */
 997:Middlewares/Third_Party/LibJPEG/source/jdhuff.c **** 	  }
 998:Middlewares/Third_Party/LibJPEG/source/jdhuff.c **** 	  k++;
 999:Middlewares/Third_Party/LibJPEG/source/jdhuff.c **** 	} while (k <= Se);
1000:Middlewares/Third_Party/LibJPEG/source/jdhuff.c **** 	if (s) {
1001:Middlewares/Third_Party/LibJPEG/source/jdhuff.c **** 	  int pos = natural_order[k];
1002:Middlewares/Third_Party/LibJPEG/source/jdhuff.c **** 	  /* Output newly nonzero coefficient */
1003:Middlewares/Third_Party/LibJPEG/source/jdhuff.c **** 	  (*block)[pos] = (JCOEF) s;
1004:Middlewares/Third_Party/LibJPEG/source/jdhuff.c **** 	  /* Remember its position in case we have to suspend */
1005:Middlewares/Third_Party/LibJPEG/source/jdhuff.c **** 	  newnz_pos[num_newnz++] = pos;
1006:Middlewares/Third_Party/LibJPEG/source/jdhuff.c **** 	}
1007:Middlewares/Third_Party/LibJPEG/source/jdhuff.c ****       }
1008:Middlewares/Third_Party/LibJPEG/source/jdhuff.c ****     }
1009:Middlewares/Third_Party/LibJPEG/source/jdhuff.c **** 
1010:Middlewares/Third_Party/LibJPEG/source/jdhuff.c ****     if (EOBRUN > 0) {
 1701              		.loc 1 1010 5 is_stmt 1 view .LVU575
 1702              		.loc 1 1010 8 is_stmt 0 view .LVU576
 1703 006c 089B     		ldr	r3, [sp, #32]
 1704 006e 002B     		cmp	r3, #0
 1705 0070 40F01981 		bne	.L148
 1706              	.LVL224:
 1707              	.L133:
1011:Middlewares/Third_Party/LibJPEG/source/jdhuff.c ****       /* Scan any remaining coefficient positions after the end-of-band
1012:Middlewares/Third_Party/LibJPEG/source/jdhuff.c ****        * (the last newly nonzero coefficient, if any).  Append a correction
1013:Middlewares/Third_Party/LibJPEG/source/jdhuff.c ****        * bit to each already-nonzero coefficient.  A correction bit is 1
1014:Middlewares/Third_Party/LibJPEG/source/jdhuff.c ****        * if the absolute value of the coefficient must be increased.
1015:Middlewares/Third_Party/LibJPEG/source/jdhuff.c ****        */
1016:Middlewares/Third_Party/LibJPEG/source/jdhuff.c ****       for (; k <= Se; k++) {
1017:Middlewares/Third_Party/LibJPEG/source/jdhuff.c **** 	thiscoef = *block + natural_order[k];
1018:Middlewares/Third_Party/LibJPEG/source/jdhuff.c **** 	if (*thiscoef != 0) {
1019:Middlewares/Third_Party/LibJPEG/source/jdhuff.c **** 	  CHECK_BIT_BUFFER(br_state, 1, goto undoit);
1020:Middlewares/Third_Party/LibJPEG/source/jdhuff.c **** 	  if (GET_BITS(1)) {
1021:Middlewares/Third_Party/LibJPEG/source/jdhuff.c **** 	    if ((*thiscoef & p1) == 0) { /* do nothing if already changed it */
1022:Middlewares/Third_Party/LibJPEG/source/jdhuff.c **** 	      if (*thiscoef >= 0)
1023:Middlewares/Third_Party/LibJPEG/source/jdhuff.c **** 		*thiscoef += p1;
1024:Middlewares/Third_Party/LibJPEG/source/jdhuff.c **** 	      else
1025:Middlewares/Third_Party/LibJPEG/source/jdhuff.c **** 		*thiscoef += m1;
1026:Middlewares/Third_Party/LibJPEG/source/jdhuff.c **** 	    }
1027:Middlewares/Third_Party/LibJPEG/source/jdhuff.c **** 	  }
1028:Middlewares/Third_Party/LibJPEG/source/jdhuff.c **** 	}
1029:Middlewares/Third_Party/LibJPEG/source/jdhuff.c ****       }
1030:Middlewares/Third_Party/LibJPEG/source/jdhuff.c ****       /* Count one block completed in EOB run */
1031:Middlewares/Third_Party/LibJPEG/source/jdhuff.c ****       EOBRUN--;
1032:Middlewares/Third_Party/LibJPEG/source/jdhuff.c ****     }
1033:Middlewares/Third_Party/LibJPEG/source/jdhuff.c **** 
ARM GAS  /var/folders/mq/wg13gp494590nh4zyt09lxf00000gn/T//ccUYufpr.s 			page 53


1034:Middlewares/Third_Party/LibJPEG/source/jdhuff.c ****     /* Completed MCU, so update state */
1035:Middlewares/Third_Party/LibJPEG/source/jdhuff.c ****     BITREAD_SAVE_STATE(cinfo,entropy->bitstate);
 1708              		.loc 1 1035 5 is_stmt 1 view .LVU577
 1709 0074 B369     		ldr	r3, [r6, #24]
 1710 0076 4B9A     		ldr	r2, [sp, #300]
 1711 0078 1A60     		str	r2, [r3]
 1712              		.loc 1 1035 5 view .LVU578
 1713 007a B369     		ldr	r3, [r6, #24]
 1714 007c 4C9A     		ldr	r2, [sp, #304]
 1715 007e 5A60     		str	r2, [r3, #4]
 1716              		.loc 1 1035 5 view .LVU579
 1717 0080 039B     		ldr	r3, [sp, #12]
 1718 0082 C3F808B0 		str	fp, [r3, #8]
 1719              		.loc 1 1035 5 view .LVU580
 1720 0086 DD60     		str	r5, [r3, #12]
1036:Middlewares/Third_Party/LibJPEG/source/jdhuff.c ****     entropy->saved.EOBRUN = EOBRUN; /* only part of saved state we need */
 1721              		.loc 1 1036 5 view .LVU581
 1722              		.loc 1 1036 27 is_stmt 0 view .LVU582
 1723 0088 089A     		ldr	r2, [sp, #32]
 1724 008a 1A61     		str	r2, [r3, #16]
 1725              	.LVL225:
 1726              	.L109:
1037:Middlewares/Third_Party/LibJPEG/source/jdhuff.c ****   }
1038:Middlewares/Third_Party/LibJPEG/source/jdhuff.c **** 
1039:Middlewares/Third_Party/LibJPEG/source/jdhuff.c ****   /* Account for restart interval (no-op if not using restarts) */
1040:Middlewares/Third_Party/LibJPEG/source/jdhuff.c ****   entropy->restarts_to_go--;
 1727              		.loc 1 1040 3 is_stmt 1 view .LVU583
 1728              		.loc 1 1040 10 is_stmt 0 view .LVU584
 1729 008c 039A     		ldr	r2, [sp, #12]
 1730 008e 936A     		ldr	r3, [r2, #40]
 1731              		.loc 1 1040 26 view .LVU585
 1732 0090 013B     		subs	r3, r3, #1
 1733 0092 9362     		str	r3, [r2, #40]
1041:Middlewares/Third_Party/LibJPEG/source/jdhuff.c **** 
1042:Middlewares/Third_Party/LibJPEG/source/jdhuff.c ****   return TRUE;
 1734              		.loc 1 1042 3 is_stmt 1 view .LVU586
 1735              		.loc 1 1042 10 is_stmt 0 view .LVU587
 1736 0094 0123     		movs	r3, #1
 1737 0096 0293     		str	r3, [sp, #8]
 1738              	.L106:
1043:Middlewares/Third_Party/LibJPEG/source/jdhuff.c **** 
1044:Middlewares/Third_Party/LibJPEG/source/jdhuff.c **** undoit:
1045:Middlewares/Third_Party/LibJPEG/source/jdhuff.c ****   /* Re-zero any output coefficients that we made newly nonzero */
1046:Middlewares/Third_Party/LibJPEG/source/jdhuff.c ****   while (num_newnz > 0)
1047:Middlewares/Third_Party/LibJPEG/source/jdhuff.c ****     (*block)[newnz_pos[--num_newnz]] = 0;
1048:Middlewares/Third_Party/LibJPEG/source/jdhuff.c **** 
1049:Middlewares/Third_Party/LibJPEG/source/jdhuff.c ****   return FALSE;
1050:Middlewares/Third_Party/LibJPEG/source/jdhuff.c **** }
 1739              		.loc 1 1050 1 view .LVU588
 1740 0098 0298     		ldr	r0, [sp, #8]
 1741 009a 51B0     		add	sp, sp, #324
 1742              	.LCFI16:
 1743              		.cfi_remember_state
 1744              		.cfi_def_cfa_offset 36
 1745              		@ sp needed
 1746 009c BDE8F08F 		pop	{r4, r5, r6, r7, r8, r9, r10, fp, pc}
 1747              	.LVL226:
ARM GAS  /var/folders/mq/wg13gp494590nh4zyt09lxf00000gn/T//ccUYufpr.s 			page 54


 1748              	.L151:
 1749              	.LCFI17:
 1750              		.cfi_restore_state
 921:Middlewares/Third_Party/LibJPEG/source/jdhuff.c **** 	return FALSE;
 1751              		.loc 1 921 7 is_stmt 1 view .LVU589
 921:Middlewares/Third_Party/LibJPEG/source/jdhuff.c **** 	return FALSE;
 1752              		.loc 1 921 13 is_stmt 0 view .LVU590
 1753 00a0 FFF7FEFF 		bl	process_restart
 1754              	.LVL227:
 921:Middlewares/Third_Party/LibJPEG/source/jdhuff.c **** 	return FALSE;
 1755              		.loc 1 921 10 discriminator 1 view .LVU591
 1756 00a4 0290     		str	r0, [sp, #8]
 1757 00a6 0028     		cmp	r0, #0
 1758 00a8 B9D1     		bne	.L107
 1759 00aa F5E7     		b	.L106
 1760              	.LVL228:
 1761              	.L157:
 1762              	.LBB10:
 955:Middlewares/Third_Party/LibJPEG/source/jdhuff.c **** 	r = s >> 4;
 1763              		.loc 1 955 2 is_stmt 1 discriminator 1 view .LVU592
 1764 00ac 0023     		movs	r3, #0
 1765 00ae 2A46     		mov	r2, r5
 1766 00b0 5946     		mov	r1, fp
 1767 00b2 4BA8     		add	r0, sp, #300
 1768 00b4 FFF7FEFF 		bl	jpeg_fill_bit_buffer
 1769              	.LVL229:
 1770 00b8 0028     		cmp	r0, #0
 1771 00ba 00F00881 		beq	.L142
 955:Middlewares/Third_Party/LibJPEG/source/jdhuff.c **** 	r = s >> 4;
 1772              		.loc 1 955 2 discriminator 4 view .LVU593
 1773 00be DDF834B1 		ldr	fp, [sp, #308]
 1774              	.LVL230:
 955:Middlewares/Third_Party/LibJPEG/source/jdhuff.c **** 	r = s >> 4;
 1775              		.loc 1 955 2 discriminator 4 view .LVU594
 1776 00c2 4E9D     		ldr	r5, [sp, #312]
 1777              	.LVL231:
 955:Middlewares/Third_Party/LibJPEG/source/jdhuff.c **** 	r = s >> 4;
 1778              		.loc 1 955 2 discriminator 4 view .LVU595
 1779 00c4 072D     		cmp	r5, #7
 1780 00c6 00F3AB80 		bgt	.L112
 955:Middlewares/Third_Party/LibJPEG/source/jdhuff.c **** 	r = s >> 4;
 1781              		.loc 1 955 2 is_stmt 0 discriminator 5 view .LVU596
 1782 00ca 0123     		movs	r3, #1
 1783 00cc 00E0     		b	.L115
 1784              	.LVL232:
 1785              	.L141:
 955:Middlewares/Third_Party/LibJPEG/source/jdhuff.c **** 	r = s >> 4;
 1786              		.loc 1 955 2 discriminator 9 view .LVU597
 1787 00ce 0923     		movs	r3, #9
 1788              	.LVL233:
 1789              	.L115:
 955:Middlewares/Third_Party/LibJPEG/source/jdhuff.c **** 	r = s >> 4;
 1790              		.loc 1 955 2 is_stmt 1 discriminator 11 view .LVU598
 1791 00d0 0093     		str	r3, [sp]
 1792 00d2 049B     		ldr	r3, [sp, #16]
 1793              	.LVL234:
 955:Middlewares/Third_Party/LibJPEG/source/jdhuff.c **** 	r = s >> 4;
ARM GAS  /var/folders/mq/wg13gp494590nh4zyt09lxf00000gn/T//ccUYufpr.s 			page 55


 1794              		.loc 1 955 2 is_stmt 0 discriminator 11 view .LVU599
 1795 00d4 2A46     		mov	r2, r5
 1796 00d6 5946     		mov	r1, fp
 1797 00d8 4BA8     		add	r0, sp, #300
 1798 00da FFF7FEFF 		bl	jpeg_huff_decode
 1799              	.LVL235:
 955:Middlewares/Third_Party/LibJPEG/source/jdhuff.c **** 	r = s >> 4;
 1800              		.loc 1 955 2 discriminator 1 view .LVU600
 1801 00de 0028     		cmp	r0, #0
 955:Middlewares/Third_Party/LibJPEG/source/jdhuff.c **** 	r = s >> 4;
 1802              		.loc 1 955 2 discriminator 1 view .LVU601
 1803 00e0 C0F2F780 		blt	.L143
 955:Middlewares/Third_Party/LibJPEG/source/jdhuff.c **** 	r = s >> 4;
 1804              		.loc 1 955 2 is_stmt 1 discriminator 13 view .LVU602
 1805 00e4 DDF834B1 		ldr	fp, [sp, #308]
 1806              	.LVL236:
 955:Middlewares/Third_Party/LibJPEG/source/jdhuff.c **** 	r = s >> 4;
 1807              		.loc 1 955 2 discriminator 13 view .LVU603
 1808 00e8 4E9D     		ldr	r5, [sp, #312]
 1809              	.LVL237:
 1810              	.L116:
 955:Middlewares/Third_Party/LibJPEG/source/jdhuff.c **** 	r = s >> 4;
 1811              		.loc 1 955 2 is_stmt 0 discriminator 13 view .LVU604
 1812              	.LBE10:
 955:Middlewares/Third_Party/LibJPEG/source/jdhuff.c **** 	r = s >> 4;
 1813              		.loc 1 955 52 is_stmt 1 discriminator 14 view .LVU605
 956:Middlewares/Third_Party/LibJPEG/source/jdhuff.c **** 	s &= 15;
 1814              		.loc 1 956 2 view .LVU606
 956:Middlewares/Third_Party/LibJPEG/source/jdhuff.c **** 	s &= 15;
 1815              		.loc 1 956 4 is_stmt 0 view .LVU607
 1816 00ea 0711     		asrs	r7, r0, #4
 1817              	.LVL238:
 957:Middlewares/Third_Party/LibJPEG/source/jdhuff.c **** 	if (s) {
 1818              		.loc 1 957 2 is_stmt 1 view .LVU608
 958:Middlewares/Third_Party/LibJPEG/source/jdhuff.c **** 	  if (s != 1)		/* size of new coef should always be 1 */
 1819              		.loc 1 958 2 view .LVU609
 958:Middlewares/Third_Party/LibJPEG/source/jdhuff.c **** 	  if (s != 1)		/* size of new coef should always be 1 */
 1820              		.loc 1 958 5 is_stmt 0 view .LVU610
 1821 00ec 10F00F00 		ands	r0, r0, #15
 1822              	.LVL239:
 958:Middlewares/Third_Party/LibJPEG/source/jdhuff.c **** 	  if (s != 1)		/* size of new coef should always be 1 */
 1823              		.loc 1 958 5 view .LVU611
 1824 00f0 26D0     		beq	.L118
 959:Middlewares/Third_Party/LibJPEG/source/jdhuff.c **** 	    WARNMS(cinfo, JWRN_HUFF_BAD_CODE);
 1825              		.loc 1 959 4 is_stmt 1 view .LVU612
 959:Middlewares/Third_Party/LibJPEG/source/jdhuff.c **** 	    WARNMS(cinfo, JWRN_HUFF_BAD_CODE);
 1826              		.loc 1 959 7 is_stmt 0 view .LVU613
 1827 00f2 0128     		cmp	r0, #1
 1828 00f4 08D0     		beq	.L119
 960:Middlewares/Third_Party/LibJPEG/source/jdhuff.c **** 	  CHECK_BIT_BUFFER(br_state, 1, goto undoit);
 1829              		.loc 1 960 6 is_stmt 1 view .LVU614
 1830 00f6 0998     		ldr	r0, [sp, #36]
 1831              	.LVL240:
 960:Middlewares/Third_Party/LibJPEG/source/jdhuff.c **** 	  CHECK_BIT_BUFFER(br_state, 1, goto undoit);
 1832              		.loc 1 960 6 is_stmt 0 view .LVU615
 1833 00f8 0368     		ldr	r3, [r0]
 1834 00fa 7922     		movs	r2, #121
ARM GAS  /var/folders/mq/wg13gp494590nh4zyt09lxf00000gn/T//ccUYufpr.s 			page 56


 1835 00fc 5A61     		str	r2, [r3, #20]
 1836 00fe 0368     		ldr	r3, [r0]
 1837 0100 5B68     		ldr	r3, [r3, #4]
 1838 0102 4FF0FF31 		mov	r1, #-1
 1839 0106 9847     		blx	r3
 1840              	.LVL241:
 1841              	.L119:
 961:Middlewares/Third_Party/LibJPEG/source/jdhuff.c **** 	  if (GET_BITS(1))
 1842              		.loc 1 961 4 is_stmt 1 view .LVU616
 1843 0108 002D     		cmp	r5, #0
 1844 010a 0CDD     		ble	.L152
 1845              	.L120:
 961:Middlewares/Third_Party/LibJPEG/source/jdhuff.c **** 	  if (GET_BITS(1))
 1846              		.loc 1 961 46 discriminator 5 view .LVU617
 962:Middlewares/Third_Party/LibJPEG/source/jdhuff.c **** 	    s = p1;		/* newly nonzero coef is positive */
 1847              		.loc 1 962 4 view .LVU618
 962:Middlewares/Third_Party/LibJPEG/source/jdhuff.c **** 	    s = p1;		/* newly nonzero coef is positive */
 1848              		.loc 1 962 8 is_stmt 0 view .LVU619
 1849 010c 013D     		subs	r5, r5, #1
 1850              	.LVL242:
 962:Middlewares/Third_Party/LibJPEG/source/jdhuff.c **** 	    s = p1;		/* newly nonzero coef is positive */
 1851              		.loc 1 962 8 view .LVU620
 1852 010e 4BFA05F3 		asr	r3, fp, r5
 962:Middlewares/Third_Party/LibJPEG/source/jdhuff.c **** 	    s = p1;		/* newly nonzero coef is positive */
 1853              		.loc 1 962 7 view .LVU621
 1854 0112 13F0010F 		tst	r3, #1
 1855 0116 3BD1     		bne	.L121
 965:Middlewares/Third_Party/LibJPEG/source/jdhuff.c **** 	} else {
 1856              		.loc 1 965 8 view .LVU622
 1857 0118 0598     		ldr	r0, [sp, #20]
 1858 011a 5946     		mov	r1, fp
 1859 011c 2A46     		mov	r2, r5
 1860 011e 3D46     		mov	r5, r7
 1861              	.LVL243:
 965:Middlewares/Third_Party/LibJPEG/source/jdhuff.c **** 	} else {
 1862              		.loc 1 965 8 view .LVU623
 1863 0120 079E     		ldr	r6, [sp, #28]
 1864 0122 8346     		mov	fp, r0
 1865              	.LVL244:
 965:Middlewares/Third_Party/LibJPEG/source/jdhuff.c **** 	} else {
 1866              		.loc 1 965 8 view .LVU624
 1867 0124 4FE0     		b	.L129
 1868              	.LVL245:
 1869              	.L152:
 961:Middlewares/Third_Party/LibJPEG/source/jdhuff.c **** 	  if (GET_BITS(1))
 1870              		.loc 1 961 4 is_stmt 1 discriminator 1 view .LVU625
 1871 0126 0123     		movs	r3, #1
 1872 0128 2A46     		mov	r2, r5
 1873 012a 5946     		mov	r1, fp
 1874 012c 4BA8     		add	r0, sp, #300
 1875 012e FFF7FEFF 		bl	jpeg_fill_bit_buffer
 1876              	.LVL246:
 1877 0132 0028     		cmp	r0, #0
 1878 0134 00F0CF80 		beq	.L144
 961:Middlewares/Third_Party/LibJPEG/source/jdhuff.c **** 	  if (GET_BITS(1))
 1879              		.loc 1 961 4 discriminator 4 view .LVU626
 1880 0138 DDF834B1 		ldr	fp, [sp, #308]
ARM GAS  /var/folders/mq/wg13gp494590nh4zyt09lxf00000gn/T//ccUYufpr.s 			page 57


 1881              	.LVL247:
 961:Middlewares/Third_Party/LibJPEG/source/jdhuff.c **** 	  if (GET_BITS(1))
 1882              		.loc 1 961 4 discriminator 4 view .LVU627
 1883 013c 4E9D     		ldr	r5, [sp, #312]
 1884              	.LVL248:
 961:Middlewares/Third_Party/LibJPEG/source/jdhuff.c **** 	  if (GET_BITS(1))
 1885              		.loc 1 961 4 is_stmt 0 discriminator 4 view .LVU628
 1886 013e E5E7     		b	.L120
 1887              	.LVL249:
 1888              	.L118:
 967:Middlewares/Third_Party/LibJPEG/source/jdhuff.c **** 	    EOBRUN = 1 << r;	/* EOBr, run length is 2^r + appended bits */
 1889              		.loc 1 967 4 is_stmt 1 view .LVU629
 967:Middlewares/Third_Party/LibJPEG/source/jdhuff.c **** 	    EOBRUN = 1 << r;	/* EOBr, run length is 2^r + appended bits */
 1890              		.loc 1 967 7 is_stmt 0 view .LVU630
 1891 0140 0F2F     		cmp	r7, #15
 1892 0142 05D1     		bne	.L153
 1893 0144 5946     		mov	r1, fp
 1894 0146 2A46     		mov	r2, r5
 1895 0148 3D46     		mov	r5, r7
 1896              	.LVL250:
 967:Middlewares/Third_Party/LibJPEG/source/jdhuff.c **** 	    EOBRUN = 1 << r;	/* EOBr, run length is 2^r + appended bits */
 1897              		.loc 1 967 7 view .LVU631
 1898 014a 079E     		ldr	r6, [sp, #28]
 1899 014c 8346     		mov	fp, r0
 1900              	.LVL251:
 967:Middlewares/Third_Party/LibJPEG/source/jdhuff.c **** 	    EOBRUN = 1 << r;	/* EOBr, run length is 2^r + appended bits */
 1901              		.loc 1 967 7 view .LVU632
 1902 014e 3AE0     		b	.L129
 1903              	.LVL252:
 1904              	.L153:
 968:Middlewares/Third_Party/LibJPEG/source/jdhuff.c **** 	    if (r) {
 1905              		.loc 1 968 17 view .LVU633
 1906 0150 099E     		ldr	r6, [sp, #36]
 968:Middlewares/Third_Party/LibJPEG/source/jdhuff.c **** 	    if (r) {
 1907              		.loc 1 968 6 is_stmt 1 view .LVU634
 968:Middlewares/Third_Party/LibJPEG/source/jdhuff.c **** 	    if (r) {
 1908              		.loc 1 968 17 is_stmt 0 view .LVU635
 1909 0152 0123     		movs	r3, #1
 1910 0154 BB40     		lsls	r3, r3, r7
 1911 0156 0893     		str	r3, [sp, #32]
 1912              	.LVL253:
 969:Middlewares/Third_Party/LibJPEG/source/jdhuff.c **** 	      CHECK_BIT_BUFFER(br_state, r, goto undoit);
 1913              		.loc 1 969 6 is_stmt 1 view .LVU636
 969:Middlewares/Third_Party/LibJPEG/source/jdhuff.c **** 	      CHECK_BIT_BUFFER(br_state, r, goto undoit);
 1914              		.loc 1 969 9 is_stmt 0 view .LVU637
 1915 0158 002F     		cmp	r7, #0
 1916 015a 87D0     		beq	.L111
 970:Middlewares/Third_Party/LibJPEG/source/jdhuff.c **** 	      r = GET_BITS(r);
 1917              		.loc 1 970 8 is_stmt 1 view .LVU638
 1918 015c BD42     		cmp	r5, r7
 1919 015e 0ADB     		blt	.L154
 1920              	.LVL254:
 1921              	.L123:
 970:Middlewares/Third_Party/LibJPEG/source/jdhuff.c **** 	      r = GET_BITS(r);
 1922              		.loc 1 970 50 discriminator 5 view .LVU639
 971:Middlewares/Third_Party/LibJPEG/source/jdhuff.c **** 	      EOBRUN += r;
 1923              		.loc 1 971 8 view .LVU640
ARM GAS  /var/folders/mq/wg13gp494590nh4zyt09lxf00000gn/T//ccUYufpr.s 			page 58


 971:Middlewares/Third_Party/LibJPEG/source/jdhuff.c **** 	      EOBRUN += r;
 1924              		.loc 1 971 12 is_stmt 0 view .LVU641
 1925 0160 ED1B     		subs	r5, r5, r7
 1926              	.LVL255:
 971:Middlewares/Third_Party/LibJPEG/source/jdhuff.c **** 	      EOBRUN += r;
 1927              		.loc 1 971 12 view .LVU642
 1928 0162 4BFA05F3 		asr	r3, fp, r5
 1929 0166 604A     		ldr	r2, .L160
 1930 0168 52F82720 		ldr	r2, [r2, r7, lsl #2]
 971:Middlewares/Third_Party/LibJPEG/source/jdhuff.c **** 	      EOBRUN += r;
 1931              		.loc 1 971 10 view .LVU643
 1932 016c 1340     		ands	r3, r3, r2
 1933              	.LVL256:
 972:Middlewares/Third_Party/LibJPEG/source/jdhuff.c **** 	    }
 1934              		.loc 1 972 8 is_stmt 1 view .LVU644
 972:Middlewares/Third_Party/LibJPEG/source/jdhuff.c **** 	    }
 1935              		.loc 1 972 15 is_stmt 0 view .LVU645
 1936 016e 089A     		ldr	r2, [sp, #32]
 1937 0170 1A44     		add	r2, r2, r3
 1938 0172 0892     		str	r2, [sp, #32]
 1939              	.LVL257:
 972:Middlewares/Third_Party/LibJPEG/source/jdhuff.c **** 	    }
 1940              		.loc 1 972 15 view .LVU646
 1941 0174 7AE7     		b	.L111
 1942              	.LVL258:
 1943              	.L154:
 970:Middlewares/Third_Party/LibJPEG/source/jdhuff.c **** 	      r = GET_BITS(r);
 1944              		.loc 1 970 8 is_stmt 1 discriminator 1 view .LVU647
 1945 0176 3B46     		mov	r3, r7
 1946              	.LVL259:
 970:Middlewares/Third_Party/LibJPEG/source/jdhuff.c **** 	      r = GET_BITS(r);
 1947              		.loc 1 970 8 is_stmt 0 discriminator 1 view .LVU648
 1948 0178 2A46     		mov	r2, r5
 1949 017a 5946     		mov	r1, fp
 1950 017c 4BA8     		add	r0, sp, #300
 1951              	.LVL260:
 970:Middlewares/Third_Party/LibJPEG/source/jdhuff.c **** 	      r = GET_BITS(r);
 1952              		.loc 1 970 8 discriminator 1 view .LVU649
 1953 017e FFF7FEFF 		bl	jpeg_fill_bit_buffer
 1954              	.LVL261:
 1955 0182 0028     		cmp	r0, #0
 1956 0184 00F0A980 		beq	.L146
 970:Middlewares/Third_Party/LibJPEG/source/jdhuff.c **** 	      r = GET_BITS(r);
 1957              		.loc 1 970 8 is_stmt 1 discriminator 4 view .LVU650
 1958 0188 DDF834B1 		ldr	fp, [sp, #308]
 1959              	.LVL262:
 970:Middlewares/Third_Party/LibJPEG/source/jdhuff.c **** 	      r = GET_BITS(r);
 1960              		.loc 1 970 8 discriminator 4 view .LVU651
 1961 018c 4E9D     		ldr	r5, [sp, #312]
 1962              	.LVL263:
 970:Middlewares/Third_Party/LibJPEG/source/jdhuff.c **** 	      r = GET_BITS(r);
 1963              		.loc 1 970 8 is_stmt 0 discriminator 4 view .LVU652
 1964 018e E7E7     		b	.L123
 1965              	.L121:
 963:Middlewares/Third_Party/LibJPEG/source/jdhuff.c **** 	  else
 1966              		.loc 1 963 8 view .LVU653
 1967 0190 079E     		ldr	r6, [sp, #28]
ARM GAS  /var/folders/mq/wg13gp494590nh4zyt09lxf00000gn/T//ccUYufpr.s 			page 59


 1968              	.LVL264:
 963:Middlewares/Third_Party/LibJPEG/source/jdhuff.c **** 	  else
 1969              		.loc 1 963 8 view .LVU654
 1970 0192 5946     		mov	r1, fp
 1971 0194 2A46     		mov	r2, r5
 1972 0196 3D46     		mov	r5, r7
 1973              	.LVL265:
 963:Middlewares/Third_Party/LibJPEG/source/jdhuff.c **** 	  else
 1974              		.loc 1 963 8 view .LVU655
 1975 0198 B346     		mov	fp, r6
 1976              	.LVL266:
 963:Middlewares/Third_Party/LibJPEG/source/jdhuff.c **** 	  else
 1977              		.loc 1 963 8 view .LVU656
 1978 019a 14E0     		b	.L129
 1979              	.LVL267:
 1980              	.L155:
 985:Middlewares/Third_Party/LibJPEG/source/jdhuff.c **** 	    if (GET_BITS(1)) {
 1981              		.loc 1 985 6 is_stmt 1 discriminator 1 view .LVU657
 1982 019c 0123     		movs	r3, #1
 1983 019e 4BA8     		add	r0, sp, #300
 1984 01a0 FFF7FEFF 		bl	jpeg_fill_bit_buffer
 1985              	.LVL268:
 985:Middlewares/Third_Party/LibJPEG/source/jdhuff.c **** 	    if (GET_BITS(1)) {
 1986              		.loc 1 985 6 is_stmt 0 discriminator 1 view .LVU658
 1987 01a4 0028     		cmp	r0, #0
 1988 01a6 00F09A80 		beq	.L147
 985:Middlewares/Third_Party/LibJPEG/source/jdhuff.c **** 	    if (GET_BITS(1)) {
 1989              		.loc 1 985 6 is_stmt 1 discriminator 4 view .LVU659
 1990 01aa 4D99     		ldr	r1, [sp, #308]
 1991              	.LVL269:
 985:Middlewares/Third_Party/LibJPEG/source/jdhuff.c **** 	    if (GET_BITS(1)) {
 1992              		.loc 1 985 6 discriminator 4 view .LVU660
 1993 01ac 4E9A     		ldr	r2, [sp, #312]
 1994              	.LVL270:
 985:Middlewares/Third_Party/LibJPEG/source/jdhuff.c **** 	    if (GET_BITS(1)) {
 1995              		.loc 1 985 6 is_stmt 0 discriminator 4 view .LVU661
 1996 01ae 12E0     		b	.L125
 1997              	.L127:
 991:Middlewares/Third_Party/LibJPEG/source/jdhuff.c **** 	      }
 1998              		.loc 1 991 5 is_stmt 1 view .LVU662
 991:Middlewares/Third_Party/LibJPEG/source/jdhuff.c **** 	      }
 1999              		.loc 1 991 15 is_stmt 0 view .LVU663
 2000 01b0 0598     		ldr	r0, [sp, #20]
 2001 01b2 10FA83F3 		uxtah	r3, r0, r3
 2002 01b6 28F81730 		strh	r3, [r8, r7, lsl #1]	@ movhi
 2003 01ba 01E0     		b	.L126
 2004              	.L124:
 995:Middlewares/Third_Party/LibJPEG/source/jdhuff.c **** 	      break;		/* reached target zero coefficient */
 2005              		.loc 1 995 6 is_stmt 1 view .LVU664
 2006              	.LVL271:
 995:Middlewares/Third_Party/LibJPEG/source/jdhuff.c **** 	      break;		/* reached target zero coefficient */
 2007              		.loc 1 995 9 is_stmt 0 view .LVU665
 2008 01bc 013D     		subs	r5, r5, #1
 2009              	.LVL272:
 995:Middlewares/Third_Party/LibJPEG/source/jdhuff.c **** 	      break;		/* reached target zero coefficient */
 2010              		.loc 1 995 9 view .LVU666
 2011 01be 1BD4     		bmi	.L128
ARM GAS  /var/folders/mq/wg13gp494590nh4zyt09lxf00000gn/T//ccUYufpr.s 			page 60


 2012              	.L126:
 998:Middlewares/Third_Party/LibJPEG/source/jdhuff.c **** 	} while (k <= Se);
 2013              		.loc 1 998 4 is_stmt 1 view .LVU667
 998:Middlewares/Third_Party/LibJPEG/source/jdhuff.c **** 	} while (k <= Se);
 2014              		.loc 1 998 5 is_stmt 0 view .LVU668
 2015 01c0 0134     		adds	r4, r4, #1
 2016              	.LVL273:
 999:Middlewares/Third_Party/LibJPEG/source/jdhuff.c **** 	if (s) {
 2017              		.loc 1 999 13 is_stmt 1 view .LVU669
 2018 01c2 A145     		cmp	r9, r4
 2019 01c4 18DB     		blt	.L128
 2020              	.LVL274:
 2021              	.L129:
 982:Middlewares/Third_Party/LibJPEG/source/jdhuff.c **** 	  thiscoef = *block + natural_order[k];
 2022              		.loc 1 982 2 view .LVU670
 983:Middlewares/Third_Party/LibJPEG/source/jdhuff.c **** 	  if (*thiscoef != 0) {
 2023              		.loc 1 983 4 view .LVU671
 983:Middlewares/Third_Party/LibJPEG/source/jdhuff.c **** 	  if (*thiscoef != 0) {
 2024              		.loc 1 983 37 is_stmt 0 view .LVU672
 2025 01c6 5AF82470 		ldr	r7, [r10, r4, lsl #2]
 2026              	.LVL275:
 984:Middlewares/Third_Party/LibJPEG/source/jdhuff.c **** 	    CHECK_BIT_BUFFER(br_state, 1, goto undoit);
 2027              		.loc 1 984 4 is_stmt 1 view .LVU673
 984:Middlewares/Third_Party/LibJPEG/source/jdhuff.c **** 	    CHECK_BIT_BUFFER(br_state, 1, goto undoit);
 2028              		.loc 1 984 8 is_stmt 0 view .LVU674
 2029 01ca 38F91730 		ldrsh	r3, [r8, r7, lsl #1]
 984:Middlewares/Third_Party/LibJPEG/source/jdhuff.c **** 	    CHECK_BIT_BUFFER(br_state, 1, goto undoit);
 2030              		.loc 1 984 7 view .LVU675
 2031 01ce 002B     		cmp	r3, #0
 2032 01d0 F4D0     		beq	.L124
 985:Middlewares/Third_Party/LibJPEG/source/jdhuff.c **** 	    if (GET_BITS(1)) {
 2033              		.loc 1 985 6 is_stmt 1 view .LVU676
 2034 01d2 002A     		cmp	r2, #0
 2035 01d4 E2DD     		ble	.L155
 2036              	.L125:
 985:Middlewares/Third_Party/LibJPEG/source/jdhuff.c **** 	    if (GET_BITS(1)) {
 2037              		.loc 1 985 48 discriminator 5 view .LVU677
 986:Middlewares/Third_Party/LibJPEG/source/jdhuff.c **** 	      if ((*thiscoef & p1) == 0) { /* do nothing if already set it */
 2038              		.loc 1 986 6 view .LVU678
 986:Middlewares/Third_Party/LibJPEG/source/jdhuff.c **** 	      if ((*thiscoef & p1) == 0) { /* do nothing if already set it */
 2039              		.loc 1 986 10 is_stmt 0 view .LVU679
 2040 01d6 013A     		subs	r2, r2, #1
 2041              	.LVL276:
 986:Middlewares/Third_Party/LibJPEG/source/jdhuff.c **** 	      if ((*thiscoef & p1) == 0) { /* do nothing if already set it */
 2042              		.loc 1 986 10 view .LVU680
 2043 01d8 41FA02F3 		asr	r3, r1, r2
 986:Middlewares/Third_Party/LibJPEG/source/jdhuff.c **** 	      if ((*thiscoef & p1) == 0) { /* do nothing if already set it */
 2044              		.loc 1 986 9 view .LVU681
 2045 01dc 13F0010F 		tst	r3, #1
 2046 01e0 EED0     		beq	.L126
 987:Middlewares/Third_Party/LibJPEG/source/jdhuff.c **** 		if (*thiscoef >= 0)
 2047              		.loc 1 987 8 is_stmt 1 view .LVU682
 987:Middlewares/Third_Party/LibJPEG/source/jdhuff.c **** 		if (*thiscoef >= 0)
 2048              		.loc 1 987 13 is_stmt 0 view .LVU683
 2049 01e2 38F91730 		ldrsh	r3, [r8, r7, lsl #1]
 987:Middlewares/Third_Party/LibJPEG/source/jdhuff.c **** 		if (*thiscoef >= 0)
 2050              		.loc 1 987 11 view .LVU684
ARM GAS  /var/folders/mq/wg13gp494590nh4zyt09lxf00000gn/T//ccUYufpr.s 			page 61


 2051 01e6 3342     		tst	r3, r6
 2052 01e8 EAD1     		bne	.L126
 988:Middlewares/Third_Party/LibJPEG/source/jdhuff.c **** 		  *thiscoef += p1;
 2053              		.loc 1 988 3 is_stmt 1 view .LVU685
 988:Middlewares/Third_Party/LibJPEG/source/jdhuff.c **** 		  *thiscoef += p1;
 2054              		.loc 1 988 6 is_stmt 0 view .LVU686
 2055 01ea 002B     		cmp	r3, #0
 2056 01ec E0DB     		blt	.L127
 989:Middlewares/Third_Party/LibJPEG/source/jdhuff.c **** 		else
 2057              		.loc 1 989 5 is_stmt 1 view .LVU687
 989:Middlewares/Third_Party/LibJPEG/source/jdhuff.c **** 		else
 2058              		.loc 1 989 15 is_stmt 0 view .LVU688
 2059 01ee 16FA83F3 		uxtah	r3, r6, r3
 2060 01f2 28F81730 		strh	r3, [r8, r7, lsl #1]	@ movhi
 2061 01f6 E3E7     		b	.L126
 2062              	.L128:
1000:Middlewares/Third_Party/LibJPEG/source/jdhuff.c **** 	  int pos = natural_order[k];
 2063              		.loc 1 1000 5 view .LVU689
 2064 01f8 1546     		mov	r5, r2
 2065              	.LVL277:
1000:Middlewares/Third_Party/LibJPEG/source/jdhuff.c **** 	  int pos = natural_order[k];
 2066              		.loc 1 1000 5 view .LVU690
 2067 01fa 5846     		mov	r0, fp
 2068 01fc 8B46     		mov	fp, r1
 2069              	.LVL278:
1000:Middlewares/Third_Party/LibJPEG/source/jdhuff.c **** 	  int pos = natural_order[k];
 2070              		.loc 1 1000 2 is_stmt 1 view .LVU691
1000:Middlewares/Third_Party/LibJPEG/source/jdhuff.c **** 	  int pos = natural_order[k];
 2071              		.loc 1 1000 5 is_stmt 0 view .LVU692
 2072 01fe 48B1     		cbz	r0, .L130
 2073              	.LVL279:
 2074              	.LBB11:
1001:Middlewares/Third_Party/LibJPEG/source/jdhuff.c **** 	  /* Output newly nonzero coefficient */
 2075              		.loc 1 1001 4 is_stmt 1 view .LVU693
1001:Middlewares/Third_Party/LibJPEG/source/jdhuff.c **** 	  /* Output newly nonzero coefficient */
 2076              		.loc 1 1001 8 is_stmt 0 view .LVU694
 2077 0200 5AF82430 		ldr	r3, [r10, r4, lsl #2]
 2078              	.LVL280:
1003:Middlewares/Third_Party/LibJPEG/source/jdhuff.c **** 	  /* Remember its position in case we have to suspend */
 2079              		.loc 1 1003 4 is_stmt 1 view .LVU695
1003:Middlewares/Third_Party/LibJPEG/source/jdhuff.c **** 	  /* Remember its position in case we have to suspend */
 2080              		.loc 1 1003 18 is_stmt 0 view .LVU696
 2081 0204 28F81300 		strh	r0, [r8, r3, lsl #1]	@ movhi
1005:Middlewares/Third_Party/LibJPEG/source/jdhuff.c **** 	}
 2082              		.loc 1 1005 4 is_stmt 1 view .LVU697
 2083              	.LVL281:
1005:Middlewares/Third_Party/LibJPEG/source/jdhuff.c **** 	}
 2084              		.loc 1 1005 27 is_stmt 0 view .LVU698
 2085 0208 0BAA     		add	r2, sp, #44
 2086              	.LVL282:
1005:Middlewares/Third_Party/LibJPEG/source/jdhuff.c **** 	}
 2087              		.loc 1 1005 27 view .LVU699
 2088 020a 0699     		ldr	r1, [sp, #24]
 2089              	.LVL283:
1005:Middlewares/Third_Party/LibJPEG/source/jdhuff.c **** 	}
 2090              		.loc 1 1005 27 view .LVU700
 2091 020c 42F82130 		str	r3, [r2, r1, lsl #2]
ARM GAS  /var/folders/mq/wg13gp494590nh4zyt09lxf00000gn/T//ccUYufpr.s 			page 62


1005:Middlewares/Third_Party/LibJPEG/source/jdhuff.c **** 	}
 2092              		.loc 1 1005 23 view .LVU701
 2093 0210 4B1C     		adds	r3, r1, #1
 2094              	.LVL284:
1005:Middlewares/Third_Party/LibJPEG/source/jdhuff.c **** 	}
 2095              		.loc 1 1005 23 view .LVU702
 2096 0212 0693     		str	r3, [sp, #24]
 2097              	.LVL285:
 2098              	.L130:
1005:Middlewares/Third_Party/LibJPEG/source/jdhuff.c **** 	}
 2099              		.loc 1 1005 23 view .LVU703
 2100              	.LBE11:
 954:Middlewares/Third_Party/LibJPEG/source/jdhuff.c **** 	HUFF_DECODE(s, br_state, tbl, goto undoit, label3);
 2101              		.loc 1 954 24 is_stmt 1 view .LVU704
 2102 0214 0134     		adds	r4, r4, #1
 2103              	.LVL286:
 2104              	.L110:
 954:Middlewares/Third_Party/LibJPEG/source/jdhuff.c **** 	HUFF_DECODE(s, br_state, tbl, goto undoit, label3);
 2105              		.loc 1 954 16 discriminator 1 view .LVU705
 2106 0216 4C45     		cmp	r4, r9
 2107 0218 19DC     		bgt	.L156
 2108              	.LBB12:
 955:Middlewares/Third_Party/LibJPEG/source/jdhuff.c **** 	r = s >> 4;
 2109              		.loc 1 955 2 view .LVU706
 955:Middlewares/Third_Party/LibJPEG/source/jdhuff.c **** 	r = s >> 4;
 2110              		.loc 1 955 2 view .LVU707
 2111 021a 072D     		cmp	r5, #7
 2112 021c 7FF746AF 		ble	.L157
 2113              	.L112:
 955:Middlewares/Third_Party/LibJPEG/source/jdhuff.c **** 	r = s >> 4;
 2114              		.loc 1 955 2 discriminator 6 view .LVU708
 2115 0220 A5F10803 		sub	r3, r5, #8
 2116 0224 4BFA03F3 		asr	r3, fp, r3
 2117 0228 DBB2     		uxtb	r3, r3
 2118              	.LVL287:
 955:Middlewares/Third_Party/LibJPEG/source/jdhuff.c **** 	r = s >> 4;
 2119              		.loc 1 955 2 discriminator 6 view .LVU709
 2120 022a 03F12402 		add	r2, r3, #36
 2121 022e 0499     		ldr	r1, [sp, #16]
 2122 0230 51F82220 		ldr	r2, [r1, r2, lsl #2]
 2123              	.LVL288:
 955:Middlewares/Third_Party/LibJPEG/source/jdhuff.c **** 	r = s >> 4;
 2124              		.loc 1 955 2 is_stmt 0 discriminator 6 view .LVU710
 2125 0234 002A     		cmp	r2, #0
 2126 0236 3FF44AAF 		beq	.L141
 955:Middlewares/Third_Party/LibJPEG/source/jdhuff.c **** 	r = s >> 4;
 2127              		.loc 1 955 2 is_stmt 1 discriminator 8 view .LVU711
 2128 023a AD1A     		subs	r5, r5, r2
 2129              	.LVL289:
 955:Middlewares/Third_Party/LibJPEG/source/jdhuff.c **** 	r = s >> 4;
 2130              		.loc 1 955 2 discriminator 8 view .LVU712
 2131 023c 0B44     		add	r3, r3, r1
 2132              	.LVL290:
 955:Middlewares/Third_Party/LibJPEG/source/jdhuff.c **** 	r = s >> 4;
 2133              		.loc 1 955 2 is_stmt 0 discriminator 8 view .LVU713
 2134 023e 93F89004 		ldrb	r0, [r3, #1168]	@ zero_extendqisi2
 2135              	.LVL291:
ARM GAS  /var/folders/mq/wg13gp494590nh4zyt09lxf00000gn/T//ccUYufpr.s 			page 63


 955:Middlewares/Third_Party/LibJPEG/source/jdhuff.c **** 	r = s >> 4;
 2136              		.loc 1 955 2 discriminator 8 view .LVU714
 2137 0242 52E7     		b	.L116
 2138              	.LVL292:
 2139              	.L139:
 955:Middlewares/Third_Party/LibJPEG/source/jdhuff.c **** 	r = s >> 4;
 2140              		.loc 1 955 2 discriminator 8 view .LVU715
 2141              	.LBE12:
 948:Middlewares/Third_Party/LibJPEG/source/jdhuff.c **** 
 2142              		.loc 1 948 15 view .LVU716
 2143 0244 029A     		ldr	r2, [sp, #8]
 2144              	.LVL293:
 948:Middlewares/Third_Party/LibJPEG/source/jdhuff.c **** 
 2145              		.loc 1 948 15 view .LVU717
 2146 0246 0692     		str	r2, [sp, #24]
 2147 0248 0493     		str	r3, [sp, #16]
 2148 024a 0996     		str	r6, [sp, #36]
 2149 024c E3E7     		b	.L110
 2150              	.LVL294:
 2151              	.L156:
 948:Middlewares/Third_Party/LibJPEG/source/jdhuff.c **** 
 2152              		.loc 1 948 15 view .LVU718
 2153 024e 099E     		ldr	r6, [sp, #36]
 2154 0250 0CE7     		b	.L111
 2155              	.LVL295:
 2156              	.L159:
1019:Middlewares/Third_Party/LibJPEG/source/jdhuff.c **** 	  if (GET_BITS(1)) {
 2157              		.loc 1 1019 4 is_stmt 1 discriminator 1 view .LVU719
 2158 0252 0123     		movs	r3, #1
 2159 0254 4BA8     		add	r0, sp, #300
 2160 0256 FFF7FEFF 		bl	jpeg_fill_bit_buffer
 2161              	.LVL296:
1019:Middlewares/Third_Party/LibJPEG/source/jdhuff.c **** 	  if (GET_BITS(1)) {
 2162              		.loc 1 1019 4 is_stmt 0 discriminator 1 view .LVU720
 2163 025a 0028     		cmp	r0, #0
 2164 025c 41D0     		beq	.L149
1019:Middlewares/Third_Party/LibJPEG/source/jdhuff.c **** 	  if (GET_BITS(1)) {
 2165              		.loc 1 1019 4 is_stmt 1 discriminator 4 view .LVU721
 2166 025e 4D99     		ldr	r1, [sp, #308]
 2167              	.LVL297:
1019:Middlewares/Third_Party/LibJPEG/source/jdhuff.c **** 	  if (GET_BITS(1)) {
 2168              		.loc 1 1019 4 discriminator 4 view .LVU722
 2169 0260 4E9A     		ldr	r2, [sp, #312]
 2170              	.LVL298:
1019:Middlewares/Third_Party/LibJPEG/source/jdhuff.c **** 	  if (GET_BITS(1)) {
 2171              		.loc 1 1019 4 is_stmt 0 discriminator 4 view .LVU723
 2172 0262 0FE0     		b	.L135
 2173              	.L136:
1025:Middlewares/Third_Party/LibJPEG/source/jdhuff.c **** 	    }
 2174              		.loc 1 1025 3 is_stmt 1 view .LVU724
1025:Middlewares/Third_Party/LibJPEG/source/jdhuff.c **** 	    }
 2175              		.loc 1 1025 13 is_stmt 0 view .LVU725
 2176 0264 0598     		ldr	r0, [sp, #20]
 2177 0266 10FA83F3 		uxtah	r3, r0, r3
 2178 026a 28F81730 		strh	r3, [r8, r7, lsl #1]	@ movhi
 2179              	.L134:
1016:Middlewares/Third_Party/LibJPEG/source/jdhuff.c **** 	thiscoef = *block + natural_order[k];
ARM GAS  /var/folders/mq/wg13gp494590nh4zyt09lxf00000gn/T//ccUYufpr.s 			page 64


 2180              		.loc 1 1016 24 is_stmt 1 view .LVU726
 2181 026e 0134     		adds	r4, r4, #1
 2182              	.LVL299:
 2183              	.L132:
1016:Middlewares/Third_Party/LibJPEG/source/jdhuff.c **** 	thiscoef = *block + natural_order[k];
 2184              		.loc 1 1016 16 discriminator 1 view .LVU727
 2185 0270 4C45     		cmp	r4, r9
 2186 0272 1CDC     		bgt	.L158
1017:Middlewares/Third_Party/LibJPEG/source/jdhuff.c **** 	if (*thiscoef != 0) {
 2187              		.loc 1 1017 2 view .LVU728
1017:Middlewares/Third_Party/LibJPEG/source/jdhuff.c **** 	if (*thiscoef != 0) {
 2188              		.loc 1 1017 35 is_stmt 0 view .LVU729
 2189 0274 5AF82470 		ldr	r7, [r10, r4, lsl #2]
 2190              	.LVL300:
1018:Middlewares/Third_Party/LibJPEG/source/jdhuff.c **** 	  CHECK_BIT_BUFFER(br_state, 1, goto undoit);
 2191              		.loc 1 1018 2 is_stmt 1 view .LVU730
1018:Middlewares/Third_Party/LibJPEG/source/jdhuff.c **** 	  CHECK_BIT_BUFFER(br_state, 1, goto undoit);
 2192              		.loc 1 1018 6 is_stmt 0 view .LVU731
 2193 0278 38F91730 		ldrsh	r3, [r8, r7, lsl #1]
1018:Middlewares/Third_Party/LibJPEG/source/jdhuff.c **** 	  CHECK_BIT_BUFFER(br_state, 1, goto undoit);
 2194              		.loc 1 1018 5 view .LVU732
 2195 027c 002B     		cmp	r3, #0
 2196 027e F6D0     		beq	.L134
1019:Middlewares/Third_Party/LibJPEG/source/jdhuff.c **** 	  if (GET_BITS(1)) {
 2197              		.loc 1 1019 4 is_stmt 1 view .LVU733
 2198 0280 002A     		cmp	r2, #0
 2199 0282 E6DD     		ble	.L159
 2200              	.L135:
1019:Middlewares/Third_Party/LibJPEG/source/jdhuff.c **** 	  if (GET_BITS(1)) {
 2201              		.loc 1 1019 46 discriminator 5 view .LVU734
1020:Middlewares/Third_Party/LibJPEG/source/jdhuff.c **** 	    if ((*thiscoef & p1) == 0) { /* do nothing if already changed it */
 2202              		.loc 1 1020 4 view .LVU735
1020:Middlewares/Third_Party/LibJPEG/source/jdhuff.c **** 	    if ((*thiscoef & p1) == 0) { /* do nothing if already changed it */
 2203              		.loc 1 1020 8 is_stmt 0 view .LVU736
 2204 0284 013A     		subs	r2, r2, #1
 2205              	.LVL301:
1020:Middlewares/Third_Party/LibJPEG/source/jdhuff.c **** 	    if ((*thiscoef & p1) == 0) { /* do nothing if already changed it */
 2206              		.loc 1 1020 8 view .LVU737
 2207 0286 41FA02F3 		asr	r3, r1, r2
1020:Middlewares/Third_Party/LibJPEG/source/jdhuff.c **** 	    if ((*thiscoef & p1) == 0) { /* do nothing if already changed it */
 2208              		.loc 1 1020 7 view .LVU738
 2209 028a 13F0010F 		tst	r3, #1
 2210 028e EED0     		beq	.L134
1021:Middlewares/Third_Party/LibJPEG/source/jdhuff.c **** 	      if (*thiscoef >= 0)
 2211              		.loc 1 1021 6 is_stmt 1 view .LVU739
1021:Middlewares/Third_Party/LibJPEG/source/jdhuff.c **** 	      if (*thiscoef >= 0)
 2212              		.loc 1 1021 11 is_stmt 0 view .LVU740
 2213 0290 38F91730 		ldrsh	r3, [r8, r7, lsl #1]
1021:Middlewares/Third_Party/LibJPEG/source/jdhuff.c **** 	      if (*thiscoef >= 0)
 2214              		.loc 1 1021 9 view .LVU741
 2215 0294 2B42     		tst	r3, r5
 2216 0296 EAD1     		bne	.L134
1022:Middlewares/Third_Party/LibJPEG/source/jdhuff.c **** 		*thiscoef += p1;
 2217              		.loc 1 1022 8 is_stmt 1 view .LVU742
1022:Middlewares/Third_Party/LibJPEG/source/jdhuff.c **** 		*thiscoef += p1;
 2218              		.loc 1 1022 11 is_stmt 0 view .LVU743
 2219 0298 002B     		cmp	r3, #0
ARM GAS  /var/folders/mq/wg13gp494590nh4zyt09lxf00000gn/T//ccUYufpr.s 			page 65


 2220 029a E3DB     		blt	.L136
1023:Middlewares/Third_Party/LibJPEG/source/jdhuff.c **** 	      else
 2221              		.loc 1 1023 3 is_stmt 1 view .LVU744
1023:Middlewares/Third_Party/LibJPEG/source/jdhuff.c **** 	      else
 2222              		.loc 1 1023 13 is_stmt 0 view .LVU745
 2223 029c 15FA83F3 		uxtah	r3, r5, r3
 2224 02a0 28F81730 		strh	r3, [r8, r7, lsl #1]	@ movhi
 2225 02a4 E3E7     		b	.L134
 2226              	.LVL302:
 2227              	.L148:
1023:Middlewares/Third_Party/LibJPEG/source/jdhuff.c **** 	      else
 2228              		.loc 1 1023 13 view .LVU746
 2229 02a6 5946     		mov	r1, fp
 2230 02a8 2A46     		mov	r2, r5
 2231 02aa 079D     		ldr	r5, [sp, #28]
 2232              	.LVL303:
1023:Middlewares/Third_Party/LibJPEG/source/jdhuff.c **** 	      else
 2233              		.loc 1 1023 13 view .LVU747
 2234 02ac E0E7     		b	.L132
 2235              	.LVL304:
 2236              	.L158:
1031:Middlewares/Third_Party/LibJPEG/source/jdhuff.c ****     }
 2237              		.loc 1 1031 13 view .LVU748
 2238 02ae 8B46     		mov	fp, r1
 2239 02b0 1546     		mov	r5, r2
1031:Middlewares/Third_Party/LibJPEG/source/jdhuff.c ****     }
 2240              		.loc 1 1031 7 is_stmt 1 view .LVU749
1031:Middlewares/Third_Party/LibJPEG/source/jdhuff.c ****     }
 2241              		.loc 1 1031 13 is_stmt 0 view .LVU750
 2242 02b2 089B     		ldr	r3, [sp, #32]
 2243 02b4 013B     		subs	r3, r3, #1
 2244 02b6 0893     		str	r3, [sp, #32]
 2245              	.LVL305:
1031:Middlewares/Third_Party/LibJPEG/source/jdhuff.c ****     }
 2246              		.loc 1 1031 13 view .LVU751
 2247 02b8 DCE6     		b	.L133
 2248              	.LVL306:
 2249              	.L138:
1047:Middlewares/Third_Party/LibJPEG/source/jdhuff.c **** 
 2250              		.loc 1 1047 5 is_stmt 1 view .LVU752
1047:Middlewares/Third_Party/LibJPEG/source/jdhuff.c **** 
 2251              		.loc 1 1047 38 is_stmt 0 view .LVU753
 2252 02ba 013B     		subs	r3, r3, #1
 2253              	.LVL307:
1047:Middlewares/Third_Party/LibJPEG/source/jdhuff.c **** 
 2254              		.loc 1 1047 23 view .LVU754
 2255 02bc 0BAA     		add	r2, sp, #44
 2256 02be 52F82320 		ldr	r2, [r2, r3, lsl #2]
1047:Middlewares/Third_Party/LibJPEG/source/jdhuff.c **** 
 2257              		.loc 1 1047 38 view .LVU755
 2258 02c2 0021     		movs	r1, #0
 2259 02c4 28F81210 		strh	r1, [r8, r2, lsl #1]	@ movhi
 2260              	.LVL308:
 2261              	.L114:
1046:Middlewares/Third_Party/LibJPEG/source/jdhuff.c ****     (*block)[newnz_pos[--num_newnz]] = 0;
 2262              		.loc 1 1046 20 is_stmt 1 view .LVU756
 2263 02c8 002B     		cmp	r3, #0
ARM GAS  /var/folders/mq/wg13gp494590nh4zyt09lxf00000gn/T//ccUYufpr.s 			page 66


 2264 02ca F6DC     		bgt	.L138
 2265 02cc E4E6     		b	.L106
 2266              	.LVL309:
 2267              	.L142:
1046:Middlewares/Third_Party/LibJPEG/source/jdhuff.c ****     (*block)[newnz_pos[--num_newnz]] = 0;
 2268              		.loc 1 1046 20 is_stmt 0 view .LVU757
 2269 02ce 069B     		ldr	r3, [sp, #24]
 2270 02d0 FAE7     		b	.L114
 2271              	.LVL310:
 2272              	.L143:
1046:Middlewares/Third_Party/LibJPEG/source/jdhuff.c ****     (*block)[newnz_pos[--num_newnz]] = 0;
 2273              		.loc 1 1046 20 view .LVU758
 2274 02d2 069B     		ldr	r3, [sp, #24]
 2275 02d4 F8E7     		b	.L114
 2276              	.LVL311:
 2277              	.L144:
1046:Middlewares/Third_Party/LibJPEG/source/jdhuff.c ****     (*block)[newnz_pos[--num_newnz]] = 0;
 2278              		.loc 1 1046 20 view .LVU759
 2279 02d6 069B     		ldr	r3, [sp, #24]
 2280 02d8 F6E7     		b	.L114
 2281              	.L146:
1046:Middlewares/Third_Party/LibJPEG/source/jdhuff.c ****     (*block)[newnz_pos[--num_newnz]] = 0;
 2282              		.loc 1 1046 20 view .LVU760
 2283 02da 069B     		ldr	r3, [sp, #24]
 2284 02dc F4E7     		b	.L114
 2285              	.LVL312:
 2286              	.L147:
1046:Middlewares/Third_Party/LibJPEG/source/jdhuff.c ****     (*block)[newnz_pos[--num_newnz]] = 0;
 2287              		.loc 1 1046 20 view .LVU761
 2288 02de 069B     		ldr	r3, [sp, #24]
 2289 02e0 F2E7     		b	.L114
 2290              	.LVL313:
 2291              	.L149:
1046:Middlewares/Third_Party/LibJPEG/source/jdhuff.c ****     (*block)[newnz_pos[--num_newnz]] = 0;
 2292              		.loc 1 1046 20 view .LVU762
 2293 02e2 069B     		ldr	r3, [sp, #24]
 2294 02e4 F0E7     		b	.L114
 2295              	.L161:
 2296 02e6 00BF     		.align	2
 2297              	.L160:
 2298 02e8 00000000 		.word	bmask
 2299              		.cfi_endproc
 2300              	.LFE154:
 2302              		.section	.text.decode_mcu_sub,"ax",%progbits
 2303              		.align	1
 2304              		.syntax unified
 2305              		.thumb
 2306              		.thumb_func
 2308              	decode_mcu_sub:
 2309              	.LVL314:
 2310              	.LFB155:
1051:Middlewares/Third_Party/LibJPEG/source/jdhuff.c **** 
1052:Middlewares/Third_Party/LibJPEG/source/jdhuff.c **** 
1053:Middlewares/Third_Party/LibJPEG/source/jdhuff.c **** /*
1054:Middlewares/Third_Party/LibJPEG/source/jdhuff.c ****  * Decode one MCU's worth of Huffman-compressed coefficients,
1055:Middlewares/Third_Party/LibJPEG/source/jdhuff.c ****  * partial blocks.
1056:Middlewares/Third_Party/LibJPEG/source/jdhuff.c ****  */
ARM GAS  /var/folders/mq/wg13gp494590nh4zyt09lxf00000gn/T//ccUYufpr.s 			page 67


1057:Middlewares/Third_Party/LibJPEG/source/jdhuff.c **** 
1058:Middlewares/Third_Party/LibJPEG/source/jdhuff.c **** METHODDEF(boolean)
1059:Middlewares/Third_Party/LibJPEG/source/jdhuff.c **** decode_mcu_sub (j_decompress_ptr cinfo, JBLOCKROW *MCU_data)
1060:Middlewares/Third_Party/LibJPEG/source/jdhuff.c **** {
 2311              		.loc 1 1060 1 is_stmt 1 view -0
 2312              		.cfi_startproc
 2313              		@ args = 0, pretend = 0, frame = 64
 2314              		@ frame_needed = 0, uses_anonymous_args = 0
 2315              		.loc 1 1060 1 is_stmt 0 view .LVU764
 2316 0000 2DE9F04F 		push	{r4, r5, r6, r7, r8, r9, r10, fp, lr}
 2317              	.LCFI18:
 2318              		.cfi_def_cfa_offset 36
 2319              		.cfi_offset 4, -36
 2320              		.cfi_offset 5, -32
 2321              		.cfi_offset 6, -28
 2322              		.cfi_offset 7, -24
 2323              		.cfi_offset 8, -20
 2324              		.cfi_offset 9, -16
 2325              		.cfi_offset 10, -12
 2326              		.cfi_offset 11, -8
 2327              		.cfi_offset 14, -4
 2328 0004 93B0     		sub	sp, sp, #76
 2329              	.LCFI19:
 2330              		.cfi_def_cfa_offset 112
 2331 0006 0546     		mov	r5, r0
 2332 0008 0391     		str	r1, [sp, #12]
1061:Middlewares/Third_Party/LibJPEG/source/jdhuff.c ****   huff_entropy_ptr entropy = (huff_entropy_ptr) cinfo->entropy;
 2333              		.loc 1 1061 3 is_stmt 1 view .LVU765
 2334              		.loc 1 1061 20 is_stmt 0 view .LVU766
 2335 000a D0F8D091 		ldr	r9, [r0, #464]
 2336              	.LVL315:
1062:Middlewares/Third_Party/LibJPEG/source/jdhuff.c ****   const int * natural_order;
 2337              		.loc 1 1062 3 is_stmt 1 view .LVU767
1063:Middlewares/Third_Party/LibJPEG/source/jdhuff.c ****   int Se, blkn;
 2338              		.loc 1 1063 3 view .LVU768
1064:Middlewares/Third_Party/LibJPEG/source/jdhuff.c ****   BITREAD_STATE_VARS;
 2339              		.loc 1 1064 3 view .LVU769
 2340              		.loc 1 1064 3 view .LVU770
 2341              		.loc 1 1064 3 view .LVU771
1065:Middlewares/Third_Party/LibJPEG/source/jdhuff.c ****   savable_state state;
 2342              		.loc 1 1065 3 view .LVU772
1066:Middlewares/Third_Party/LibJPEG/source/jdhuff.c **** 
1067:Middlewares/Third_Party/LibJPEG/source/jdhuff.c ****   /* Process restart marker if needed; may have to suspend */
1068:Middlewares/Third_Party/LibJPEG/source/jdhuff.c ****   if (cinfo->restart_interval) {
 2343              		.loc 1 1068 3 view .LVU773
 2344              		.loc 1 1068 12 is_stmt 0 view .LVU774
 2345 000e D0F81831 		ldr	r3, [r0, #280]
 2346              		.loc 1 1068 6 view .LVU775
 2347 0012 1BB1     		cbz	r3, .L163
1069:Middlewares/Third_Party/LibJPEG/source/jdhuff.c ****     if (entropy->restarts_to_go == 0)
 2348              		.loc 1 1069 5 is_stmt 1 view .LVU776
 2349              		.loc 1 1069 16 is_stmt 0 view .LVU777
 2350 0014 D9F82830 		ldr	r3, [r9, #40]
 2351              		.loc 1 1069 8 view .LVU778
 2352 0018 002B     		cmp	r3, #0
 2353 001a 3FD0     		beq	.L215
 2354              	.LVL316:
ARM GAS  /var/folders/mq/wg13gp494590nh4zyt09lxf00000gn/T//ccUYufpr.s 			page 68


 2355              	.L163:
1070:Middlewares/Third_Party/LibJPEG/source/jdhuff.c ****       if (! process_restart(cinfo))
1071:Middlewares/Third_Party/LibJPEG/source/jdhuff.c **** 	return FALSE;
1072:Middlewares/Third_Party/LibJPEG/source/jdhuff.c ****   }
1073:Middlewares/Third_Party/LibJPEG/source/jdhuff.c **** 
1074:Middlewares/Third_Party/LibJPEG/source/jdhuff.c ****   /* If we've run out of data, just leave the MCU set to zeroes.
1075:Middlewares/Third_Party/LibJPEG/source/jdhuff.c ****    * This way, we return uniform gray for the remainder of the segment.
1076:Middlewares/Third_Party/LibJPEG/source/jdhuff.c ****    */
1077:Middlewares/Third_Party/LibJPEG/source/jdhuff.c ****   if (! entropy->insufficient_data) {
 2356              		.loc 1 1077 3 is_stmt 1 view .LVU779
 2357              		.loc 1 1077 16 is_stmt 0 view .LVU780
 2358 001c D9F82460 		ldr	r6, [r9, #36]
 2359              		.loc 1 1077 6 view .LVU781
 2360 0020 002E     		cmp	r6, #0
 2361 0022 40F06181 		bne	.L165
1078:Middlewares/Third_Party/LibJPEG/source/jdhuff.c **** 
1079:Middlewares/Third_Party/LibJPEG/source/jdhuff.c ****     natural_order = cinfo->natural_order;
 2362              		.loc 1 1079 5 is_stmt 1 view .LVU782
 2363              		.loc 1 1079 19 is_stmt 0 view .LVU783
 2364 0026 D5F8ACB1 		ldr	fp, [r5, #428]
 2365              	.LVL317:
1080:Middlewares/Third_Party/LibJPEG/source/jdhuff.c ****     Se = cinfo->lim_Se;
 2366              		.loc 1 1080 5 is_stmt 1 view .LVU784
 2367              		.loc 1 1080 8 is_stmt 0 view .LVU785
 2368 002a D5F8B071 		ldr	r7, [r5, #432]
 2369              	.LVL318:
1081:Middlewares/Third_Party/LibJPEG/source/jdhuff.c **** 
1082:Middlewares/Third_Party/LibJPEG/source/jdhuff.c ****     /* Load up working state */
1083:Middlewares/Third_Party/LibJPEG/source/jdhuff.c ****     BITREAD_LOAD_STATE(cinfo,entropy->bitstate);
 2370              		.loc 1 1083 5 is_stmt 1 view .LVU786
 2371 002e 1195     		str	r5, [sp, #68]
 2372              		.loc 1 1083 5 view .LVU787
 2373 0030 AB69     		ldr	r3, [r5, #24]
 2374 0032 1A68     		ldr	r2, [r3]
 2375 0034 0D92     		str	r2, [sp, #52]
 2376              		.loc 1 1083 5 view .LVU788
 2377 0036 5B68     		ldr	r3, [r3, #4]
 2378 0038 0E93     		str	r3, [sp, #56]
 2379              		.loc 1 1083 5 view .LVU789
 2380 003a D9F808E0 		ldr	lr, [r9, #8]
 2381              	.LVL319:
 2382              		.loc 1 1083 5 view .LVU790
 2383 003e D9F80CC0 		ldr	ip, [r9, #12]
 2384              	.LVL320:
 2385              		.loc 1 1083 48 view .LVU791
1084:Middlewares/Third_Party/LibJPEG/source/jdhuff.c ****     ASSIGN_STATE(state, entropy->saved);
 2386              		.loc 1 1084 5 view .LVU792
 2387 0042 08AC     		add	r4, sp, #32
 2388 0044 09F11008 		add	r8, r9, #16
 2389 0048 B8E80F00 		ldmia	r8!, {r0, r1, r2, r3}
 2390 004c 0FC4     		stmia	r4!, {r0, r1, r2, r3}
 2391 004e D8F80030 		ldr	r3, [r8]
 2392 0052 2360     		str	r3, [r4]
1085:Middlewares/Third_Party/LibJPEG/source/jdhuff.c **** 
1086:Middlewares/Third_Party/LibJPEG/source/jdhuff.c ****     /* Outer loop handles each block in the MCU */
1087:Middlewares/Third_Party/LibJPEG/source/jdhuff.c **** 
1088:Middlewares/Third_Party/LibJPEG/source/jdhuff.c ****     for (blkn = 0; blkn < cinfo->blocks_in_MCU; blkn++) {
ARM GAS  /var/folders/mq/wg13gp494590nh4zyt09lxf00000gn/T//ccUYufpr.s 			page 69


 2393              		.loc 1 1088 5 view .LVU793
 2394              	.LVL321:
 2395              		.loc 1 1088 15 is_stmt 0 view .LVU794
 2396 0054 B246     		mov	r10, r6
 2397 0056 7146     		mov	r1, lr
 2398 0058 6246     		mov	r2, ip
 2399 005a 0596     		str	r6, [sp, #20]
 2400 005c 0495     		str	r5, [sp, #16]
 2401 005e 4D46     		mov	r5, r9
 2402              	.LVL322:
 2403              	.L166:
 2404              		.loc 1 1088 25 is_stmt 1 discriminator 1 view .LVU795
 2405              		.loc 1 1088 32 is_stmt 0 discriminator 1 view .LVU796
 2406 0060 049B     		ldr	r3, [sp, #16]
 2407 0062 D3F86C31 		ldr	r3, [r3, #364]
 2408              		.loc 1 1088 25 discriminator 1 view .LVU797
 2409 0066 5345     		cmp	r3, r10
 2410 0068 40F32981 		ble	.L216
 2411              	.LBB13:
1089:Middlewares/Third_Party/LibJPEG/source/jdhuff.c ****       JBLOCKROW block = MCU_data[blkn];
 2412              		.loc 1 1089 7 is_stmt 1 view .LVU798
 2413              		.loc 1 1089 17 is_stmt 0 view .LVU799
 2414 006c 039B     		ldr	r3, [sp, #12]
 2415 006e 53F82A90 		ldr	r9, [r3, r10, lsl #2]
 2416              	.LVL323:
1090:Middlewares/Third_Party/LibJPEG/source/jdhuff.c ****       d_derived_tbl * htbl;
 2417              		.loc 1 1090 7 is_stmt 1 view .LVU800
1091:Middlewares/Third_Party/LibJPEG/source/jdhuff.c ****       register int s, k, r;
 2418              		.loc 1 1091 7 view .LVU801
1092:Middlewares/Third_Party/LibJPEG/source/jdhuff.c ****       int coef_limit, ci;
 2419              		.loc 1 1092 7 view .LVU802
1093:Middlewares/Third_Party/LibJPEG/source/jdhuff.c **** 
1094:Middlewares/Third_Party/LibJPEG/source/jdhuff.c ****       /* Decode a single block's worth of coefficients */
1095:Middlewares/Third_Party/LibJPEG/source/jdhuff.c **** 
1096:Middlewares/Third_Party/LibJPEG/source/jdhuff.c ****       /* Section F.2.2.1: decode the DC coefficient difference */
1097:Middlewares/Third_Party/LibJPEG/source/jdhuff.c ****       htbl = entropy->dc_cur_tbls[blkn];
 2420              		.loc 1 1097 7 view .LVU803
 2421              		.loc 1 1097 12 is_stmt 0 view .LVU804
 2422 0072 0AF11803 		add	r3, r10, #24
 2423 0076 55F82340 		ldr	r4, [r5, r3, lsl #2]
 2424              	.LVL324:
 2425              	.LBB14:
1098:Middlewares/Third_Party/LibJPEG/source/jdhuff.c ****       HUFF_DECODE(s, br_state, htbl, return FALSE, label1);
 2426              		.loc 1 1098 7 is_stmt 1 view .LVU805
 2427              		.loc 1 1098 7 view .LVU806
 2428 007a 072A     		cmp	r2, #7
 2429 007c 14DD     		ble	.L217
 2430              	.L167:
 2431              		.loc 1 1098 7 discriminator 6 view .LVU807
 2432 007e A2F10803 		sub	r3, r2, #8
 2433 0082 41FA03F3 		asr	r3, r1, r3
 2434 0086 DBB2     		uxtb	r3, r3
 2435              	.LVL325:
 2436              		.loc 1 1098 7 discriminator 6 view .LVU808
 2437 0088 03F12400 		add	r0, r3, #36
 2438 008c 54F82000 		ldr	r0, [r4, r0, lsl #2]
 2439              	.LVL326:
ARM GAS  /var/folders/mq/wg13gp494590nh4zyt09lxf00000gn/T//ccUYufpr.s 			page 70


 2440              		.loc 1 1098 7 is_stmt 0 discriminator 6 view .LVU809
 2441 0090 B8B1     		cbz	r0, .L196
 2442              		.loc 1 1098 7 is_stmt 1 discriminator 8 view .LVU810
 2443 0092 121A     		subs	r2, r2, r0
 2444              	.LVL327:
 2445              		.loc 1 1098 7 discriminator 8 view .LVU811
 2446 0094 2344     		add	r3, r3, r4
 2447              	.LVL328:
 2448              		.loc 1 1098 7 is_stmt 0 discriminator 8 view .LVU812
 2449 0096 93F89044 		ldrb	r4, [r3, #1168]	@ zero_extendqisi2
 2450              	.LVL329:
 2451              		.loc 1 1098 7 discriminator 8 view .LVU813
 2452 009a 1DE0     		b	.L169
 2453              	.LVL330:
 2454              	.L215:
 2455              		.loc 1 1098 7 discriminator 8 view .LVU814
 2456              	.LBE14:
 2457              	.LBE13:
1070:Middlewares/Third_Party/LibJPEG/source/jdhuff.c **** 	return FALSE;
 2458              		.loc 1 1070 7 is_stmt 1 view .LVU815
1070:Middlewares/Third_Party/LibJPEG/source/jdhuff.c **** 	return FALSE;
 2459              		.loc 1 1070 13 is_stmt 0 view .LVU816
 2460 009c FFF7FEFF 		bl	process_restart
 2461              	.LVL331:
1070:Middlewares/Third_Party/LibJPEG/source/jdhuff.c **** 	return FALSE;
 2462              		.loc 1 1070 10 discriminator 1 view .LVU817
 2463 00a0 0646     		mov	r6, r0
 2464 00a2 0028     		cmp	r0, #0
 2465 00a4 BAD1     		bne	.L163
 2466 00a6 25E1     		b	.L162
 2467              	.LVL332:
 2468              	.L217:
 2469              	.LBB23:
 2470              	.LBB15:
 2471              		.loc 1 1098 7 is_stmt 1 discriminator 1 view .LVU818
 2472 00a8 0023     		movs	r3, #0
 2473 00aa 0DA8     		add	r0, sp, #52
 2474 00ac FFF7FEFF 		bl	jpeg_fill_bit_buffer
 2475              	.LVL333:
 2476              		.loc 1 1098 7 is_stmt 0 discriminator 1 view .LVU819
 2477 00b0 0028     		cmp	r0, #0
 2478 00b2 00F02381 		beq	.L194
 2479              		.loc 1 1098 7 is_stmt 1 discriminator 4 view .LVU820
 2480 00b6 0F99     		ldr	r1, [sp, #60]
 2481              	.LVL334:
 2482              		.loc 1 1098 7 discriminator 4 view .LVU821
 2483 00b8 109A     		ldr	r2, [sp, #64]
 2484              	.LVL335:
 2485              		.loc 1 1098 7 discriminator 4 view .LVU822
 2486 00ba 072A     		cmp	r2, #7
 2487 00bc DFDC     		bgt	.L167
 2488              		.loc 1 1098 7 is_stmt 0 discriminator 5 view .LVU823
 2489 00be 0123     		movs	r3, #1
 2490 00c0 00E0     		b	.L168
 2491              	.LVL336:
 2492              	.L196:
 2493              		.loc 1 1098 7 discriminator 9 view .LVU824
ARM GAS  /var/folders/mq/wg13gp494590nh4zyt09lxf00000gn/T//ccUYufpr.s 			page 71


 2494 00c2 0923     		movs	r3, #9
 2495              	.LVL337:
 2496              	.L168:
 2497              		.loc 1 1098 7 is_stmt 1 discriminator 11 view .LVU825
 2498 00c4 0093     		str	r3, [sp]
 2499 00c6 2346     		mov	r3, r4
 2500              	.LVL338:
 2501              		.loc 1 1098 7 is_stmt 0 discriminator 11 view .LVU826
 2502 00c8 0DA8     		add	r0, sp, #52
 2503 00ca FFF7FEFF 		bl	jpeg_huff_decode
 2504              	.LVL339:
 2505              		.loc 1 1098 7 discriminator 1 view .LVU827
 2506 00ce 041E     		subs	r4, r0, #0
 2507              	.LVL340:
 2508              		.loc 1 1098 7 discriminator 1 view .LVU828
 2509 00d0 C0F22281 		blt	.L209
 2510              		.loc 1 1098 7 is_stmt 1 discriminator 13 view .LVU829
 2511 00d4 0F99     		ldr	r1, [sp, #60]
 2512              	.LVL341:
 2513              		.loc 1 1098 7 discriminator 13 view .LVU830
 2514 00d6 109A     		ldr	r2, [sp, #64]
 2515              	.LVL342:
 2516              	.L169:
 2517              		.loc 1 1098 7 is_stmt 0 discriminator 13 view .LVU831
 2518              	.LBE15:
 2519              		.loc 1 1098 59 is_stmt 1 discriminator 14 view .LVU832
1099:Middlewares/Third_Party/LibJPEG/source/jdhuff.c **** 
1100:Middlewares/Third_Party/LibJPEG/source/jdhuff.c ****       htbl = entropy->ac_cur_tbls[blkn];
 2520              		.loc 1 1100 7 view .LVU833
 2521              		.loc 1 1100 12 is_stmt 0 view .LVU834
 2522 00d8 0AF12203 		add	r3, r10, #34
 2523 00dc 55F82360 		ldr	r6, [r5, r3, lsl #2]
 2524              	.LVL343:
1101:Middlewares/Third_Party/LibJPEG/source/jdhuff.c ****       k = 1;
 2525              		.loc 1 1101 7 is_stmt 1 view .LVU835
1102:Middlewares/Third_Party/LibJPEG/source/jdhuff.c ****       coef_limit = entropy->coef_limit[blkn];
 2526              		.loc 1 1102 7 view .LVU836
 2527              		.loc 1 1102 18 is_stmt 0 view .LVU837
 2528 00e0 0AF12C03 		add	r3, r10, #44
 2529 00e4 55F82380 		ldr	r8, [r5, r3, lsl #2]
 2530              	.LVL344:
1103:Middlewares/Third_Party/LibJPEG/source/jdhuff.c ****       if (coef_limit) {
 2531              		.loc 1 1103 7 is_stmt 1 view .LVU838
 2532              		.loc 1 1103 10 is_stmt 0 view .LVU839
 2533 00e8 B8F1000F 		cmp	r8, #0
 2534 00ec 00F08D80 		beq	.L170
1104:Middlewares/Third_Party/LibJPEG/source/jdhuff.c **** 	/* Convert DC difference to actual value, update last_dc_val */
1105:Middlewares/Third_Party/LibJPEG/source/jdhuff.c **** 	if (s) {
 2535              		.loc 1 1105 2 is_stmt 1 view .LVU840
 2536              		.loc 1 1105 5 is_stmt 0 view .LVU841
 2537 00f0 74B3     		cbz	r4, .L197
1106:Middlewares/Third_Party/LibJPEG/source/jdhuff.c **** 	  CHECK_BIT_BUFFER(br_state, s, return FALSE);
 2538              		.loc 1 1106 4 is_stmt 1 view .LVU842
 2539 00f2 A242     		cmp	r2, r4
 2540 00f4 22DB     		blt	.L218
 2541              	.L172:
 2542              		.loc 1 1106 47 discriminator 5 view .LVU843
ARM GAS  /var/folders/mq/wg13gp494590nh4zyt09lxf00000gn/T//ccUYufpr.s 			page 72


1107:Middlewares/Third_Party/LibJPEG/source/jdhuff.c **** 	  r = GET_BITS(s);
 2543              		.loc 1 1107 4 view .LVU844
 2544              		.loc 1 1107 8 is_stmt 0 view .LVU845
 2545 00f6 121B     		subs	r2, r2, r4
 2546              	.LVL345:
 2547              		.loc 1 1107 8 view .LVU846
 2548 00f8 41FA02FC 		asr	ip, r1, r2
 2549 00fc 894B     		ldr	r3, .L225
 2550 00fe 53F82400 		ldr	r0, [r3, r4, lsl #2]
 2551              		.loc 1 1107 6 view .LVU847
 2552 0102 0CEA000C 		and	ip, ip, r0
 2553              	.LVL346:
1108:Middlewares/Third_Party/LibJPEG/source/jdhuff.c **** 	  s = HUFF_EXTEND(r, s);
 2554              		.loc 1 1108 4 is_stmt 1 view .LVU848
 2555              		.loc 1 1108 8 is_stmt 0 view .LVU849
 2556 0106 013C     		subs	r4, r4, #1
 2557              	.LVL347:
 2558              		.loc 1 1108 8 view .LVU850
 2559 0108 53F82430 		ldr	r3, [r3, r4, lsl #2]
 2560 010c 6345     		cmp	r3, ip
 2561 010e 01DB     		blt	.L171
 2562              		.loc 1 1108 8 discriminator 1 view .LVU851
 2563 0110 ACEB000C 		sub	ip, ip, r0
 2564              	.LVL348:
 2565              	.L171:
1109:Middlewares/Third_Party/LibJPEG/source/jdhuff.c **** 	}
1110:Middlewares/Third_Party/LibJPEG/source/jdhuff.c **** 	ci = cinfo->MCU_membership[blkn];
 2566              		.loc 1 1110 2 is_stmt 1 view .LVU852
 2567              		.loc 1 1110 5 is_stmt 0 view .LVU853
 2568 0114 0AF15C03 		add	r3, r10, #92
 2569 0118 0498     		ldr	r0, [sp, #16]
 2570 011a 50F82300 		ldr	r0, [r0, r3, lsl #2]
 2571              	.LVL349:
1111:Middlewares/Third_Party/LibJPEG/source/jdhuff.c **** 	s += state.last_dc_val[ci];
 2572              		.loc 1 1111 2 is_stmt 1 view .LVU854
 2573              		.loc 1 1111 24 is_stmt 0 view .LVU855
 2574 011e 12AB     		add	r3, sp, #72
 2575 0120 03EB8000 		add	r0, r3, r0, lsl #2
 2576              	.LVL350:
 2577              		.loc 1 1111 24 view .LVU856
 2578 0124 50F8243C 		ldr	r3, [r0, #-36]
 2579              		.loc 1 1111 4 view .LVU857
 2580 0128 6344     		add	r3, r3, ip
 2581              	.LVL351:
1112:Middlewares/Third_Party/LibJPEG/source/jdhuff.c **** 	state.last_dc_val[ci] = s;
 2582              		.loc 1 1112 2 is_stmt 1 view .LVU858
 2583              		.loc 1 1112 24 is_stmt 0 view .LVU859
 2584 012a 40F8243C 		str	r3, [r0, #-36]
1113:Middlewares/Third_Party/LibJPEG/source/jdhuff.c **** 	/* Output the DC coefficient */
1114:Middlewares/Third_Party/LibJPEG/source/jdhuff.c **** 	(*block)[0] = (JCOEF) s;
 2585              		.loc 1 1114 2 is_stmt 1 view .LVU860
 2586              		.loc 1 1114 14 is_stmt 0 view .LVU861
 2587 012e A9F80030 		strh	r3, [r9]	@ movhi
 2588              	.LVL352:
1115:Middlewares/Third_Party/LibJPEG/source/jdhuff.c **** 
1116:Middlewares/Third_Party/LibJPEG/source/jdhuff.c **** 	/* Section F.2.2.2: decode the AC coefficients */
1117:Middlewares/Third_Party/LibJPEG/source/jdhuff.c **** 	/* Since zeroes are skipped, output area must be cleared beforehand */
ARM GAS  /var/folders/mq/wg13gp494590nh4zyt09lxf00000gn/T//ccUYufpr.s 			page 73


1118:Middlewares/Third_Party/LibJPEG/source/jdhuff.c **** 	for (; k < coef_limit; k++) {
 2589              		.loc 1 1118 2 is_stmt 1 view .LVU862
1101:Middlewares/Third_Party/LibJPEG/source/jdhuff.c ****       coef_limit = entropy->coef_limit[blkn];
 2590              		.loc 1 1101 9 is_stmt 0 view .LVU863
 2591 0132 0124     		movs	r4, #1
 2592 0134 CDF818A0 		str	r10, [sp, #24]
 2593 0138 0795     		str	r5, [sp, #28]
 2594              		.loc 1 1118 2 view .LVU864
 2595 013a 40E0     		b	.L173
 2596              	.LVL353:
 2597              	.L218:
1106:Middlewares/Third_Party/LibJPEG/source/jdhuff.c **** 	  r = GET_BITS(s);
 2598              		.loc 1 1106 4 is_stmt 1 discriminator 1 view .LVU865
 2599 013c 2346     		mov	r3, r4
 2600 013e 0DA8     		add	r0, sp, #52
 2601 0140 FFF7FEFF 		bl	jpeg_fill_bit_buffer
 2602              	.LVL354:
1106:Middlewares/Third_Party/LibJPEG/source/jdhuff.c **** 	  r = GET_BITS(s);
 2603              		.loc 1 1106 4 is_stmt 0 discriminator 1 view .LVU866
 2604 0144 0028     		cmp	r0, #0
 2605 0146 00F0DB80 		beq	.L198
1106:Middlewares/Third_Party/LibJPEG/source/jdhuff.c **** 	  r = GET_BITS(s);
 2606              		.loc 1 1106 4 is_stmt 1 discriminator 4 view .LVU867
 2607 014a 0F99     		ldr	r1, [sp, #60]
 2608              	.LVL355:
1106:Middlewares/Third_Party/LibJPEG/source/jdhuff.c **** 	  r = GET_BITS(s);
 2609              		.loc 1 1106 4 discriminator 4 view .LVU868
 2610 014c 109A     		ldr	r2, [sp, #64]
 2611              	.LVL356:
1106:Middlewares/Third_Party/LibJPEG/source/jdhuff.c **** 	  r = GET_BITS(s);
 2612              		.loc 1 1106 4 is_stmt 0 discriminator 4 view .LVU869
 2613 014e D2E7     		b	.L172
 2614              	.L197:
1106:Middlewares/Third_Party/LibJPEG/source/jdhuff.c **** 	  r = GET_BITS(s);
 2615              		.loc 1 1106 4 discriminator 4 view .LVU870
 2616 0150 A446     		mov	ip, r4
 2617 0152 DFE7     		b	.L171
 2618              	.LVL357:
 2619              	.L221:
 2620              	.LBB16:
1119:Middlewares/Third_Party/LibJPEG/source/jdhuff.c **** 	  HUFF_DECODE(s, br_state, htbl, return FALSE, label2);
 2621              		.loc 1 1119 4 is_stmt 1 discriminator 1 view .LVU871
 2622 0154 0023     		movs	r3, #0
 2623 0156 0DA8     		add	r0, sp, #52
 2624 0158 FFF7FEFF 		bl	jpeg_fill_bit_buffer
 2625              	.LVL358:
 2626              		.loc 1 1119 4 is_stmt 0 discriminator 1 view .LVU872
 2627 015c 0028     		cmp	r0, #0
 2628 015e 00F0D180 		beq	.L199
 2629              		.loc 1 1119 4 is_stmt 1 discriminator 4 view .LVU873
 2630 0162 0F99     		ldr	r1, [sp, #60]
 2631              	.LVL359:
 2632              		.loc 1 1119 4 discriminator 4 view .LVU874
 2633 0164 109A     		ldr	r2, [sp, #64]
 2634              	.LVL360:
 2635              		.loc 1 1119 4 discriminator 4 view .LVU875
 2636 0166 072A     		cmp	r2, #7
ARM GAS  /var/folders/mq/wg13gp494590nh4zyt09lxf00000gn/T//ccUYufpr.s 			page 74


 2637 0168 2DDC     		bgt	.L174
 2638              		.loc 1 1119 4 is_stmt 0 discriminator 5 view .LVU876
 2639 016a 0123     		movs	r3, #1
 2640 016c 00E0     		b	.L175
 2641              	.LVL361:
 2642              	.L201:
 2643              		.loc 1 1119 4 discriminator 9 view .LVU877
 2644 016e 0923     		movs	r3, #9
 2645              	.LVL362:
 2646              	.L175:
 2647              		.loc 1 1119 4 is_stmt 1 discriminator 11 view .LVU878
 2648 0170 0093     		str	r3, [sp]
 2649 0172 3346     		mov	r3, r6
 2650              	.LVL363:
 2651              		.loc 1 1119 4 is_stmt 0 discriminator 11 view .LVU879
 2652 0174 0DA8     		add	r0, sp, #52
 2653 0176 FFF7FEFF 		bl	jpeg_huff_decode
 2654              	.LVL364:
 2655              		.loc 1 1119 4 discriminator 1 view .LVU880
 2656 017a B0F1000A 		subs	r10, r0, #0
 2657 017e C0F2CD80 		blt	.L210
 2658              		.loc 1 1119 4 is_stmt 1 discriminator 13 view .LVU881
 2659 0182 0F99     		ldr	r1, [sp, #60]
 2660              	.LVL365:
 2661              		.loc 1 1119 4 discriminator 13 view .LVU882
 2662 0184 109A     		ldr	r2, [sp, #64]
 2663              	.LVL366:
 2664              	.L176:
 2665              		.loc 1 1119 4 is_stmt 0 discriminator 13 view .LVU883
 2666              	.LBE16:
 2667              		.loc 1 1119 56 is_stmt 1 discriminator 14 view .LVU884
1120:Middlewares/Third_Party/LibJPEG/source/jdhuff.c **** 
1121:Middlewares/Third_Party/LibJPEG/source/jdhuff.c **** 	  r = s >> 4;
 2668              		.loc 1 1121 4 view .LVU885
 2669              		.loc 1 1121 6 is_stmt 0 view .LVU886
 2670 0186 4FEA2A13 		asr	r3, r10, #4
 2671              	.LVL367:
1122:Middlewares/Third_Party/LibJPEG/source/jdhuff.c **** 	  s &= 15;
 2672              		.loc 1 1122 4 is_stmt 1 view .LVU887
1123:Middlewares/Third_Party/LibJPEG/source/jdhuff.c **** 
1124:Middlewares/Third_Party/LibJPEG/source/jdhuff.c **** 	  if (s) {
 2673              		.loc 1 1124 4 view .LVU888
 2674              		.loc 1 1124 7 is_stmt 0 view .LVU889
 2675 018a 1AF00F0A 		ands	r10, r10, #15
 2676              	.LVL368:
 2677              		.loc 1 1124 7 view .LVU890
 2678 018e 34D0     		beq	.L177
1125:Middlewares/Third_Party/LibJPEG/source/jdhuff.c **** 	    k += r;
 2679              		.loc 1 1125 6 is_stmt 1 view .LVU891
 2680              		.loc 1 1125 8 is_stmt 0 view .LVU892
 2681 0190 1C44     		add	r4, r4, r3
 2682              	.LVL369:
1126:Middlewares/Third_Party/LibJPEG/source/jdhuff.c **** 	    CHECK_BIT_BUFFER(br_state, s, return FALSE);
 2683              		.loc 1 1126 6 is_stmt 1 view .LVU893
 2684 0192 5245     		cmp	r2, r10
 2685 0194 27DB     		blt	.L219
 2686              	.LVL370:
ARM GAS  /var/folders/mq/wg13gp494590nh4zyt09lxf00000gn/T//ccUYufpr.s 			page 75


 2687              	.L178:
 2688              		.loc 1 1126 49 discriminator 5 view .LVU894
1127:Middlewares/Third_Party/LibJPEG/source/jdhuff.c **** 	    r = GET_BITS(s);
 2689              		.loc 1 1127 6 view .LVU895
 2690              		.loc 1 1127 10 is_stmt 0 view .LVU896
 2691 0196 A2EB0A02 		sub	r2, r2, r10
 2692              	.LVL371:
 2693              		.loc 1 1127 10 view .LVU897
 2694 019a 41FA02F3 		asr	r3, r1, r2
 2695 019e 6148     		ldr	r0, .L225
 2696 01a0 50F82A50 		ldr	r5, [r0, r10, lsl #2]
 2697              		.loc 1 1127 8 view .LVU898
 2698 01a4 2B40     		ands	r3, r3, r5
 2699              	.LVL372:
1128:Middlewares/Third_Party/LibJPEG/source/jdhuff.c **** 	    s = HUFF_EXTEND(r, s);
 2700              		.loc 1 1128 6 is_stmt 1 view .LVU899
 2701              		.loc 1 1128 10 is_stmt 0 view .LVU900
 2702 01a6 0AF1FF3A 		add	r10, r10, #-1
 2703              	.LVL373:
 2704              		.loc 1 1128 10 view .LVU901
 2705 01aa 50F82A00 		ldr	r0, [r0, r10, lsl #2]
 2706 01ae 9842     		cmp	r0, r3
 2707 01b0 00DB     		blt	.L179
 2708              		.loc 1 1128 10 discriminator 1 view .LVU902
 2709 01b2 5B1B     		subs	r3, r3, r5
 2710              	.LVL374:
 2711              	.L179:
1129:Middlewares/Third_Party/LibJPEG/source/jdhuff.c **** 	    /* Output coefficient in natural (dezigzagged) order.
1130:Middlewares/Third_Party/LibJPEG/source/jdhuff.c **** 	     * Note: the extra entries in natural_order[] will save us
1131:Middlewares/Third_Party/LibJPEG/source/jdhuff.c **** 	     * if k > Se, which could happen if the data is corrupted.
1132:Middlewares/Third_Party/LibJPEG/source/jdhuff.c **** 	     */
1133:Middlewares/Third_Party/LibJPEG/source/jdhuff.c **** 	    (*block)[natural_order[k]] = (JCOEF) s;
 2712              		.loc 1 1133 6 is_stmt 1 view .LVU903
 2713              		.loc 1 1133 28 is_stmt 0 view .LVU904
 2714 01b4 5BF82400 		ldr	r0, [fp, r4, lsl #2]
 2715              		.loc 1 1133 33 view .LVU905
 2716 01b8 29F81030 		strh	r3, [r9, r0, lsl #1]	@ movhi
 2717              	.LVL375:
 2718              	.L180:
1118:Middlewares/Third_Party/LibJPEG/source/jdhuff.c **** 	  HUFF_DECODE(s, br_state, htbl, return FALSE, label2);
 2719              		.loc 1 1118 26 is_stmt 1 view .LVU906
 2720 01bc 0134     		adds	r4, r4, #1
 2721              	.LVL376:
 2722              	.L173:
1118:Middlewares/Third_Party/LibJPEG/source/jdhuff.c **** 	  HUFF_DECODE(s, br_state, htbl, return FALSE, label2);
 2723              		.loc 1 1118 11 discriminator 1 view .LVU907
 2724 01be 4445     		cmp	r4, r8
 2725 01c0 1FDA     		bge	.L220
 2726              	.LBB17:
1119:Middlewares/Third_Party/LibJPEG/source/jdhuff.c **** 
 2727              		.loc 1 1119 4 view .LVU908
1119:Middlewares/Third_Party/LibJPEG/source/jdhuff.c **** 
 2728              		.loc 1 1119 4 view .LVU909
 2729 01c2 072A     		cmp	r2, #7
 2730 01c4 C6DD     		ble	.L221
 2731              	.L174:
1119:Middlewares/Third_Party/LibJPEG/source/jdhuff.c **** 
ARM GAS  /var/folders/mq/wg13gp494590nh4zyt09lxf00000gn/T//ccUYufpr.s 			page 76


 2732              		.loc 1 1119 4 discriminator 6 view .LVU910
 2733 01c6 A2F10803 		sub	r3, r2, #8
 2734 01ca 41FA03F3 		asr	r3, r1, r3
 2735 01ce DBB2     		uxtb	r3, r3
 2736              	.LVL377:
1119:Middlewares/Third_Party/LibJPEG/source/jdhuff.c **** 
 2737              		.loc 1 1119 4 discriminator 6 view .LVU911
 2738 01d0 03F12400 		add	r0, r3, #36
 2739 01d4 56F82000 		ldr	r0, [r6, r0, lsl #2]
 2740              	.LVL378:
1119:Middlewares/Third_Party/LibJPEG/source/jdhuff.c **** 
 2741              		.loc 1 1119 4 is_stmt 0 discriminator 6 view .LVU912
 2742 01d8 0028     		cmp	r0, #0
 2743 01da C8D0     		beq	.L201
1119:Middlewares/Third_Party/LibJPEG/source/jdhuff.c **** 
 2744              		.loc 1 1119 4 is_stmt 1 discriminator 8 view .LVU913
 2745 01dc 121A     		subs	r2, r2, r0
 2746              	.LVL379:
1119:Middlewares/Third_Party/LibJPEG/source/jdhuff.c **** 
 2747              		.loc 1 1119 4 discriminator 8 view .LVU914
 2748 01de 3344     		add	r3, r3, r6
 2749              	.LVL380:
1119:Middlewares/Third_Party/LibJPEG/source/jdhuff.c **** 
 2750              		.loc 1 1119 4 is_stmt 0 discriminator 8 view .LVU915
 2751 01e0 93F890A4 		ldrb	r10, [r3, #1168]	@ zero_extendqisi2
 2752              	.LVL381:
1119:Middlewares/Third_Party/LibJPEG/source/jdhuff.c **** 
 2753              		.loc 1 1119 4 discriminator 8 view .LVU916
 2754 01e4 CFE7     		b	.L176
 2755              	.LVL382:
 2756              	.L219:
1119:Middlewares/Third_Party/LibJPEG/source/jdhuff.c **** 
 2757              		.loc 1 1119 4 discriminator 8 view .LVU917
 2758              	.LBE17:
1126:Middlewares/Third_Party/LibJPEG/source/jdhuff.c **** 	    r = GET_BITS(s);
 2759              		.loc 1 1126 6 is_stmt 1 discriminator 1 view .LVU918
 2760 01e6 5346     		mov	r3, r10
 2761              	.LVL383:
1126:Middlewares/Third_Party/LibJPEG/source/jdhuff.c **** 	    r = GET_BITS(s);
 2762              		.loc 1 1126 6 is_stmt 0 discriminator 1 view .LVU919
 2763 01e8 0DA8     		add	r0, sp, #52
 2764 01ea FFF7FEFF 		bl	jpeg_fill_bit_buffer
 2765              	.LVL384:
1126:Middlewares/Third_Party/LibJPEG/source/jdhuff.c **** 	    r = GET_BITS(s);
 2766              		.loc 1 1126 6 discriminator 1 view .LVU920
 2767 01ee 0028     		cmp	r0, #0
 2768 01f0 00F08A80 		beq	.L202
1126:Middlewares/Third_Party/LibJPEG/source/jdhuff.c **** 	    r = GET_BITS(s);
 2769              		.loc 1 1126 6 is_stmt 1 discriminator 4 view .LVU921
 2770 01f4 0F99     		ldr	r1, [sp, #60]
 2771              	.LVL385:
1126:Middlewares/Third_Party/LibJPEG/source/jdhuff.c **** 	    r = GET_BITS(s);
 2772              		.loc 1 1126 6 discriminator 4 view .LVU922
 2773 01f6 109A     		ldr	r2, [sp, #64]
 2774              	.LVL386:
1126:Middlewares/Third_Party/LibJPEG/source/jdhuff.c **** 	    r = GET_BITS(s);
 2775              		.loc 1 1126 6 is_stmt 0 discriminator 4 view .LVU923
ARM GAS  /var/folders/mq/wg13gp494590nh4zyt09lxf00000gn/T//ccUYufpr.s 			page 77


 2776 01f8 CDE7     		b	.L178
 2777              	.LVL387:
 2778              	.L177:
1134:Middlewares/Third_Party/LibJPEG/source/jdhuff.c **** 	  } else {
1135:Middlewares/Third_Party/LibJPEG/source/jdhuff.c **** 	    if (r != 15)
 2779              		.loc 1 1135 6 is_stmt 1 view .LVU924
 2780              		.loc 1 1135 9 is_stmt 0 view .LVU925
 2781 01fa 0F2B     		cmp	r3, #15
 2782 01fc 59D1     		bne	.L211
1136:Middlewares/Third_Party/LibJPEG/source/jdhuff.c **** 	      goto EndOfBlock;
1137:Middlewares/Third_Party/LibJPEG/source/jdhuff.c **** 	    k += 15;
 2783              		.loc 1 1137 6 is_stmt 1 view .LVU926
 2784              		.loc 1 1137 8 is_stmt 0 view .LVU927
 2785 01fe 0F34     		adds	r4, r4, #15
 2786              	.LVL388:
 2787              		.loc 1 1137 8 view .LVU928
 2788 0200 DCE7     		b	.L180
 2789              	.LVL389:
 2790              	.L220:
 2791              		.loc 1 1137 8 view .LVU929
 2792 0202 DDF818A0 		ldr	r10, [sp, #24]
 2793 0206 079D     		ldr	r5, [sp, #28]
 2794 0208 32E0     		b	.L185
 2795              	.LVL390:
 2796              	.L170:
1138:Middlewares/Third_Party/LibJPEG/source/jdhuff.c **** 	  }
1139:Middlewares/Third_Party/LibJPEG/source/jdhuff.c **** 	}
1140:Middlewares/Third_Party/LibJPEG/source/jdhuff.c ****       } else {
1141:Middlewares/Third_Party/LibJPEG/source/jdhuff.c **** 	if (s) {
 2797              		.loc 1 1141 2 is_stmt 1 view .LVU930
 2798              		.loc 1 1141 5 is_stmt 0 view .LVU931
 2799 020a 6CB1     		cbz	r4, .L203
1142:Middlewares/Third_Party/LibJPEG/source/jdhuff.c **** 	  CHECK_BIT_BUFFER(br_state, s, return FALSE);
 2800              		.loc 1 1142 4 is_stmt 1 view .LVU932
 2801 020c A242     		cmp	r2, r4
 2802 020e 02DB     		blt	.L222
 2803              	.L184:
 2804              		.loc 1 1142 47 discriminator 5 view .LVU933
1143:Middlewares/Third_Party/LibJPEG/source/jdhuff.c **** 	  DROP_BITS(s);
 2805              		.loc 1 1143 4 view .LVU934
 2806 0210 121B     		subs	r2, r2, r4
 2807              	.LVL391:
1101:Middlewares/Third_Party/LibJPEG/source/jdhuff.c ****       coef_limit = entropy->coef_limit[blkn];
 2808              		.loc 1 1101 9 is_stmt 0 view .LVU935
 2809 0212 0124     		movs	r4, #1
 2810              	.LVL392:
1101:Middlewares/Third_Party/LibJPEG/source/jdhuff.c ****       coef_limit = entropy->coef_limit[blkn];
 2811              		.loc 1 1101 9 view .LVU936
 2812 0214 2CE0     		b	.L185
 2813              	.LVL393:
 2814              	.L222:
1142:Middlewares/Third_Party/LibJPEG/source/jdhuff.c **** 	  CHECK_BIT_BUFFER(br_state, s, return FALSE);
 2815              		.loc 1 1142 4 is_stmt 1 discriminator 1 view .LVU937
 2816 0216 2346     		mov	r3, r4
 2817 0218 0DA8     		add	r0, sp, #52
 2818 021a FFF7FEFF 		bl	jpeg_fill_bit_buffer
 2819              	.LVL394:
ARM GAS  /var/folders/mq/wg13gp494590nh4zyt09lxf00000gn/T//ccUYufpr.s 			page 78


1142:Middlewares/Third_Party/LibJPEG/source/jdhuff.c **** 	  CHECK_BIT_BUFFER(br_state, s, return FALSE);
 2820              		.loc 1 1142 4 is_stmt 0 discriminator 1 view .LVU938
 2821 021e 0028     		cmp	r0, #0
 2822 0220 74D0     		beq	.L204
1142:Middlewares/Third_Party/LibJPEG/source/jdhuff.c **** 	  CHECK_BIT_BUFFER(br_state, s, return FALSE);
 2823              		.loc 1 1142 4 is_stmt 1 discriminator 4 view .LVU939
 2824 0222 0F99     		ldr	r1, [sp, #60]
 2825              	.LVL395:
1142:Middlewares/Third_Party/LibJPEG/source/jdhuff.c **** 	  CHECK_BIT_BUFFER(br_state, s, return FALSE);
 2826              		.loc 1 1142 4 discriminator 4 view .LVU940
 2827 0224 109A     		ldr	r2, [sp, #64]
 2828              	.LVL396:
1142:Middlewares/Third_Party/LibJPEG/source/jdhuff.c **** 	  CHECK_BIT_BUFFER(br_state, s, return FALSE);
 2829              		.loc 1 1142 4 is_stmt 0 discriminator 4 view .LVU941
 2830 0226 F3E7     		b	.L184
 2831              	.L203:
1101:Middlewares/Third_Party/LibJPEG/source/jdhuff.c ****       coef_limit = entropy->coef_limit[blkn];
 2832              		.loc 1 1101 9 view .LVU942
 2833 0228 0124     		movs	r4, #1
 2834              	.LVL397:
1101:Middlewares/Third_Party/LibJPEG/source/jdhuff.c ****       coef_limit = entropy->coef_limit[blkn];
 2835              		.loc 1 1101 9 view .LVU943
 2836 022a 21E0     		b	.L185
 2837              	.LVL398:
 2838              	.L224:
 2839              	.LBB18:
1144:Middlewares/Third_Party/LibJPEG/source/jdhuff.c **** 	}
1145:Middlewares/Third_Party/LibJPEG/source/jdhuff.c ****       }
1146:Middlewares/Third_Party/LibJPEG/source/jdhuff.c **** 
1147:Middlewares/Third_Party/LibJPEG/source/jdhuff.c ****       /* Section F.2.2.2: decode the AC coefficients */
1148:Middlewares/Third_Party/LibJPEG/source/jdhuff.c ****       /* In this path we just discard the values */
1149:Middlewares/Third_Party/LibJPEG/source/jdhuff.c ****       for (; k <= Se; k++) {
1150:Middlewares/Third_Party/LibJPEG/source/jdhuff.c **** 	HUFF_DECODE(s, br_state, htbl, return FALSE, label3);
 2840              		.loc 1 1150 2 is_stmt 1 discriminator 1 view .LVU944
 2841 022c 0023     		movs	r3, #0
 2842 022e 0DA8     		add	r0, sp, #52
 2843 0230 FFF7FEFF 		bl	jpeg_fill_bit_buffer
 2844              	.LVL399:
 2845              		.loc 1 1150 2 is_stmt 0 discriminator 1 view .LVU945
 2846 0234 0028     		cmp	r0, #0
 2847 0236 6BD0     		beq	.L205
 2848              		.loc 1 1150 2 is_stmt 1 discriminator 4 view .LVU946
 2849 0238 0F99     		ldr	r1, [sp, #60]
 2850              	.LVL400:
 2851              		.loc 1 1150 2 discriminator 4 view .LVU947
 2852 023a 109A     		ldr	r2, [sp, #64]
 2853              	.LVL401:
 2854              		.loc 1 1150 2 discriminator 4 view .LVU948
 2855 023c 072A     		cmp	r2, #7
 2856 023e 1BDC     		bgt	.L186
 2857              		.loc 1 1150 2 is_stmt 0 discriminator 5 view .LVU949
 2858 0240 0123     		movs	r3, #1
 2859 0242 00E0     		b	.L187
 2860              	.LVL402:
 2861              	.L207:
 2862              		.loc 1 1150 2 discriminator 9 view .LVU950
 2863 0244 0923     		movs	r3, #9
ARM GAS  /var/folders/mq/wg13gp494590nh4zyt09lxf00000gn/T//ccUYufpr.s 			page 79


 2864              	.LVL403:
 2865              	.L187:
 2866              		.loc 1 1150 2 is_stmt 1 discriminator 11 view .LVU951
 2867 0246 0093     		str	r3, [sp]
 2868 0248 3346     		mov	r3, r6
 2869              	.LVL404:
 2870              		.loc 1 1150 2 is_stmt 0 discriminator 11 view .LVU952
 2871 024a 0DA8     		add	r0, sp, #52
 2872 024c FFF7FEFF 		bl	jpeg_huff_decode
 2873              	.LVL405:
 2874              		.loc 1 1150 2 discriminator 1 view .LVU953
 2875 0250 B0F10008 		subs	r8, r0, #0
 2876 0254 64DB     		blt	.L212
 2877              		.loc 1 1150 2 is_stmt 1 discriminator 13 view .LVU954
 2878 0256 0F99     		ldr	r1, [sp, #60]
 2879              	.LVL406:
 2880              		.loc 1 1150 2 discriminator 13 view .LVU955
 2881 0258 109A     		ldr	r2, [sp, #64]
 2882              	.LVL407:
 2883              	.L188:
 2884              		.loc 1 1150 2 is_stmt 0 discriminator 13 view .LVU956
 2885              	.LBE18:
 2886              		.loc 1 1150 54 is_stmt 1 discriminator 14 view .LVU957
1151:Middlewares/Third_Party/LibJPEG/source/jdhuff.c **** 
1152:Middlewares/Third_Party/LibJPEG/source/jdhuff.c **** 	r = s >> 4;
 2887              		.loc 1 1152 2 view .LVU958
 2888              		.loc 1 1152 4 is_stmt 0 view .LVU959
 2889 025a 4FEA2813 		asr	r3, r8, #4
 2890              	.LVL408:
1153:Middlewares/Third_Party/LibJPEG/source/jdhuff.c **** 	s &= 15;
 2891              		.loc 1 1153 2 is_stmt 1 view .LVU960
1154:Middlewares/Third_Party/LibJPEG/source/jdhuff.c **** 
1155:Middlewares/Third_Party/LibJPEG/source/jdhuff.c **** 	if (s) {
 2892              		.loc 1 1155 2 view .LVU961
 2893              		.loc 1 1155 5 is_stmt 0 view .LVU962
 2894 025e 18F00F08 		ands	r8, r8, #15
 2895              	.LVL409:
 2896              		.loc 1 1155 5 view .LVU963
 2897 0262 22D0     		beq	.L189
1156:Middlewares/Third_Party/LibJPEG/source/jdhuff.c **** 	  k += r;
 2898              		.loc 1 1156 4 is_stmt 1 view .LVU964
 2899              		.loc 1 1156 6 is_stmt 0 view .LVU965
 2900 0264 1C44     		add	r4, r4, r3
 2901              	.LVL410:
1157:Middlewares/Third_Party/LibJPEG/source/jdhuff.c **** 	  CHECK_BIT_BUFFER(br_state, s, return FALSE);
 2902              		.loc 1 1157 4 is_stmt 1 view .LVU966
 2903 0266 4245     		cmp	r2, r8
 2904 0268 16DB     		blt	.L223
 2905              	.LVL411:
 2906              	.L190:
 2907              		.loc 1 1157 47 discriminator 5 view .LVU967
1158:Middlewares/Third_Party/LibJPEG/source/jdhuff.c **** 	  DROP_BITS(s);
 2908              		.loc 1 1158 4 view .LVU968
 2909 026a A2EB0802 		sub	r2, r2, r8
 2910              	.LVL412:
 2911              	.L191:
1149:Middlewares/Third_Party/LibJPEG/source/jdhuff.c **** 	HUFF_DECODE(s, br_state, htbl, return FALSE, label3);
ARM GAS  /var/folders/mq/wg13gp494590nh4zyt09lxf00000gn/T//ccUYufpr.s 			page 80


 2912              		.loc 1 1149 24 view .LVU969
 2913 026e 0134     		adds	r4, r4, #1
 2914              	.LVL413:
 2915              	.L185:
1149:Middlewares/Third_Party/LibJPEG/source/jdhuff.c **** 	HUFF_DECODE(s, br_state, htbl, return FALSE, label3);
 2916              		.loc 1 1149 16 discriminator 1 view .LVU970
 2917 0270 BC42     		cmp	r4, r7
 2918 0272 21DC     		bgt	.L181
 2919              	.LBB19:
1150:Middlewares/Third_Party/LibJPEG/source/jdhuff.c **** 
 2920              		.loc 1 1150 2 view .LVU971
1150:Middlewares/Third_Party/LibJPEG/source/jdhuff.c **** 
 2921              		.loc 1 1150 2 view .LVU972
 2922 0274 072A     		cmp	r2, #7
 2923 0276 D9DD     		ble	.L224
 2924              	.L186:
1150:Middlewares/Third_Party/LibJPEG/source/jdhuff.c **** 
 2925              		.loc 1 1150 2 discriminator 6 view .LVU973
 2926 0278 A2F10803 		sub	r3, r2, #8
 2927 027c 41FA03F3 		asr	r3, r1, r3
 2928 0280 DBB2     		uxtb	r3, r3
 2929              	.LVL414:
1150:Middlewares/Third_Party/LibJPEG/source/jdhuff.c **** 
 2930              		.loc 1 1150 2 discriminator 6 view .LVU974
 2931 0282 03F12400 		add	r0, r3, #36
 2932 0286 56F82000 		ldr	r0, [r6, r0, lsl #2]
 2933              	.LVL415:
1150:Middlewares/Third_Party/LibJPEG/source/jdhuff.c **** 
 2934              		.loc 1 1150 2 is_stmt 0 discriminator 6 view .LVU975
 2935 028a 0028     		cmp	r0, #0
 2936 028c DAD0     		beq	.L207
1150:Middlewares/Third_Party/LibJPEG/source/jdhuff.c **** 
 2937              		.loc 1 1150 2 is_stmt 1 discriminator 8 view .LVU976
 2938 028e 121A     		subs	r2, r2, r0
 2939              	.LVL416:
1150:Middlewares/Third_Party/LibJPEG/source/jdhuff.c **** 
 2940              		.loc 1 1150 2 discriminator 8 view .LVU977
 2941 0290 3344     		add	r3, r3, r6
 2942              	.LVL417:
1150:Middlewares/Third_Party/LibJPEG/source/jdhuff.c **** 
 2943              		.loc 1 1150 2 is_stmt 0 discriminator 8 view .LVU978
 2944 0292 93F89084 		ldrb	r8, [r3, #1168]	@ zero_extendqisi2
 2945              	.LVL418:
1150:Middlewares/Third_Party/LibJPEG/source/jdhuff.c **** 
 2946              		.loc 1 1150 2 discriminator 8 view .LVU979
 2947 0296 E0E7     		b	.L188
 2948              	.LVL419:
 2949              	.L223:
1150:Middlewares/Third_Party/LibJPEG/source/jdhuff.c **** 
 2950              		.loc 1 1150 2 discriminator 8 view .LVU980
 2951              	.LBE19:
1157:Middlewares/Third_Party/LibJPEG/source/jdhuff.c **** 	  DROP_BITS(s);
 2952              		.loc 1 1157 4 is_stmt 1 discriminator 1 view .LVU981
 2953 0298 4346     		mov	r3, r8
 2954              	.LVL420:
1157:Middlewares/Third_Party/LibJPEG/source/jdhuff.c **** 	  DROP_BITS(s);
 2955              		.loc 1 1157 4 is_stmt 0 discriminator 1 view .LVU982
ARM GAS  /var/folders/mq/wg13gp494590nh4zyt09lxf00000gn/T//ccUYufpr.s 			page 81


 2956 029a 0DA8     		add	r0, sp, #52
 2957 029c FFF7FEFF 		bl	jpeg_fill_bit_buffer
 2958              	.LVL421:
1157:Middlewares/Third_Party/LibJPEG/source/jdhuff.c **** 	  DROP_BITS(s);
 2959              		.loc 1 1157 4 discriminator 1 view .LVU983
 2960 02a0 0028     		cmp	r0, #0
 2961 02a2 37D0     		beq	.L208
1157:Middlewares/Third_Party/LibJPEG/source/jdhuff.c **** 	  DROP_BITS(s);
 2962              		.loc 1 1157 4 is_stmt 1 discriminator 4 view .LVU984
 2963 02a4 0F99     		ldr	r1, [sp, #60]
 2964              	.LVL422:
1157:Middlewares/Third_Party/LibJPEG/source/jdhuff.c **** 	  DROP_BITS(s);
 2965              		.loc 1 1157 4 discriminator 4 view .LVU985
 2966 02a6 109A     		ldr	r2, [sp, #64]
 2967              	.LVL423:
1157:Middlewares/Third_Party/LibJPEG/source/jdhuff.c **** 	  DROP_BITS(s);
 2968              		.loc 1 1157 4 is_stmt 0 discriminator 4 view .LVU986
 2969 02a8 DFE7     		b	.L190
 2970              	.LVL424:
 2971              	.L189:
1159:Middlewares/Third_Party/LibJPEG/source/jdhuff.c **** 	} else {
1160:Middlewares/Third_Party/LibJPEG/source/jdhuff.c **** 	  if (r != 15)
 2972              		.loc 1 1160 4 is_stmt 1 view .LVU987
 2973              		.loc 1 1160 7 is_stmt 0 view .LVU988
 2974 02aa 0F2B     		cmp	r3, #15
 2975 02ac 04D1     		bne	.L181
1161:Middlewares/Third_Party/LibJPEG/source/jdhuff.c **** 	    break;
1162:Middlewares/Third_Party/LibJPEG/source/jdhuff.c **** 	  k += 15;
 2976              		.loc 1 1162 4 is_stmt 1 view .LVU989
 2977              		.loc 1 1162 6 is_stmt 0 view .LVU990
 2978 02ae 0F34     		adds	r4, r4, #15
 2979              	.LVL425:
 2980              		.loc 1 1162 6 view .LVU991
 2981 02b0 DDE7     		b	.L191
 2982              	.LVL426:
 2983              	.L211:
 2984              		.loc 1 1162 6 view .LVU992
 2985 02b2 DDF818A0 		ldr	r10, [sp, #24]
 2986              	.LVL427:
 2987              		.loc 1 1162 6 view .LVU993
 2988 02b6 079D     		ldr	r5, [sp, #28]
 2989              	.LVL428:
 2990              	.L181:
1163:Middlewares/Third_Party/LibJPEG/source/jdhuff.c **** 	}
1164:Middlewares/Third_Party/LibJPEG/source/jdhuff.c ****       }
1165:Middlewares/Third_Party/LibJPEG/source/jdhuff.c **** 
1166:Middlewares/Third_Party/LibJPEG/source/jdhuff.c ****       EndOfBlock: ;
 2991              		.loc 1 1166 19 is_stmt 1 view .LVU994
 2992              	.LBE23:
1088:Middlewares/Third_Party/LibJPEG/source/jdhuff.c ****       JBLOCKROW block = MCU_data[blkn];
 2993              		.loc 1 1088 53 discriminator 2 view .LVU995
 2994 02b8 0AF1010A 		add	r10, r10, #1
 2995              	.LVL429:
1088:Middlewares/Third_Party/LibJPEG/source/jdhuff.c ****       JBLOCKROW block = MCU_data[blkn];
 2996              		.loc 1 1088 53 is_stmt 0 discriminator 2 view .LVU996
 2997 02bc D0E6     		b	.L166
 2998              	.LVL430:
ARM GAS  /var/folders/mq/wg13gp494590nh4zyt09lxf00000gn/T//ccUYufpr.s 			page 82


 2999              	.L216:
1167:Middlewares/Third_Party/LibJPEG/source/jdhuff.c ****     }
1168:Middlewares/Third_Party/LibJPEG/source/jdhuff.c **** 
1169:Middlewares/Third_Party/LibJPEG/source/jdhuff.c ****     /* Completed MCU, so update state */
1170:Middlewares/Third_Party/LibJPEG/source/jdhuff.c ****     BITREAD_SAVE_STATE(cinfo,entropy->bitstate);
 3000              		.loc 1 1170 5 view .LVU997
 3001 02be 8E46     		mov	lr, r1
 3002 02c0 9446     		mov	ip, r2
 3003 02c2 A946     		mov	r9, r5
 3004 02c4 049D     		ldr	r5, [sp, #16]
 3005              		.loc 1 1170 5 is_stmt 1 view .LVU998
 3006 02c6 AB69     		ldr	r3, [r5, #24]
 3007 02c8 0D9A     		ldr	r2, [sp, #52]
 3008              	.LVL431:
 3009              		.loc 1 1170 5 is_stmt 0 view .LVU999
 3010 02ca 1A60     		str	r2, [r3]
 3011              		.loc 1 1170 5 is_stmt 1 view .LVU1000
 3012 02cc AB69     		ldr	r3, [r5, #24]
 3013 02ce 0E9A     		ldr	r2, [sp, #56]
 3014 02d0 5A60     		str	r2, [r3, #4]
 3015              		.loc 1 1170 5 view .LVU1001
 3016 02d2 C9F80810 		str	r1, [r9, #8]
 3017              		.loc 1 1170 5 view .LVU1002
 3018 02d6 C9F80CC0 		str	ip, [r9, #12]
1171:Middlewares/Third_Party/LibJPEG/source/jdhuff.c ****     ASSIGN_STATE(entropy->saved, state);
 3019              		.loc 1 1171 5 view .LVU1003
 3020 02da 09F11004 		add	r4, r9, #16
 3021 02de 08AD     		add	r5, sp, #32
 3022 02e0 0FCD     		ldmia	r5!, {r0, r1, r2, r3}
 3023              	.LVL432:
 3024              		.loc 1 1171 5 is_stmt 0 view .LVU1004
 3025 02e2 0FC4     		stmia	r4!, {r0, r1, r2, r3}
 3026 02e4 2B68     		ldr	r3, [r5]
 3027 02e6 2360     		str	r3, [r4]
 3028              	.LVL433:
 3029              	.L165:
1172:Middlewares/Third_Party/LibJPEG/source/jdhuff.c ****   }
1173:Middlewares/Third_Party/LibJPEG/source/jdhuff.c **** 
1174:Middlewares/Third_Party/LibJPEG/source/jdhuff.c ****   /* Account for restart interval (no-op if not using restarts) */
1175:Middlewares/Third_Party/LibJPEG/source/jdhuff.c ****   entropy->restarts_to_go--;
 3030              		.loc 1 1175 3 is_stmt 1 view .LVU1005
 3031              		.loc 1 1175 10 is_stmt 0 view .LVU1006
 3032 02e8 D9F82830 		ldr	r3, [r9, #40]
 3033              		.loc 1 1175 26 view .LVU1007
 3034 02ec 013B     		subs	r3, r3, #1
 3035 02ee C9F82830 		str	r3, [r9, #40]
1176:Middlewares/Third_Party/LibJPEG/source/jdhuff.c **** 
1177:Middlewares/Third_Party/LibJPEG/source/jdhuff.c ****   return TRUE;
 3036              		.loc 1 1177 3 is_stmt 1 view .LVU1008
 3037              		.loc 1 1177 10 is_stmt 0 view .LVU1009
 3038 02f2 0126     		movs	r6, #1
 3039              	.L162:
1178:Middlewares/Third_Party/LibJPEG/source/jdhuff.c **** }
 3040              		.loc 1 1178 1 view .LVU1010
 3041 02f4 3046     		mov	r0, r6
 3042 02f6 13B0     		add	sp, sp, #76
 3043              	.LCFI20:
ARM GAS  /var/folders/mq/wg13gp494590nh4zyt09lxf00000gn/T//ccUYufpr.s 			page 83


 3044              		.cfi_remember_state
 3045              		.cfi_def_cfa_offset 36
 3046              		@ sp needed
 3047 02f8 BDE8F08F 		pop	{r4, r5, r6, r7, r8, r9, r10, fp, pc}
 3048              	.LVL434:
 3049              	.L194:
 3050              	.LCFI21:
 3051              		.cfi_restore_state
 3052              	.LBB24:
 3053              	.LBB20:
1098:Middlewares/Third_Party/LibJPEG/source/jdhuff.c **** 
 3054              		.loc 1 1098 7 discriminator 3 view .LVU1011
 3055 02fc 0646     		mov	r6, r0
 3056 02fe F9E7     		b	.L162
 3057              	.LVL435:
 3058              	.L198:
1098:Middlewares/Third_Party/LibJPEG/source/jdhuff.c **** 
 3059              		.loc 1 1098 7 discriminator 3 view .LVU1012
 3060              	.LBE20:
1106:Middlewares/Third_Party/LibJPEG/source/jdhuff.c **** 	  r = GET_BITS(s);
 3061              		.loc 1 1106 4 discriminator 3 view .LVU1013
 3062 0300 0646     		mov	r6, r0
 3063              	.LVL436:
1106:Middlewares/Third_Party/LibJPEG/source/jdhuff.c **** 	  r = GET_BITS(s);
 3064              		.loc 1 1106 4 discriminator 3 view .LVU1014
 3065 0302 F7E7     		b	.L162
 3066              	.LVL437:
 3067              	.L199:
 3068              	.LBB21:
1119:Middlewares/Third_Party/LibJPEG/source/jdhuff.c **** 
 3069              		.loc 1 1119 4 discriminator 3 view .LVU1015
 3070 0304 0646     		mov	r6, r0
 3071              	.LVL438:
1119:Middlewares/Third_Party/LibJPEG/source/jdhuff.c **** 
 3072              		.loc 1 1119 4 discriminator 3 view .LVU1016
 3073 0306 F5E7     		b	.L162
 3074              	.LVL439:
 3075              	.L202:
1119:Middlewares/Third_Party/LibJPEG/source/jdhuff.c **** 
 3076              		.loc 1 1119 4 discriminator 3 view .LVU1017
 3077              	.LBE21:
1126:Middlewares/Third_Party/LibJPEG/source/jdhuff.c **** 	    r = GET_BITS(s);
 3078              		.loc 1 1126 6 discriminator 3 view .LVU1018
 3079 0308 0646     		mov	r6, r0
 3080              	.LVL440:
1126:Middlewares/Third_Party/LibJPEG/source/jdhuff.c **** 	    r = GET_BITS(s);
 3081              		.loc 1 1126 6 discriminator 3 view .LVU1019
 3082 030a F3E7     		b	.L162
 3083              	.LVL441:
 3084              	.L204:
1142:Middlewares/Third_Party/LibJPEG/source/jdhuff.c **** 	  DROP_BITS(s);
 3085              		.loc 1 1142 4 discriminator 3 view .LVU1020
 3086 030c 0646     		mov	r6, r0
 3087              	.LVL442:
1142:Middlewares/Third_Party/LibJPEG/source/jdhuff.c **** 	  DROP_BITS(s);
 3088              		.loc 1 1142 4 discriminator 3 view .LVU1021
 3089 030e F1E7     		b	.L162
ARM GAS  /var/folders/mq/wg13gp494590nh4zyt09lxf00000gn/T//ccUYufpr.s 			page 84


 3090              	.LVL443:
 3091              	.L205:
 3092              	.LBB22:
1150:Middlewares/Third_Party/LibJPEG/source/jdhuff.c **** 
 3093              		.loc 1 1150 2 discriminator 3 view .LVU1022
 3094 0310 0646     		mov	r6, r0
 3095              	.LVL444:
1150:Middlewares/Third_Party/LibJPEG/source/jdhuff.c **** 
 3096              		.loc 1 1150 2 discriminator 3 view .LVU1023
 3097 0312 EFE7     		b	.L162
 3098              	.LVL445:
 3099              	.L208:
1150:Middlewares/Third_Party/LibJPEG/source/jdhuff.c **** 
 3100              		.loc 1 1150 2 discriminator 3 view .LVU1024
 3101              	.LBE22:
1157:Middlewares/Third_Party/LibJPEG/source/jdhuff.c **** 	  DROP_BITS(s);
 3102              		.loc 1 1157 4 discriminator 3 view .LVU1025
 3103 0314 0646     		mov	r6, r0
 3104              	.LVL446:
1157:Middlewares/Third_Party/LibJPEG/source/jdhuff.c **** 	  DROP_BITS(s);
 3105              		.loc 1 1157 4 discriminator 3 view .LVU1026
 3106 0316 EDE7     		b	.L162
 3107              	.LVL447:
 3108              	.L209:
1157:Middlewares/Third_Party/LibJPEG/source/jdhuff.c **** 	  DROP_BITS(s);
 3109              		.loc 1 1157 4 discriminator 3 view .LVU1027
 3110 0318 059E     		ldr	r6, [sp, #20]
 3111 031a EBE7     		b	.L162
 3112              	.LVL448:
 3113              	.L210:
1157:Middlewares/Third_Party/LibJPEG/source/jdhuff.c **** 	  DROP_BITS(s);
 3114              		.loc 1 1157 4 discriminator 3 view .LVU1028
 3115 031c 059E     		ldr	r6, [sp, #20]
 3116              	.LVL449:
1157:Middlewares/Third_Party/LibJPEG/source/jdhuff.c **** 	  DROP_BITS(s);
 3117              		.loc 1 1157 4 discriminator 3 view .LVU1029
 3118 031e E9E7     		b	.L162
 3119              	.LVL450:
 3120              	.L212:
1157:Middlewares/Third_Party/LibJPEG/source/jdhuff.c **** 	  DROP_BITS(s);
 3121              		.loc 1 1157 4 discriminator 3 view .LVU1030
 3122 0320 059E     		ldr	r6, [sp, #20]
 3123              	.LVL451:
1157:Middlewares/Third_Party/LibJPEG/source/jdhuff.c **** 	  DROP_BITS(s);
 3124              		.loc 1 1157 4 discriminator 3 view .LVU1031
 3125 0322 E7E7     		b	.L162
 3126              	.L226:
 3127              		.align	2
 3128              	.L225:
 3129 0324 00000000 		.word	bmask
 3130              	.LBE24:
 3131              		.cfi_endproc
 3132              	.LFE155:
 3134              		.section	.text.decode_mcu,"ax",%progbits
 3135              		.align	1
 3136              		.syntax unified
 3137              		.thumb
ARM GAS  /var/folders/mq/wg13gp494590nh4zyt09lxf00000gn/T//ccUYufpr.s 			page 85


 3138              		.thumb_func
 3140              	decode_mcu:
 3141              	.LVL452:
 3142              	.LFB156:
1179:Middlewares/Third_Party/LibJPEG/source/jdhuff.c **** 
1180:Middlewares/Third_Party/LibJPEG/source/jdhuff.c **** 
1181:Middlewares/Third_Party/LibJPEG/source/jdhuff.c **** /*
1182:Middlewares/Third_Party/LibJPEG/source/jdhuff.c ****  * Decode one MCU's worth of Huffman-compressed coefficients,
1183:Middlewares/Third_Party/LibJPEG/source/jdhuff.c ****  * full-size blocks.
1184:Middlewares/Third_Party/LibJPEG/source/jdhuff.c ****  */
1185:Middlewares/Third_Party/LibJPEG/source/jdhuff.c **** 
1186:Middlewares/Third_Party/LibJPEG/source/jdhuff.c **** METHODDEF(boolean)
1187:Middlewares/Third_Party/LibJPEG/source/jdhuff.c **** decode_mcu (j_decompress_ptr cinfo, JBLOCKROW *MCU_data)
1188:Middlewares/Third_Party/LibJPEG/source/jdhuff.c **** {
 3143              		.loc 1 1188 1 is_stmt 1 view -0
 3144              		.cfi_startproc
 3145              		@ args = 0, pretend = 0, frame = 56
 3146              		@ frame_needed = 0, uses_anonymous_args = 0
 3147              		.loc 1 1188 1 is_stmt 0 view .LVU1033
 3148 0000 2DE9F04F 		push	{r4, r5, r6, r7, r8, r9, r10, fp, lr}
 3149              	.LCFI22:
 3150              		.cfi_def_cfa_offset 36
 3151              		.cfi_offset 4, -36
 3152              		.cfi_offset 5, -32
 3153              		.cfi_offset 6, -28
 3154              		.cfi_offset 7, -24
 3155              		.cfi_offset 8, -20
 3156              		.cfi_offset 9, -16
 3157              		.cfi_offset 10, -12
 3158              		.cfi_offset 11, -8
 3159              		.cfi_offset 14, -4
 3160 0004 91B0     		sub	sp, sp, #68
 3161              	.LCFI23:
 3162              		.cfi_def_cfa_offset 104
 3163 0006 8146     		mov	r9, r0
 3164 0008 0D46     		mov	r5, r1
1189:Middlewares/Third_Party/LibJPEG/source/jdhuff.c ****   huff_entropy_ptr entropy = (huff_entropy_ptr) cinfo->entropy;
 3165              		.loc 1 1189 3 is_stmt 1 view .LVU1034
 3166              		.loc 1 1189 20 is_stmt 0 view .LVU1035
 3167 000a D0F8D081 		ldr	r8, [r0, #464]
 3168              	.LVL453:
1190:Middlewares/Third_Party/LibJPEG/source/jdhuff.c ****   int blkn;
 3169              		.loc 1 1190 3 is_stmt 1 view .LVU1036
1191:Middlewares/Third_Party/LibJPEG/source/jdhuff.c ****   BITREAD_STATE_VARS;
 3170              		.loc 1 1191 3 view .LVU1037
 3171              		.loc 1 1191 3 view .LVU1038
 3172              		.loc 1 1191 3 view .LVU1039
1192:Middlewares/Third_Party/LibJPEG/source/jdhuff.c ****   savable_state state;
 3173              		.loc 1 1192 3 view .LVU1040
1193:Middlewares/Third_Party/LibJPEG/source/jdhuff.c **** 
1194:Middlewares/Third_Party/LibJPEG/source/jdhuff.c ****   /* Process restart marker if needed; may have to suspend */
1195:Middlewares/Third_Party/LibJPEG/source/jdhuff.c ****   if (cinfo->restart_interval) {
 3174              		.loc 1 1195 3 view .LVU1041
 3175              		.loc 1 1195 12 is_stmt 0 view .LVU1042
 3176 000e D0F81831 		ldr	r3, [r0, #280]
 3177              		.loc 1 1195 6 view .LVU1043
 3178 0012 1BB1     		cbz	r3, .L228
ARM GAS  /var/folders/mq/wg13gp494590nh4zyt09lxf00000gn/T//ccUYufpr.s 			page 86


1196:Middlewares/Third_Party/LibJPEG/source/jdhuff.c ****     if (entropy->restarts_to_go == 0)
 3179              		.loc 1 1196 5 is_stmt 1 view .LVU1044
 3180              		.loc 1 1196 16 is_stmt 0 view .LVU1045
 3181 0014 D8F82830 		ldr	r3, [r8, #40]
 3182              		.loc 1 1196 8 view .LVU1046
 3183 0018 002B     		cmp	r3, #0
 3184 001a 37D0     		beq	.L280
 3185              	.LVL454:
 3186              	.L228:
1197:Middlewares/Third_Party/LibJPEG/source/jdhuff.c ****       if (! process_restart(cinfo))
1198:Middlewares/Third_Party/LibJPEG/source/jdhuff.c **** 	return FALSE;
1199:Middlewares/Third_Party/LibJPEG/source/jdhuff.c ****   }
1200:Middlewares/Third_Party/LibJPEG/source/jdhuff.c **** 
1201:Middlewares/Third_Party/LibJPEG/source/jdhuff.c ****   /* If we've run out of data, just leave the MCU set to zeroes.
1202:Middlewares/Third_Party/LibJPEG/source/jdhuff.c ****    * This way, we return uniform gray for the remainder of the segment.
1203:Middlewares/Third_Party/LibJPEG/source/jdhuff.c ****    */
1204:Middlewares/Third_Party/LibJPEG/source/jdhuff.c ****   if (! entropy->insufficient_data) {
 3187              		.loc 1 1204 3 is_stmt 1 view .LVU1047
 3188              		.loc 1 1204 16 is_stmt 0 view .LVU1048
 3189 001c D8F82460 		ldr	r6, [r8, #36]
 3190              		.loc 1 1204 6 view .LVU1049
 3191 0020 002E     		cmp	r6, #0
 3192 0022 40F05581 		bne	.L230
1205:Middlewares/Third_Party/LibJPEG/source/jdhuff.c **** 
1206:Middlewares/Third_Party/LibJPEG/source/jdhuff.c ****     /* Load up working state */
1207:Middlewares/Third_Party/LibJPEG/source/jdhuff.c ****     BITREAD_LOAD_STATE(cinfo,entropy->bitstate);
 3193              		.loc 1 1207 5 is_stmt 1 view .LVU1050
 3194 0026 CDF83C90 		str	r9, [sp, #60]
 3195              		.loc 1 1207 5 view .LVU1051
 3196 002a D9F81830 		ldr	r3, [r9, #24]
 3197 002e 1A68     		ldr	r2, [r3]
 3198 0030 0B92     		str	r2, [sp, #44]
 3199              		.loc 1 1207 5 view .LVU1052
 3200 0032 5B68     		ldr	r3, [r3, #4]
 3201 0034 0C93     		str	r3, [sp, #48]
 3202              		.loc 1 1207 5 view .LVU1053
 3203 0036 D8F808E0 		ldr	lr, [r8, #8]
 3204              	.LVL455:
 3205              		.loc 1 1207 5 view .LVU1054
 3206 003a D8F80CC0 		ldr	ip, [r8, #12]
 3207              	.LVL456:
 3208              		.loc 1 1207 48 view .LVU1055
1208:Middlewares/Third_Party/LibJPEG/source/jdhuff.c ****     ASSIGN_STATE(state, entropy->saved);
 3209              		.loc 1 1208 5 view .LVU1056
 3210 003e 06AC     		add	r4, sp, #24
 3211 0040 08F11007 		add	r7, r8, #16
 3212 0044 0FCF     		ldmia	r7!, {r0, r1, r2, r3}
 3213 0046 0FC4     		stmia	r4!, {r0, r1, r2, r3}
 3214 0048 3B68     		ldr	r3, [r7]
 3215 004a 2360     		str	r3, [r4]
1209:Middlewares/Third_Party/LibJPEG/source/jdhuff.c **** 
1210:Middlewares/Third_Party/LibJPEG/source/jdhuff.c ****     /* Outer loop handles each block in the MCU */
1211:Middlewares/Third_Party/LibJPEG/source/jdhuff.c **** 
1212:Middlewares/Third_Party/LibJPEG/source/jdhuff.c ****     for (blkn = 0; blkn < cinfo->blocks_in_MCU; blkn++) {
 3216              		.loc 1 1212 5 view .LVU1057
 3217              	.LVL457:
 3218              		.loc 1 1212 15 is_stmt 0 view .LVU1058
ARM GAS  /var/folders/mq/wg13gp494590nh4zyt09lxf00000gn/T//ccUYufpr.s 			page 87


 3219 004c B246     		mov	r10, r6
 3220 004e 7146     		mov	r1, lr
 3221 0050 6246     		mov	r2, ip
 3222 0052 0396     		str	r6, [sp, #12]
 3223              	.LVL458:
 3224              	.L231:
 3225              		.loc 1 1212 25 is_stmt 1 discriminator 1 view .LVU1059
 3226              		.loc 1 1212 32 is_stmt 0 discriminator 1 view .LVU1060
 3227 0054 D9F86C31 		ldr	r3, [r9, #364]
 3228              		.loc 1 1212 25 discriminator 1 view .LVU1061
 3229 0058 5345     		cmp	r3, r10
 3230 005a 40F32481 		ble	.L281
 3231              	.LBB25:
1213:Middlewares/Third_Party/LibJPEG/source/jdhuff.c ****       JBLOCKROW block = MCU_data[blkn];
 3232              		.loc 1 1213 7 is_stmt 1 view .LVU1062
 3233              		.loc 1 1213 17 is_stmt 0 view .LVU1063
 3234 005e 55F82AB0 		ldr	fp, [r5, r10, lsl #2]
 3235              	.LVL459:
1214:Middlewares/Third_Party/LibJPEG/source/jdhuff.c ****       d_derived_tbl * htbl;
 3236              		.loc 1 1214 7 is_stmt 1 view .LVU1064
1215:Middlewares/Third_Party/LibJPEG/source/jdhuff.c ****       register int s, k, r;
 3237              		.loc 1 1215 7 view .LVU1065
1216:Middlewares/Third_Party/LibJPEG/source/jdhuff.c ****       int coef_limit, ci;
 3238              		.loc 1 1216 7 view .LVU1066
1217:Middlewares/Third_Party/LibJPEG/source/jdhuff.c **** 
1218:Middlewares/Third_Party/LibJPEG/source/jdhuff.c ****       /* Decode a single block's worth of coefficients */
1219:Middlewares/Third_Party/LibJPEG/source/jdhuff.c **** 
1220:Middlewares/Third_Party/LibJPEG/source/jdhuff.c ****       /* Section F.2.2.1: decode the DC coefficient difference */
1221:Middlewares/Third_Party/LibJPEG/source/jdhuff.c ****       htbl = entropy->dc_cur_tbls[blkn];
 3239              		.loc 1 1221 7 view .LVU1067
 3240              		.loc 1 1221 12 is_stmt 0 view .LVU1068
 3241 0062 0AF11803 		add	r3, r10, #24
 3242 0066 58F82340 		ldr	r4, [r8, r3, lsl #2]
 3243              	.LVL460:
 3244              	.LBB26:
1222:Middlewares/Third_Party/LibJPEG/source/jdhuff.c ****       HUFF_DECODE(s, br_state, htbl, return FALSE, label1);
 3245              		.loc 1 1222 7 is_stmt 1 view .LVU1069
 3246              		.loc 1 1222 7 view .LVU1070
 3247 006a 072A     		cmp	r2, #7
 3248 006c 14DD     		ble	.L282
 3249              	.L232:
 3250              		.loc 1 1222 7 discriminator 6 view .LVU1071
 3251 006e A2F10803 		sub	r3, r2, #8
 3252 0072 41FA03F3 		asr	r3, r1, r3
 3253 0076 DBB2     		uxtb	r3, r3
 3254              	.LVL461:
 3255              		.loc 1 1222 7 discriminator 6 view .LVU1072
 3256 0078 03F12400 		add	r0, r3, #36
 3257 007c 54F82000 		ldr	r0, [r4, r0, lsl #2]
 3258              	.LVL462:
 3259              		.loc 1 1222 7 is_stmt 0 discriminator 6 view .LVU1073
 3260 0080 B8B1     		cbz	r0, .L261
 3261              		.loc 1 1222 7 is_stmt 1 discriminator 8 view .LVU1074
 3262 0082 121A     		subs	r2, r2, r0
 3263              	.LVL463:
 3264              		.loc 1 1222 7 discriminator 8 view .LVU1075
 3265 0084 2344     		add	r3, r3, r4
ARM GAS  /var/folders/mq/wg13gp494590nh4zyt09lxf00000gn/T//ccUYufpr.s 			page 88


 3266              	.LVL464:
 3267              		.loc 1 1222 7 is_stmt 0 discriminator 8 view .LVU1076
 3268 0086 93F89044 		ldrb	r4, [r3, #1168]	@ zero_extendqisi2
 3269              	.LVL465:
 3270              		.loc 1 1222 7 discriminator 8 view .LVU1077
 3271 008a 1DE0     		b	.L234
 3272              	.LVL466:
 3273              	.L280:
 3274              		.loc 1 1222 7 discriminator 8 view .LVU1078
 3275              	.LBE26:
 3276              	.LBE25:
1197:Middlewares/Third_Party/LibJPEG/source/jdhuff.c **** 	return FALSE;
 3277              		.loc 1 1197 7 is_stmt 1 view .LVU1079
1197:Middlewares/Third_Party/LibJPEG/source/jdhuff.c **** 	return FALSE;
 3278              		.loc 1 1197 13 is_stmt 0 view .LVU1080
 3279 008c FFF7FEFF 		bl	process_restart
 3280              	.LVL467:
1197:Middlewares/Third_Party/LibJPEG/source/jdhuff.c **** 	return FALSE;
 3281              		.loc 1 1197 10 discriminator 1 view .LVU1081
 3282 0090 0646     		mov	r6, r0
 3283 0092 0028     		cmp	r0, #0
 3284 0094 C2D1     		bne	.L228
 3285 0096 21E1     		b	.L227
 3286              	.LVL468:
 3287              	.L282:
 3288              	.LBB35:
 3289              	.LBB27:
 3290              		.loc 1 1222 7 is_stmt 1 discriminator 1 view .LVU1082
 3291 0098 0023     		movs	r3, #0
 3292 009a 0BA8     		add	r0, sp, #44
 3293 009c FFF7FEFF 		bl	jpeg_fill_bit_buffer
 3294              	.LVL469:
 3295              		.loc 1 1222 7 is_stmt 0 discriminator 1 view .LVU1083
 3296 00a0 0028     		cmp	r0, #0
 3297 00a2 00F01F81 		beq	.L259
 3298              		.loc 1 1222 7 is_stmt 1 discriminator 4 view .LVU1084
 3299 00a6 0D99     		ldr	r1, [sp, #52]
 3300              	.LVL470:
 3301              		.loc 1 1222 7 discriminator 4 view .LVU1085
 3302 00a8 0E9A     		ldr	r2, [sp, #56]
 3303              	.LVL471:
 3304              		.loc 1 1222 7 discriminator 4 view .LVU1086
 3305 00aa 072A     		cmp	r2, #7
 3306 00ac DFDC     		bgt	.L232
 3307              		.loc 1 1222 7 is_stmt 0 discriminator 5 view .LVU1087
 3308 00ae 0123     		movs	r3, #1
 3309 00b0 00E0     		b	.L233
 3310              	.LVL472:
 3311              	.L261:
 3312              		.loc 1 1222 7 discriminator 9 view .LVU1088
 3313 00b2 0923     		movs	r3, #9
 3314              	.LVL473:
 3315              	.L233:
 3316              		.loc 1 1222 7 is_stmt 1 discriminator 11 view .LVU1089
 3317 00b4 0093     		str	r3, [sp]
 3318 00b6 2346     		mov	r3, r4
 3319              	.LVL474:
ARM GAS  /var/folders/mq/wg13gp494590nh4zyt09lxf00000gn/T//ccUYufpr.s 			page 89


 3320              		.loc 1 1222 7 is_stmt 0 discriminator 11 view .LVU1090
 3321 00b8 0BA8     		add	r0, sp, #44
 3322 00ba FFF7FEFF 		bl	jpeg_huff_decode
 3323              	.LVL475:
 3324              		.loc 1 1222 7 discriminator 1 view .LVU1091
 3325 00be 041E     		subs	r4, r0, #0
 3326              	.LVL476:
 3327              		.loc 1 1222 7 discriminator 1 view .LVU1092
 3328 00c0 C0F21E81 		blt	.L274
 3329              		.loc 1 1222 7 is_stmt 1 discriminator 13 view .LVU1093
 3330 00c4 0D99     		ldr	r1, [sp, #52]
 3331              	.LVL477:
 3332              		.loc 1 1222 7 discriminator 13 view .LVU1094
 3333 00c6 0E9A     		ldr	r2, [sp, #56]
 3334              	.LVL478:
 3335              	.L234:
 3336              		.loc 1 1222 7 is_stmt 0 discriminator 13 view .LVU1095
 3337              	.LBE27:
 3338              		.loc 1 1222 59 is_stmt 1 discriminator 14 view .LVU1096
1223:Middlewares/Third_Party/LibJPEG/source/jdhuff.c **** 
1224:Middlewares/Third_Party/LibJPEG/source/jdhuff.c ****       htbl = entropy->ac_cur_tbls[blkn];
 3339              		.loc 1 1224 7 view .LVU1097
 3340              		.loc 1 1224 12 is_stmt 0 view .LVU1098
 3341 00c8 0AF12203 		add	r3, r10, #34
 3342 00cc 58F82360 		ldr	r6, [r8, r3, lsl #2]
 3343              	.LVL479:
1225:Middlewares/Third_Party/LibJPEG/source/jdhuff.c ****       k = 1;
 3344              		.loc 1 1225 7 is_stmt 1 view .LVU1099
1226:Middlewares/Third_Party/LibJPEG/source/jdhuff.c ****       coef_limit = entropy->coef_limit[blkn];
 3345              		.loc 1 1226 7 view .LVU1100
 3346              		.loc 1 1226 18 is_stmt 0 view .LVU1101
 3347 00d0 0AF12C03 		add	r3, r10, #44
 3348 00d4 58F82370 		ldr	r7, [r8, r3, lsl #2]
 3349              	.LVL480:
1227:Middlewares/Third_Party/LibJPEG/source/jdhuff.c ****       if (coef_limit) {
 3350              		.loc 1 1227 7 is_stmt 1 view .LVU1102
 3351              		.loc 1 1227 10 is_stmt 0 view .LVU1103
 3352 00d8 002F     		cmp	r7, #0
 3353 00da 00F08D80 		beq	.L235
1228:Middlewares/Third_Party/LibJPEG/source/jdhuff.c **** 	/* Convert DC difference to actual value, update last_dc_val */
1229:Middlewares/Third_Party/LibJPEG/source/jdhuff.c **** 	if (s) {
 3354              		.loc 1 1229 2 is_stmt 1 view .LVU1104
 3355              		.loc 1 1229 5 is_stmt 0 view .LVU1105
 3356 00de 6CB3     		cbz	r4, .L262
1230:Middlewares/Third_Party/LibJPEG/source/jdhuff.c **** 	  CHECK_BIT_BUFFER(br_state, s, return FALSE);
 3357              		.loc 1 1230 4 is_stmt 1 view .LVU1106
 3358 00e0 A242     		cmp	r2, r4
 3359 00e2 21DB     		blt	.L283
 3360              	.L237:
 3361              		.loc 1 1230 47 discriminator 5 view .LVU1107
1231:Middlewares/Third_Party/LibJPEG/source/jdhuff.c **** 	  r = GET_BITS(s);
 3362              		.loc 1 1231 4 view .LVU1108
 3363              		.loc 1 1231 8 is_stmt 0 view .LVU1109
 3364 00e4 121B     		subs	r2, r2, r4
 3365              	.LVL481:
 3366              		.loc 1 1231 8 view .LVU1110
 3367 00e6 41FA02FC 		asr	ip, r1, r2
ARM GAS  /var/folders/mq/wg13gp494590nh4zyt09lxf00000gn/T//ccUYufpr.s 			page 90


 3368 00ea 884B     		ldr	r3, .L290
 3369 00ec 53F82400 		ldr	r0, [r3, r4, lsl #2]
 3370              		.loc 1 1231 6 view .LVU1111
 3371 00f0 0CEA000C 		and	ip, ip, r0
 3372              	.LVL482:
1232:Middlewares/Third_Party/LibJPEG/source/jdhuff.c **** 	  s = HUFF_EXTEND(r, s);
 3373              		.loc 1 1232 4 is_stmt 1 view .LVU1112
 3374              		.loc 1 1232 8 is_stmt 0 view .LVU1113
 3375 00f4 013C     		subs	r4, r4, #1
 3376              	.LVL483:
 3377              		.loc 1 1232 8 view .LVU1114
 3378 00f6 53F82430 		ldr	r3, [r3, r4, lsl #2]
 3379 00fa 6345     		cmp	r3, ip
 3380 00fc 01DB     		blt	.L236
 3381              		.loc 1 1232 8 discriminator 1 view .LVU1115
 3382 00fe ACEB000C 		sub	ip, ip, r0
 3383              	.LVL484:
 3384              	.L236:
1233:Middlewares/Third_Party/LibJPEG/source/jdhuff.c **** 	}
1234:Middlewares/Third_Party/LibJPEG/source/jdhuff.c **** 	ci = cinfo->MCU_membership[blkn];
 3385              		.loc 1 1234 2 is_stmt 1 view .LVU1116
 3386              		.loc 1 1234 5 is_stmt 0 view .LVU1117
 3387 0102 0AF15C03 		add	r3, r10, #92
 3388 0106 59F82300 		ldr	r0, [r9, r3, lsl #2]
 3389              	.LVL485:
1235:Middlewares/Third_Party/LibJPEG/source/jdhuff.c **** 	s += state.last_dc_val[ci];
 3390              		.loc 1 1235 2 is_stmt 1 view .LVU1118
 3391              		.loc 1 1235 24 is_stmt 0 view .LVU1119
 3392 010a 10AB     		add	r3, sp, #64
 3393 010c 03EB8000 		add	r0, r3, r0, lsl #2
 3394              	.LVL486:
 3395              		.loc 1 1235 24 view .LVU1120
 3396 0110 50F8243C 		ldr	r3, [r0, #-36]
 3397              		.loc 1 1235 4 view .LVU1121
 3398 0114 6344     		add	r3, r3, ip
 3399              	.LVL487:
1236:Middlewares/Third_Party/LibJPEG/source/jdhuff.c **** 	state.last_dc_val[ci] = s;
 3400              		.loc 1 1236 2 is_stmt 1 view .LVU1122
 3401              		.loc 1 1236 24 is_stmt 0 view .LVU1123
 3402 0116 40F8243C 		str	r3, [r0, #-36]
1237:Middlewares/Third_Party/LibJPEG/source/jdhuff.c **** 	/* Output the DC coefficient */
1238:Middlewares/Third_Party/LibJPEG/source/jdhuff.c **** 	(*block)[0] = (JCOEF) s;
 3403              		.loc 1 1238 2 is_stmt 1 view .LVU1124
 3404              		.loc 1 1238 14 is_stmt 0 view .LVU1125
 3405 011a ABF80030 		strh	r3, [fp]	@ movhi
 3406              	.LVL488:
1239:Middlewares/Third_Party/LibJPEG/source/jdhuff.c **** 
1240:Middlewares/Third_Party/LibJPEG/source/jdhuff.c **** 	/* Section F.2.2.2: decode the AC coefficients */
1241:Middlewares/Third_Party/LibJPEG/source/jdhuff.c **** 	/* Since zeroes are skipped, output area must be cleared beforehand */
1242:Middlewares/Third_Party/LibJPEG/source/jdhuff.c **** 	for (; k < coef_limit; k++) {
 3407              		.loc 1 1242 2 is_stmt 1 view .LVU1126
1225:Middlewares/Third_Party/LibJPEG/source/jdhuff.c ****       coef_limit = entropy->coef_limit[blkn];
 3408              		.loc 1 1225 9 is_stmt 0 view .LVU1127
 3409 011e 0124     		movs	r4, #1
 3410 0120 CDF810A0 		str	r10, [sp, #16]
 3411 0124 0595     		str	r5, [sp, #20]
 3412              		.loc 1 1242 2 view .LVU1128
ARM GAS  /var/folders/mq/wg13gp494590nh4zyt09lxf00000gn/T//ccUYufpr.s 			page 91


 3413 0126 41E0     		b	.L238
 3414              	.LVL489:
 3415              	.L283:
1230:Middlewares/Third_Party/LibJPEG/source/jdhuff.c **** 	  r = GET_BITS(s);
 3416              		.loc 1 1230 4 is_stmt 1 discriminator 1 view .LVU1129
 3417 0128 2346     		mov	r3, r4
 3418 012a 0BA8     		add	r0, sp, #44
 3419 012c FFF7FEFF 		bl	jpeg_fill_bit_buffer
 3420              	.LVL490:
1230:Middlewares/Third_Party/LibJPEG/source/jdhuff.c **** 	  r = GET_BITS(s);
 3421              		.loc 1 1230 4 is_stmt 0 discriminator 1 view .LVU1130
 3422 0130 0028     		cmp	r0, #0
 3423 0132 00F0D980 		beq	.L263
1230:Middlewares/Third_Party/LibJPEG/source/jdhuff.c **** 	  r = GET_BITS(s);
 3424              		.loc 1 1230 4 is_stmt 1 discriminator 4 view .LVU1131
 3425 0136 0D99     		ldr	r1, [sp, #52]
 3426              	.LVL491:
1230:Middlewares/Third_Party/LibJPEG/source/jdhuff.c **** 	  r = GET_BITS(s);
 3427              		.loc 1 1230 4 discriminator 4 view .LVU1132
 3428 0138 0E9A     		ldr	r2, [sp, #56]
 3429              	.LVL492:
1230:Middlewares/Third_Party/LibJPEG/source/jdhuff.c **** 	  r = GET_BITS(s);
 3430              		.loc 1 1230 4 is_stmt 0 discriminator 4 view .LVU1133
 3431 013a D3E7     		b	.L237
 3432              	.L262:
1230:Middlewares/Third_Party/LibJPEG/source/jdhuff.c **** 	  r = GET_BITS(s);
 3433              		.loc 1 1230 4 discriminator 4 view .LVU1134
 3434 013c A446     		mov	ip, r4
 3435 013e E0E7     		b	.L236
 3436              	.LVL493:
 3437              	.L286:
 3438              	.LBB28:
1243:Middlewares/Third_Party/LibJPEG/source/jdhuff.c **** 	  HUFF_DECODE(s, br_state, htbl, return FALSE, label2);
 3439              		.loc 1 1243 4 is_stmt 1 discriminator 1 view .LVU1135
 3440 0140 0023     		movs	r3, #0
 3441 0142 0BA8     		add	r0, sp, #44
 3442 0144 FFF7FEFF 		bl	jpeg_fill_bit_buffer
 3443              	.LVL494:
 3444              		.loc 1 1243 4 is_stmt 0 discriminator 1 view .LVU1136
 3445 0148 0028     		cmp	r0, #0
 3446 014a 00F0CF80 		beq	.L264
 3447              		.loc 1 1243 4 is_stmt 1 discriminator 4 view .LVU1137
 3448 014e 0D99     		ldr	r1, [sp, #52]
 3449              	.LVL495:
 3450              		.loc 1 1243 4 discriminator 4 view .LVU1138
 3451 0150 0E9A     		ldr	r2, [sp, #56]
 3452              	.LVL496:
 3453              		.loc 1 1243 4 discriminator 4 view .LVU1139
 3454 0152 072A     		cmp	r2, #7
 3455 0154 2EDC     		bgt	.L239
 3456              		.loc 1 1243 4 is_stmt 0 discriminator 5 view .LVU1140
 3457 0156 0123     		movs	r3, #1
 3458 0158 00E0     		b	.L240
 3459              	.LVL497:
 3460              	.L266:
 3461              		.loc 1 1243 4 discriminator 9 view .LVU1141
 3462 015a 0923     		movs	r3, #9
ARM GAS  /var/folders/mq/wg13gp494590nh4zyt09lxf00000gn/T//ccUYufpr.s 			page 92


 3463              	.LVL498:
 3464              	.L240:
 3465              		.loc 1 1243 4 is_stmt 1 discriminator 11 view .LVU1142
 3466 015c 0093     		str	r3, [sp]
 3467 015e 3346     		mov	r3, r6
 3468              	.LVL499:
 3469              		.loc 1 1243 4 is_stmt 0 discriminator 11 view .LVU1143
 3470 0160 0BA8     		add	r0, sp, #44
 3471 0162 FFF7FEFF 		bl	jpeg_huff_decode
 3472              	.LVL500:
 3473              		.loc 1 1243 4 discriminator 1 view .LVU1144
 3474 0166 B0F1000A 		subs	r10, r0, #0
 3475 016a C0F2CB80 		blt	.L275
 3476              		.loc 1 1243 4 is_stmt 1 discriminator 13 view .LVU1145
 3477 016e 0D99     		ldr	r1, [sp, #52]
 3478              	.LVL501:
 3479              		.loc 1 1243 4 discriminator 13 view .LVU1146
 3480 0170 0E9A     		ldr	r2, [sp, #56]
 3481              	.LVL502:
 3482              	.L241:
 3483              		.loc 1 1243 4 is_stmt 0 discriminator 13 view .LVU1147
 3484              	.LBE28:
 3485              		.loc 1 1243 56 is_stmt 1 discriminator 14 view .LVU1148
1244:Middlewares/Third_Party/LibJPEG/source/jdhuff.c **** 
1245:Middlewares/Third_Party/LibJPEG/source/jdhuff.c **** 	  r = s >> 4;
 3486              		.loc 1 1245 4 view .LVU1149
 3487              		.loc 1 1245 6 is_stmt 0 view .LVU1150
 3488 0172 4FEA2A13 		asr	r3, r10, #4
 3489              	.LVL503:
1246:Middlewares/Third_Party/LibJPEG/source/jdhuff.c **** 	  s &= 15;
 3490              		.loc 1 1246 4 is_stmt 1 view .LVU1151
1247:Middlewares/Third_Party/LibJPEG/source/jdhuff.c **** 
1248:Middlewares/Third_Party/LibJPEG/source/jdhuff.c **** 	  if (s) {
 3491              		.loc 1 1248 4 view .LVU1152
 3492              		.loc 1 1248 7 is_stmt 0 view .LVU1153
 3493 0176 1AF00F0A 		ands	r10, r10, #15
 3494              	.LVL504:
 3495              		.loc 1 1248 7 view .LVU1154
 3496 017a 35D0     		beq	.L242
1249:Middlewares/Third_Party/LibJPEG/source/jdhuff.c **** 	    k += r;
 3497              		.loc 1 1249 6 is_stmt 1 view .LVU1155
 3498              		.loc 1 1249 8 is_stmt 0 view .LVU1156
 3499 017c 1C44     		add	r4, r4, r3
 3500              	.LVL505:
1250:Middlewares/Third_Party/LibJPEG/source/jdhuff.c **** 	    CHECK_BIT_BUFFER(br_state, s, return FALSE);
 3501              		.loc 1 1250 6 is_stmt 1 view .LVU1157
 3502 017e 5245     		cmp	r2, r10
 3503 0180 28DB     		blt	.L284
 3504              	.LVL506:
 3505              	.L243:
 3506              		.loc 1 1250 49 discriminator 5 view .LVU1158
1251:Middlewares/Third_Party/LibJPEG/source/jdhuff.c **** 	    r = GET_BITS(s);
 3507              		.loc 1 1251 6 view .LVU1159
 3508              		.loc 1 1251 10 is_stmt 0 view .LVU1160
 3509 0182 A2EB0A02 		sub	r2, r2, r10
 3510              	.LVL507:
 3511              		.loc 1 1251 10 view .LVU1161
ARM GAS  /var/folders/mq/wg13gp494590nh4zyt09lxf00000gn/T//ccUYufpr.s 			page 93


 3512 0186 41FA02F3 		asr	r3, r1, r2
 3513 018a 6048     		ldr	r0, .L290
 3514 018c 50F82A50 		ldr	r5, [r0, r10, lsl #2]
 3515              		.loc 1 1251 8 view .LVU1162
 3516 0190 2B40     		ands	r3, r3, r5
 3517              	.LVL508:
1252:Middlewares/Third_Party/LibJPEG/source/jdhuff.c **** 	    s = HUFF_EXTEND(r, s);
 3518              		.loc 1 1252 6 is_stmt 1 view .LVU1163
 3519              		.loc 1 1252 10 is_stmt 0 view .LVU1164
 3520 0192 0AF1FF3A 		add	r10, r10, #-1
 3521              	.LVL509:
 3522              		.loc 1 1252 10 view .LVU1165
 3523 0196 50F82A00 		ldr	r0, [r0, r10, lsl #2]
 3524 019a 9842     		cmp	r0, r3
 3525 019c 00DB     		blt	.L244
 3526              		.loc 1 1252 10 discriminator 1 view .LVU1166
 3527 019e 5B1B     		subs	r3, r3, r5
 3528              	.LVL510:
 3529              	.L244:
1253:Middlewares/Third_Party/LibJPEG/source/jdhuff.c **** 	    /* Output coefficient in natural (dezigzagged) order.
1254:Middlewares/Third_Party/LibJPEG/source/jdhuff.c **** 	     * Note: the extra entries in jpeg_natural_order[] will save us
1255:Middlewares/Third_Party/LibJPEG/source/jdhuff.c **** 	     * if k >= DCTSIZE2, which could happen if the data is corrupted.
1256:Middlewares/Third_Party/LibJPEG/source/jdhuff.c **** 	     */
1257:Middlewares/Third_Party/LibJPEG/source/jdhuff.c **** 	    (*block)[jpeg_natural_order[k]] = (JCOEF) s;
 3530              		.loc 1 1257 6 is_stmt 1 view .LVU1167
 3531              		.loc 1 1257 33 is_stmt 0 view .LVU1168
 3532 01a0 5B48     		ldr	r0, .L290+4
 3533 01a2 50F82400 		ldr	r0, [r0, r4, lsl #2]
 3534              		.loc 1 1257 38 view .LVU1169
 3535 01a6 2BF81030 		strh	r3, [fp, r0, lsl #1]	@ movhi
 3536              	.LVL511:
 3537              	.L245:
1242:Middlewares/Third_Party/LibJPEG/source/jdhuff.c **** 	  HUFF_DECODE(s, br_state, htbl, return FALSE, label2);
 3538              		.loc 1 1242 26 is_stmt 1 view .LVU1170
 3539 01aa 0134     		adds	r4, r4, #1
 3540              	.LVL512:
 3541              	.L238:
1242:Middlewares/Third_Party/LibJPEG/source/jdhuff.c **** 	  HUFF_DECODE(s, br_state, htbl, return FALSE, label2);
 3542              		.loc 1 1242 11 discriminator 1 view .LVU1171
 3543 01ac BC42     		cmp	r4, r7
 3544 01ae 1FDA     		bge	.L285
 3545              	.LBB29:
1243:Middlewares/Third_Party/LibJPEG/source/jdhuff.c **** 
 3546              		.loc 1 1243 4 view .LVU1172
1243:Middlewares/Third_Party/LibJPEG/source/jdhuff.c **** 
 3547              		.loc 1 1243 4 view .LVU1173
 3548 01b0 072A     		cmp	r2, #7
 3549 01b2 C5DD     		ble	.L286
 3550              	.L239:
1243:Middlewares/Third_Party/LibJPEG/source/jdhuff.c **** 
 3551              		.loc 1 1243 4 discriminator 6 view .LVU1174
 3552 01b4 A2F10803 		sub	r3, r2, #8
 3553 01b8 41FA03F3 		asr	r3, r1, r3
 3554 01bc DBB2     		uxtb	r3, r3
 3555              	.LVL513:
1243:Middlewares/Third_Party/LibJPEG/source/jdhuff.c **** 
 3556              		.loc 1 1243 4 discriminator 6 view .LVU1175
ARM GAS  /var/folders/mq/wg13gp494590nh4zyt09lxf00000gn/T//ccUYufpr.s 			page 94


 3557 01be 03F12400 		add	r0, r3, #36
 3558 01c2 56F82000 		ldr	r0, [r6, r0, lsl #2]
 3559              	.LVL514:
1243:Middlewares/Third_Party/LibJPEG/source/jdhuff.c **** 
 3560              		.loc 1 1243 4 is_stmt 0 discriminator 6 view .LVU1176
 3561 01c6 0028     		cmp	r0, #0
 3562 01c8 C7D0     		beq	.L266
1243:Middlewares/Third_Party/LibJPEG/source/jdhuff.c **** 
 3563              		.loc 1 1243 4 is_stmt 1 discriminator 8 view .LVU1177
 3564 01ca 121A     		subs	r2, r2, r0
 3565              	.LVL515:
1243:Middlewares/Third_Party/LibJPEG/source/jdhuff.c **** 
 3566              		.loc 1 1243 4 discriminator 8 view .LVU1178
 3567 01cc 3344     		add	r3, r3, r6
 3568              	.LVL516:
1243:Middlewares/Third_Party/LibJPEG/source/jdhuff.c **** 
 3569              		.loc 1 1243 4 is_stmt 0 discriminator 8 view .LVU1179
 3570 01ce 93F890A4 		ldrb	r10, [r3, #1168]	@ zero_extendqisi2
 3571              	.LVL517:
1243:Middlewares/Third_Party/LibJPEG/source/jdhuff.c **** 
 3572              		.loc 1 1243 4 discriminator 8 view .LVU1180
 3573 01d2 CEE7     		b	.L241
 3574              	.LVL518:
 3575              	.L284:
1243:Middlewares/Third_Party/LibJPEG/source/jdhuff.c **** 
 3576              		.loc 1 1243 4 discriminator 8 view .LVU1181
 3577              	.LBE29:
1250:Middlewares/Third_Party/LibJPEG/source/jdhuff.c **** 	    r = GET_BITS(s);
 3578              		.loc 1 1250 6 is_stmt 1 discriminator 1 view .LVU1182
 3579 01d4 5346     		mov	r3, r10
 3580              	.LVL519:
1250:Middlewares/Third_Party/LibJPEG/source/jdhuff.c **** 	    r = GET_BITS(s);
 3581              		.loc 1 1250 6 is_stmt 0 discriminator 1 view .LVU1183
 3582 01d6 0BA8     		add	r0, sp, #44
 3583 01d8 FFF7FEFF 		bl	jpeg_fill_bit_buffer
 3584              	.LVL520:
1250:Middlewares/Third_Party/LibJPEG/source/jdhuff.c **** 	    r = GET_BITS(s);
 3585              		.loc 1 1250 6 discriminator 1 view .LVU1184
 3586 01dc 0028     		cmp	r0, #0
 3587 01de 00F08780 		beq	.L267
1250:Middlewares/Third_Party/LibJPEG/source/jdhuff.c **** 	    r = GET_BITS(s);
 3588              		.loc 1 1250 6 is_stmt 1 discriminator 4 view .LVU1185
 3589 01e2 0D99     		ldr	r1, [sp, #52]
 3590              	.LVL521:
1250:Middlewares/Third_Party/LibJPEG/source/jdhuff.c **** 	    r = GET_BITS(s);
 3591              		.loc 1 1250 6 discriminator 4 view .LVU1186
 3592 01e4 0E9A     		ldr	r2, [sp, #56]
 3593              	.LVL522:
1250:Middlewares/Third_Party/LibJPEG/source/jdhuff.c **** 	    r = GET_BITS(s);
 3594              		.loc 1 1250 6 is_stmt 0 discriminator 4 view .LVU1187
 3595 01e6 CCE7     		b	.L243
 3596              	.LVL523:
 3597              	.L242:
1258:Middlewares/Third_Party/LibJPEG/source/jdhuff.c **** 	  } else {
1259:Middlewares/Third_Party/LibJPEG/source/jdhuff.c **** 	    if (r != 15)
 3598              		.loc 1 1259 6 is_stmt 1 view .LVU1188
 3599              		.loc 1 1259 9 is_stmt 0 view .LVU1189
ARM GAS  /var/folders/mq/wg13gp494590nh4zyt09lxf00000gn/T//ccUYufpr.s 			page 95


 3600 01e8 0F2B     		cmp	r3, #15
 3601 01ea 56D1     		bne	.L276
1260:Middlewares/Third_Party/LibJPEG/source/jdhuff.c **** 	      goto EndOfBlock;
1261:Middlewares/Third_Party/LibJPEG/source/jdhuff.c **** 	    k += 15;
 3602              		.loc 1 1261 6 is_stmt 1 view .LVU1190
 3603              		.loc 1 1261 8 is_stmt 0 view .LVU1191
 3604 01ec 0F34     		adds	r4, r4, #15
 3605              	.LVL524:
 3606              		.loc 1 1261 8 view .LVU1192
 3607 01ee DCE7     		b	.L245
 3608              	.LVL525:
 3609              	.L285:
 3610              		.loc 1 1261 8 view .LVU1193
 3611 01f0 DDF810A0 		ldr	r10, [sp, #16]
 3612 01f4 059D     		ldr	r5, [sp, #20]
 3613 01f6 2FE0     		b	.L250
 3614              	.LVL526:
 3615              	.L235:
1262:Middlewares/Third_Party/LibJPEG/source/jdhuff.c **** 	  }
1263:Middlewares/Third_Party/LibJPEG/source/jdhuff.c **** 	}
1264:Middlewares/Third_Party/LibJPEG/source/jdhuff.c ****       } else {
1265:Middlewares/Third_Party/LibJPEG/source/jdhuff.c **** 	if (s) {
 3616              		.loc 1 1265 2 is_stmt 1 view .LVU1194
 3617              		.loc 1 1265 5 is_stmt 0 view .LVU1195
 3618 01f8 6CB1     		cbz	r4, .L268
1266:Middlewares/Third_Party/LibJPEG/source/jdhuff.c **** 	  CHECK_BIT_BUFFER(br_state, s, return FALSE);
 3619              		.loc 1 1266 4 is_stmt 1 view .LVU1196
 3620 01fa A242     		cmp	r2, r4
 3621 01fc 02DB     		blt	.L287
 3622              	.L249:
 3623              		.loc 1 1266 47 discriminator 5 view .LVU1197
1267:Middlewares/Third_Party/LibJPEG/source/jdhuff.c **** 	  DROP_BITS(s);
 3624              		.loc 1 1267 4 view .LVU1198
 3625 01fe 121B     		subs	r2, r2, r4
 3626              	.LVL527:
1225:Middlewares/Third_Party/LibJPEG/source/jdhuff.c ****       coef_limit = entropy->coef_limit[blkn];
 3627              		.loc 1 1225 9 is_stmt 0 view .LVU1199
 3628 0200 0124     		movs	r4, #1
 3629              	.LVL528:
1225:Middlewares/Third_Party/LibJPEG/source/jdhuff.c ****       coef_limit = entropy->coef_limit[blkn];
 3630              		.loc 1 1225 9 view .LVU1200
 3631 0202 29E0     		b	.L250
 3632              	.LVL529:
 3633              	.L287:
1266:Middlewares/Third_Party/LibJPEG/source/jdhuff.c **** 	  CHECK_BIT_BUFFER(br_state, s, return FALSE);
 3634              		.loc 1 1266 4 is_stmt 1 discriminator 1 view .LVU1201
 3635 0204 2346     		mov	r3, r4
 3636 0206 0BA8     		add	r0, sp, #44
 3637 0208 FFF7FEFF 		bl	jpeg_fill_bit_buffer
 3638              	.LVL530:
1266:Middlewares/Third_Party/LibJPEG/source/jdhuff.c **** 	  CHECK_BIT_BUFFER(br_state, s, return FALSE);
 3639              		.loc 1 1266 4 is_stmt 0 discriminator 1 view .LVU1202
 3640 020c 0028     		cmp	r0, #0
 3641 020e 71D0     		beq	.L269
1266:Middlewares/Third_Party/LibJPEG/source/jdhuff.c **** 	  CHECK_BIT_BUFFER(br_state, s, return FALSE);
 3642              		.loc 1 1266 4 is_stmt 1 discriminator 4 view .LVU1203
 3643 0210 0D99     		ldr	r1, [sp, #52]
ARM GAS  /var/folders/mq/wg13gp494590nh4zyt09lxf00000gn/T//ccUYufpr.s 			page 96


 3644              	.LVL531:
1266:Middlewares/Third_Party/LibJPEG/source/jdhuff.c **** 	  CHECK_BIT_BUFFER(br_state, s, return FALSE);
 3645              		.loc 1 1266 4 discriminator 4 view .LVU1204
 3646 0212 0E9A     		ldr	r2, [sp, #56]
 3647              	.LVL532:
1266:Middlewares/Third_Party/LibJPEG/source/jdhuff.c **** 	  CHECK_BIT_BUFFER(br_state, s, return FALSE);
 3648              		.loc 1 1266 4 is_stmt 0 discriminator 4 view .LVU1205
 3649 0214 F3E7     		b	.L249
 3650              	.L268:
1225:Middlewares/Third_Party/LibJPEG/source/jdhuff.c ****       coef_limit = entropy->coef_limit[blkn];
 3651              		.loc 1 1225 9 view .LVU1206
 3652 0216 0124     		movs	r4, #1
 3653              	.LVL533:
1225:Middlewares/Third_Party/LibJPEG/source/jdhuff.c ****       coef_limit = entropy->coef_limit[blkn];
 3654              		.loc 1 1225 9 view .LVU1207
 3655 0218 1EE0     		b	.L250
 3656              	.LVL534:
 3657              	.L289:
 3658              	.LBB30:
1268:Middlewares/Third_Party/LibJPEG/source/jdhuff.c **** 	}
1269:Middlewares/Third_Party/LibJPEG/source/jdhuff.c ****       }
1270:Middlewares/Third_Party/LibJPEG/source/jdhuff.c **** 
1271:Middlewares/Third_Party/LibJPEG/source/jdhuff.c ****       /* Section F.2.2.2: decode the AC coefficients */
1272:Middlewares/Third_Party/LibJPEG/source/jdhuff.c ****       /* In this path we just discard the values */
1273:Middlewares/Third_Party/LibJPEG/source/jdhuff.c ****       for (; k < DCTSIZE2; k++) {
1274:Middlewares/Third_Party/LibJPEG/source/jdhuff.c **** 	HUFF_DECODE(s, br_state, htbl, return FALSE, label3);
 3659              		.loc 1 1274 2 is_stmt 1 discriminator 1 view .LVU1208
 3660 021a 0023     		movs	r3, #0
 3661 021c 0BA8     		add	r0, sp, #44
 3662 021e FFF7FEFF 		bl	jpeg_fill_bit_buffer
 3663              	.LVL535:
 3664              		.loc 1 1274 2 is_stmt 0 discriminator 1 view .LVU1209
 3665 0222 0028     		cmp	r0, #0
 3666 0224 68D0     		beq	.L270
 3667              		.loc 1 1274 2 is_stmt 1 discriminator 4 view .LVU1210
 3668 0226 0D99     		ldr	r1, [sp, #52]
 3669              	.LVL536:
 3670              		.loc 1 1274 2 discriminator 4 view .LVU1211
 3671 0228 0E9A     		ldr	r2, [sp, #56]
 3672              	.LVL537:
 3673              		.loc 1 1274 2 discriminator 4 view .LVU1212
 3674 022a 072A     		cmp	r2, #7
 3675 022c 18DC     		bgt	.L251
 3676              		.loc 1 1274 2 is_stmt 0 discriminator 5 view .LVU1213
 3677 022e 0123     		movs	r3, #1
 3678 0230 00E0     		b	.L252
 3679              	.LVL538:
 3680              	.L272:
 3681              		.loc 1 1274 2 discriminator 9 view .LVU1214
 3682 0232 0923     		movs	r3, #9
 3683              	.LVL539:
 3684              	.L252:
 3685              		.loc 1 1274 2 is_stmt 1 discriminator 11 view .LVU1215
 3686 0234 0093     		str	r3, [sp]
 3687 0236 3346     		mov	r3, r6
 3688              	.LVL540:
 3689              		.loc 1 1274 2 is_stmt 0 discriminator 11 view .LVU1216
ARM GAS  /var/folders/mq/wg13gp494590nh4zyt09lxf00000gn/T//ccUYufpr.s 			page 97


 3690 0238 0BA8     		add	r0, sp, #44
 3691 023a FFF7FEFF 		bl	jpeg_huff_decode
 3692              	.LVL541:
 3693              		.loc 1 1274 2 discriminator 1 view .LVU1217
 3694 023e 071E     		subs	r7, r0, #0
 3695 0240 62DB     		blt	.L277
 3696              		.loc 1 1274 2 is_stmt 1 discriminator 13 view .LVU1218
 3697 0242 0D99     		ldr	r1, [sp, #52]
 3698              	.LVL542:
 3699              		.loc 1 1274 2 discriminator 13 view .LVU1219
 3700 0244 0E9A     		ldr	r2, [sp, #56]
 3701              	.LVL543:
 3702              	.L253:
 3703              		.loc 1 1274 2 is_stmt 0 discriminator 13 view .LVU1220
 3704              	.LBE30:
 3705              		.loc 1 1274 54 is_stmt 1 discriminator 14 view .LVU1221
1275:Middlewares/Third_Party/LibJPEG/source/jdhuff.c **** 
1276:Middlewares/Third_Party/LibJPEG/source/jdhuff.c **** 	r = s >> 4;
 3706              		.loc 1 1276 2 view .LVU1222
 3707              		.loc 1 1276 4 is_stmt 0 view .LVU1223
 3708 0246 3B11     		asrs	r3, r7, #4
 3709              	.LVL544:
1277:Middlewares/Third_Party/LibJPEG/source/jdhuff.c **** 	s &= 15;
 3710              		.loc 1 1277 2 is_stmt 1 view .LVU1224
1278:Middlewares/Third_Party/LibJPEG/source/jdhuff.c **** 
1279:Middlewares/Third_Party/LibJPEG/source/jdhuff.c **** 	if (s) {
 3711              		.loc 1 1279 2 view .LVU1225
 3712              		.loc 1 1279 5 is_stmt 0 view .LVU1226
 3713 0248 17F00F07 		ands	r7, r7, #15
 3714              	.LVL545:
 3715              		.loc 1 1279 5 view .LVU1227
 3716 024c 21D0     		beq	.L254
1280:Middlewares/Third_Party/LibJPEG/source/jdhuff.c **** 	  k += r;
 3717              		.loc 1 1280 4 is_stmt 1 view .LVU1228
 3718              		.loc 1 1280 6 is_stmt 0 view .LVU1229
 3719 024e 1C44     		add	r4, r4, r3
 3720              	.LVL546:
1281:Middlewares/Third_Party/LibJPEG/source/jdhuff.c **** 	  CHECK_BIT_BUFFER(br_state, s, return FALSE);
 3721              		.loc 1 1281 4 is_stmt 1 view .LVU1230
 3722 0250 BA42     		cmp	r2, r7
 3723 0252 15DB     		blt	.L288
 3724              	.LVL547:
 3725              	.L255:
 3726              		.loc 1 1281 47 discriminator 5 view .LVU1231
1282:Middlewares/Third_Party/LibJPEG/source/jdhuff.c **** 	  DROP_BITS(s);
 3727              		.loc 1 1282 4 view .LVU1232
 3728 0254 D21B     		subs	r2, r2, r7
 3729              	.LVL548:
 3730              	.L256:
1273:Middlewares/Third_Party/LibJPEG/source/jdhuff.c **** 	HUFF_DECODE(s, br_state, htbl, return FALSE, label3);
 3731              		.loc 1 1273 29 view .LVU1233
 3732 0256 0134     		adds	r4, r4, #1
 3733              	.LVL549:
 3734              	.L250:
1273:Middlewares/Third_Party/LibJPEG/source/jdhuff.c **** 	HUFF_DECODE(s, br_state, htbl, return FALSE, label3);
 3735              		.loc 1 1273 16 discriminator 1 view .LVU1234
 3736 0258 3F2C     		cmp	r4, #63
ARM GAS  /var/folders/mq/wg13gp494590nh4zyt09lxf00000gn/T//ccUYufpr.s 			page 98


 3737 025a 21DC     		bgt	.L246
 3738              	.LBB31:
1274:Middlewares/Third_Party/LibJPEG/source/jdhuff.c **** 
 3739              		.loc 1 1274 2 view .LVU1235
1274:Middlewares/Third_Party/LibJPEG/source/jdhuff.c **** 
 3740              		.loc 1 1274 2 view .LVU1236
 3741 025c 072A     		cmp	r2, #7
 3742 025e DCDD     		ble	.L289
 3743              	.L251:
1274:Middlewares/Third_Party/LibJPEG/source/jdhuff.c **** 
 3744              		.loc 1 1274 2 discriminator 6 view .LVU1237
 3745 0260 A2F10803 		sub	r3, r2, #8
 3746 0264 41FA03F3 		asr	r3, r1, r3
 3747 0268 DBB2     		uxtb	r3, r3
 3748              	.LVL550:
1274:Middlewares/Third_Party/LibJPEG/source/jdhuff.c **** 
 3749              		.loc 1 1274 2 discriminator 6 view .LVU1238
 3750 026a 03F12400 		add	r0, r3, #36
 3751 026e 56F82000 		ldr	r0, [r6, r0, lsl #2]
 3752              	.LVL551:
1274:Middlewares/Third_Party/LibJPEG/source/jdhuff.c **** 
 3753              		.loc 1 1274 2 is_stmt 0 discriminator 6 view .LVU1239
 3754 0272 0028     		cmp	r0, #0
 3755 0274 DDD0     		beq	.L272
1274:Middlewares/Third_Party/LibJPEG/source/jdhuff.c **** 
 3756              		.loc 1 1274 2 is_stmt 1 discriminator 8 view .LVU1240
 3757 0276 121A     		subs	r2, r2, r0
 3758              	.LVL552:
1274:Middlewares/Third_Party/LibJPEG/source/jdhuff.c **** 
 3759              		.loc 1 1274 2 discriminator 8 view .LVU1241
 3760 0278 3344     		add	r3, r3, r6
 3761              	.LVL553:
1274:Middlewares/Third_Party/LibJPEG/source/jdhuff.c **** 
 3762              		.loc 1 1274 2 is_stmt 0 discriminator 8 view .LVU1242
 3763 027a 93F89074 		ldrb	r7, [r3, #1168]	@ zero_extendqisi2
 3764              	.LVL554:
1274:Middlewares/Third_Party/LibJPEG/source/jdhuff.c **** 
 3765              		.loc 1 1274 2 discriminator 8 view .LVU1243
 3766 027e E2E7     		b	.L253
 3767              	.LVL555:
 3768              	.L288:
1274:Middlewares/Third_Party/LibJPEG/source/jdhuff.c **** 
 3769              		.loc 1 1274 2 discriminator 8 view .LVU1244
 3770              	.LBE31:
1281:Middlewares/Third_Party/LibJPEG/source/jdhuff.c **** 	  DROP_BITS(s);
 3771              		.loc 1 1281 4 is_stmt 1 discriminator 1 view .LVU1245
 3772 0280 3B46     		mov	r3, r7
 3773              	.LVL556:
1281:Middlewares/Third_Party/LibJPEG/source/jdhuff.c **** 	  DROP_BITS(s);
 3774              		.loc 1 1281 4 is_stmt 0 discriminator 1 view .LVU1246
 3775 0282 0BA8     		add	r0, sp, #44
 3776 0284 FFF7FEFF 		bl	jpeg_fill_bit_buffer
 3777              	.LVL557:
1281:Middlewares/Third_Party/LibJPEG/source/jdhuff.c **** 	  DROP_BITS(s);
 3778              		.loc 1 1281 4 discriminator 1 view .LVU1247
 3779 0288 0028     		cmp	r0, #0
 3780 028a 37D0     		beq	.L273
ARM GAS  /var/folders/mq/wg13gp494590nh4zyt09lxf00000gn/T//ccUYufpr.s 			page 99


1281:Middlewares/Third_Party/LibJPEG/source/jdhuff.c **** 	  DROP_BITS(s);
 3781              		.loc 1 1281 4 is_stmt 1 discriminator 4 view .LVU1248
 3782 028c 0D99     		ldr	r1, [sp, #52]
 3783              	.LVL558:
1281:Middlewares/Third_Party/LibJPEG/source/jdhuff.c **** 	  DROP_BITS(s);
 3784              		.loc 1 1281 4 discriminator 4 view .LVU1249
 3785 028e 0E9A     		ldr	r2, [sp, #56]
 3786              	.LVL559:
1281:Middlewares/Third_Party/LibJPEG/source/jdhuff.c **** 	  DROP_BITS(s);
 3787              		.loc 1 1281 4 is_stmt 0 discriminator 4 view .LVU1250
 3788 0290 E0E7     		b	.L255
 3789              	.LVL560:
 3790              	.L254:
1283:Middlewares/Third_Party/LibJPEG/source/jdhuff.c **** 	} else {
1284:Middlewares/Third_Party/LibJPEG/source/jdhuff.c **** 	  if (r != 15)
 3791              		.loc 1 1284 4 is_stmt 1 view .LVU1251
 3792              		.loc 1 1284 7 is_stmt 0 view .LVU1252
 3793 0292 0F2B     		cmp	r3, #15
 3794 0294 04D1     		bne	.L246
1285:Middlewares/Third_Party/LibJPEG/source/jdhuff.c **** 	    break;
1286:Middlewares/Third_Party/LibJPEG/source/jdhuff.c **** 	  k += 15;
 3795              		.loc 1 1286 4 is_stmt 1 view .LVU1253
 3796              		.loc 1 1286 6 is_stmt 0 view .LVU1254
 3797 0296 0F34     		adds	r4, r4, #15
 3798              	.LVL561:
 3799              		.loc 1 1286 6 view .LVU1255
 3800 0298 DDE7     		b	.L256
 3801              	.LVL562:
 3802              	.L276:
 3803              		.loc 1 1286 6 view .LVU1256
 3804 029a DDF810A0 		ldr	r10, [sp, #16]
 3805              	.LVL563:
 3806              		.loc 1 1286 6 view .LVU1257
 3807 029e 059D     		ldr	r5, [sp, #20]
 3808              	.LVL564:
 3809              	.L246:
1287:Middlewares/Third_Party/LibJPEG/source/jdhuff.c **** 	}
1288:Middlewares/Third_Party/LibJPEG/source/jdhuff.c ****       }
1289:Middlewares/Third_Party/LibJPEG/source/jdhuff.c **** 
1290:Middlewares/Third_Party/LibJPEG/source/jdhuff.c ****       EndOfBlock: ;
 3810              		.loc 1 1290 19 is_stmt 1 view .LVU1258
 3811              	.LBE35:
1212:Middlewares/Third_Party/LibJPEG/source/jdhuff.c ****       JBLOCKROW block = MCU_data[blkn];
 3812              		.loc 1 1212 53 discriminator 2 view .LVU1259
 3813 02a0 0AF1010A 		add	r10, r10, #1
 3814              	.LVL565:
1212:Middlewares/Third_Party/LibJPEG/source/jdhuff.c ****       JBLOCKROW block = MCU_data[blkn];
 3815              		.loc 1 1212 53 is_stmt 0 discriminator 2 view .LVU1260
 3816 02a4 D6E6     		b	.L231
 3817              	.LVL566:
 3818              	.L281:
1291:Middlewares/Third_Party/LibJPEG/source/jdhuff.c ****     }
1292:Middlewares/Third_Party/LibJPEG/source/jdhuff.c **** 
1293:Middlewares/Third_Party/LibJPEG/source/jdhuff.c ****     /* Completed MCU, so update state */
1294:Middlewares/Third_Party/LibJPEG/source/jdhuff.c ****     BITREAD_SAVE_STATE(cinfo,entropy->bitstate);
 3819              		.loc 1 1294 5 view .LVU1261
 3820 02a6 8E46     		mov	lr, r1
ARM GAS  /var/folders/mq/wg13gp494590nh4zyt09lxf00000gn/T//ccUYufpr.s 			page 100


 3821 02a8 9446     		mov	ip, r2
 3822              		.loc 1 1294 5 is_stmt 1 view .LVU1262
 3823 02aa D9F81830 		ldr	r3, [r9, #24]
 3824 02ae 0B9A     		ldr	r2, [sp, #44]
 3825              	.LVL567:
 3826              		.loc 1 1294 5 is_stmt 0 view .LVU1263
 3827 02b0 1A60     		str	r2, [r3]
 3828              		.loc 1 1294 5 is_stmt 1 view .LVU1264
 3829 02b2 D9F81830 		ldr	r3, [r9, #24]
 3830 02b6 0C9A     		ldr	r2, [sp, #48]
 3831 02b8 5A60     		str	r2, [r3, #4]
 3832              		.loc 1 1294 5 view .LVU1265
 3833 02ba C8F80810 		str	r1, [r8, #8]
 3834              		.loc 1 1294 5 view .LVU1266
 3835 02be C8F80CC0 		str	ip, [r8, #12]
1295:Middlewares/Third_Party/LibJPEG/source/jdhuff.c ****     ASSIGN_STATE(entropy->saved, state);
 3836              		.loc 1 1295 5 view .LVU1267
 3837 02c2 08F11004 		add	r4, r8, #16
 3838 02c6 06AD     		add	r5, sp, #24
 3839 02c8 0FCD     		ldmia	r5!, {r0, r1, r2, r3}
 3840              	.LVL568:
 3841              		.loc 1 1295 5 is_stmt 0 view .LVU1268
 3842 02ca 0FC4     		stmia	r4!, {r0, r1, r2, r3}
 3843 02cc 2B68     		ldr	r3, [r5]
 3844 02ce 2360     		str	r3, [r4]
 3845              	.LVL569:
 3846              	.L230:
1296:Middlewares/Third_Party/LibJPEG/source/jdhuff.c ****   }
1297:Middlewares/Third_Party/LibJPEG/source/jdhuff.c **** 
1298:Middlewares/Third_Party/LibJPEG/source/jdhuff.c ****   /* Account for restart interval (no-op if not using restarts) */
1299:Middlewares/Third_Party/LibJPEG/source/jdhuff.c ****   entropy->restarts_to_go--;
 3847              		.loc 1 1299 3 is_stmt 1 view .LVU1269
 3848              		.loc 1 1299 10 is_stmt 0 view .LVU1270
 3849 02d0 D8F82830 		ldr	r3, [r8, #40]
 3850              		.loc 1 1299 26 view .LVU1271
 3851 02d4 013B     		subs	r3, r3, #1
 3852 02d6 C8F82830 		str	r3, [r8, #40]
1300:Middlewares/Third_Party/LibJPEG/source/jdhuff.c **** 
1301:Middlewares/Third_Party/LibJPEG/source/jdhuff.c ****   return TRUE;
 3853              		.loc 1 1301 3 is_stmt 1 view .LVU1272
 3854              		.loc 1 1301 10 is_stmt 0 view .LVU1273
 3855 02da 0126     		movs	r6, #1
 3856              	.L227:
1302:Middlewares/Third_Party/LibJPEG/source/jdhuff.c **** }
 3857              		.loc 1 1302 1 view .LVU1274
 3858 02dc 3046     		mov	r0, r6
 3859 02de 11B0     		add	sp, sp, #68
 3860              	.LCFI24:
 3861              		.cfi_remember_state
 3862              		.cfi_def_cfa_offset 36
 3863              		@ sp needed
 3864 02e0 BDE8F08F 		pop	{r4, r5, r6, r7, r8, r9, r10, fp, pc}
 3865              	.LVL570:
 3866              	.L259:
 3867              	.LCFI25:
 3868              		.cfi_restore_state
 3869              	.LBB36:
ARM GAS  /var/folders/mq/wg13gp494590nh4zyt09lxf00000gn/T//ccUYufpr.s 			page 101


 3870              	.LBB32:
1222:Middlewares/Third_Party/LibJPEG/source/jdhuff.c **** 
 3871              		.loc 1 1222 7 discriminator 3 view .LVU1275
 3872 02e4 0646     		mov	r6, r0
 3873 02e6 F9E7     		b	.L227
 3874              	.LVL571:
 3875              	.L263:
1222:Middlewares/Third_Party/LibJPEG/source/jdhuff.c **** 
 3876              		.loc 1 1222 7 discriminator 3 view .LVU1276
 3877              	.LBE32:
1230:Middlewares/Third_Party/LibJPEG/source/jdhuff.c **** 	  r = GET_BITS(s);
 3878              		.loc 1 1230 4 discriminator 3 view .LVU1277
 3879 02e8 0646     		mov	r6, r0
 3880              	.LVL572:
1230:Middlewares/Third_Party/LibJPEG/source/jdhuff.c **** 	  r = GET_BITS(s);
 3881              		.loc 1 1230 4 discriminator 3 view .LVU1278
 3882 02ea F7E7     		b	.L227
 3883              	.LVL573:
 3884              	.L264:
 3885              	.LBB33:
1243:Middlewares/Third_Party/LibJPEG/source/jdhuff.c **** 
 3886              		.loc 1 1243 4 discriminator 3 view .LVU1279
 3887 02ec 0646     		mov	r6, r0
 3888              	.LVL574:
1243:Middlewares/Third_Party/LibJPEG/source/jdhuff.c **** 
 3889              		.loc 1 1243 4 discriminator 3 view .LVU1280
 3890 02ee F5E7     		b	.L227
 3891              	.LVL575:
 3892              	.L267:
1243:Middlewares/Third_Party/LibJPEG/source/jdhuff.c **** 
 3893              		.loc 1 1243 4 discriminator 3 view .LVU1281
 3894              	.LBE33:
1250:Middlewares/Third_Party/LibJPEG/source/jdhuff.c **** 	    r = GET_BITS(s);
 3895              		.loc 1 1250 6 discriminator 3 view .LVU1282
 3896 02f0 0646     		mov	r6, r0
 3897              	.LVL576:
1250:Middlewares/Third_Party/LibJPEG/source/jdhuff.c **** 	    r = GET_BITS(s);
 3898              		.loc 1 1250 6 discriminator 3 view .LVU1283
 3899 02f2 F3E7     		b	.L227
 3900              	.LVL577:
 3901              	.L269:
1266:Middlewares/Third_Party/LibJPEG/source/jdhuff.c **** 	  DROP_BITS(s);
 3902              		.loc 1 1266 4 discriminator 3 view .LVU1284
 3903 02f4 0646     		mov	r6, r0
 3904              	.LVL578:
1266:Middlewares/Third_Party/LibJPEG/source/jdhuff.c **** 	  DROP_BITS(s);
 3905              		.loc 1 1266 4 discriminator 3 view .LVU1285
 3906 02f6 F1E7     		b	.L227
 3907              	.LVL579:
 3908              	.L270:
 3909              	.LBB34:
1274:Middlewares/Third_Party/LibJPEG/source/jdhuff.c **** 
 3910              		.loc 1 1274 2 discriminator 3 view .LVU1286
 3911 02f8 0646     		mov	r6, r0
 3912              	.LVL580:
1274:Middlewares/Third_Party/LibJPEG/source/jdhuff.c **** 
 3913              		.loc 1 1274 2 discriminator 3 view .LVU1287
ARM GAS  /var/folders/mq/wg13gp494590nh4zyt09lxf00000gn/T//ccUYufpr.s 			page 102


 3914 02fa EFE7     		b	.L227
 3915              	.LVL581:
 3916              	.L273:
1274:Middlewares/Third_Party/LibJPEG/source/jdhuff.c **** 
 3917              		.loc 1 1274 2 discriminator 3 view .LVU1288
 3918              	.LBE34:
1281:Middlewares/Third_Party/LibJPEG/source/jdhuff.c **** 	  DROP_BITS(s);
 3919              		.loc 1 1281 4 discriminator 3 view .LVU1289
 3920 02fc 0646     		mov	r6, r0
 3921              	.LVL582:
1281:Middlewares/Third_Party/LibJPEG/source/jdhuff.c **** 	  DROP_BITS(s);
 3922              		.loc 1 1281 4 discriminator 3 view .LVU1290
 3923 02fe EDE7     		b	.L227
 3924              	.LVL583:
 3925              	.L274:
1281:Middlewares/Third_Party/LibJPEG/source/jdhuff.c **** 	  DROP_BITS(s);
 3926              		.loc 1 1281 4 discriminator 3 view .LVU1291
 3927 0300 039E     		ldr	r6, [sp, #12]
 3928 0302 EBE7     		b	.L227
 3929              	.LVL584:
 3930              	.L275:
1281:Middlewares/Third_Party/LibJPEG/source/jdhuff.c **** 	  DROP_BITS(s);
 3931              		.loc 1 1281 4 discriminator 3 view .LVU1292
 3932 0304 039E     		ldr	r6, [sp, #12]
 3933              	.LVL585:
1281:Middlewares/Third_Party/LibJPEG/source/jdhuff.c **** 	  DROP_BITS(s);
 3934              		.loc 1 1281 4 discriminator 3 view .LVU1293
 3935 0306 E9E7     		b	.L227
 3936              	.LVL586:
 3937              	.L277:
1281:Middlewares/Third_Party/LibJPEG/source/jdhuff.c **** 	  DROP_BITS(s);
 3938              		.loc 1 1281 4 discriminator 3 view .LVU1294
 3939 0308 039E     		ldr	r6, [sp, #12]
 3940              	.LVL587:
1281:Middlewares/Third_Party/LibJPEG/source/jdhuff.c **** 	  DROP_BITS(s);
 3941              		.loc 1 1281 4 discriminator 3 view .LVU1295
 3942 030a E7E7     		b	.L227
 3943              	.L291:
 3944              		.align	2
 3945              	.L290:
 3946 030c 00000000 		.word	bmask
 3947 0310 00000000 		.word	jpeg_natural_order
 3948              	.LBE36:
 3949              		.cfi_endproc
 3950              	.LFE156:
 3952              		.section	.text.jpeg_make_d_derived_tbl,"ax",%progbits
 3953              		.align	1
 3954              		.syntax unified
 3955              		.thumb
 3956              		.thumb_func
 3958              	jpeg_make_d_derived_tbl:
 3959              	.LVL588:
 3960              	.LFB147:
 325:Middlewares/Third_Party/LibJPEG/source/jdhuff.c ****   JHUFF_TBL *htbl;
 3961              		.loc 1 325 1 is_stmt 1 view -0
 3962              		.cfi_startproc
 3963              		@ args = 0, pretend = 0, frame = 1296
ARM GAS  /var/folders/mq/wg13gp494590nh4zyt09lxf00000gn/T//ccUYufpr.s 			page 103


 3964              		@ frame_needed = 0, uses_anonymous_args = 0
 325:Middlewares/Third_Party/LibJPEG/source/jdhuff.c ****   JHUFF_TBL *htbl;
 3965              		.loc 1 325 1 is_stmt 0 view .LVU1297
 3966 0000 2DE9F04F 		push	{r4, r5, r6, r7, r8, r9, r10, fp, lr}
 3967              	.LCFI26:
 3968              		.cfi_def_cfa_offset 36
 3969              		.cfi_offset 4, -36
 3970              		.cfi_offset 5, -32
 3971              		.cfi_offset 6, -28
 3972              		.cfi_offset 7, -24
 3973              		.cfi_offset 8, -20
 3974              		.cfi_offset 9, -16
 3975              		.cfi_offset 10, -12
 3976              		.cfi_offset 11, -8
 3977              		.cfi_offset 14, -4
 3978 0004 ADF2145D 		subw	sp, sp, #1300
 3979              	.LCFI27:
 3980              		.cfi_def_cfa_offset 1336
 3981 0008 0190     		str	r0, [sp, #4]
 3982 000a 8B46     		mov	fp, r1
 3983 000c 1446     		mov	r4, r2
 3984 000e 1E46     		mov	r6, r3
 326:Middlewares/Third_Party/LibJPEG/source/jdhuff.c ****   d_derived_tbl *dtbl;
 3985              		.loc 1 326 3 is_stmt 1 view .LVU1298
 327:Middlewares/Third_Party/LibJPEG/source/jdhuff.c ****   int p, i, l, si, numsymbols;
 3986              		.loc 1 327 3 view .LVU1299
 328:Middlewares/Third_Party/LibJPEG/source/jdhuff.c ****   int lookbits, ctr;
 3987              		.loc 1 328 3 view .LVU1300
 329:Middlewares/Third_Party/LibJPEG/source/jdhuff.c ****   char huffsize[257];
 3988              		.loc 1 329 3 view .LVU1301
 330:Middlewares/Third_Party/LibJPEG/source/jdhuff.c ****   unsigned int huffcode[257];
 3989              		.loc 1 330 3 view .LVU1302
 331:Middlewares/Third_Party/LibJPEG/source/jdhuff.c ****   unsigned int code;
 3990              		.loc 1 331 3 view .LVU1303
 332:Middlewares/Third_Party/LibJPEG/source/jdhuff.c **** 
 3991              		.loc 1 332 3 view .LVU1304
 339:Middlewares/Third_Party/LibJPEG/source/jdhuff.c ****     ERREXIT1(cinfo, JERR_NO_HUFF_TABLE, tblno);
 3992              		.loc 1 339 3 view .LVU1305
 339:Middlewares/Third_Party/LibJPEG/source/jdhuff.c ****     ERREXIT1(cinfo, JERR_NO_HUFF_TABLE, tblno);
 3993              		.loc 1 339 6 is_stmt 0 view .LVU1306
 3994 0010 032A     		cmp	r2, #3
 3995 0012 07D9     		bls	.L293
 340:Middlewares/Third_Party/LibJPEG/source/jdhuff.c ****   htbl =
 3996              		.loc 1 340 5 is_stmt 1 view .LVU1307
 3997 0014 0368     		ldr	r3, [r0]
 3998              	.LVL589:
 340:Middlewares/Third_Party/LibJPEG/source/jdhuff.c ****   htbl =
 3999              		.loc 1 340 5 is_stmt 0 view .LVU1308
 4000 0016 3422     		movs	r2, #52
 4001              	.LVL590:
 340:Middlewares/Third_Party/LibJPEG/source/jdhuff.c ****   htbl =
 4002              		.loc 1 340 5 view .LVU1309
 4003 0018 5A61     		str	r2, [r3, #20]
 4004 001a 0368     		ldr	r3, [r0]
 4005 001c 9C61     		str	r4, [r3, #24]
 4006 001e 0368     		ldr	r3, [r0]
 4007 0020 1B68     		ldr	r3, [r3]
ARM GAS  /var/folders/mq/wg13gp494590nh4zyt09lxf00000gn/T//ccUYufpr.s 			page 104


 4008 0022 9847     		blx	r3
 4009              	.LVL591:
 4010              	.L293:
 341:Middlewares/Third_Party/LibJPEG/source/jdhuff.c ****     isDC ? cinfo->dc_huff_tbl_ptrs[tblno] : cinfo->ac_huff_tbl_ptrs[tblno];
 4011              		.loc 1 341 3 is_stmt 1 view .LVU1310
 342:Middlewares/Third_Party/LibJPEG/source/jdhuff.c ****   if (htbl == NULL)
 4012              		.loc 1 342 43 is_stmt 0 view .LVU1311
 4013 0024 BBF1000F 		cmp	fp, #0
 4014 0028 0FD0     		beq	.L294
 342:Middlewares/Third_Party/LibJPEG/source/jdhuff.c ****   if (htbl == NULL)
 4015              		.loc 1 342 43 discriminator 1 view .LVU1312
 4016 002a 04F12C03 		add	r3, r4, #44
 4017 002e 019A     		ldr	r2, [sp, #4]
 4018 0030 02EB8303 		add	r3, r2, r3, lsl #2
 4019 0034 5D68     		ldr	r5, [r3, #4]
 4020              	.L295:
 4021              	.LVL592:
 343:Middlewares/Third_Party/LibJPEG/source/jdhuff.c ****     ERREXIT1(cinfo, JERR_NO_HUFF_TABLE, tblno);
 4022              		.loc 1 343 3 is_stmt 1 view .LVU1313
 343:Middlewares/Third_Party/LibJPEG/source/jdhuff.c ****     ERREXIT1(cinfo, JERR_NO_HUFF_TABLE, tblno);
 4023              		.loc 1 343 6 is_stmt 0 view .LVU1314
 4024 0036 7DB1     		cbz	r5, .L323
 4025              	.L296:
 347:Middlewares/Third_Party/LibJPEG/source/jdhuff.c ****     *pdtbl = (d_derived_tbl *)
 4026              		.loc 1 347 3 is_stmt 1 view .LVU1315
 347:Middlewares/Third_Party/LibJPEG/source/jdhuff.c ****     *pdtbl = (d_derived_tbl *)
 4027              		.loc 1 347 7 is_stmt 0 view .LVU1316
 4028 0038 3368     		ldr	r3, [r6]
 347:Middlewares/Third_Party/LibJPEG/source/jdhuff.c ****     *pdtbl = (d_derived_tbl *)
 4029              		.loc 1 347 6 view .LVU1317
 4030 003a BBB1     		cbz	r3, .L324
 4031              	.L297:
 351:Middlewares/Third_Party/LibJPEG/source/jdhuff.c ****   dtbl->pub = htbl;		/* fill in back link */
 4032              		.loc 1 351 3 is_stmt 1 view .LVU1318
 351:Middlewares/Third_Party/LibJPEG/source/jdhuff.c ****   dtbl->pub = htbl;		/* fill in back link */
 4033              		.loc 1 351 8 is_stmt 0 view .LVU1319
 4034 003c 3468     		ldr	r4, [r6]
 4035              	.LVL593:
 352:Middlewares/Third_Party/LibJPEG/source/jdhuff.c ****   
 4036              		.loc 1 352 3 is_stmt 1 view .LVU1320
 352:Middlewares/Third_Party/LibJPEG/source/jdhuff.c ****   
 4037              		.loc 1 352 13 is_stmt 0 view .LVU1321
 4038 003e C4F88C50 		str	r5, [r4, #140]
 356:Middlewares/Third_Party/LibJPEG/source/jdhuff.c ****   for (l = 1; l <= 16; l++) {
 4039              		.loc 1 356 3 is_stmt 1 view .LVU1322
 4040              	.LVL594:
 357:Middlewares/Third_Party/LibJPEG/source/jdhuff.c ****     i = (int) htbl->bits[l];
 4041              		.loc 1 357 3 view .LVU1323
 357:Middlewares/Third_Party/LibJPEG/source/jdhuff.c ****     i = (int) htbl->bits[l];
 4042              		.loc 1 357 10 is_stmt 0 view .LVU1324
 4043 0042 4FF00109 		mov	r9, #1
 356:Middlewares/Third_Party/LibJPEG/source/jdhuff.c ****   for (l = 1; l <= 16; l++) {
 4044              		.loc 1 356 5 view .LVU1325
 4045 0046 0026     		movs	r6, #0
 4046              	.LVL595:
 357:Middlewares/Third_Party/LibJPEG/source/jdhuff.c ****     i = (int) htbl->bits[l];
 4047              		.loc 1 357 3 view .LVU1326
ARM GAS  /var/folders/mq/wg13gp494590nh4zyt09lxf00000gn/T//ccUYufpr.s 			page 105


 4048 0048 24E0     		b	.L298
 4049              	.LVL596:
 4050              	.L294:
 342:Middlewares/Third_Party/LibJPEG/source/jdhuff.c ****   if (htbl == NULL)
 4051              		.loc 1 342 43 discriminator 2 view .LVU1327
 4052 004a 04F13003 		add	r3, r4, #48
 4053 004e 019A     		ldr	r2, [sp, #4]
 4054 0050 02EB8303 		add	r3, r2, r3, lsl #2
 4055 0054 5D68     		ldr	r5, [r3, #4]
 4056 0056 EEE7     		b	.L295
 4057              	.LVL597:
 4058              	.L323:
 344:Middlewares/Third_Party/LibJPEG/source/jdhuff.c **** 
 4059              		.loc 1 344 5 is_stmt 1 view .LVU1328
 4060 0058 0198     		ldr	r0, [sp, #4]
 4061 005a 0368     		ldr	r3, [r0]
 4062 005c 3422     		movs	r2, #52
 4063 005e 5A61     		str	r2, [r3, #20]
 4064 0060 0368     		ldr	r3, [r0]
 4065 0062 9C61     		str	r4, [r3, #24]
 4066 0064 0368     		ldr	r3, [r0]
 4067 0066 1B68     		ldr	r3, [r3]
 4068 0068 9847     		blx	r3
 4069              	.LVL598:
 4070 006a E5E7     		b	.L296
 4071              	.L324:
 348:Middlewares/Third_Party/LibJPEG/source/jdhuff.c ****       (*cinfo->mem->alloc_small) ((j_common_ptr) cinfo, JPOOL_IMAGE,
 4072              		.loc 1 348 5 view .LVU1329
 349:Middlewares/Third_Party/LibJPEG/source/jdhuff.c **** 				  SIZEOF(d_derived_tbl));
 4073              		.loc 1 349 14 is_stmt 0 view .LVU1330
 4074 006c 0198     		ldr	r0, [sp, #4]
 4075 006e 4368     		ldr	r3, [r0, #4]
 349:Middlewares/Third_Party/LibJPEG/source/jdhuff.c **** 				  SIZEOF(d_derived_tbl));
 4076              		.loc 1 349 8 view .LVU1331
 4077 0070 1B68     		ldr	r3, [r3]
 4078 0072 4FF4B262 		mov	r2, #1424
 4079 0076 0121     		movs	r1, #1
 4080 0078 9847     		blx	r3
 4081              	.LVL599:
 348:Middlewares/Third_Party/LibJPEG/source/jdhuff.c ****       (*cinfo->mem->alloc_small) ((j_common_ptr) cinfo, JPOOL_IMAGE,
 4082              		.loc 1 348 12 view .LVU1332
 4083 007a 3060     		str	r0, [r6]
 4084 007c DEE7     		b	.L297
 4085              	.LVL600:
 4086              	.L301:
 362:Middlewares/Third_Party/LibJPEG/source/jdhuff.c ****   }
 4087              		.loc 1 362 7 is_stmt 1 view .LVU1333
 362:Middlewares/Third_Party/LibJPEG/source/jdhuff.c ****   }
 4088              		.loc 1 362 21 is_stmt 0 view .LVU1334
 4089 007e 0DF20C42 		addw	r2, sp, #1036
 4090 0082 02F80690 		strb	r9, [r2, r6]
 361:Middlewares/Third_Party/LibJPEG/source/jdhuff.c ****       huffsize[p++] = (char) l;
 4091              		.loc 1 361 13 view .LVU1335
 4092 0086 1F46     		mov	r7, r3
 362:Middlewares/Third_Party/LibJPEG/source/jdhuff.c ****   }
 4093              		.loc 1 362 17 view .LVU1336
 4094 0088 0136     		adds	r6, r6, #1
ARM GAS  /var/folders/mq/wg13gp494590nh4zyt09lxf00000gn/T//ccUYufpr.s 			page 106


 4095              	.LVL601:
 4096              	.L300:
 361:Middlewares/Third_Party/LibJPEG/source/jdhuff.c ****       huffsize[p++] = (char) l;
 4097              		.loc 1 361 12 is_stmt 1 view .LVU1337
 361:Middlewares/Third_Party/LibJPEG/source/jdhuff.c ****       huffsize[p++] = (char) l;
 4098              		.loc 1 361 13 is_stmt 0 view .LVU1338
 4099 008a 7B1E     		subs	r3, r7, #1
 4100              	.LVL602:
 361:Middlewares/Third_Party/LibJPEG/source/jdhuff.c ****       huffsize[p++] = (char) l;
 4101              		.loc 1 361 12 view .LVU1339
 4102 008c 002F     		cmp	r7, #0
 4103 008e F6D1     		bne	.L301
 357:Middlewares/Third_Party/LibJPEG/source/jdhuff.c ****     i = (int) htbl->bits[l];
 4104              		.loc 1 357 25 is_stmt 1 discriminator 2 view .LVU1340
 4105 0090 09F10109 		add	r9, r9, #1
 4106              	.LVL603:
 4107              	.L298:
 357:Middlewares/Third_Party/LibJPEG/source/jdhuff.c ****     i = (int) htbl->bits[l];
 4108              		.loc 1 357 17 discriminator 1 view .LVU1341
 4109 0094 B9F1100F 		cmp	r9, #16
 4110 0098 0DDC     		bgt	.L325
 358:Middlewares/Third_Party/LibJPEG/source/jdhuff.c ****     if (i < 0 || p + i > 256)	/* protect against table overrun */
 4111              		.loc 1 358 5 view .LVU1342
 358:Middlewares/Third_Party/LibJPEG/source/jdhuff.c ****     if (i < 0 || p + i > 256)	/* protect against table overrun */
 4112              		.loc 1 358 25 is_stmt 0 view .LVU1343
 4113 009a 15F80970 		ldrb	r7, [r5, r9]	@ zero_extendqisi2
 4114              	.LVL604:
 359:Middlewares/Third_Party/LibJPEG/source/jdhuff.c ****       ERREXIT(cinfo, JERR_BAD_HUFF_TABLE);
 4115              		.loc 1 359 5 is_stmt 1 view .LVU1344
 359:Middlewares/Third_Party/LibJPEG/source/jdhuff.c ****       ERREXIT(cinfo, JERR_BAD_HUFF_TABLE);
 4116              		.loc 1 359 20 is_stmt 0 discriminator 1 view .LVU1345
 4117 009e F319     		adds	r3, r6, r7
 359:Middlewares/Third_Party/LibJPEG/source/jdhuff.c ****       ERREXIT(cinfo, JERR_BAD_HUFF_TABLE);
 4118              		.loc 1 359 15 discriminator 1 view .LVU1346
 4119 00a0 B3F5807F 		cmp	r3, #256
 4120 00a4 F1DD     		ble	.L300
 360:Middlewares/Third_Party/LibJPEG/source/jdhuff.c ****     while (i--)
 4121              		.loc 1 360 7 is_stmt 1 view .LVU1347
 4122 00a6 0198     		ldr	r0, [sp, #4]
 4123 00a8 0368     		ldr	r3, [r0]
 4124 00aa 0922     		movs	r2, #9
 4125 00ac 5A61     		str	r2, [r3, #20]
 4126 00ae 0368     		ldr	r3, [r0]
 4127 00b0 1B68     		ldr	r3, [r3]
 4128 00b2 9847     		blx	r3
 4129              	.LVL605:
 4130 00b4 E9E7     		b	.L300
 4131              	.LVL606:
 4132              	.L325:
 364:Middlewares/Third_Party/LibJPEG/source/jdhuff.c ****   numsymbols = p;
 4133              		.loc 1 364 3 view .LVU1348
 364:Middlewares/Third_Party/LibJPEG/source/jdhuff.c ****   numsymbols = p;
 4134              		.loc 1 364 15 is_stmt 0 view .LVU1349
 4135 00b6 0DF20C43 		addw	r3, sp, #1036
 4136 00ba 4FF00008 		mov	r8, #0
 4137 00be 03F80680 		strb	r8, [r3, r6]
 365:Middlewares/Third_Party/LibJPEG/source/jdhuff.c ****   
ARM GAS  /var/folders/mq/wg13gp494590nh4zyt09lxf00000gn/T//ccUYufpr.s 			page 107


 4138              		.loc 1 365 3 is_stmt 1 view .LVU1350
 4139              	.LVL607:
 370:Middlewares/Third_Party/LibJPEG/source/jdhuff.c ****   si = huffsize[0];
 4140              		.loc 1 370 3 view .LVU1351
 371:Middlewares/Third_Party/LibJPEG/source/jdhuff.c ****   p = 0;
 4141              		.loc 1 371 3 view .LVU1352
 371:Middlewares/Third_Party/LibJPEG/source/jdhuff.c ****   p = 0;
 4142              		.loc 1 371 16 is_stmt 0 view .LVU1353
 4143 00c2 9DF80CA4 		ldrb	r10, [sp, #1036]	@ zero_extendqisi2
 4144              	.LVL608:
 372:Middlewares/Third_Party/LibJPEG/source/jdhuff.c ****   while (huffsize[p]) {
 4145              		.loc 1 372 3 is_stmt 1 view .LVU1354
 373:Middlewares/Third_Party/LibJPEG/source/jdhuff.c ****     while (((int) huffsize[p]) == si) {
 4146              		.loc 1 373 3 view .LVU1355
 370:Middlewares/Third_Party/LibJPEG/source/jdhuff.c ****   si = huffsize[0];
 4147              		.loc 1 370 8 is_stmt 0 view .LVU1356
 4148 00c6 4746     		mov	r7, r8
 373:Middlewares/Third_Party/LibJPEG/source/jdhuff.c ****     while (((int) huffsize[p]) == si) {
 4149              		.loc 1 373 9 view .LVU1357
 4150 00c8 1AE0     		b	.L303
 4151              	.LVL609:
 4152              	.L304:
 375:Middlewares/Third_Party/LibJPEG/source/jdhuff.c ****       code++;
 4153              		.loc 1 375 7 is_stmt 1 view .LVU1358
 375:Middlewares/Third_Party/LibJPEG/source/jdhuff.c ****       code++;
 4154              		.loc 1 375 21 is_stmt 0 view .LVU1359
 4155 00ca 02AB     		add	r3, sp, #8
 4156 00cc 43F82870 		str	r7, [r3, r8, lsl #2]
 376:Middlewares/Third_Party/LibJPEG/source/jdhuff.c ****     }
 4157              		.loc 1 376 7 is_stmt 1 view .LVU1360
 376:Middlewares/Third_Party/LibJPEG/source/jdhuff.c ****     }
 4158              		.loc 1 376 11 is_stmt 0 view .LVU1361
 4159 00d0 0137     		adds	r7, r7, #1
 4160              	.LVL610:
 375:Middlewares/Third_Party/LibJPEG/source/jdhuff.c ****       code++;
 4161              		.loc 1 375 17 view .LVU1362
 4162 00d2 08F10108 		add	r8, r8, #1
 4163              	.LVL611:
 4164              	.L306:
 374:Middlewares/Third_Party/LibJPEG/source/jdhuff.c ****       huffcode[p++] = code;
 4165              		.loc 1 374 32 is_stmt 1 view .LVU1363
 374:Middlewares/Third_Party/LibJPEG/source/jdhuff.c ****       huffcode[p++] = code;
 4166              		.loc 1 374 27 is_stmt 0 view .LVU1364
 4167 00d6 0DF20C43 		addw	r3, sp, #1036
 4168 00da 13F80830 		ldrb	r3, [r3, r8]	@ zero_extendqisi2
 374:Middlewares/Third_Party/LibJPEG/source/jdhuff.c ****       huffcode[p++] = code;
 4169              		.loc 1 374 32 view .LVU1365
 4170 00de 5345     		cmp	r3, r10
 4171 00e0 F3D0     		beq	.L304
 381:Middlewares/Third_Party/LibJPEG/source/jdhuff.c ****       ERREXIT(cinfo, JERR_BAD_HUFF_TABLE);
 4172              		.loc 1 381 5 is_stmt 1 view .LVU1366
 381:Middlewares/Third_Party/LibJPEG/source/jdhuff.c ****       ERREXIT(cinfo, JERR_BAD_HUFF_TABLE);
 4173              		.loc 1 381 40 is_stmt 0 view .LVU1367
 4174 00e2 0123     		movs	r3, #1
 4175 00e4 03FA0AF3 		lsl	r3, r3, r10
 381:Middlewares/Third_Party/LibJPEG/source/jdhuff.c ****       ERREXIT(cinfo, JERR_BAD_HUFF_TABLE);
 4176              		.loc 1 381 8 view .LVU1368
ARM GAS  /var/folders/mq/wg13gp494590nh4zyt09lxf00000gn/T//ccUYufpr.s 			page 108


 4177 00e8 BB42     		cmp	r3, r7
 4178 00ea 06DC     		bgt	.L305
 382:Middlewares/Third_Party/LibJPEG/source/jdhuff.c ****     code <<= 1;
 4179              		.loc 1 382 7 is_stmt 1 view .LVU1369
 4180 00ec 0198     		ldr	r0, [sp, #4]
 4181 00ee 0368     		ldr	r3, [r0]
 4182 00f0 0922     		movs	r2, #9
 4183 00f2 5A61     		str	r2, [r3, #20]
 4184 00f4 0368     		ldr	r3, [r0]
 4185 00f6 1B68     		ldr	r3, [r3]
 4186 00f8 9847     		blx	r3
 4187              	.LVL612:
 4188              	.L305:
 383:Middlewares/Third_Party/LibJPEG/source/jdhuff.c ****     si++;
 4189              		.loc 1 383 5 view .LVU1370
 383:Middlewares/Third_Party/LibJPEG/source/jdhuff.c ****     si++;
 4190              		.loc 1 383 10 is_stmt 0 view .LVU1371
 4191 00fa 7F00     		lsls	r7, r7, #1
 4192              	.LVL613:
 384:Middlewares/Third_Party/LibJPEG/source/jdhuff.c ****   }
 4193              		.loc 1 384 5 is_stmt 1 view .LVU1372
 384:Middlewares/Third_Party/LibJPEG/source/jdhuff.c ****   }
 4194              		.loc 1 384 7 is_stmt 0 view .LVU1373
 4195 00fc 0AF1010A 		add	r10, r10, #1
 4196              	.LVL614:
 4197              	.L303:
 373:Middlewares/Third_Party/LibJPEG/source/jdhuff.c ****     while (((int) huffsize[p]) == si) {
 4198              		.loc 1 373 10 is_stmt 1 view .LVU1374
 373:Middlewares/Third_Party/LibJPEG/source/jdhuff.c ****     while (((int) huffsize[p]) == si) {
 4199              		.loc 1 373 18 is_stmt 0 view .LVU1375
 4200 0100 0DF20C43 		addw	r3, sp, #1036
 4201 0104 13F80830 		ldrb	r3, [r3, r8]	@ zero_extendqisi2
 373:Middlewares/Third_Party/LibJPEG/source/jdhuff.c ****     while (((int) huffsize[p]) == si) {
 4202              		.loc 1 373 10 view .LVU1376
 4203 0108 002B     		cmp	r3, #0
 4204 010a E4D1     		bne	.L306
 390:Middlewares/Third_Party/LibJPEG/source/jdhuff.c ****     if (htbl->bits[l]) {
 4205              		.loc 1 390 10 view .LVU1377
 4206 010c 0123     		movs	r3, #1
 389:Middlewares/Third_Party/LibJPEG/source/jdhuff.c ****   for (l = 1; l <= 16; l++) {
 4207              		.loc 1 389 5 view .LVU1378
 4208 010e 0022     		movs	r2, #0
 4209 0110 04E0     		b	.L307
 4210              	.LVL615:
 4211              	.L308:
 399:Middlewares/Third_Party/LibJPEG/source/jdhuff.c ****     }
 4212              		.loc 1 399 7 is_stmt 1 view .LVU1379
 399:Middlewares/Third_Party/LibJPEG/source/jdhuff.c ****     }
 4213              		.loc 1 399 24 is_stmt 0 view .LVU1380
 4214 0112 4FF0FF31 		mov	r1, #-1
 4215 0116 44F82310 		str	r1, [r4, r3, lsl #2]
 4216              	.L309:
 390:Middlewares/Third_Party/LibJPEG/source/jdhuff.c ****     if (htbl->bits[l]) {
 4217              		.loc 1 390 25 is_stmt 1 discriminator 2 view .LVU1381
 4218 011a 0133     		adds	r3, r3, #1
 4219              	.LVL616:
 4220              	.L307:
ARM GAS  /var/folders/mq/wg13gp494590nh4zyt09lxf00000gn/T//ccUYufpr.s 			page 109


 390:Middlewares/Third_Party/LibJPEG/source/jdhuff.c ****     if (htbl->bits[l]) {
 4221              		.loc 1 390 17 discriminator 1 view .LVU1382
 4222 011c 102B     		cmp	r3, #16
 4223 011e 13DC     		bgt	.L326
 391:Middlewares/Third_Party/LibJPEG/source/jdhuff.c ****       /* valoffset[l] = huffval[] index of 1st symbol of code length l,
 4224              		.loc 1 391 5 view .LVU1383
 391:Middlewares/Third_Party/LibJPEG/source/jdhuff.c ****       /* valoffset[l] = huffval[] index of 1st symbol of code length l,
 4225              		.loc 1 391 19 is_stmt 0 view .LVU1384
 4226 0120 E95C     		ldrb	r1, [r5, r3]	@ zero_extendqisi2
 391:Middlewares/Third_Party/LibJPEG/source/jdhuff.c ****       /* valoffset[l] = huffval[] index of 1st symbol of code length l,
 4227              		.loc 1 391 8 view .LVU1385
 4228 0122 0029     		cmp	r1, #0
 4229 0124 F5D0     		beq	.L308
 395:Middlewares/Third_Party/LibJPEG/source/jdhuff.c ****       p += htbl->bits[l];
 4230              		.loc 1 395 7 is_stmt 1 view .LVU1386
 395:Middlewares/Third_Party/LibJPEG/source/jdhuff.c ****       p += htbl->bits[l];
 4231              		.loc 1 395 56 is_stmt 0 view .LVU1387
 4232 0126 02A9     		add	r1, sp, #8
 4233 0128 51F82210 		ldr	r1, [r1, r2, lsl #2]
 395:Middlewares/Third_Party/LibJPEG/source/jdhuff.c ****       p += htbl->bits[l];
 4234              		.loc 1 395 38 view .LVU1388
 4235 012c 511A     		subs	r1, r2, r1
 395:Middlewares/Third_Party/LibJPEG/source/jdhuff.c ****       p += htbl->bits[l];
 4236              		.loc 1 395 26 view .LVU1389
 4237 012e 03F11200 		add	r0, r3, #18
 4238 0132 44F82010 		str	r1, [r4, r0, lsl #2]
 396:Middlewares/Third_Party/LibJPEG/source/jdhuff.c ****       dtbl->maxcode[l] = huffcode[p-1]; /* maximum code of length l */
 4239              		.loc 1 396 7 is_stmt 1 view .LVU1390
 396:Middlewares/Third_Party/LibJPEG/source/jdhuff.c ****       dtbl->maxcode[l] = huffcode[p-1]; /* maximum code of length l */
 4240              		.loc 1 396 22 is_stmt 0 view .LVU1391
 4241 0136 E95C     		ldrb	r1, [r5, r3]	@ zero_extendqisi2
 396:Middlewares/Third_Party/LibJPEG/source/jdhuff.c ****       dtbl->maxcode[l] = huffcode[p-1]; /* maximum code of length l */
 4242              		.loc 1 396 9 view .LVU1392
 4243 0138 0A44     		add	r2, r2, r1
 4244              	.LVL617:
 397:Middlewares/Third_Party/LibJPEG/source/jdhuff.c ****     } else {
 4245              		.loc 1 397 7 is_stmt 1 view .LVU1393
 397:Middlewares/Third_Party/LibJPEG/source/jdhuff.c ****     } else {
 4246              		.loc 1 397 36 is_stmt 0 view .LVU1394
 4247 013a 511E     		subs	r1, r2, #1
 397:Middlewares/Third_Party/LibJPEG/source/jdhuff.c ****     } else {
 4248              		.loc 1 397 34 view .LVU1395
 4249 013c 02A8     		add	r0, sp, #8
 4250 013e 50F82110 		ldr	r1, [r0, r1, lsl #2]
 397:Middlewares/Third_Party/LibJPEG/source/jdhuff.c ****     } else {
 4251              		.loc 1 397 24 view .LVU1396
 4252 0142 44F82310 		str	r1, [r4, r3, lsl #2]
 4253 0146 E8E7     		b	.L309
 4254              	.L326:
 402:Middlewares/Third_Party/LibJPEG/source/jdhuff.c **** 
 4255              		.loc 1 402 3 is_stmt 1 view .LVU1397
 402:Middlewares/Third_Party/LibJPEG/source/jdhuff.c **** 
 4256              		.loc 1 402 21 is_stmt 0 view .LVU1398
 4257 0148 244B     		ldr	r3, .L329
 4258              	.LVL618:
 402:Middlewares/Third_Party/LibJPEG/source/jdhuff.c **** 
 4259              		.loc 1 402 21 view .LVU1399
ARM GAS  /var/folders/mq/wg13gp494590nh4zyt09lxf00000gn/T//ccUYufpr.s 			page 110


 4260 014a 6364     		str	r3, [r4, #68]
 411:Middlewares/Third_Party/LibJPEG/source/jdhuff.c **** 
 4261              		.loc 1 411 3 is_stmt 1 view .LVU1400
 4262 014c 4FF48062 		mov	r2, #1024
 4263              	.LVL619:
 411:Middlewares/Third_Party/LibJPEG/source/jdhuff.c **** 
 4264              		.loc 1 411 3 is_stmt 0 view .LVU1401
 4265 0150 0021     		movs	r1, #0
 4266 0152 04F19000 		add	r0, r4, #144
 4267 0156 FFF7FEFF 		bl	memset
 4268              	.LVL620:
 413:Middlewares/Third_Party/LibJPEG/source/jdhuff.c ****   for (l = 1; l <= HUFF_LOOKAHEAD; l++) {
 4269              		.loc 1 413 3 is_stmt 1 view .LVU1402
 414:Middlewares/Third_Party/LibJPEG/source/jdhuff.c ****     for (i = 1; i <= (int) htbl->bits[l]; i++, p++) {
 4270              		.loc 1 414 3 view .LVU1403
 414:Middlewares/Third_Party/LibJPEG/source/jdhuff.c ****     for (i = 1; i <= (int) htbl->bits[l]; i++, p++) {
 4271              		.loc 1 414 10 is_stmt 0 view .LVU1404
 4272 015a 0127     		movs	r7, #1
 4273              	.LVL621:
 413:Middlewares/Third_Party/LibJPEG/source/jdhuff.c ****   for (l = 1; l <= HUFF_LOOKAHEAD; l++) {
 4274              		.loc 1 413 5 view .LVU1405
 4275 015c 4FF0000C 		mov	ip, #0
 414:Middlewares/Third_Party/LibJPEG/source/jdhuff.c ****     for (i = 1; i <= (int) htbl->bits[l]; i++, p++) {
 4276              		.loc 1 414 3 view .LVU1406
 4277 0160 1EE0     		b	.L311
 4278              	.LVL622:
 4279              	.L313:
 420:Middlewares/Third_Party/LibJPEG/source/jdhuff.c **** 	dtbl->look_sym[lookbits] = htbl->huffval[p];
 4280              		.loc 1 420 2 is_stmt 1 view .LVU1407
 420:Middlewares/Third_Party/LibJPEG/source/jdhuff.c **** 	dtbl->look_sym[lookbits] = htbl->huffval[p];
 4281              		.loc 1 420 29 is_stmt 0 view .LVU1408
 4282 0162 03F12401 		add	r1, r3, #36
 4283 0166 44F82170 		str	r7, [r4, r1, lsl #2]
 421:Middlewares/Third_Party/LibJPEG/source/jdhuff.c **** 	lookbits++;
 4284              		.loc 1 421 2 is_stmt 1 view .LVU1409
 421:Middlewares/Third_Party/LibJPEG/source/jdhuff.c **** 	lookbits++;
 4285              		.loc 1 421 42 is_stmt 0 view .LVU1410
 4286 016a 05EB0C01 		add	r1, r5, ip
 4287 016e 487C     		ldrb	r0, [r1, #17]	@ zero_extendqisi2
 421:Middlewares/Third_Party/LibJPEG/source/jdhuff.c **** 	lookbits++;
 4288              		.loc 1 421 27 view .LVU1411
 4289 0170 E118     		adds	r1, r4, r3
 4290 0172 81F89004 		strb	r0, [r1, #1168]
 422:Middlewares/Third_Party/LibJPEG/source/jdhuff.c ****       }
 4291              		.loc 1 422 2 is_stmt 1 view .LVU1412
 422:Middlewares/Third_Party/LibJPEG/source/jdhuff.c ****       }
 4292              		.loc 1 422 10 is_stmt 0 view .LVU1413
 4293 0176 0133     		adds	r3, r3, #1
 4294              	.LVL623:
 419:Middlewares/Third_Party/LibJPEG/source/jdhuff.c **** 	dtbl->look_nbits[lookbits] = l;
 4295              		.loc 1 419 55 is_stmt 1 discriminator 3 view .LVU1414
 4296 0178 013A     		subs	r2, r2, #1
 4297              	.LVL624:
 4298              	.L312:
 419:Middlewares/Third_Party/LibJPEG/source/jdhuff.c **** 	dtbl->look_nbits[lookbits] = l;
 4299              		.loc 1 419 47 discriminator 1 view .LVU1415
 4300 017a 002A     		cmp	r2, #0
ARM GAS  /var/folders/mq/wg13gp494590nh4zyt09lxf00000gn/T//ccUYufpr.s 			page 111


 4301 017c F1DC     		bgt	.L313
 415:Middlewares/Third_Party/LibJPEG/source/jdhuff.c ****       /* l = current code's length, p = its index in huffcode[] & huffval[]. */
 4302              		.loc 1 415 46 discriminator 2 view .LVU1416
 415:Middlewares/Third_Party/LibJPEG/source/jdhuff.c ****       /* l = current code's length, p = its index in huffcode[] & huffval[]. */
 4303              		.loc 1 415 44 is_stmt 0 discriminator 2 view .LVU1417
 4304 017e 08F10108 		add	r8, r8, #1
 4305              	.LVL625:
 415:Middlewares/Third_Party/LibJPEG/source/jdhuff.c ****       /* l = current code's length, p = its index in huffcode[] & huffval[]. */
 4306              		.loc 1 415 49 discriminator 2 view .LVU1418
 4307 0182 0CF1010C 		add	ip, ip, #1
 4308              	.LVL626:
 4309              	.L315:
 415:Middlewares/Third_Party/LibJPEG/source/jdhuff.c ****       /* l = current code's length, p = its index in huffcode[] & huffval[]. */
 4310              		.loc 1 415 19 is_stmt 1 discriminator 1 view .LVU1419
 415:Middlewares/Third_Party/LibJPEG/source/jdhuff.c ****       /* l = current code's length, p = its index in huffcode[] & huffval[]. */
 4311              		.loc 1 415 38 is_stmt 0 discriminator 1 view .LVU1420
 4312 0186 EB5D     		ldrb	r3, [r5, r7]	@ zero_extendqisi2
 415:Middlewares/Third_Party/LibJPEG/source/jdhuff.c ****       /* l = current code's length, p = its index in huffcode[] & huffval[]. */
 4313              		.loc 1 415 19 discriminator 1 view .LVU1421
 4314 0188 4345     		cmp	r3, r8
 4315 018a 08DB     		blt	.L327
 418:Middlewares/Third_Party/LibJPEG/source/jdhuff.c ****       for (ctr = 1 << (HUFF_LOOKAHEAD-l); ctr > 0; ctr--) {
 4316              		.loc 1 418 7 is_stmt 1 view .LVU1422
 418:Middlewares/Third_Party/LibJPEG/source/jdhuff.c ****       for (ctr = 1 << (HUFF_LOOKAHEAD-l); ctr > 0; ctr--) {
 4317              		.loc 1 418 26 is_stmt 0 view .LVU1423
 4318 018c 02AB     		add	r3, sp, #8
 4319 018e 53F82C30 		ldr	r3, [r3, ip, lsl #2]
 418:Middlewares/Third_Party/LibJPEG/source/jdhuff.c ****       for (ctr = 1 << (HUFF_LOOKAHEAD-l); ctr > 0; ctr--) {
 4320              		.loc 1 418 48 view .LVU1424
 4321 0192 C7F10801 		rsb	r1, r7, #8
 418:Middlewares/Third_Party/LibJPEG/source/jdhuff.c ****       for (ctr = 1 << (HUFF_LOOKAHEAD-l); ctr > 0; ctr--) {
 4322              		.loc 1 418 30 view .LVU1425
 4323 0196 8B40     		lsls	r3, r3, r1
 4324              	.LVL627:
 419:Middlewares/Third_Party/LibJPEG/source/jdhuff.c **** 	dtbl->look_nbits[lookbits] = l;
 4325              		.loc 1 419 7 is_stmt 1 view .LVU1426
 419:Middlewares/Third_Party/LibJPEG/source/jdhuff.c **** 	dtbl->look_nbits[lookbits] = l;
 4326              		.loc 1 419 16 is_stmt 0 view .LVU1427
 4327 0198 0122     		movs	r2, #1
 4328 019a 8A40     		lsls	r2, r2, r1
 4329              	.LVL628:
 419:Middlewares/Third_Party/LibJPEG/source/jdhuff.c **** 	dtbl->look_nbits[lookbits] = l;
 4330              		.loc 1 419 7 view .LVU1428
 4331 019c EDE7     		b	.L312
 4332              	.LVL629:
 4333              	.L327:
 414:Middlewares/Third_Party/LibJPEG/source/jdhuff.c ****     for (i = 1; i <= (int) htbl->bits[l]; i++, p++) {
 4334              		.loc 1 414 37 is_stmt 1 discriminator 2 view .LVU1429
 4335 019e 0137     		adds	r7, r7, #1
 4336              	.LVL630:
 4337              	.L311:
 414:Middlewares/Third_Party/LibJPEG/source/jdhuff.c ****     for (i = 1; i <= (int) htbl->bits[l]; i++, p++) {
 4338              		.loc 1 414 17 discriminator 1 view .LVU1430
 4339 01a0 082F     		cmp	r7, #8
 4340 01a2 02DC     		bgt	.L328
 415:Middlewares/Third_Party/LibJPEG/source/jdhuff.c ****       /* l = current code's length, p = its index in huffcode[] & huffval[]. */
 4341              		.loc 1 415 12 is_stmt 0 view .LVU1431
ARM GAS  /var/folders/mq/wg13gp494590nh4zyt09lxf00000gn/T//ccUYufpr.s 			page 112


 4342 01a4 4FF00108 		mov	r8, #1
 4343 01a8 EDE7     		b	.L315
 4344              	.L328:
 433:Middlewares/Third_Party/LibJPEG/source/jdhuff.c ****     for (i = 0; i < numsymbols; i++) {
 4345              		.loc 1 433 3 is_stmt 1 view .LVU1432
 433:Middlewares/Third_Party/LibJPEG/source/jdhuff.c ****     for (i = 0; i < numsymbols; i++) {
 4346              		.loc 1 433 6 is_stmt 0 view .LVU1433
 4347 01aa BBF1000F 		cmp	fp, #0
 4348 01ae 12D1     		bne	.L321
 4349              	.LVL631:
 4350              	.L292:
 440:Middlewares/Third_Party/LibJPEG/source/jdhuff.c **** 
 4351              		.loc 1 440 1 view .LVU1434
 4352 01b0 0DF2145D 		addw	sp, sp, #1300
 4353              	.LCFI28:
 4354              		.cfi_remember_state
 4355              		.cfi_def_cfa_offset 36
 4356              		@ sp needed
 4357 01b4 BDE8F08F 		pop	{r4, r5, r6, r7, r8, r9, r10, fp, pc}
 4358              	.LVL632:
 4359              	.L318:
 4360              	.LCFI29:
 4361              		.cfi_restore_state
 434:Middlewares/Third_Party/LibJPEG/source/jdhuff.c ****       int sym = htbl->huffval[i];
 4362              		.loc 1 434 34 is_stmt 1 discriminator 2 view .LVU1435
 4363 01b8 0134     		adds	r4, r4, #1
 4364              	.LVL633:
 4365              	.L316:
 434:Middlewares/Third_Party/LibJPEG/source/jdhuff.c ****       int sym = htbl->huffval[i];
 4366              		.loc 1 434 19 discriminator 1 view .LVU1436
 4367 01ba A642     		cmp	r6, r4
 4368 01bc F8DD     		ble	.L292
 4369              	.LBB37:
 435:Middlewares/Third_Party/LibJPEG/source/jdhuff.c ****       if (sym < 0 || sym > 15)
 4370              		.loc 1 435 7 view .LVU1437
 435:Middlewares/Third_Party/LibJPEG/source/jdhuff.c ****       if (sym < 0 || sym > 15)
 4371              		.loc 1 435 30 is_stmt 0 view .LVU1438
 4372 01be 2B19     		adds	r3, r5, r4
 4373 01c0 5B7C     		ldrb	r3, [r3, #17]	@ zero_extendqisi2
 4374              	.LVL634:
 436:Middlewares/Third_Party/LibJPEG/source/jdhuff.c **** 	ERREXIT(cinfo, JERR_BAD_HUFF_TABLE);
 4375              		.loc 1 436 7 is_stmt 1 view .LVU1439
 436:Middlewares/Third_Party/LibJPEG/source/jdhuff.c **** 	ERREXIT(cinfo, JERR_BAD_HUFF_TABLE);
 4376              		.loc 1 436 10 is_stmt 0 view .LVU1440
 4377 01c2 0F2B     		cmp	r3, #15
 4378 01c4 F8D9     		bls	.L318
 437:Middlewares/Third_Party/LibJPEG/source/jdhuff.c ****     }
 4379              		.loc 1 437 2 is_stmt 1 view .LVU1441
 4380 01c6 0198     		ldr	r0, [sp, #4]
 4381 01c8 0368     		ldr	r3, [r0]
 4382 01ca 0922     		movs	r2, #9
 4383 01cc 5A61     		str	r2, [r3, #20]
 4384              	.LVL635:
 437:Middlewares/Third_Party/LibJPEG/source/jdhuff.c ****     }
 4385              		.loc 1 437 2 is_stmt 0 view .LVU1442
 4386 01ce 0368     		ldr	r3, [r0]
 4387 01d0 1B68     		ldr	r3, [r3]
ARM GAS  /var/folders/mq/wg13gp494590nh4zyt09lxf00000gn/T//ccUYufpr.s 			page 113


 4388 01d2 9847     		blx	r3
 4389              	.LVL636:
 4390 01d4 F0E7     		b	.L318
 4391              	.LVL637:
 4392              	.L321:
 437:Middlewares/Third_Party/LibJPEG/source/jdhuff.c ****     }
 4393              		.loc 1 437 2 view .LVU1443
 4394              	.LBE37:
 434:Middlewares/Third_Party/LibJPEG/source/jdhuff.c ****       int sym = htbl->huffval[i];
 4395              		.loc 1 434 12 view .LVU1444
 4396 01d6 0024     		movs	r4, #0
 4397              	.LVL638:
 434:Middlewares/Third_Party/LibJPEG/source/jdhuff.c ****       int sym = htbl->huffval[i];
 4398              		.loc 1 434 12 view .LVU1445
 4399 01d8 EFE7     		b	.L316
 4400              	.L330:
 4401 01da 00BF     		.align	2
 4402              	.L329:
 4403 01dc FFFF0F00 		.word	1048575
 4404              		.cfi_endproc
 4405              	.LFE147:
 4407              		.section	.text.start_pass_huff_decoder,"ax",%progbits
 4408              		.align	1
 4409              		.syntax unified
 4410              		.thumb
 4411              		.thumb_func
 4413              	start_pass_huff_decoder:
 4414              	.LVL639:
 4415              	.LFB157:
1303:Middlewares/Third_Party/LibJPEG/source/jdhuff.c **** 
1304:Middlewares/Third_Party/LibJPEG/source/jdhuff.c **** 
1305:Middlewares/Third_Party/LibJPEG/source/jdhuff.c **** /*
1306:Middlewares/Third_Party/LibJPEG/source/jdhuff.c ****  * Initialize for a Huffman-compressed scan.
1307:Middlewares/Third_Party/LibJPEG/source/jdhuff.c ****  */
1308:Middlewares/Third_Party/LibJPEG/source/jdhuff.c **** 
1309:Middlewares/Third_Party/LibJPEG/source/jdhuff.c **** METHODDEF(void)
1310:Middlewares/Third_Party/LibJPEG/source/jdhuff.c **** start_pass_huff_decoder (j_decompress_ptr cinfo)
1311:Middlewares/Third_Party/LibJPEG/source/jdhuff.c **** {
 4416              		.loc 1 1311 1 is_stmt 1 view -0
 4417              		.cfi_startproc
 4418              		@ args = 0, pretend = 0, frame = 0
 4419              		@ frame_needed = 0, uses_anonymous_args = 0
 4420              		.loc 1 1311 1 is_stmt 0 view .LVU1447
 4421 0000 2DE9F047 		push	{r4, r5, r6, r7, r8, r9, r10, lr}
 4422              	.LCFI30:
 4423              		.cfi_def_cfa_offset 32
 4424              		.cfi_offset 4, -32
 4425              		.cfi_offset 5, -28
 4426              		.cfi_offset 6, -24
 4427              		.cfi_offset 7, -20
 4428              		.cfi_offset 8, -16
 4429              		.cfi_offset 9, -12
 4430              		.cfi_offset 10, -8
 4431              		.cfi_offset 14, -4
 4432 0004 0446     		mov	r4, r0
1312:Middlewares/Third_Party/LibJPEG/source/jdhuff.c ****   huff_entropy_ptr entropy = (huff_entropy_ptr) cinfo->entropy;
 4433              		.loc 1 1312 3 is_stmt 1 view .LVU1448
ARM GAS  /var/folders/mq/wg13gp494590nh4zyt09lxf00000gn/T//ccUYufpr.s 			page 114


 4434              		.loc 1 1312 20 is_stmt 0 view .LVU1449
 4435 0006 D0F8D061 		ldr	r6, [r0, #464]
 4436              	.LVL640:
1313:Middlewares/Third_Party/LibJPEG/source/jdhuff.c ****   int ci, blkn, tbl, i;
 4437              		.loc 1 1313 3 is_stmt 1 view .LVU1450
1314:Middlewares/Third_Party/LibJPEG/source/jdhuff.c ****   jpeg_component_info * compptr;
 4438              		.loc 1 1314 3 view .LVU1451
1315:Middlewares/Third_Party/LibJPEG/source/jdhuff.c **** 
1316:Middlewares/Third_Party/LibJPEG/source/jdhuff.c ****   if (cinfo->progressive_mode) {
 4439              		.loc 1 1316 3 view .LVU1452
 4440              		.loc 1 1316 12 is_stmt 0 view .LVU1453
 4441 000a D0F8E050 		ldr	r5, [r0, #224]
 4442              		.loc 1 1316 6 view .LVU1454
 4443 000e 002D     		cmp	r5, #0
 4444 0010 00F0D680 		beq	.L332
1317:Middlewares/Third_Party/LibJPEG/source/jdhuff.c ****     /* Validate progressive scan parameters */
1318:Middlewares/Third_Party/LibJPEG/source/jdhuff.c ****     if (cinfo->Ss == 0) {
 4445              		.loc 1 1318 5 is_stmt 1 view .LVU1455
 4446              		.loc 1 1318 14 is_stmt 0 view .LVU1456
 4447 0014 D0F89831 		ldr	r3, [r0, #408]
 4448              		.loc 1 1318 8 view .LVU1457
 4449 0018 43BB     		cbnz	r3, .L333
1319:Middlewares/Third_Party/LibJPEG/source/jdhuff.c ****       if (cinfo->Se != 0)
 4450              		.loc 1 1319 7 is_stmt 1 view .LVU1458
 4451              		.loc 1 1319 16 is_stmt 0 view .LVU1459
 4452 001a D0F89C31 		ldr	r3, [r0, #412]
 4453              		.loc 1 1319 10 view .LVU1460
 4454 001e 5BB9     		cbnz	r3, .L334
 4455              	.L335:
1320:Middlewares/Third_Party/LibJPEG/source/jdhuff.c **** 	goto bad;
1321:Middlewares/Third_Party/LibJPEG/source/jdhuff.c ****     } else {
1322:Middlewares/Third_Party/LibJPEG/source/jdhuff.c ****       /* need not check Ss/Se < 0 since they came from unsigned bytes */
1323:Middlewares/Third_Party/LibJPEG/source/jdhuff.c ****       if (cinfo->Se < cinfo->Ss || cinfo->Se > cinfo->lim_Se)
1324:Middlewares/Third_Party/LibJPEG/source/jdhuff.c **** 	goto bad;
1325:Middlewares/Third_Party/LibJPEG/source/jdhuff.c ****       /* AC scans may have only one component */
1326:Middlewares/Third_Party/LibJPEG/source/jdhuff.c ****       if (cinfo->comps_in_scan != 1)
1327:Middlewares/Third_Party/LibJPEG/source/jdhuff.c **** 	goto bad;
1328:Middlewares/Third_Party/LibJPEG/source/jdhuff.c ****     }
1329:Middlewares/Third_Party/LibJPEG/source/jdhuff.c ****     if (cinfo->Ah != 0) {
 4456              		.loc 1 1329 5 is_stmt 1 view .LVU1461
 4457              		.loc 1 1329 14 is_stmt 0 view .LVU1462
 4458 0020 D4F8A031 		ldr	r3, [r4, #416]
 4459              		.loc 1 1329 8 view .LVU1463
 4460 0024 23B1     		cbz	r3, .L336
1330:Middlewares/Third_Party/LibJPEG/source/jdhuff.c ****       /* Successive approximation refinement scan: must have Al = Ah-1. */
1331:Middlewares/Third_Party/LibJPEG/source/jdhuff.c ****       if (cinfo->Ah-1 != cinfo->Al)
 4461              		.loc 1 1331 7 is_stmt 1 view .LVU1464
 4462              		.loc 1 1331 20 is_stmt 0 view .LVU1465
 4463 0026 013B     		subs	r3, r3, #1
 4464              		.loc 1 1331 31 view .LVU1466
 4465 0028 D4F8A421 		ldr	r2, [r4, #420]
 4466              		.loc 1 1331 10 view .LVU1467
 4467 002c 9342     		cmp	r3, r2
 4468 002e 03D1     		bne	.L334
 4469              	.L336:
1332:Middlewares/Third_Party/LibJPEG/source/jdhuff.c **** 	goto bad;
1333:Middlewares/Third_Party/LibJPEG/source/jdhuff.c ****     }
ARM GAS  /var/folders/mq/wg13gp494590nh4zyt09lxf00000gn/T//ccUYufpr.s 			page 115


1334:Middlewares/Third_Party/LibJPEG/source/jdhuff.c ****     if (cinfo->Al > 13) {	/* need not check for < 0 */
 4470              		.loc 1 1334 5 is_stmt 1 view .LVU1468
 4471              		.loc 1 1334 14 is_stmt 0 view .LVU1469
 4472 0030 D4F8A431 		ldr	r3, [r4, #420]
 4473              		.loc 1 1334 8 view .LVU1470
 4474 0034 0D2B     		cmp	r3, #13
 4475 0036 16DD     		ble	.L337
 4476              	.L334:
1335:Middlewares/Third_Party/LibJPEG/source/jdhuff.c ****       /* Arguably the maximum Al value should be less than 13 for 8-bit precision,
1336:Middlewares/Third_Party/LibJPEG/source/jdhuff.c ****        * but the spec doesn't say so, and we try to be liberal about what we
1337:Middlewares/Third_Party/LibJPEG/source/jdhuff.c ****        * accept.  Note: large Al values could result in out-of-range DC
1338:Middlewares/Third_Party/LibJPEG/source/jdhuff.c ****        * coefficients during early scans, leading to bizarre displays due to
1339:Middlewares/Third_Party/LibJPEG/source/jdhuff.c ****        * overflows in the IDCT math.  But we won't crash.
1340:Middlewares/Third_Party/LibJPEG/source/jdhuff.c ****        */
1341:Middlewares/Third_Party/LibJPEG/source/jdhuff.c ****       bad:
1342:Middlewares/Third_Party/LibJPEG/source/jdhuff.c ****       ERREXIT4(cinfo, JERR_BAD_PROGRESSION,
 4477              		.loc 1 1342 7 is_stmt 1 view .LVU1471
 4478 0038 2368     		ldr	r3, [r4]
 4479 003a 1122     		movs	r2, #17
 4480 003c 5A61     		str	r2, [r3, #20]
 4481 003e 2368     		ldr	r3, [r4]
 4482 0040 D4F89821 		ldr	r2, [r4, #408]
 4483 0044 9A61     		str	r2, [r3, #24]
 4484 0046 2368     		ldr	r3, [r4]
 4485 0048 D4F89C21 		ldr	r2, [r4, #412]
 4486 004c DA61     		str	r2, [r3, #28]
 4487 004e 2368     		ldr	r3, [r4]
 4488 0050 D4F8A021 		ldr	r2, [r4, #416]
 4489 0054 1A62     		str	r2, [r3, #32]
 4490 0056 2368     		ldr	r3, [r4]
 4491 0058 D4F8A421 		ldr	r2, [r4, #420]
 4492 005c 5A62     		str	r2, [r3, #36]
 4493 005e 2368     		ldr	r3, [r4]
 4494 0060 1B68     		ldr	r3, [r3]
 4495 0062 2046     		mov	r0, r4
 4496              	.LVL641:
 4497              		.loc 1 1342 7 is_stmt 0 view .LVU1472
 4498 0064 9847     		blx	r3
 4499              	.LVL642:
 4500              	.L337:
1311:Middlewares/Third_Party/LibJPEG/source/jdhuff.c ****   huff_entropy_ptr entropy = (huff_entropy_ptr) cinfo->entropy;
 4501              		.loc 1 1311 1 view .LVU1473
 4502 0066 4FF0000A 		mov	r10, #0
 4503 006a 40E0     		b	.L338
 4504              	.LVL643:
 4505              	.L333:
1323:Middlewares/Third_Party/LibJPEG/source/jdhuff.c **** 	goto bad;
 4506              		.loc 1 1323 7 is_stmt 1 view .LVU1474
1323:Middlewares/Third_Party/LibJPEG/source/jdhuff.c **** 	goto bad;
 4507              		.loc 1 1323 16 is_stmt 0 view .LVU1475
 4508 006c D0F89C21 		ldr	r2, [r0, #412]
1323:Middlewares/Third_Party/LibJPEG/source/jdhuff.c **** 	goto bad;
 4509              		.loc 1 1323 10 view .LVU1476
 4510 0070 9342     		cmp	r3, r2
 4511 0072 E1DC     		bgt	.L334
1323:Middlewares/Third_Party/LibJPEG/source/jdhuff.c **** 	goto bad;
 4512              		.loc 1 1323 53 discriminator 1 view .LVU1477
ARM GAS  /var/folders/mq/wg13gp494590nh4zyt09lxf00000gn/T//ccUYufpr.s 			page 116


 4513 0074 D0F8B031 		ldr	r3, [r0, #432]
1323:Middlewares/Third_Party/LibJPEG/source/jdhuff.c **** 	goto bad;
 4514              		.loc 1 1323 33 discriminator 1 view .LVU1478
 4515 0078 9A42     		cmp	r2, r3
 4516 007a DDDC     		bgt	.L334
1326:Middlewares/Third_Party/LibJPEG/source/jdhuff.c **** 	goto bad;
 4517              		.loc 1 1326 7 is_stmt 1 view .LVU1479
1326:Middlewares/Third_Party/LibJPEG/source/jdhuff.c **** 	goto bad;
 4518              		.loc 1 1326 16 is_stmt 0 view .LVU1480
 4519 007c D0F85031 		ldr	r3, [r0, #336]
1326:Middlewares/Third_Party/LibJPEG/source/jdhuff.c **** 	goto bad;
 4520              		.loc 1 1326 10 view .LVU1481
 4521 0080 012B     		cmp	r3, #1
 4522 0082 D9D1     		bne	.L334
 4523 0084 CCE7     		b	.L335
 4524              	.LVL644:
 4525              	.L406:
 4526              	.LBB38:
1343:Middlewares/Third_Party/LibJPEG/source/jdhuff.c **** 	       cinfo->Ss, cinfo->Se, cinfo->Ah, cinfo->Al);
1344:Middlewares/Third_Party/LibJPEG/source/jdhuff.c ****     }
1345:Middlewares/Third_Party/LibJPEG/source/jdhuff.c ****     /* Update progression status, and verify that scan order is legal.
1346:Middlewares/Third_Party/LibJPEG/source/jdhuff.c ****      * Note that inter-scan inconsistencies are treated as warnings
1347:Middlewares/Third_Party/LibJPEG/source/jdhuff.c ****      * not fatal errors ... not clear if this is right way to behave.
1348:Middlewares/Third_Party/LibJPEG/source/jdhuff.c ****      */
1349:Middlewares/Third_Party/LibJPEG/source/jdhuff.c ****     for (ci = 0; ci < cinfo->comps_in_scan; ci++) {
1350:Middlewares/Third_Party/LibJPEG/source/jdhuff.c ****       int coefi, cindex = cinfo->cur_comp_info[ci]->component_index;
1351:Middlewares/Third_Party/LibJPEG/source/jdhuff.c ****       int *coef_bit_ptr = & cinfo->coef_bits[cindex][0];
1352:Middlewares/Third_Party/LibJPEG/source/jdhuff.c ****       if (cinfo->Ss && coef_bit_ptr[0] < 0) /* AC without prior DC scan */
1353:Middlewares/Third_Party/LibJPEG/source/jdhuff.c **** 	WARNMS2(cinfo, JWRN_BOGUS_PROGRESSION, cindex, 0);
 4527              		.loc 1 1353 2 is_stmt 1 view .LVU1482
 4528 0086 2368     		ldr	r3, [r4]
 4529 0088 7622     		movs	r2, #118
 4530 008a 5A61     		str	r2, [r3, #20]
 4531 008c 2368     		ldr	r3, [r4]
 4532 008e C3F81890 		str	r9, [r3, #24]
 4533 0092 2368     		ldr	r3, [r4]
 4534 0094 0022     		movs	r2, #0
 4535 0096 DA61     		str	r2, [r3, #28]
 4536 0098 2368     		ldr	r3, [r4]
 4537 009a 5B68     		ldr	r3, [r3, #4]
 4538 009c 4FF0FF31 		mov	r1, #-1
 4539 00a0 2046     		mov	r0, r4
 4540 00a2 9847     		blx	r3
 4541              	.LVL645:
 4542 00a4 3AE0     		b	.L339
 4543              	.LVL646:
 4544              	.L404:
 4545              	.LBB39:
1354:Middlewares/Third_Party/LibJPEG/source/jdhuff.c ****       for (coefi = cinfo->Ss; coefi <= cinfo->Se; coefi++) {
1355:Middlewares/Third_Party/LibJPEG/source/jdhuff.c **** 	int expected = (coef_bit_ptr[coefi] < 0) ? 0 : coef_bit_ptr[coefi];
1356:Middlewares/Third_Party/LibJPEG/source/jdhuff.c **** 	if (cinfo->Ah != expected)
1357:Middlewares/Third_Party/LibJPEG/source/jdhuff.c **** 	  WARNMS2(cinfo, JWRN_BOGUS_PROGRESSION, cindex, coefi);
 4546              		.loc 1 1357 4 view .LVU1483
 4547 00a6 2368     		ldr	r3, [r4]
 4548              	.LVL647:
 4549              		.loc 1 1357 4 is_stmt 0 view .LVU1484
 4550 00a8 7622     		movs	r2, #118
ARM GAS  /var/folders/mq/wg13gp494590nh4zyt09lxf00000gn/T//ccUYufpr.s 			page 117


 4551 00aa 5A61     		str	r2, [r3, #20]
 4552              	.LVL648:
 4553              		.loc 1 1357 4 view .LVU1485
 4554 00ac 2368     		ldr	r3, [r4]
 4555 00ae C3F81890 		str	r9, [r3, #24]
 4556 00b2 2368     		ldr	r3, [r4]
 4557 00b4 DD61     		str	r5, [r3, #28]
 4558 00b6 2368     		ldr	r3, [r4]
 4559 00b8 5B68     		ldr	r3, [r3, #4]
 4560 00ba 4FF0FF31 		mov	r1, #-1
 4561 00be 2046     		mov	r0, r4
 4562 00c0 9847     		blx	r3
 4563              	.LVL649:
 4564              	.L341:
1358:Middlewares/Third_Party/LibJPEG/source/jdhuff.c **** 	coef_bit_ptr[coefi] = cinfo->Al;
 4565              		.loc 1 1358 2 is_stmt 1 view .LVU1486
 4566              		.loc 1 1358 29 is_stmt 0 view .LVU1487
 4567 00c2 D4F8A431 		ldr	r3, [r4, #420]
 4568              		.loc 1 1358 22 view .LVU1488
 4569 00c6 47F80830 		str	r3, [r7, r8]
 4570              	.LBE39:
1354:Middlewares/Third_Party/LibJPEG/source/jdhuff.c ****       for (coefi = cinfo->Ss; coefi <= cinfo->Se; coefi++) {
 4571              		.loc 1 1354 56 is_stmt 1 discriminator 2 view .LVU1489
 4572 00ca 0135     		adds	r5, r5, #1
 4573              	.LVL650:
 4574              	.L340:
1354:Middlewares/Third_Party/LibJPEG/source/jdhuff.c ****       for (coefi = cinfo->Ss; coefi <= cinfo->Se; coefi++) {
 4575              		.loc 1 1354 37 discriminator 1 view .LVU1490
1354:Middlewares/Third_Party/LibJPEG/source/jdhuff.c ****       for (coefi = cinfo->Ss; coefi <= cinfo->Se; coefi++) {
 4576              		.loc 1 1354 45 is_stmt 0 discriminator 1 view .LVU1491
 4577 00cc D4F89C31 		ldr	r3, [r4, #412]
1354:Middlewares/Third_Party/LibJPEG/source/jdhuff.c ****       for (coefi = cinfo->Ss; coefi <= cinfo->Se; coefi++) {
 4578              		.loc 1 1354 37 discriminator 1 view .LVU1492
 4579 00d0 AB42     		cmp	r3, r5
 4580 00d2 0ADB     		blt	.L403
 4581              	.LBB40:
1355:Middlewares/Third_Party/LibJPEG/source/jdhuff.c **** 	if (cinfo->Ah != expected)
 4582              		.loc 1 1355 2 is_stmt 1 view .LVU1493
1355:Middlewares/Third_Party/LibJPEG/source/jdhuff.c **** 	if (cinfo->Ah != expected)
 4583              		.loc 1 1355 30 is_stmt 0 view .LVU1494
 4584 00d4 4FEA8508 		lsl	r8, r5, #2
 4585 00d8 57F82530 		ldr	r3, [r7, r5, lsl #2]
1355:Middlewares/Third_Party/LibJPEG/source/jdhuff.c **** 	if (cinfo->Ah != expected)
 4586              		.loc 1 1355 6 view .LVU1495
 4587 00dc 23EAE373 		bic	r3, r3, r3, asr #31
 4588              	.LVL651:
1356:Middlewares/Third_Party/LibJPEG/source/jdhuff.c **** 	  WARNMS2(cinfo, JWRN_BOGUS_PROGRESSION, cindex, coefi);
 4589              		.loc 1 1356 2 is_stmt 1 view .LVU1496
1356:Middlewares/Third_Party/LibJPEG/source/jdhuff.c **** 	  WARNMS2(cinfo, JWRN_BOGUS_PROGRESSION, cindex, coefi);
 4590              		.loc 1 1356 11 is_stmt 0 view .LVU1497
 4591 00e0 D4F8A021 		ldr	r2, [r4, #416]
1356:Middlewares/Third_Party/LibJPEG/source/jdhuff.c **** 	  WARNMS2(cinfo, JWRN_BOGUS_PROGRESSION, cindex, coefi);
 4592              		.loc 1 1356 5 view .LVU1498
 4593 00e4 9A42     		cmp	r2, r3
 4594 00e6 DED1     		bne	.L404
1356:Middlewares/Third_Party/LibJPEG/source/jdhuff.c **** 	  WARNMS2(cinfo, JWRN_BOGUS_PROGRESSION, cindex, coefi);
 4595              		.loc 1 1356 5 view .LVU1499
ARM GAS  /var/folders/mq/wg13gp494590nh4zyt09lxf00000gn/T//ccUYufpr.s 			page 118


 4596 00e8 EBE7     		b	.L341
 4597              	.LVL652:
 4598              	.L403:
1356:Middlewares/Third_Party/LibJPEG/source/jdhuff.c **** 	  WARNMS2(cinfo, JWRN_BOGUS_PROGRESSION, cindex, coefi);
 4599              		.loc 1 1356 5 view .LVU1500
 4600              	.LBE40:
 4601              	.LBE38:
1349:Middlewares/Third_Party/LibJPEG/source/jdhuff.c ****       int coefi, cindex = cinfo->cur_comp_info[ci]->component_index;
 4602              		.loc 1 1349 47 is_stmt 1 discriminator 2 view .LVU1501
 4603 00ea 0AF1010A 		add	r10, r10, #1
 4604              	.LVL653:
 4605              	.L338:
1349:Middlewares/Third_Party/LibJPEG/source/jdhuff.c ****       int coefi, cindex = cinfo->cur_comp_info[ci]->component_index;
 4606              		.loc 1 1349 21 discriminator 1 view .LVU1502
1349:Middlewares/Third_Party/LibJPEG/source/jdhuff.c ****       int coefi, cindex = cinfo->cur_comp_info[ci]->component_index;
 4607              		.loc 1 1349 28 is_stmt 0 discriminator 1 view .LVU1503
 4608 00ee D4F85031 		ldr	r3, [r4, #336]
1349:Middlewares/Third_Party/LibJPEG/source/jdhuff.c ****       int coefi, cindex = cinfo->cur_comp_info[ci]->component_index;
 4609              		.loc 1 1349 21 discriminator 1 view .LVU1504
 4610 00f2 5345     		cmp	r3, r10
 4611 00f4 15DD     		ble	.L405
 4612              	.LBB41:
1350:Middlewares/Third_Party/LibJPEG/source/jdhuff.c ****       int *coef_bit_ptr = & cinfo->coef_bits[cindex][0];
 4613              		.loc 1 1350 7 is_stmt 1 view .LVU1505
1350:Middlewares/Third_Party/LibJPEG/source/jdhuff.c ****       int *coef_bit_ptr = & cinfo->coef_bits[cindex][0];
 4614              		.loc 1 1350 47 is_stmt 0 view .LVU1506
 4615 00f6 0AF15403 		add	r3, r10, #84
 4616 00fa 04EB8303 		add	r3, r4, r3, lsl #2
 4617 00fe 5B68     		ldr	r3, [r3, #4]
1350:Middlewares/Third_Party/LibJPEG/source/jdhuff.c ****       int *coef_bit_ptr = & cinfo->coef_bits[cindex][0];
 4618              		.loc 1 1350 18 view .LVU1507
 4619 0100 D3F80490 		ldr	r9, [r3, #4]
 4620              	.LVL654:
1351:Middlewares/Third_Party/LibJPEG/source/jdhuff.c ****       if (cinfo->Ss && coef_bit_ptr[0] < 0) /* AC without prior DC scan */
 4621              		.loc 1 1351 7 is_stmt 1 view .LVU1508
1351:Middlewares/Third_Party/LibJPEG/source/jdhuff.c ****       if (cinfo->Ss && coef_bit_ptr[0] < 0) /* AC without prior DC scan */
 4622              		.loc 1 1351 34 is_stmt 0 view .LVU1509
 4623 0104 D4F8A030 		ldr	r3, [r4, #160]
1351:Middlewares/Third_Party/LibJPEG/source/jdhuff.c ****       if (cinfo->Ss && coef_bit_ptr[0] < 0) /* AC without prior DC scan */
 4624              		.loc 1 1351 45 view .LVU1510
 4625 0108 4FEA0921 		lsl	r1, r9, #8
 4626 010c 03EB0927 		add	r7, r3, r9, lsl #8
 4627              	.LVL655:
1352:Middlewares/Third_Party/LibJPEG/source/jdhuff.c **** 	WARNMS2(cinfo, JWRN_BOGUS_PROGRESSION, cindex, 0);
 4628              		.loc 1 1352 7 is_stmt 1 view .LVU1511
1352:Middlewares/Third_Party/LibJPEG/source/jdhuff.c **** 	WARNMS2(cinfo, JWRN_BOGUS_PROGRESSION, cindex, 0);
 4629              		.loc 1 1352 16 is_stmt 0 view .LVU1512
 4630 0110 D4F89821 		ldr	r2, [r4, #408]
1352:Middlewares/Third_Party/LibJPEG/source/jdhuff.c **** 	WARNMS2(cinfo, JWRN_BOGUS_PROGRESSION, cindex, 0);
 4631              		.loc 1 1352 10 view .LVU1513
 4632 0114 12B1     		cbz	r2, .L339
1352:Middlewares/Third_Party/LibJPEG/source/jdhuff.c **** 	WARNMS2(cinfo, JWRN_BOGUS_PROGRESSION, cindex, 0);
 4633              		.loc 1 1352 36 discriminator 1 view .LVU1514
 4634 0116 5B58     		ldr	r3, [r3, r1]
1352:Middlewares/Third_Party/LibJPEG/source/jdhuff.c **** 	WARNMS2(cinfo, JWRN_BOGUS_PROGRESSION, cindex, 0);
 4635              		.loc 1 1352 21 discriminator 1 view .LVU1515
 4636 0118 002B     		cmp	r3, #0
ARM GAS  /var/folders/mq/wg13gp494590nh4zyt09lxf00000gn/T//ccUYufpr.s 			page 119


 4637 011a B4DB     		blt	.L406
 4638              	.L339:
1354:Middlewares/Third_Party/LibJPEG/source/jdhuff.c **** 	int expected = (coef_bit_ptr[coefi] < 0) ? 0 : coef_bit_ptr[coefi];
 4639              		.loc 1 1354 7 is_stmt 1 view .LVU1516
1354:Middlewares/Third_Party/LibJPEG/source/jdhuff.c **** 	int expected = (coef_bit_ptr[coefi] < 0) ? 0 : coef_bit_ptr[coefi];
 4640              		.loc 1 1354 18 is_stmt 0 view .LVU1517
 4641 011c D4F89851 		ldr	r5, [r4, #408]
 4642              	.LVL656:
1354:Middlewares/Third_Party/LibJPEG/source/jdhuff.c **** 	int expected = (coef_bit_ptr[coefi] < 0) ? 0 : coef_bit_ptr[coefi];
 4643              		.loc 1 1354 7 view .LVU1518
 4644 0120 D4E7     		b	.L340
 4645              	.LVL657:
 4646              	.L405:
1354:Middlewares/Third_Party/LibJPEG/source/jdhuff.c **** 	int expected = (coef_bit_ptr[coefi] < 0) ? 0 : coef_bit_ptr[coefi];
 4647              		.loc 1 1354 7 view .LVU1519
 4648              	.LBE41:
1359:Middlewares/Third_Party/LibJPEG/source/jdhuff.c ****       }
1360:Middlewares/Third_Party/LibJPEG/source/jdhuff.c ****     }
1361:Middlewares/Third_Party/LibJPEG/source/jdhuff.c **** 
1362:Middlewares/Third_Party/LibJPEG/source/jdhuff.c ****     /* Select MCU decoding routine */
1363:Middlewares/Third_Party/LibJPEG/source/jdhuff.c ****     if (cinfo->Ah == 0) {
 4649              		.loc 1 1363 5 is_stmt 1 view .LVU1520
 4650              		.loc 1 1363 14 is_stmt 0 view .LVU1521
 4651 0122 D4F8A031 		ldr	r3, [r4, #416]
 4652              		.loc 1 1363 8 view .LVU1522
 4653 0126 4BB9     		cbnz	r3, .L344
1364:Middlewares/Third_Party/LibJPEG/source/jdhuff.c ****       if (cinfo->Ss == 0)
 4654              		.loc 1 1364 7 is_stmt 1 view .LVU1523
 4655              		.loc 1 1364 16 is_stmt 0 view .LVU1524
 4656 0128 D4F89831 		ldr	r3, [r4, #408]
 4657              		.loc 1 1364 10 view .LVU1525
 4658 012c 1BB9     		cbnz	r3, .L345
1365:Middlewares/Third_Party/LibJPEG/source/jdhuff.c **** 	entropy->pub.decode_mcu = decode_mcu_DC_first;
 4659              		.loc 1 1365 2 is_stmt 1 view .LVU1526
 4660              		.loc 1 1365 26 is_stmt 0 view .LVU1527
 4661 012e 9D4B     		ldr	r3, .L408
 4662 0130 7360     		str	r3, [r6, #4]
 4663              	.L346:
1311:Middlewares/Third_Party/LibJPEG/source/jdhuff.c ****   huff_entropy_ptr entropy = (huff_entropy_ptr) cinfo->entropy;
 4664              		.loc 1 1311 1 view .LVU1528
 4665 0132 0025     		movs	r5, #0
 4666 0134 1DE0     		b	.L348
 4667              	.L345:
1366:Middlewares/Third_Party/LibJPEG/source/jdhuff.c ****       else
1367:Middlewares/Third_Party/LibJPEG/source/jdhuff.c **** 	entropy->pub.decode_mcu = decode_mcu_AC_first;
 4668              		.loc 1 1367 2 is_stmt 1 view .LVU1529
 4669              		.loc 1 1367 26 is_stmt 0 view .LVU1530
 4670 0136 9C4B     		ldr	r3, .L408+4
 4671 0138 7360     		str	r3, [r6, #4]
 4672 013a FAE7     		b	.L346
 4673              	.L344:
1368:Middlewares/Third_Party/LibJPEG/source/jdhuff.c ****     } else {
1369:Middlewares/Third_Party/LibJPEG/source/jdhuff.c ****       if (cinfo->Ss == 0)
 4674              		.loc 1 1369 7 is_stmt 1 view .LVU1531
 4675              		.loc 1 1369 16 is_stmt 0 view .LVU1532
 4676 013c D4F89831 		ldr	r3, [r4, #408]
 4677              		.loc 1 1369 10 view .LVU1533
ARM GAS  /var/folders/mq/wg13gp494590nh4zyt09lxf00000gn/T//ccUYufpr.s 			page 120


 4678 0140 13B9     		cbnz	r3, .L347
1370:Middlewares/Third_Party/LibJPEG/source/jdhuff.c **** 	entropy->pub.decode_mcu = decode_mcu_DC_refine;
 4679              		.loc 1 1370 2 is_stmt 1 view .LVU1534
 4680              		.loc 1 1370 26 is_stmt 0 view .LVU1535
 4681 0142 9A4B     		ldr	r3, .L408+8
 4682 0144 7360     		str	r3, [r6, #4]
 4683 0146 F4E7     		b	.L346
 4684              	.L347:
1371:Middlewares/Third_Party/LibJPEG/source/jdhuff.c ****       else
1372:Middlewares/Third_Party/LibJPEG/source/jdhuff.c **** 	entropy->pub.decode_mcu = decode_mcu_AC_refine;
 4685              		.loc 1 1372 2 is_stmt 1 view .LVU1536
 4686              		.loc 1 1372 26 is_stmt 0 view .LVU1537
 4687 0148 994B     		ldr	r3, .L408+12
 4688 014a 7360     		str	r3, [r6, #4]
 4689 014c F1E7     		b	.L346
 4690              	.LVL658:
 4691              	.L349:
1373:Middlewares/Third_Party/LibJPEG/source/jdhuff.c ****     }
1374:Middlewares/Third_Party/LibJPEG/source/jdhuff.c **** 
1375:Middlewares/Third_Party/LibJPEG/source/jdhuff.c ****     for (ci = 0; ci < cinfo->comps_in_scan; ci++) {
1376:Middlewares/Third_Party/LibJPEG/source/jdhuff.c ****       compptr = cinfo->cur_comp_info[ci];
1377:Middlewares/Third_Party/LibJPEG/source/jdhuff.c ****       /* Make sure requested tables are present, and compute derived tables.
1378:Middlewares/Third_Party/LibJPEG/source/jdhuff.c ****        * We may build same derived table more than once, but it's not expensive.
1379:Middlewares/Third_Party/LibJPEG/source/jdhuff.c ****        */
1380:Middlewares/Third_Party/LibJPEG/source/jdhuff.c ****       if (cinfo->Ss == 0) {
1381:Middlewares/Third_Party/LibJPEG/source/jdhuff.c **** 	if (cinfo->Ah == 0) {	/* DC refinement needs no table */
1382:Middlewares/Third_Party/LibJPEG/source/jdhuff.c **** 	  tbl = compptr->dc_tbl_no;
1383:Middlewares/Third_Party/LibJPEG/source/jdhuff.c **** 	  jpeg_make_d_derived_tbl(cinfo, TRUE, tbl,
1384:Middlewares/Third_Party/LibJPEG/source/jdhuff.c **** 				  & entropy->derived_tbls[tbl]);
1385:Middlewares/Third_Party/LibJPEG/source/jdhuff.c **** 	}
1386:Middlewares/Third_Party/LibJPEG/source/jdhuff.c ****       } else {
1387:Middlewares/Third_Party/LibJPEG/source/jdhuff.c **** 	tbl = compptr->ac_tbl_no;
 4692              		.loc 1 1387 2 is_stmt 1 view .LVU1538
 4693              		.loc 1 1387 6 is_stmt 0 view .LVU1539
 4694 014e 9269     		ldr	r2, [r2, #24]
 4695              	.LVL659:
1388:Middlewares/Third_Party/LibJPEG/source/jdhuff.c **** 	jpeg_make_d_derived_tbl(cinfo, FALSE, tbl,
 4696              		.loc 1 1388 2 is_stmt 1 view .LVU1540
 4697 0150 02F10A07 		add	r7, r2, #10
 4698 0154 06EB8707 		add	r7, r6, r7, lsl #2
 4699 0158 3B1D     		adds	r3, r7, #4
 4700 015a 0021     		movs	r1, #0
 4701 015c 2046     		mov	r0, r4
 4702 015e FFF7FEFF 		bl	jpeg_make_d_derived_tbl
 4703              	.LVL660:
1389:Middlewares/Third_Party/LibJPEG/source/jdhuff.c **** 				& entropy->derived_tbls[tbl]);
1390:Middlewares/Third_Party/LibJPEG/source/jdhuff.c **** 	/* remember the single active table */
1391:Middlewares/Third_Party/LibJPEG/source/jdhuff.c **** 	entropy->ac_derived_tbl = entropy->derived_tbls[tbl];
 4704              		.loc 1 1391 2 view .LVU1541
 4705              		.loc 1 1391 49 is_stmt 0 view .LVU1542
 4706 0162 7B68     		ldr	r3, [r7, #4]
 4707              		.loc 1 1391 26 view .LVU1543
 4708 0164 F363     		str	r3, [r6, #60]
 4709              	.LVL661:
 4710              	.L350:
1392:Middlewares/Third_Party/LibJPEG/source/jdhuff.c ****       }
1393:Middlewares/Third_Party/LibJPEG/source/jdhuff.c ****       /* Initialize DC predictions to 0 */
ARM GAS  /var/folders/mq/wg13gp494590nh4zyt09lxf00000gn/T//ccUYufpr.s 			page 121


1394:Middlewares/Third_Party/LibJPEG/source/jdhuff.c ****       entropy->saved.last_dc_val[ci] = 0;
 4711              		.loc 1 1394 7 is_stmt 1 view .LVU1544
 4712              		.loc 1 1394 38 is_stmt 0 view .LVU1545
 4713 0166 2B1D     		adds	r3, r5, #4
 4714 0168 06EB8303 		add	r3, r6, r3, lsl #2
 4715 016c 0022     		movs	r2, #0
 4716 016e 5A60     		str	r2, [r3, #4]
1375:Middlewares/Third_Party/LibJPEG/source/jdhuff.c ****       compptr = cinfo->cur_comp_info[ci];
 4717              		.loc 1 1375 47 is_stmt 1 discriminator 2 view .LVU1546
 4718 0170 0135     		adds	r5, r5, #1
 4719              	.LVL662:
 4720              	.L348:
1375:Middlewares/Third_Party/LibJPEG/source/jdhuff.c ****       compptr = cinfo->cur_comp_info[ci];
 4721              		.loc 1 1375 21 discriminator 1 view .LVU1547
1375:Middlewares/Third_Party/LibJPEG/source/jdhuff.c ****       compptr = cinfo->cur_comp_info[ci];
 4722              		.loc 1 1375 28 is_stmt 0 discriminator 1 view .LVU1548
 4723 0172 D4F85031 		ldr	r3, [r4, #336]
1375:Middlewares/Third_Party/LibJPEG/source/jdhuff.c ****       compptr = cinfo->cur_comp_info[ci];
 4724              		.loc 1 1375 21 discriminator 1 view .LVU1549
 4725 0176 AB42     		cmp	r3, r5
 4726 0178 17DD     		ble	.L407
1376:Middlewares/Third_Party/LibJPEG/source/jdhuff.c ****       /* Make sure requested tables are present, and compute derived tables.
 4727              		.loc 1 1376 7 is_stmt 1 view .LVU1550
1376:Middlewares/Third_Party/LibJPEG/source/jdhuff.c ****       /* Make sure requested tables are present, and compute derived tables.
 4728              		.loc 1 1376 15 is_stmt 0 view .LVU1551
 4729 017a 05F15403 		add	r3, r5, #84
 4730 017e 04EB8303 		add	r3, r4, r3, lsl #2
 4731 0182 5A68     		ldr	r2, [r3, #4]
 4732              	.LVL663:
1380:Middlewares/Third_Party/LibJPEG/source/jdhuff.c **** 	if (cinfo->Ah == 0) {	/* DC refinement needs no table */
 4733              		.loc 1 1380 7 is_stmt 1 view .LVU1552
1380:Middlewares/Third_Party/LibJPEG/source/jdhuff.c **** 	if (cinfo->Ah == 0) {	/* DC refinement needs no table */
 4734              		.loc 1 1380 16 is_stmt 0 view .LVU1553
 4735 0184 D4F89831 		ldr	r3, [r4, #408]
1380:Middlewares/Third_Party/LibJPEG/source/jdhuff.c **** 	if (cinfo->Ah == 0) {	/* DC refinement needs no table */
 4736              		.loc 1 1380 10 view .LVU1554
 4737 0188 002B     		cmp	r3, #0
 4738 018a E0D1     		bne	.L349
1381:Middlewares/Third_Party/LibJPEG/source/jdhuff.c **** 	  tbl = compptr->dc_tbl_no;
 4739              		.loc 1 1381 2 is_stmt 1 view .LVU1555
1381:Middlewares/Third_Party/LibJPEG/source/jdhuff.c **** 	  tbl = compptr->dc_tbl_no;
 4740              		.loc 1 1381 11 is_stmt 0 view .LVU1556
 4741 018c D4F8A031 		ldr	r3, [r4, #416]
1381:Middlewares/Third_Party/LibJPEG/source/jdhuff.c **** 	  tbl = compptr->dc_tbl_no;
 4742              		.loc 1 1381 5 view .LVU1557
 4743 0190 002B     		cmp	r3, #0
 4744 0192 E8D1     		bne	.L350
1382:Middlewares/Third_Party/LibJPEG/source/jdhuff.c **** 	  jpeg_make_d_derived_tbl(cinfo, TRUE, tbl,
 4745              		.loc 1 1382 4 is_stmt 1 view .LVU1558
1382:Middlewares/Third_Party/LibJPEG/source/jdhuff.c **** 	  jpeg_make_d_derived_tbl(cinfo, TRUE, tbl,
 4746              		.loc 1 1382 8 is_stmt 0 view .LVU1559
 4747 0194 5269     		ldr	r2, [r2, #20]
 4748              	.LVL664:
1383:Middlewares/Third_Party/LibJPEG/source/jdhuff.c **** 				  & entropy->derived_tbls[tbl]);
 4749              		.loc 1 1383 4 is_stmt 1 view .LVU1560
 4750 0196 02F10A03 		add	r3, r2, #10
 4751 019a 06EB8303 		add	r3, r6, r3, lsl #2
ARM GAS  /var/folders/mq/wg13gp494590nh4zyt09lxf00000gn/T//ccUYufpr.s 			page 122


 4752 019e 0433     		adds	r3, r3, #4
 4753 01a0 0121     		movs	r1, #1
 4754 01a2 2046     		mov	r0, r4
 4755 01a4 FFF7FEFF 		bl	jpeg_make_d_derived_tbl
 4756              	.LVL665:
1383:Middlewares/Third_Party/LibJPEG/source/jdhuff.c **** 				  & entropy->derived_tbls[tbl]);
 4757              		.loc 1 1383 4 is_stmt 0 view .LVU1561
 4758 01a8 DDE7     		b	.L350
 4759              	.LVL666:
 4760              	.L407:
1395:Middlewares/Third_Party/LibJPEG/source/jdhuff.c ****     }
1396:Middlewares/Third_Party/LibJPEG/source/jdhuff.c **** 
1397:Middlewares/Third_Party/LibJPEG/source/jdhuff.c ****     /* Initialize private state variables */
1398:Middlewares/Third_Party/LibJPEG/source/jdhuff.c ****     entropy->saved.EOBRUN = 0;
 4761              		.loc 1 1398 5 is_stmt 1 view .LVU1562
 4762              		.loc 1 1398 27 is_stmt 0 view .LVU1563
 4763 01aa 0023     		movs	r3, #0
 4764 01ac 3361     		str	r3, [r6, #16]
 4765              	.LVL667:
 4766              	.L352:
1399:Middlewares/Third_Party/LibJPEG/source/jdhuff.c ****   } else {
1400:Middlewares/Third_Party/LibJPEG/source/jdhuff.c ****     /* Check that the scan parameters Ss, Se, Ah/Al are OK for sequential JPEG.
1401:Middlewares/Third_Party/LibJPEG/source/jdhuff.c ****      * This ought to be an error condition, but we make it a warning because
1402:Middlewares/Third_Party/LibJPEG/source/jdhuff.c ****      * there are some baseline files out there with all zeroes in these bytes.
1403:Middlewares/Third_Party/LibJPEG/source/jdhuff.c ****      */
1404:Middlewares/Third_Party/LibJPEG/source/jdhuff.c ****     if (cinfo->Ss != 0 || cinfo->Ah != 0 || cinfo->Al != 0 ||
1405:Middlewares/Third_Party/LibJPEG/source/jdhuff.c **** 	((cinfo->is_baseline || cinfo->Se < DCTSIZE2) &&
1406:Middlewares/Third_Party/LibJPEG/source/jdhuff.c **** 	cinfo->Se != cinfo->lim_Se))
1407:Middlewares/Third_Party/LibJPEG/source/jdhuff.c ****       WARNMS(cinfo, JWRN_NOT_SEQUENTIAL);
1408:Middlewares/Third_Party/LibJPEG/source/jdhuff.c **** 
1409:Middlewares/Third_Party/LibJPEG/source/jdhuff.c ****     /* Select MCU decoding routine */
1410:Middlewares/Third_Party/LibJPEG/source/jdhuff.c ****     /* We retain the hard-coded case for full-size blocks.
1411:Middlewares/Third_Party/LibJPEG/source/jdhuff.c ****      * This is not necessary, but it appears that this version is slightly
1412:Middlewares/Third_Party/LibJPEG/source/jdhuff.c ****      * more performant in the given implementation.
1413:Middlewares/Third_Party/LibJPEG/source/jdhuff.c ****      * With an improved implementation we would prefer a single optimized
1414:Middlewares/Third_Party/LibJPEG/source/jdhuff.c ****      * function.
1415:Middlewares/Third_Party/LibJPEG/source/jdhuff.c ****      */
1416:Middlewares/Third_Party/LibJPEG/source/jdhuff.c ****     if (cinfo->lim_Se != DCTSIZE2-1)
1417:Middlewares/Third_Party/LibJPEG/source/jdhuff.c ****       entropy->pub.decode_mcu = decode_mcu_sub;
1418:Middlewares/Third_Party/LibJPEG/source/jdhuff.c ****     else
1419:Middlewares/Third_Party/LibJPEG/source/jdhuff.c ****       entropy->pub.decode_mcu = decode_mcu;
1420:Middlewares/Third_Party/LibJPEG/source/jdhuff.c **** 
1421:Middlewares/Third_Party/LibJPEG/source/jdhuff.c ****     for (ci = 0; ci < cinfo->comps_in_scan; ci++) {
1422:Middlewares/Third_Party/LibJPEG/source/jdhuff.c ****       compptr = cinfo->cur_comp_info[ci];
1423:Middlewares/Third_Party/LibJPEG/source/jdhuff.c ****       /* Compute derived values for Huffman tables */
1424:Middlewares/Third_Party/LibJPEG/source/jdhuff.c ****       /* We may do this more than once for a table, but it's not expensive */
1425:Middlewares/Third_Party/LibJPEG/source/jdhuff.c ****       tbl = compptr->dc_tbl_no;
1426:Middlewares/Third_Party/LibJPEG/source/jdhuff.c ****       jpeg_make_d_derived_tbl(cinfo, TRUE, tbl,
1427:Middlewares/Third_Party/LibJPEG/source/jdhuff.c **** 			      & entropy->dc_derived_tbls[tbl]);
1428:Middlewares/Third_Party/LibJPEG/source/jdhuff.c ****       if (cinfo->lim_Se) {	/* AC needs no table when not present */
1429:Middlewares/Third_Party/LibJPEG/source/jdhuff.c **** 	tbl = compptr->ac_tbl_no;
1430:Middlewares/Third_Party/LibJPEG/source/jdhuff.c **** 	jpeg_make_d_derived_tbl(cinfo, FALSE, tbl,
1431:Middlewares/Third_Party/LibJPEG/source/jdhuff.c **** 				& entropy->ac_derived_tbls[tbl]);
1432:Middlewares/Third_Party/LibJPEG/source/jdhuff.c ****       }
1433:Middlewares/Third_Party/LibJPEG/source/jdhuff.c ****       /* Initialize DC predictions to 0 */
1434:Middlewares/Third_Party/LibJPEG/source/jdhuff.c ****       entropy->saved.last_dc_val[ci] = 0;
1435:Middlewares/Third_Party/LibJPEG/source/jdhuff.c ****     }
ARM GAS  /var/folders/mq/wg13gp494590nh4zyt09lxf00000gn/T//ccUYufpr.s 			page 123


1436:Middlewares/Third_Party/LibJPEG/source/jdhuff.c **** 
1437:Middlewares/Third_Party/LibJPEG/source/jdhuff.c ****     /* Precalculate decoding info for each block in an MCU of this scan */
1438:Middlewares/Third_Party/LibJPEG/source/jdhuff.c ****     for (blkn = 0; blkn < cinfo->blocks_in_MCU; blkn++) {
1439:Middlewares/Third_Party/LibJPEG/source/jdhuff.c ****       ci = cinfo->MCU_membership[blkn];
1440:Middlewares/Third_Party/LibJPEG/source/jdhuff.c ****       compptr = cinfo->cur_comp_info[ci];
1441:Middlewares/Third_Party/LibJPEG/source/jdhuff.c ****       /* Precalculate which table to use for each block */
1442:Middlewares/Third_Party/LibJPEG/source/jdhuff.c ****       entropy->dc_cur_tbls[blkn] = entropy->dc_derived_tbls[compptr->dc_tbl_no];
1443:Middlewares/Third_Party/LibJPEG/source/jdhuff.c ****       entropy->ac_cur_tbls[blkn] = entropy->ac_derived_tbls[compptr->ac_tbl_no];
1444:Middlewares/Third_Party/LibJPEG/source/jdhuff.c ****       /* Decide whether we really care about the coefficient values */
1445:Middlewares/Third_Party/LibJPEG/source/jdhuff.c ****       if (compptr->component_needed) {
1446:Middlewares/Third_Party/LibJPEG/source/jdhuff.c **** 	ci = compptr->DCT_v_scaled_size;
1447:Middlewares/Third_Party/LibJPEG/source/jdhuff.c **** 	i = compptr->DCT_h_scaled_size;
1448:Middlewares/Third_Party/LibJPEG/source/jdhuff.c **** 	switch (cinfo->lim_Se) {
1449:Middlewares/Third_Party/LibJPEG/source/jdhuff.c **** 	case (1*1-1):
1450:Middlewares/Third_Party/LibJPEG/source/jdhuff.c **** 	  entropy->coef_limit[blkn] = 1;
1451:Middlewares/Third_Party/LibJPEG/source/jdhuff.c **** 	  break;
1452:Middlewares/Third_Party/LibJPEG/source/jdhuff.c **** 	case (2*2-1):
1453:Middlewares/Third_Party/LibJPEG/source/jdhuff.c **** 	  if (ci <= 0 || ci > 2) ci = 2;
1454:Middlewares/Third_Party/LibJPEG/source/jdhuff.c **** 	  if (i <= 0 || i > 2) i = 2;
1455:Middlewares/Third_Party/LibJPEG/source/jdhuff.c **** 	  entropy->coef_limit[blkn] = 1 + jpeg_zigzag_order2[ci - 1][i - 1];
1456:Middlewares/Third_Party/LibJPEG/source/jdhuff.c **** 	  break;
1457:Middlewares/Third_Party/LibJPEG/source/jdhuff.c **** 	case (3*3-1):
1458:Middlewares/Third_Party/LibJPEG/source/jdhuff.c **** 	  if (ci <= 0 || ci > 3) ci = 3;
1459:Middlewares/Third_Party/LibJPEG/source/jdhuff.c **** 	  if (i <= 0 || i > 3) i = 3;
1460:Middlewares/Third_Party/LibJPEG/source/jdhuff.c **** 	  entropy->coef_limit[blkn] = 1 + jpeg_zigzag_order3[ci - 1][i - 1];
1461:Middlewares/Third_Party/LibJPEG/source/jdhuff.c **** 	  break;
1462:Middlewares/Third_Party/LibJPEG/source/jdhuff.c **** 	case (4*4-1):
1463:Middlewares/Third_Party/LibJPEG/source/jdhuff.c **** 	  if (ci <= 0 || ci > 4) ci = 4;
1464:Middlewares/Third_Party/LibJPEG/source/jdhuff.c **** 	  if (i <= 0 || i > 4) i = 4;
1465:Middlewares/Third_Party/LibJPEG/source/jdhuff.c **** 	  entropy->coef_limit[blkn] = 1 + jpeg_zigzag_order4[ci - 1][i - 1];
1466:Middlewares/Third_Party/LibJPEG/source/jdhuff.c **** 	  break;
1467:Middlewares/Third_Party/LibJPEG/source/jdhuff.c **** 	case (5*5-1):
1468:Middlewares/Third_Party/LibJPEG/source/jdhuff.c **** 	  if (ci <= 0 || ci > 5) ci = 5;
1469:Middlewares/Third_Party/LibJPEG/source/jdhuff.c **** 	  if (i <= 0 || i > 5) i = 5;
1470:Middlewares/Third_Party/LibJPEG/source/jdhuff.c **** 	  entropy->coef_limit[blkn] = 1 + jpeg_zigzag_order5[ci - 1][i - 1];
1471:Middlewares/Third_Party/LibJPEG/source/jdhuff.c **** 	  break;
1472:Middlewares/Third_Party/LibJPEG/source/jdhuff.c **** 	case (6*6-1):
1473:Middlewares/Third_Party/LibJPEG/source/jdhuff.c **** 	  if (ci <= 0 || ci > 6) ci = 6;
1474:Middlewares/Third_Party/LibJPEG/source/jdhuff.c **** 	  if (i <= 0 || i > 6) i = 6;
1475:Middlewares/Third_Party/LibJPEG/source/jdhuff.c **** 	  entropy->coef_limit[blkn] = 1 + jpeg_zigzag_order6[ci - 1][i - 1];
1476:Middlewares/Third_Party/LibJPEG/source/jdhuff.c **** 	  break;
1477:Middlewares/Third_Party/LibJPEG/source/jdhuff.c **** 	case (7*7-1):
1478:Middlewares/Third_Party/LibJPEG/source/jdhuff.c **** 	  if (ci <= 0 || ci > 7) ci = 7;
1479:Middlewares/Third_Party/LibJPEG/source/jdhuff.c **** 	  if (i <= 0 || i > 7) i = 7;
1480:Middlewares/Third_Party/LibJPEG/source/jdhuff.c **** 	  entropy->coef_limit[blkn] = 1 + jpeg_zigzag_order7[ci - 1][i - 1];
1481:Middlewares/Third_Party/LibJPEG/source/jdhuff.c **** 	  break;
1482:Middlewares/Third_Party/LibJPEG/source/jdhuff.c **** 	default:
1483:Middlewares/Third_Party/LibJPEG/source/jdhuff.c **** 	  if (ci <= 0 || ci > 8) ci = 8;
1484:Middlewares/Third_Party/LibJPEG/source/jdhuff.c **** 	  if (i <= 0 || i > 8) i = 8;
1485:Middlewares/Third_Party/LibJPEG/source/jdhuff.c **** 	  entropy->coef_limit[blkn] = 1 + jpeg_zigzag_order[ci - 1][i - 1];
1486:Middlewares/Third_Party/LibJPEG/source/jdhuff.c **** 	  break;
1487:Middlewares/Third_Party/LibJPEG/source/jdhuff.c **** 	}
1488:Middlewares/Third_Party/LibJPEG/source/jdhuff.c ****       } else {
1489:Middlewares/Third_Party/LibJPEG/source/jdhuff.c **** 	entropy->coef_limit[blkn] = 0;
1490:Middlewares/Third_Party/LibJPEG/source/jdhuff.c ****       }
1491:Middlewares/Third_Party/LibJPEG/source/jdhuff.c ****     }
1492:Middlewares/Third_Party/LibJPEG/source/jdhuff.c ****   }
ARM GAS  /var/folders/mq/wg13gp494590nh4zyt09lxf00000gn/T//ccUYufpr.s 			page 124


1493:Middlewares/Third_Party/LibJPEG/source/jdhuff.c **** 
1494:Middlewares/Third_Party/LibJPEG/source/jdhuff.c ****   /* Initialize bitread state variables */
1495:Middlewares/Third_Party/LibJPEG/source/jdhuff.c ****   entropy->bitstate.bits_left = 0;
 4767              		.loc 1 1495 3 is_stmt 1 view .LVU1564
 4768              		.loc 1 1495 31 is_stmt 0 view .LVU1565
 4769 01ae 0023     		movs	r3, #0
 4770 01b0 F360     		str	r3, [r6, #12]
1496:Middlewares/Third_Party/LibJPEG/source/jdhuff.c ****   entropy->bitstate.get_buffer = 0; /* unnecessary, but keeps Purify quiet */
 4771              		.loc 1 1496 3 is_stmt 1 view .LVU1566
 4772              		.loc 1 1496 32 is_stmt 0 view .LVU1567
 4773 01b2 B360     		str	r3, [r6, #8]
1497:Middlewares/Third_Party/LibJPEG/source/jdhuff.c ****   entropy->insufficient_data = FALSE;
 4774              		.loc 1 1497 3 is_stmt 1 view .LVU1568
 4775              		.loc 1 1497 30 is_stmt 0 view .LVU1569
 4776 01b4 7362     		str	r3, [r6, #36]
1498:Middlewares/Third_Party/LibJPEG/source/jdhuff.c **** 
1499:Middlewares/Third_Party/LibJPEG/source/jdhuff.c ****   /* Initialize restart counter */
1500:Middlewares/Third_Party/LibJPEG/source/jdhuff.c ****   entropy->restarts_to_go = cinfo->restart_interval;
 4777              		.loc 1 1500 3 is_stmt 1 view .LVU1570
 4778              		.loc 1 1500 34 is_stmt 0 view .LVU1571
 4779 01b6 D4F81831 		ldr	r3, [r4, #280]
 4780              		.loc 1 1500 27 view .LVU1572
 4781 01ba B362     		str	r3, [r6, #40]
1501:Middlewares/Third_Party/LibJPEG/source/jdhuff.c **** }
 4782              		.loc 1 1501 1 view .LVU1573
 4783 01bc BDE8F087 		pop	{r4, r5, r6, r7, r8, r9, r10, pc}
 4784              	.LVL668:
 4785              	.L332:
1404:Middlewares/Third_Party/LibJPEG/source/jdhuff.c **** 	((cinfo->is_baseline || cinfo->Se < DCTSIZE2) &&
 4786              		.loc 1 1404 5 is_stmt 1 view .LVU1574
1404:Middlewares/Third_Party/LibJPEG/source/jdhuff.c **** 	((cinfo->is_baseline || cinfo->Se < DCTSIZE2) &&
 4787              		.loc 1 1404 14 is_stmt 0 view .LVU1575
 4788 01c0 D0F89831 		ldr	r3, [r0, #408]
1404:Middlewares/Third_Party/LibJPEG/source/jdhuff.c **** 	((cinfo->is_baseline || cinfo->Se < DCTSIZE2) &&
 4789              		.loc 1 1404 8 view .LVU1576
 4790 01c4 93B9     		cbnz	r3, .L353
1404:Middlewares/Third_Party/LibJPEG/source/jdhuff.c **** 	((cinfo->is_baseline || cinfo->Se < DCTSIZE2) &&
 4791              		.loc 1 1404 32 discriminator 1 view .LVU1577
 4792 01c6 D0F8A031 		ldr	r3, [r0, #416]
1404:Middlewares/Third_Party/LibJPEG/source/jdhuff.c **** 	((cinfo->is_baseline || cinfo->Se < DCTSIZE2) &&
 4793              		.loc 1 1404 24 discriminator 1 view .LVU1578
 4794 01ca 7BB9     		cbnz	r3, .L353
1404:Middlewares/Third_Party/LibJPEG/source/jdhuff.c **** 	((cinfo->is_baseline || cinfo->Se < DCTSIZE2) &&
 4795              		.loc 1 1404 50 discriminator 2 view .LVU1579
 4796 01cc D0F8A431 		ldr	r3, [r0, #420]
1404:Middlewares/Third_Party/LibJPEG/source/jdhuff.c **** 	((cinfo->is_baseline || cinfo->Se < DCTSIZE2) &&
 4797              		.loc 1 1404 42 discriminator 2 view .LVU1580
 4798 01d0 63B9     		cbnz	r3, .L353
1405:Middlewares/Third_Party/LibJPEG/source/jdhuff.c **** 	cinfo->Se != cinfo->lim_Se))
 4799              		.loc 1 1405 9 view .LVU1581
 4800 01d2 D0F8DC30 		ldr	r3, [r0, #220]
1404:Middlewares/Third_Party/LibJPEG/source/jdhuff.c **** 	((cinfo->is_baseline || cinfo->Se < DCTSIZE2) &&
 4801              		.loc 1 1404 60 discriminator 3 view .LVU1582
 4802 01d6 1BB9     		cbnz	r3, .L354
1405:Middlewares/Third_Party/LibJPEG/source/jdhuff.c **** 	cinfo->Se != cinfo->lim_Se))
 4803              		.loc 1 1405 31 view .LVU1583
 4804 01d8 D0F89C31 		ldr	r3, [r0, #412]
ARM GAS  /var/folders/mq/wg13gp494590nh4zyt09lxf00000gn/T//ccUYufpr.s 			page 125


1405:Middlewares/Third_Party/LibJPEG/source/jdhuff.c **** 	cinfo->Se != cinfo->lim_Se))
 4805              		.loc 1 1405 23 view .LVU1584
 4806 01dc 3F2B     		cmp	r3, #63
 4807 01de 0EDC     		bgt	.L355
 4808              	.L354:
1406:Middlewares/Third_Party/LibJPEG/source/jdhuff.c ****       WARNMS(cinfo, JWRN_NOT_SEQUENTIAL);
 4809              		.loc 1 1406 7 view .LVU1585
 4810 01e0 D4F89C21 		ldr	r2, [r4, #412]
1406:Middlewares/Third_Party/LibJPEG/source/jdhuff.c ****       WARNMS(cinfo, JWRN_NOT_SEQUENTIAL);
 4811              		.loc 1 1406 20 view .LVU1586
 4812 01e4 D4F8B031 		ldr	r3, [r4, #432]
1405:Middlewares/Third_Party/LibJPEG/source/jdhuff.c **** 	cinfo->Se != cinfo->lim_Se))
 4813              		.loc 1 1405 48 discriminator 1 view .LVU1587
 4814 01e8 9A42     		cmp	r2, r3
 4815 01ea 08D0     		beq	.L355
 4816              	.L353:
1407:Middlewares/Third_Party/LibJPEG/source/jdhuff.c **** 
 4817              		.loc 1 1407 7 is_stmt 1 view .LVU1588
 4818 01ec 2368     		ldr	r3, [r4]
 4819 01ee 7D22     		movs	r2, #125
 4820 01f0 5A61     		str	r2, [r3, #20]
 4821 01f2 2368     		ldr	r3, [r4]
 4822 01f4 5B68     		ldr	r3, [r3, #4]
 4823 01f6 4FF0FF31 		mov	r1, #-1
 4824 01fa 2046     		mov	r0, r4
 4825              	.LVL669:
1407:Middlewares/Third_Party/LibJPEG/source/jdhuff.c **** 
 4826              		.loc 1 1407 7 is_stmt 0 view .LVU1589
 4827 01fc 9847     		blx	r3
 4828              	.LVL670:
 4829              	.L355:
1416:Middlewares/Third_Party/LibJPEG/source/jdhuff.c ****       entropy->pub.decode_mcu = decode_mcu_sub;
 4830              		.loc 1 1416 5 is_stmt 1 view .LVU1590
1416:Middlewares/Third_Party/LibJPEG/source/jdhuff.c ****       entropy->pub.decode_mcu = decode_mcu_sub;
 4831              		.loc 1 1416 14 is_stmt 0 view .LVU1591
 4832 01fe D4F8B031 		ldr	r3, [r4, #432]
1416:Middlewares/Third_Party/LibJPEG/source/jdhuff.c ****       entropy->pub.decode_mcu = decode_mcu_sub;
 4833              		.loc 1 1416 8 view .LVU1592
 4834 0202 3F2B     		cmp	r3, #63
 4835 0204 03D0     		beq	.L356
1417:Middlewares/Third_Party/LibJPEG/source/jdhuff.c ****     else
 4836              		.loc 1 1417 7 is_stmt 1 view .LVU1593
1417:Middlewares/Third_Party/LibJPEG/source/jdhuff.c ****     else
 4837              		.loc 1 1417 31 is_stmt 0 view .LVU1594
 4838 0206 6B4B     		ldr	r3, .L408+16
 4839 0208 7360     		str	r3, [r6, #4]
 4840              	.L358:
1311:Middlewares/Third_Party/LibJPEG/source/jdhuff.c ****   huff_entropy_ptr entropy = (huff_entropy_ptr) cinfo->entropy;
 4841              		.loc 1 1311 1 view .LVU1595
 4842 020a 2F46     		mov	r7, r5
 4843 020c 08E0     		b	.L357
 4844              	.L356:
1419:Middlewares/Third_Party/LibJPEG/source/jdhuff.c **** 
 4845              		.loc 1 1419 7 is_stmt 1 view .LVU1596
1419:Middlewares/Third_Party/LibJPEG/source/jdhuff.c **** 
 4846              		.loc 1 1419 31 is_stmt 0 view .LVU1597
 4847 020e 6A4B     		ldr	r3, .L408+20
ARM GAS  /var/folders/mq/wg13gp494590nh4zyt09lxf00000gn/T//ccUYufpr.s 			page 126


 4848 0210 7360     		str	r3, [r6, #4]
 4849 0212 FAE7     		b	.L358
 4850              	.LVL671:
 4851              	.L359:
1434:Middlewares/Third_Party/LibJPEG/source/jdhuff.c ****     }
 4852              		.loc 1 1434 7 is_stmt 1 view .LVU1598
1434:Middlewares/Third_Party/LibJPEG/source/jdhuff.c ****     }
 4853              		.loc 1 1434 38 is_stmt 0 view .LVU1599
 4854 0214 3B1D     		adds	r3, r7, #4
 4855 0216 06EB8303 		add	r3, r6, r3, lsl #2
 4856 021a 0022     		movs	r2, #0
 4857 021c 5A60     		str	r2, [r3, #4]
1421:Middlewares/Third_Party/LibJPEG/source/jdhuff.c ****       compptr = cinfo->cur_comp_info[ci];
 4858              		.loc 1 1421 47 is_stmt 1 discriminator 2 view .LVU1600
 4859 021e 0137     		adds	r7, r7, #1
 4860              	.LVL672:
 4861              	.L357:
1421:Middlewares/Third_Party/LibJPEG/source/jdhuff.c ****       compptr = cinfo->cur_comp_info[ci];
 4862              		.loc 1 1421 21 discriminator 1 view .LVU1601
1421:Middlewares/Third_Party/LibJPEG/source/jdhuff.c ****       compptr = cinfo->cur_comp_info[ci];
 4863              		.loc 1 1421 28 is_stmt 0 discriminator 1 view .LVU1602
 4864 0220 D4F85031 		ldr	r3, [r4, #336]
1421:Middlewares/Third_Party/LibJPEG/source/jdhuff.c ****       compptr = cinfo->cur_comp_info[ci];
 4865              		.loc 1 1421 21 discriminator 1 view .LVU1603
 4866 0224 BB42     		cmp	r3, r7
 4867 0226 40F3DD80 		ble	.L361
1422:Middlewares/Third_Party/LibJPEG/source/jdhuff.c ****       /* Compute derived values for Huffman tables */
 4868              		.loc 1 1422 7 is_stmt 1 view .LVU1604
1422:Middlewares/Third_Party/LibJPEG/source/jdhuff.c ****       /* Compute derived values for Huffman tables */
 4869              		.loc 1 1422 15 is_stmt 0 view .LVU1605
 4870 022a 07F15403 		add	r3, r7, #84
 4871 022e 04EB8303 		add	r3, r4, r3, lsl #2
 4872 0232 D3F80480 		ldr	r8, [r3, #4]
 4873              	.LVL673:
1425:Middlewares/Third_Party/LibJPEG/source/jdhuff.c ****       jpeg_make_d_derived_tbl(cinfo, TRUE, tbl,
 4874              		.loc 1 1425 7 is_stmt 1 view .LVU1606
1425:Middlewares/Third_Party/LibJPEG/source/jdhuff.c ****       jpeg_make_d_derived_tbl(cinfo, TRUE, tbl,
 4875              		.loc 1 1425 11 is_stmt 0 view .LVU1607
 4876 0236 D8F81420 		ldr	r2, [r8, #20]
 4877              	.LVL674:
1426:Middlewares/Third_Party/LibJPEG/source/jdhuff.c **** 			      & entropy->dc_derived_tbls[tbl]);
 4878              		.loc 1 1426 7 is_stmt 1 view .LVU1608
 4879 023a 02F11003 		add	r3, r2, #16
 4880 023e 06EB8303 		add	r3, r6, r3, lsl #2
 4881 0242 0121     		movs	r1, #1
 4882 0244 2046     		mov	r0, r4
 4883 0246 FFF7FEFF 		bl	jpeg_make_d_derived_tbl
 4884              	.LVL675:
1428:Middlewares/Third_Party/LibJPEG/source/jdhuff.c **** 	tbl = compptr->ac_tbl_no;
 4885              		.loc 1 1428 7 view .LVU1609
1428:Middlewares/Third_Party/LibJPEG/source/jdhuff.c **** 	tbl = compptr->ac_tbl_no;
 4886              		.loc 1 1428 16 is_stmt 0 view .LVU1610
 4887 024a D4F8B031 		ldr	r3, [r4, #432]
1428:Middlewares/Third_Party/LibJPEG/source/jdhuff.c **** 	tbl = compptr->ac_tbl_no;
 4888              		.loc 1 1428 10 view .LVU1611
 4889 024e 002B     		cmp	r3, #0
 4890 0250 E0D0     		beq	.L359
ARM GAS  /var/folders/mq/wg13gp494590nh4zyt09lxf00000gn/T//ccUYufpr.s 			page 127


1429:Middlewares/Third_Party/LibJPEG/source/jdhuff.c **** 	jpeg_make_d_derived_tbl(cinfo, FALSE, tbl,
 4891              		.loc 1 1429 2 is_stmt 1 view .LVU1612
1429:Middlewares/Third_Party/LibJPEG/source/jdhuff.c **** 	jpeg_make_d_derived_tbl(cinfo, FALSE, tbl,
 4892              		.loc 1 1429 6 is_stmt 0 view .LVU1613
 4893 0252 D8F81820 		ldr	r2, [r8, #24]
 4894              	.LVL676:
1430:Middlewares/Third_Party/LibJPEG/source/jdhuff.c **** 				& entropy->ac_derived_tbls[tbl]);
 4895              		.loc 1 1430 2 is_stmt 1 view .LVU1614
 4896 0256 02F11403 		add	r3, r2, #20
 4897 025a 06EB8303 		add	r3, r6, r3, lsl #2
 4898 025e 0021     		movs	r1, #0
 4899 0260 2046     		mov	r0, r4
 4900 0262 FFF7FEFF 		bl	jpeg_make_d_derived_tbl
 4901              	.LVL677:
1430:Middlewares/Third_Party/LibJPEG/source/jdhuff.c **** 				& entropy->ac_derived_tbls[tbl]);
 4902              		.loc 1 1430 2 is_stmt 0 view .LVU1615
 4903 0266 D5E7     		b	.L359
 4904              	.LVL678:
 4905              	.L371:
1450:Middlewares/Third_Party/LibJPEG/source/jdhuff.c **** 	  break;
 4906              		.loc 1 1450 4 is_stmt 1 view .LVU1616
1450:Middlewares/Third_Party/LibJPEG/source/jdhuff.c **** 	  break;
 4907              		.loc 1 1450 30 is_stmt 0 view .LVU1617
 4908 0268 05F12C03 		add	r3, r5, #44
 4909              	.LVL679:
1450:Middlewares/Third_Party/LibJPEG/source/jdhuff.c **** 	  break;
 4910              		.loc 1 1450 30 view .LVU1618
 4911 026c 0122     		movs	r2, #1
 4912              	.LVL680:
1450:Middlewares/Third_Party/LibJPEG/source/jdhuff.c **** 	  break;
 4913              		.loc 1 1450 30 view .LVU1619
 4914 026e 46F82320 		str	r2, [r6, r3, lsl #2]
1451:Middlewares/Third_Party/LibJPEG/source/jdhuff.c **** 	case (2*2-1):
 4915              		.loc 1 1451 4 is_stmt 1 view .LVU1620
 4916 0272 B6E0     		b	.L372
 4917              	.LVL681:
 4918              	.L370:
1453:Middlewares/Third_Party/LibJPEG/source/jdhuff.c **** 	  if (i <= 0 || i > 2) i = 2;
 4919              		.loc 1 1453 4 view .LVU1621
1453:Middlewares/Third_Party/LibJPEG/source/jdhuff.c **** 	  if (i <= 0 || i > 2) i = 2;
 4920              		.loc 1 1453 16 is_stmt 0 view .LVU1622
 4921 0274 511E     		subs	r1, r2, #1
1453:Middlewares/Third_Party/LibJPEG/source/jdhuff.c **** 	  if (i <= 0 || i > 2) i = 2;
 4922              		.loc 1 1453 7 view .LVU1623
 4923 0276 0129     		cmp	r1, #1
 4924 0278 00D9     		bls	.L373
1453:Middlewares/Third_Party/LibJPEG/source/jdhuff.c **** 	  if (i <= 0 || i > 2) i = 2;
 4925              		.loc 1 1453 30 discriminator 1 view .LVU1624
 4926 027a 0222     		movs	r2, #2
 4927              	.LVL682:
 4928              	.L373:
1454:Middlewares/Third_Party/LibJPEG/source/jdhuff.c **** 	  entropy->coef_limit[blkn] = 1 + jpeg_zigzag_order2[ci - 1][i - 1];
 4929              		.loc 1 1454 4 is_stmt 1 view .LVU1625
1454:Middlewares/Third_Party/LibJPEG/source/jdhuff.c **** 	  entropy->coef_limit[blkn] = 1 + jpeg_zigzag_order2[ci - 1][i - 1];
 4930              		.loc 1 1454 15 is_stmt 0 view .LVU1626
 4931 027c 591E     		subs	r1, r3, #1
1454:Middlewares/Third_Party/LibJPEG/source/jdhuff.c **** 	  entropy->coef_limit[blkn] = 1 + jpeg_zigzag_order2[ci - 1][i - 1];
ARM GAS  /var/folders/mq/wg13gp494590nh4zyt09lxf00000gn/T//ccUYufpr.s 			page 128


 4932              		.loc 1 1454 7 view .LVU1627
 4933 027e 0129     		cmp	r1, #1
 4934 0280 00D9     		bls	.L374
1454:Middlewares/Third_Party/LibJPEG/source/jdhuff.c **** 	  entropy->coef_limit[blkn] = 1 + jpeg_zigzag_order2[ci - 1][i - 1];
 4935              		.loc 1 1454 27 discriminator 1 view .LVU1628
 4936 0282 0223     		movs	r3, #2
 4937              	.LVL683:
 4938              	.L374:
1455:Middlewares/Third_Party/LibJPEG/source/jdhuff.c **** 	  break;
 4939              		.loc 1 1455 4 is_stmt 1 view .LVU1629
1455:Middlewares/Third_Party/LibJPEG/source/jdhuff.c **** 	  break;
 4940              		.loc 1 1455 58 is_stmt 0 view .LVU1630
 4941 0284 013A     		subs	r2, r2, #1
 4942              	.LVL684:
1455:Middlewares/Third_Party/LibJPEG/source/jdhuff.c **** 	  break;
 4943              		.loc 1 1455 65 view .LVU1631
 4944 0286 013B     		subs	r3, r3, #1
 4945              	.LVL685:
1455:Middlewares/Third_Party/LibJPEG/source/jdhuff.c **** 	  break;
 4946              		.loc 1 1455 62 view .LVU1632
 4947 0288 03EB4203 		add	r3, r3, r2, lsl #1
 4948              	.LVL686:
1455:Middlewares/Third_Party/LibJPEG/source/jdhuff.c **** 	  break;
 4949              		.loc 1 1455 62 view .LVU1633
 4950 028c 4B4A     		ldr	r2, .L408+24
 4951              	.LVL687:
1455:Middlewares/Third_Party/LibJPEG/source/jdhuff.c **** 	  break;
 4952              		.loc 1 1455 62 view .LVU1634
 4953 028e 52F82330 		ldr	r3, [r2, r3, lsl #2]
1455:Middlewares/Third_Party/LibJPEG/source/jdhuff.c **** 	  break;
 4954              		.loc 1 1455 34 view .LVU1635
 4955 0292 0133     		adds	r3, r3, #1
1455:Middlewares/Third_Party/LibJPEG/source/jdhuff.c **** 	  break;
 4956              		.loc 1 1455 30 view .LVU1636
 4957 0294 05F12C02 		add	r2, r5, #44
 4958 0298 46F82230 		str	r3, [r6, r2, lsl #2]
1456:Middlewares/Third_Party/LibJPEG/source/jdhuff.c **** 	case (3*3-1):
 4959              		.loc 1 1456 4 is_stmt 1 view .LVU1637
 4960 029c A1E0     		b	.L372
 4961              	.LVL688:
 4962              	.L369:
1458:Middlewares/Third_Party/LibJPEG/source/jdhuff.c **** 	  if (i <= 0 || i > 3) i = 3;
 4963              		.loc 1 1458 4 view .LVU1638
1458:Middlewares/Third_Party/LibJPEG/source/jdhuff.c **** 	  if (i <= 0 || i > 3) i = 3;
 4964              		.loc 1 1458 16 is_stmt 0 view .LVU1639
 4965 029e 511E     		subs	r1, r2, #1
1458:Middlewares/Third_Party/LibJPEG/source/jdhuff.c **** 	  if (i <= 0 || i > 3) i = 3;
 4966              		.loc 1 1458 7 view .LVU1640
 4967 02a0 0229     		cmp	r1, #2
 4968 02a2 00D9     		bls	.L375
1458:Middlewares/Third_Party/LibJPEG/source/jdhuff.c **** 	  if (i <= 0 || i > 3) i = 3;
 4969              		.loc 1 1458 30 discriminator 1 view .LVU1641
 4970 02a4 0322     		movs	r2, #3
 4971              	.LVL689:
 4972              	.L375:
1459:Middlewares/Third_Party/LibJPEG/source/jdhuff.c **** 	  entropy->coef_limit[blkn] = 1 + jpeg_zigzag_order3[ci - 1][i - 1];
 4973              		.loc 1 1459 4 is_stmt 1 view .LVU1642
ARM GAS  /var/folders/mq/wg13gp494590nh4zyt09lxf00000gn/T//ccUYufpr.s 			page 129


1459:Middlewares/Third_Party/LibJPEG/source/jdhuff.c **** 	  entropy->coef_limit[blkn] = 1 + jpeg_zigzag_order3[ci - 1][i - 1];
 4974              		.loc 1 1459 15 is_stmt 0 view .LVU1643
 4975 02a6 591E     		subs	r1, r3, #1
1459:Middlewares/Third_Party/LibJPEG/source/jdhuff.c **** 	  entropy->coef_limit[blkn] = 1 + jpeg_zigzag_order3[ci - 1][i - 1];
 4976              		.loc 1 1459 7 view .LVU1644
 4977 02a8 0229     		cmp	r1, #2
 4978 02aa 00D9     		bls	.L376
1459:Middlewares/Third_Party/LibJPEG/source/jdhuff.c **** 	  entropy->coef_limit[blkn] = 1 + jpeg_zigzag_order3[ci - 1][i - 1];
 4979              		.loc 1 1459 27 discriminator 1 view .LVU1645
 4980 02ac 0323     		movs	r3, #3
 4981              	.LVL690:
 4982              	.L376:
1460:Middlewares/Third_Party/LibJPEG/source/jdhuff.c **** 	  break;
 4983              		.loc 1 1460 4 is_stmt 1 view .LVU1646
1460:Middlewares/Third_Party/LibJPEG/source/jdhuff.c **** 	  break;
 4984              		.loc 1 1460 58 is_stmt 0 view .LVU1647
 4985 02ae 013A     		subs	r2, r2, #1
 4986              	.LVL691:
1460:Middlewares/Third_Party/LibJPEG/source/jdhuff.c **** 	  break;
 4987              		.loc 1 1460 65 view .LVU1648
 4988 02b0 013B     		subs	r3, r3, #1
 4989              	.LVL692:
1460:Middlewares/Third_Party/LibJPEG/source/jdhuff.c **** 	  break;
 4990              		.loc 1 1460 62 view .LVU1649
 4991 02b2 02EB4202 		add	r2, r2, r2, lsl #1
 4992              	.LVL693:
1460:Middlewares/Third_Party/LibJPEG/source/jdhuff.c **** 	  break;
 4993              		.loc 1 1460 62 view .LVU1650
 4994 02b6 1344     		add	r3, r3, r2
 4995              	.LVL694:
1460:Middlewares/Third_Party/LibJPEG/source/jdhuff.c **** 	  break;
 4996              		.loc 1 1460 62 view .LVU1651
 4997 02b8 414A     		ldr	r2, .L408+28
 4998 02ba 52F82330 		ldr	r3, [r2, r3, lsl #2]
1460:Middlewares/Third_Party/LibJPEG/source/jdhuff.c **** 	  break;
 4999              		.loc 1 1460 34 view .LVU1652
 5000 02be 0133     		adds	r3, r3, #1
1460:Middlewares/Third_Party/LibJPEG/source/jdhuff.c **** 	  break;
 5001              		.loc 1 1460 30 view .LVU1653
 5002 02c0 05F12C02 		add	r2, r5, #44
 5003 02c4 46F82230 		str	r3, [r6, r2, lsl #2]
1461:Middlewares/Third_Party/LibJPEG/source/jdhuff.c **** 	case (4*4-1):
 5004              		.loc 1 1461 4 is_stmt 1 view .LVU1654
 5005 02c8 8BE0     		b	.L372
 5006              	.LVL695:
 5007              	.L368:
1463:Middlewares/Third_Party/LibJPEG/source/jdhuff.c **** 	  if (i <= 0 || i > 4) i = 4;
 5008              		.loc 1 1463 4 view .LVU1655
1463:Middlewares/Third_Party/LibJPEG/source/jdhuff.c **** 	  if (i <= 0 || i > 4) i = 4;
 5009              		.loc 1 1463 16 is_stmt 0 view .LVU1656
 5010 02ca 511E     		subs	r1, r2, #1
1463:Middlewares/Third_Party/LibJPEG/source/jdhuff.c **** 	  if (i <= 0 || i > 4) i = 4;
 5011              		.loc 1 1463 7 view .LVU1657
 5012 02cc 0329     		cmp	r1, #3
 5013 02ce 00D9     		bls	.L377
1463:Middlewares/Third_Party/LibJPEG/source/jdhuff.c **** 	  if (i <= 0 || i > 4) i = 4;
 5014              		.loc 1 1463 30 discriminator 1 view .LVU1658
ARM GAS  /var/folders/mq/wg13gp494590nh4zyt09lxf00000gn/T//ccUYufpr.s 			page 130


 5015 02d0 0422     		movs	r2, #4
 5016              	.LVL696:
 5017              	.L377:
1464:Middlewares/Third_Party/LibJPEG/source/jdhuff.c **** 	  entropy->coef_limit[blkn] = 1 + jpeg_zigzag_order4[ci - 1][i - 1];
 5018              		.loc 1 1464 4 is_stmt 1 view .LVU1659
1464:Middlewares/Third_Party/LibJPEG/source/jdhuff.c **** 	  entropy->coef_limit[blkn] = 1 + jpeg_zigzag_order4[ci - 1][i - 1];
 5019              		.loc 1 1464 15 is_stmt 0 view .LVU1660
 5020 02d2 591E     		subs	r1, r3, #1
1464:Middlewares/Third_Party/LibJPEG/source/jdhuff.c **** 	  entropy->coef_limit[blkn] = 1 + jpeg_zigzag_order4[ci - 1][i - 1];
 5021              		.loc 1 1464 7 view .LVU1661
 5022 02d4 0329     		cmp	r1, #3
 5023 02d6 00D9     		bls	.L378
1464:Middlewares/Third_Party/LibJPEG/source/jdhuff.c **** 	  entropy->coef_limit[blkn] = 1 + jpeg_zigzag_order4[ci - 1][i - 1];
 5024              		.loc 1 1464 27 discriminator 1 view .LVU1662
 5025 02d8 0423     		movs	r3, #4
 5026              	.LVL697:
 5027              	.L378:
1465:Middlewares/Third_Party/LibJPEG/source/jdhuff.c **** 	  break;
 5028              		.loc 1 1465 4 is_stmt 1 view .LVU1663
1465:Middlewares/Third_Party/LibJPEG/source/jdhuff.c **** 	  break;
 5029              		.loc 1 1465 58 is_stmt 0 view .LVU1664
 5030 02da 013A     		subs	r2, r2, #1
 5031              	.LVL698:
1465:Middlewares/Third_Party/LibJPEG/source/jdhuff.c **** 	  break;
 5032              		.loc 1 1465 65 view .LVU1665
 5033 02dc 013B     		subs	r3, r3, #1
 5034              	.LVL699:
1465:Middlewares/Third_Party/LibJPEG/source/jdhuff.c **** 	  break;
 5035              		.loc 1 1465 62 view .LVU1666
 5036 02de 03EB8203 		add	r3, r3, r2, lsl #2
 5037              	.LVL700:
1465:Middlewares/Third_Party/LibJPEG/source/jdhuff.c **** 	  break;
 5038              		.loc 1 1465 62 view .LVU1667
 5039 02e2 384A     		ldr	r2, .L408+32
 5040              	.LVL701:
1465:Middlewares/Third_Party/LibJPEG/source/jdhuff.c **** 	  break;
 5041              		.loc 1 1465 62 view .LVU1668
 5042 02e4 52F82330 		ldr	r3, [r2, r3, lsl #2]
1465:Middlewares/Third_Party/LibJPEG/source/jdhuff.c **** 	  break;
 5043              		.loc 1 1465 34 view .LVU1669
 5044 02e8 0133     		adds	r3, r3, #1
1465:Middlewares/Third_Party/LibJPEG/source/jdhuff.c **** 	  break;
 5045              		.loc 1 1465 30 view .LVU1670
 5046 02ea 05F12C02 		add	r2, r5, #44
 5047 02ee 46F82230 		str	r3, [r6, r2, lsl #2]
1466:Middlewares/Third_Party/LibJPEG/source/jdhuff.c **** 	case (5*5-1):
 5048              		.loc 1 1466 4 is_stmt 1 view .LVU1671
 5049 02f2 76E0     		b	.L372
 5050              	.LVL702:
 5051              	.L367:
1468:Middlewares/Third_Party/LibJPEG/source/jdhuff.c **** 	  if (i <= 0 || i > 5) i = 5;
 5052              		.loc 1 1468 4 view .LVU1672
1468:Middlewares/Third_Party/LibJPEG/source/jdhuff.c **** 	  if (i <= 0 || i > 5) i = 5;
 5053              		.loc 1 1468 16 is_stmt 0 view .LVU1673
 5054 02f4 511E     		subs	r1, r2, #1
1468:Middlewares/Third_Party/LibJPEG/source/jdhuff.c **** 	  if (i <= 0 || i > 5) i = 5;
 5055              		.loc 1 1468 7 view .LVU1674
ARM GAS  /var/folders/mq/wg13gp494590nh4zyt09lxf00000gn/T//ccUYufpr.s 			page 131


 5056 02f6 0429     		cmp	r1, #4
 5057 02f8 00D9     		bls	.L379
1468:Middlewares/Third_Party/LibJPEG/source/jdhuff.c **** 	  if (i <= 0 || i > 5) i = 5;
 5058              		.loc 1 1468 30 discriminator 1 view .LVU1675
 5059 02fa 0522     		movs	r2, #5
 5060              	.LVL703:
 5061              	.L379:
1469:Middlewares/Third_Party/LibJPEG/source/jdhuff.c **** 	  entropy->coef_limit[blkn] = 1 + jpeg_zigzag_order5[ci - 1][i - 1];
 5062              		.loc 1 1469 4 is_stmt 1 view .LVU1676
1469:Middlewares/Third_Party/LibJPEG/source/jdhuff.c **** 	  entropy->coef_limit[blkn] = 1 + jpeg_zigzag_order5[ci - 1][i - 1];
 5063              		.loc 1 1469 15 is_stmt 0 view .LVU1677
 5064 02fc 591E     		subs	r1, r3, #1
1469:Middlewares/Third_Party/LibJPEG/source/jdhuff.c **** 	  entropy->coef_limit[blkn] = 1 + jpeg_zigzag_order5[ci - 1][i - 1];
 5065              		.loc 1 1469 7 view .LVU1678
 5066 02fe 0429     		cmp	r1, #4
 5067 0300 00D9     		bls	.L380
1469:Middlewares/Third_Party/LibJPEG/source/jdhuff.c **** 	  entropy->coef_limit[blkn] = 1 + jpeg_zigzag_order5[ci - 1][i - 1];
 5068              		.loc 1 1469 27 discriminator 1 view .LVU1679
 5069 0302 0523     		movs	r3, #5
 5070              	.LVL704:
 5071              	.L380:
1470:Middlewares/Third_Party/LibJPEG/source/jdhuff.c **** 	  break;
 5072              		.loc 1 1470 4 is_stmt 1 view .LVU1680
1470:Middlewares/Third_Party/LibJPEG/source/jdhuff.c **** 	  break;
 5073              		.loc 1 1470 58 is_stmt 0 view .LVU1681
 5074 0304 013A     		subs	r2, r2, #1
 5075              	.LVL705:
1470:Middlewares/Third_Party/LibJPEG/source/jdhuff.c **** 	  break;
 5076              		.loc 1 1470 65 view .LVU1682
 5077 0306 013B     		subs	r3, r3, #1
 5078              	.LVL706:
1470:Middlewares/Third_Party/LibJPEG/source/jdhuff.c **** 	  break;
 5079              		.loc 1 1470 62 view .LVU1683
 5080 0308 02EB8202 		add	r2, r2, r2, lsl #2
 5081              	.LVL707:
1470:Middlewares/Third_Party/LibJPEG/source/jdhuff.c **** 	  break;
 5082              		.loc 1 1470 62 view .LVU1684
 5083 030c 1344     		add	r3, r3, r2
 5084              	.LVL708:
1470:Middlewares/Third_Party/LibJPEG/source/jdhuff.c **** 	  break;
 5085              		.loc 1 1470 62 view .LVU1685
 5086 030e 2E4A     		ldr	r2, .L408+36
 5087 0310 52F82330 		ldr	r3, [r2, r3, lsl #2]
1470:Middlewares/Third_Party/LibJPEG/source/jdhuff.c **** 	  break;
 5088              		.loc 1 1470 34 view .LVU1686
 5089 0314 0133     		adds	r3, r3, #1
1470:Middlewares/Third_Party/LibJPEG/source/jdhuff.c **** 	  break;
 5090              		.loc 1 1470 30 view .LVU1687
 5091 0316 05F12C02 		add	r2, r5, #44
 5092 031a 46F82230 		str	r3, [r6, r2, lsl #2]
1471:Middlewares/Third_Party/LibJPEG/source/jdhuff.c **** 	case (6*6-1):
 5093              		.loc 1 1471 4 is_stmt 1 view .LVU1688
 5094 031e 60E0     		b	.L372
 5095              	.LVL709:
 5096              	.L366:
1473:Middlewares/Third_Party/LibJPEG/source/jdhuff.c **** 	  if (i <= 0 || i > 6) i = 6;
 5097              		.loc 1 1473 4 view .LVU1689
ARM GAS  /var/folders/mq/wg13gp494590nh4zyt09lxf00000gn/T//ccUYufpr.s 			page 132


1473:Middlewares/Third_Party/LibJPEG/source/jdhuff.c **** 	  if (i <= 0 || i > 6) i = 6;
 5098              		.loc 1 1473 16 is_stmt 0 view .LVU1690
 5099 0320 511E     		subs	r1, r2, #1
1473:Middlewares/Third_Party/LibJPEG/source/jdhuff.c **** 	  if (i <= 0 || i > 6) i = 6;
 5100              		.loc 1 1473 7 view .LVU1691
 5101 0322 0529     		cmp	r1, #5
 5102 0324 00D9     		bls	.L381
1473:Middlewares/Third_Party/LibJPEG/source/jdhuff.c **** 	  if (i <= 0 || i > 6) i = 6;
 5103              		.loc 1 1473 30 discriminator 1 view .LVU1692
 5104 0326 0622     		movs	r2, #6
 5105              	.LVL710:
 5106              	.L381:
1474:Middlewares/Third_Party/LibJPEG/source/jdhuff.c **** 	  entropy->coef_limit[blkn] = 1 + jpeg_zigzag_order6[ci - 1][i - 1];
 5107              		.loc 1 1474 4 is_stmt 1 view .LVU1693
1474:Middlewares/Third_Party/LibJPEG/source/jdhuff.c **** 	  entropy->coef_limit[blkn] = 1 + jpeg_zigzag_order6[ci - 1][i - 1];
 5108              		.loc 1 1474 15 is_stmt 0 view .LVU1694
 5109 0328 591E     		subs	r1, r3, #1
1474:Middlewares/Third_Party/LibJPEG/source/jdhuff.c **** 	  entropy->coef_limit[blkn] = 1 + jpeg_zigzag_order6[ci - 1][i - 1];
 5110              		.loc 1 1474 7 view .LVU1695
 5111 032a 0529     		cmp	r1, #5
 5112 032c 00D9     		bls	.L382
1474:Middlewares/Third_Party/LibJPEG/source/jdhuff.c **** 	  entropy->coef_limit[blkn] = 1 + jpeg_zigzag_order6[ci - 1][i - 1];
 5113              		.loc 1 1474 27 discriminator 1 view .LVU1696
 5114 032e 0623     		movs	r3, #6
 5115              	.LVL711:
 5116              	.L382:
1475:Middlewares/Third_Party/LibJPEG/source/jdhuff.c **** 	  break;
 5117              		.loc 1 1475 4 is_stmt 1 view .LVU1697
1475:Middlewares/Third_Party/LibJPEG/source/jdhuff.c **** 	  break;
 5118              		.loc 1 1475 58 is_stmt 0 view .LVU1698
 5119 0330 013A     		subs	r2, r2, #1
 5120              	.LVL712:
1475:Middlewares/Third_Party/LibJPEG/source/jdhuff.c **** 	  break;
 5121              		.loc 1 1475 65 view .LVU1699
 5122 0332 013B     		subs	r3, r3, #1
 5123              	.LVL713:
1475:Middlewares/Third_Party/LibJPEG/source/jdhuff.c **** 	  break;
 5124              		.loc 1 1475 62 view .LVU1700
 5125 0334 02EB4202 		add	r2, r2, r2, lsl #1
 5126              	.LVL714:
1475:Middlewares/Third_Party/LibJPEG/source/jdhuff.c **** 	  break;
 5127              		.loc 1 1475 62 view .LVU1701
 5128 0338 03EB4203 		add	r3, r3, r2, lsl #1
 5129              	.LVL715:
1475:Middlewares/Third_Party/LibJPEG/source/jdhuff.c **** 	  break;
 5130              		.loc 1 1475 62 view .LVU1702
 5131 033c 234A     		ldr	r2, .L408+40
 5132 033e 52F82330 		ldr	r3, [r2, r3, lsl #2]
1475:Middlewares/Third_Party/LibJPEG/source/jdhuff.c **** 	  break;
 5133              		.loc 1 1475 34 view .LVU1703
 5134 0342 0133     		adds	r3, r3, #1
1475:Middlewares/Third_Party/LibJPEG/source/jdhuff.c **** 	  break;
 5135              		.loc 1 1475 30 view .LVU1704
 5136 0344 05F12C02 		add	r2, r5, #44
 5137 0348 46F82230 		str	r3, [r6, r2, lsl #2]
1476:Middlewares/Third_Party/LibJPEG/source/jdhuff.c **** 	case (7*7-1):
 5138              		.loc 1 1476 4 is_stmt 1 view .LVU1705
ARM GAS  /var/folders/mq/wg13gp494590nh4zyt09lxf00000gn/T//ccUYufpr.s 			page 133


 5139 034c 49E0     		b	.L372
 5140              	.LVL716:
 5141              	.L364:
1478:Middlewares/Third_Party/LibJPEG/source/jdhuff.c **** 	  if (i <= 0 || i > 7) i = 7;
 5142              		.loc 1 1478 4 view .LVU1706
1478:Middlewares/Third_Party/LibJPEG/source/jdhuff.c **** 	  if (i <= 0 || i > 7) i = 7;
 5143              		.loc 1 1478 16 is_stmt 0 view .LVU1707
 5144 034e 511E     		subs	r1, r2, #1
1478:Middlewares/Third_Party/LibJPEG/source/jdhuff.c **** 	  if (i <= 0 || i > 7) i = 7;
 5145              		.loc 1 1478 7 view .LVU1708
 5146 0350 0629     		cmp	r1, #6
 5147 0352 00D9     		bls	.L383
1478:Middlewares/Third_Party/LibJPEG/source/jdhuff.c **** 	  if (i <= 0 || i > 7) i = 7;
 5148              		.loc 1 1478 30 discriminator 1 view .LVU1709
 5149 0354 0722     		movs	r2, #7
 5150              	.LVL717:
 5151              	.L383:
1479:Middlewares/Third_Party/LibJPEG/source/jdhuff.c **** 	  entropy->coef_limit[blkn] = 1 + jpeg_zigzag_order7[ci - 1][i - 1];
 5152              		.loc 1 1479 4 is_stmt 1 view .LVU1710
1479:Middlewares/Third_Party/LibJPEG/source/jdhuff.c **** 	  entropy->coef_limit[blkn] = 1 + jpeg_zigzag_order7[ci - 1][i - 1];
 5153              		.loc 1 1479 15 is_stmt 0 view .LVU1711
 5154 0356 591E     		subs	r1, r3, #1
1479:Middlewares/Third_Party/LibJPEG/source/jdhuff.c **** 	  entropy->coef_limit[blkn] = 1 + jpeg_zigzag_order7[ci - 1][i - 1];
 5155              		.loc 1 1479 7 view .LVU1712
 5156 0358 0629     		cmp	r1, #6
 5157 035a 00D9     		bls	.L384
1479:Middlewares/Third_Party/LibJPEG/source/jdhuff.c **** 	  entropy->coef_limit[blkn] = 1 + jpeg_zigzag_order7[ci - 1][i - 1];
 5158              		.loc 1 1479 27 discriminator 1 view .LVU1713
 5159 035c 0723     		movs	r3, #7
 5160              	.LVL718:
 5161              	.L384:
1480:Middlewares/Third_Party/LibJPEG/source/jdhuff.c **** 	  break;
 5162              		.loc 1 1480 4 is_stmt 1 view .LVU1714
1480:Middlewares/Third_Party/LibJPEG/source/jdhuff.c **** 	  break;
 5163              		.loc 1 1480 58 is_stmt 0 view .LVU1715
 5164 035e 013A     		subs	r2, r2, #1
 5165              	.LVL719:
1480:Middlewares/Third_Party/LibJPEG/source/jdhuff.c **** 	  break;
 5166              		.loc 1 1480 65 view .LVU1716
 5167 0360 013B     		subs	r3, r3, #1
 5168              	.LVL720:
1480:Middlewares/Third_Party/LibJPEG/source/jdhuff.c **** 	  break;
 5169              		.loc 1 1480 62 view .LVU1717
 5170 0362 C2EBC202 		rsb	r2, r2, r2, lsl #3
 5171              	.LVL721:
1480:Middlewares/Third_Party/LibJPEG/source/jdhuff.c **** 	  break;
 5172              		.loc 1 1480 62 view .LVU1718
 5173 0366 1344     		add	r3, r3, r2
 5174              	.LVL722:
1480:Middlewares/Third_Party/LibJPEG/source/jdhuff.c **** 	  break;
 5175              		.loc 1 1480 62 view .LVU1719
 5176 0368 194A     		ldr	r2, .L408+44
 5177 036a 52F82330 		ldr	r3, [r2, r3, lsl #2]
1480:Middlewares/Third_Party/LibJPEG/source/jdhuff.c **** 	  break;
 5178              		.loc 1 1480 34 view .LVU1720
 5179 036e 0133     		adds	r3, r3, #1
1480:Middlewares/Third_Party/LibJPEG/source/jdhuff.c **** 	  break;
ARM GAS  /var/folders/mq/wg13gp494590nh4zyt09lxf00000gn/T//ccUYufpr.s 			page 134


 5180              		.loc 1 1480 30 view .LVU1721
 5181 0370 05F12C02 		add	r2, r5, #44
 5182 0374 46F82230 		str	r3, [r6, r2, lsl #2]
1481:Middlewares/Third_Party/LibJPEG/source/jdhuff.c **** 	default:
 5183              		.loc 1 1481 4 is_stmt 1 view .LVU1722
 5184 0378 33E0     		b	.L372
 5185              	.LVL723:
 5186              	.L363:
1483:Middlewares/Third_Party/LibJPEG/source/jdhuff.c **** 	  if (i <= 0 || i > 8) i = 8;
 5187              		.loc 1 1483 4 view .LVU1723
1483:Middlewares/Third_Party/LibJPEG/source/jdhuff.c **** 	  if (i <= 0 || i > 8) i = 8;
 5188              		.loc 1 1483 16 is_stmt 0 view .LVU1724
 5189 037a 511E     		subs	r1, r2, #1
1483:Middlewares/Third_Party/LibJPEG/source/jdhuff.c **** 	  if (i <= 0 || i > 8) i = 8;
 5190              		.loc 1 1483 7 view .LVU1725
 5191 037c 0729     		cmp	r1, #7
 5192 037e 00D9     		bls	.L385
1483:Middlewares/Third_Party/LibJPEG/source/jdhuff.c **** 	  if (i <= 0 || i > 8) i = 8;
 5193              		.loc 1 1483 30 discriminator 1 view .LVU1726
 5194 0380 0822     		movs	r2, #8
 5195              	.LVL724:
 5196              	.L385:
1484:Middlewares/Third_Party/LibJPEG/source/jdhuff.c **** 	  entropy->coef_limit[blkn] = 1 + jpeg_zigzag_order[ci - 1][i - 1];
 5197              		.loc 1 1484 4 is_stmt 1 view .LVU1727
1484:Middlewares/Third_Party/LibJPEG/source/jdhuff.c **** 	  entropy->coef_limit[blkn] = 1 + jpeg_zigzag_order[ci - 1][i - 1];
 5198              		.loc 1 1484 15 is_stmt 0 view .LVU1728
 5199 0382 591E     		subs	r1, r3, #1
1484:Middlewares/Third_Party/LibJPEG/source/jdhuff.c **** 	  entropy->coef_limit[blkn] = 1 + jpeg_zigzag_order[ci - 1][i - 1];
 5200              		.loc 1 1484 7 view .LVU1729
 5201 0384 0729     		cmp	r1, #7
 5202 0386 00D9     		bls	.L386
1484:Middlewares/Third_Party/LibJPEG/source/jdhuff.c **** 	  entropy->coef_limit[blkn] = 1 + jpeg_zigzag_order[ci - 1][i - 1];
 5203              		.loc 1 1484 27 discriminator 1 view .LVU1730
 5204 0388 0823     		movs	r3, #8
 5205              	.LVL725:
 5206              	.L386:
1485:Middlewares/Third_Party/LibJPEG/source/jdhuff.c **** 	  break;
 5207              		.loc 1 1485 4 is_stmt 1 view .LVU1731
1485:Middlewares/Third_Party/LibJPEG/source/jdhuff.c **** 	  break;
 5208              		.loc 1 1485 57 is_stmt 0 view .LVU1732
 5209 038a 013A     		subs	r2, r2, #1
 5210              	.LVL726:
1485:Middlewares/Third_Party/LibJPEG/source/jdhuff.c **** 	  break;
 5211              		.loc 1 1485 64 view .LVU1733
 5212 038c 013B     		subs	r3, r3, #1
 5213              	.LVL727:
1485:Middlewares/Third_Party/LibJPEG/source/jdhuff.c **** 	  break;
 5214              		.loc 1 1485 61 view .LVU1734
 5215 038e 03EBC203 		add	r3, r3, r2, lsl #3
 5216              	.LVL728:
1485:Middlewares/Third_Party/LibJPEG/source/jdhuff.c **** 	  break;
 5217              		.loc 1 1485 61 view .LVU1735
 5218 0392 104A     		ldr	r2, .L408+48
 5219              	.LVL729:
1485:Middlewares/Third_Party/LibJPEG/source/jdhuff.c **** 	  break;
 5220              		.loc 1 1485 61 view .LVU1736
 5221 0394 52F82330 		ldr	r3, [r2, r3, lsl #2]
ARM GAS  /var/folders/mq/wg13gp494590nh4zyt09lxf00000gn/T//ccUYufpr.s 			page 135


1485:Middlewares/Third_Party/LibJPEG/source/jdhuff.c **** 	  break;
 5222              		.loc 1 1485 34 view .LVU1737
 5223 0398 0133     		adds	r3, r3, #1
1485:Middlewares/Third_Party/LibJPEG/source/jdhuff.c **** 	  break;
 5224              		.loc 1 1485 30 view .LVU1738
 5225 039a 05F12C02 		add	r2, r5, #44
 5226 039e 46F82230 		str	r3, [r6, r2, lsl #2]
1486:Middlewares/Third_Party/LibJPEG/source/jdhuff.c **** 	}
 5227              		.loc 1 1486 4 is_stmt 1 view .LVU1739
 5228 03a2 1EE0     		b	.L372
 5229              	.L409:
 5230              		.align	2
 5231              	.L408:
 5232 03a4 00000000 		.word	decode_mcu_DC_first
 5233 03a8 00000000 		.word	decode_mcu_AC_first
 5234 03ac 00000000 		.word	decode_mcu_DC_refine
 5235 03b0 00000000 		.word	decode_mcu_AC_refine
 5236 03b4 00000000 		.word	decode_mcu_sub
 5237 03b8 00000000 		.word	decode_mcu
 5238 03bc 00000000 		.word	jpeg_zigzag_order2
 5239 03c0 00000000 		.word	jpeg_zigzag_order3
 5240 03c4 00000000 		.word	jpeg_zigzag_order4
 5241 03c8 00000000 		.word	jpeg_zigzag_order5
 5242 03cc 00000000 		.word	jpeg_zigzag_order6
 5243 03d0 00000000 		.word	jpeg_zigzag_order7
 5244 03d4 00000000 		.word	jpeg_zigzag_order
 5245              	.LVL730:
 5246              	.L362:
1489:Middlewares/Third_Party/LibJPEG/source/jdhuff.c ****       }
 5247              		.loc 1 1489 2 view .LVU1740
1489:Middlewares/Third_Party/LibJPEG/source/jdhuff.c ****       }
 5248              		.loc 1 1489 28 is_stmt 0 view .LVU1741
 5249 03d8 05F12C03 		add	r3, r5, #44
 5250              	.LVL731:
1489:Middlewares/Third_Party/LibJPEG/source/jdhuff.c ****       }
 5251              		.loc 1 1489 28 view .LVU1742
 5252 03dc 0022     		movs	r2, #0
 5253 03de 46F82320 		str	r2, [r6, r3, lsl #2]
 5254              	.LVL732:
 5255              	.L372:
1438:Middlewares/Third_Party/LibJPEG/source/jdhuff.c ****       ci = cinfo->MCU_membership[blkn];
 5256              		.loc 1 1438 53 is_stmt 1 discriminator 2 view .LVU1743
 5257 03e2 0135     		adds	r5, r5, #1
 5258              	.LVL733:
 5259              	.L361:
1438:Middlewares/Third_Party/LibJPEG/source/jdhuff.c ****       ci = cinfo->MCU_membership[blkn];
 5260              		.loc 1 1438 25 discriminator 1 view .LVU1744
1438:Middlewares/Third_Party/LibJPEG/source/jdhuff.c ****       ci = cinfo->MCU_membership[blkn];
 5261              		.loc 1 1438 32 is_stmt 0 discriminator 1 view .LVU1745
 5262 03e4 D4F86C31 		ldr	r3, [r4, #364]
1438:Middlewares/Third_Party/LibJPEG/source/jdhuff.c ****       ci = cinfo->MCU_membership[blkn];
 5263              		.loc 1 1438 25 discriminator 1 view .LVU1746
 5264 03e8 AB42     		cmp	r3, r5
 5265 03ea 7FF7E0AE 		ble	.L352
1439:Middlewares/Third_Party/LibJPEG/source/jdhuff.c ****       compptr = cinfo->cur_comp_info[ci];
 5266              		.loc 1 1439 7 is_stmt 1 view .LVU1747
1439:Middlewares/Third_Party/LibJPEG/source/jdhuff.c ****       compptr = cinfo->cur_comp_info[ci];
ARM GAS  /var/folders/mq/wg13gp494590nh4zyt09lxf00000gn/T//ccUYufpr.s 			page 136


 5267              		.loc 1 1439 10 is_stmt 0 view .LVU1748
 5268 03ee 05F15C03 		add	r3, r5, #92
 5269 03f2 54F82330 		ldr	r3, [r4, r3, lsl #2]
 5270              	.LVL734:
1440:Middlewares/Third_Party/LibJPEG/source/jdhuff.c ****       /* Precalculate which table to use for each block */
 5271              		.loc 1 1440 7 is_stmt 1 view .LVU1749
1440:Middlewares/Third_Party/LibJPEG/source/jdhuff.c ****       /* Precalculate which table to use for each block */
 5272              		.loc 1 1440 15 is_stmt 0 view .LVU1750
 5273 03f6 5433     		adds	r3, r3, #84
 5274              	.LVL735:
1440:Middlewares/Third_Party/LibJPEG/source/jdhuff.c ****       /* Precalculate which table to use for each block */
 5275              		.loc 1 1440 15 view .LVU1751
 5276 03f8 04EB8303 		add	r3, r4, r3, lsl #2
 5277 03fc 5B68     		ldr	r3, [r3, #4]
 5278              	.LVL736:
1442:Middlewares/Third_Party/LibJPEG/source/jdhuff.c ****       entropy->ac_cur_tbls[blkn] = entropy->ac_derived_tbls[compptr->ac_tbl_no];
 5279              		.loc 1 1442 7 is_stmt 1 view .LVU1752
1442:Middlewares/Third_Party/LibJPEG/source/jdhuff.c ****       entropy->ac_cur_tbls[blkn] = entropy->ac_derived_tbls[compptr->ac_tbl_no];
 5280              		.loc 1 1442 68 is_stmt 0 view .LVU1753
 5281 03fe 5A69     		ldr	r2, [r3, #20]
1442:Middlewares/Third_Party/LibJPEG/source/jdhuff.c ****       entropy->ac_cur_tbls[blkn] = entropy->ac_derived_tbls[compptr->ac_tbl_no];
 5282              		.loc 1 1442 60 view .LVU1754
 5283 0400 1032     		adds	r2, r2, #16
 5284 0402 56F82210 		ldr	r1, [r6, r2, lsl #2]
1442:Middlewares/Third_Party/LibJPEG/source/jdhuff.c ****       entropy->ac_cur_tbls[blkn] = entropy->ac_derived_tbls[compptr->ac_tbl_no];
 5285              		.loc 1 1442 34 view .LVU1755
 5286 0406 05F11802 		add	r2, r5, #24
 5287 040a 46F82210 		str	r1, [r6, r2, lsl #2]
 5288              	.LVL737:
1443:Middlewares/Third_Party/LibJPEG/source/jdhuff.c ****       /* Decide whether we really care about the coefficient values */
 5289              		.loc 1 1443 7 is_stmt 1 view .LVU1756
1443:Middlewares/Third_Party/LibJPEG/source/jdhuff.c ****       /* Decide whether we really care about the coefficient values */
 5290              		.loc 1 1443 68 is_stmt 0 view .LVU1757
 5291 040e 9A69     		ldr	r2, [r3, #24]
1443:Middlewares/Third_Party/LibJPEG/source/jdhuff.c ****       /* Decide whether we really care about the coefficient values */
 5292              		.loc 1 1443 60 view .LVU1758
 5293 0410 1432     		adds	r2, r2, #20
 5294 0412 56F82210 		ldr	r1, [r6, r2, lsl #2]
1443:Middlewares/Third_Party/LibJPEG/source/jdhuff.c ****       /* Decide whether we really care about the coefficient values */
 5295              		.loc 1 1443 34 view .LVU1759
 5296 0416 05F12202 		add	r2, r5, #34
 5297 041a 46F82210 		str	r1, [r6, r2, lsl #2]
1445:Middlewares/Third_Party/LibJPEG/source/jdhuff.c **** 	ci = compptr->DCT_v_scaled_size;
 5298              		.loc 1 1445 7 is_stmt 1 view .LVU1760
1445:Middlewares/Third_Party/LibJPEG/source/jdhuff.c **** 	ci = compptr->DCT_v_scaled_size;
 5299              		.loc 1 1445 18 is_stmt 0 view .LVU1761
 5300 041e 5A6B     		ldr	r2, [r3, #52]
1445:Middlewares/Third_Party/LibJPEG/source/jdhuff.c **** 	ci = compptr->DCT_v_scaled_size;
 5301              		.loc 1 1445 10 view .LVU1762
 5302 0420 002A     		cmp	r2, #0
 5303 0422 D9D0     		beq	.L362
1446:Middlewares/Third_Party/LibJPEG/source/jdhuff.c **** 	i = compptr->DCT_h_scaled_size;
 5304              		.loc 1 1446 2 is_stmt 1 view .LVU1763
1446:Middlewares/Third_Party/LibJPEG/source/jdhuff.c **** 	i = compptr->DCT_h_scaled_size;
 5305              		.loc 1 1446 5 is_stmt 0 view .LVU1764
 5306 0424 9A6A     		ldr	r2, [r3, #40]
 5307              	.LVL738:
ARM GAS  /var/folders/mq/wg13gp494590nh4zyt09lxf00000gn/T//ccUYufpr.s 			page 137


1447:Middlewares/Third_Party/LibJPEG/source/jdhuff.c **** 	switch (cinfo->lim_Se) {
 5308              		.loc 1 1447 2 is_stmt 1 view .LVU1765
1447:Middlewares/Third_Party/LibJPEG/source/jdhuff.c **** 	switch (cinfo->lim_Se) {
 5309              		.loc 1 1447 4 is_stmt 0 view .LVU1766
 5310 0426 5B6A     		ldr	r3, [r3, #36]
 5311              	.LVL739:
1448:Middlewares/Third_Party/LibJPEG/source/jdhuff.c **** 	case (1*1-1):
 5312              		.loc 1 1448 2 is_stmt 1 view .LVU1767
1448:Middlewares/Third_Party/LibJPEG/source/jdhuff.c **** 	case (1*1-1):
 5313              		.loc 1 1448 15 is_stmt 0 view .LVU1768
 5314 0428 D4F8B011 		ldr	r1, [r4, #432]
1448:Middlewares/Third_Party/LibJPEG/source/jdhuff.c **** 	case (1*1-1):
 5315              		.loc 1 1448 2 view .LVU1769
 5316 042c 3029     		cmp	r1, #48
 5317 042e A4D8     		bhi	.L363
 5318 0430 01A0     		adr	r0, .L365
 5319 0432 50F821F0 		ldr	pc, [r0, r1, lsl #2]
 5320 0436 00BF     		.p2align 2
 5321              	.L365:
 5322 0438 69020000 		.word	.L371+1
 5323 043c 7B030000 		.word	.L363+1
 5324 0440 7B030000 		.word	.L363+1
 5325 0444 75020000 		.word	.L370+1
 5326 0448 7B030000 		.word	.L363+1
 5327 044c 7B030000 		.word	.L363+1
 5328 0450 7B030000 		.word	.L363+1
 5329 0454 7B030000 		.word	.L363+1
 5330 0458 9F020000 		.word	.L369+1
 5331 045c 7B030000 		.word	.L363+1
 5332 0460 7B030000 		.word	.L363+1
 5333 0464 7B030000 		.word	.L363+1
 5334 0468 7B030000 		.word	.L363+1
 5335 046c 7B030000 		.word	.L363+1
 5336 0470 7B030000 		.word	.L363+1
 5337 0474 CB020000 		.word	.L368+1
 5338 0478 7B030000 		.word	.L363+1
 5339 047c 7B030000 		.word	.L363+1
 5340 0480 7B030000 		.word	.L363+1
 5341 0484 7B030000 		.word	.L363+1
 5342 0488 7B030000 		.word	.L363+1
 5343 048c 7B030000 		.word	.L363+1
 5344 0490 7B030000 		.word	.L363+1
 5345 0494 7B030000 		.word	.L363+1
 5346 0498 F5020000 		.word	.L367+1
 5347 049c 7B030000 		.word	.L363+1
 5348 04a0 7B030000 		.word	.L363+1
 5349 04a4 7B030000 		.word	.L363+1
 5350 04a8 7B030000 		.word	.L363+1
 5351 04ac 7B030000 		.word	.L363+1
 5352 04b0 7B030000 		.word	.L363+1
 5353 04b4 7B030000 		.word	.L363+1
 5354 04b8 7B030000 		.word	.L363+1
 5355 04bc 7B030000 		.word	.L363+1
 5356 04c0 7B030000 		.word	.L363+1
 5357 04c4 21030000 		.word	.L366+1
 5358 04c8 7B030000 		.word	.L363+1
 5359 04cc 7B030000 		.word	.L363+1
ARM GAS  /var/folders/mq/wg13gp494590nh4zyt09lxf00000gn/T//ccUYufpr.s 			page 138


 5360 04d0 7B030000 		.word	.L363+1
 5361 04d4 7B030000 		.word	.L363+1
 5362 04d8 7B030000 		.word	.L363+1
 5363 04dc 7B030000 		.word	.L363+1
 5364 04e0 7B030000 		.word	.L363+1
 5365 04e4 7B030000 		.word	.L363+1
 5366 04e8 7B030000 		.word	.L363+1
 5367 04ec 7B030000 		.word	.L363+1
 5368 04f0 7B030000 		.word	.L363+1
 5369 04f4 7B030000 		.word	.L363+1
 5370 04f8 4F030000 		.word	.L364+1
 5371              		.cfi_endproc
 5372              	.LFE157:
 5374              		.section	.text.jinit_huff_decoder,"ax",%progbits
 5375              		.align	1
 5376              		.global	jinit_huff_decoder
 5377              		.syntax unified
 5378              		.thumb
 5379              		.thumb_func
 5381              	jinit_huff_decoder:
 5382              	.LVL740:
 5383              	.LFB158:
1502:Middlewares/Third_Party/LibJPEG/source/jdhuff.c **** 
1503:Middlewares/Third_Party/LibJPEG/source/jdhuff.c **** 
1504:Middlewares/Third_Party/LibJPEG/source/jdhuff.c **** /*
1505:Middlewares/Third_Party/LibJPEG/source/jdhuff.c ****  * Module initialization routine for Huffman entropy decoding.
1506:Middlewares/Third_Party/LibJPEG/source/jdhuff.c ****  */
1507:Middlewares/Third_Party/LibJPEG/source/jdhuff.c **** 
1508:Middlewares/Third_Party/LibJPEG/source/jdhuff.c **** GLOBAL(void)
1509:Middlewares/Third_Party/LibJPEG/source/jdhuff.c **** jinit_huff_decoder (j_decompress_ptr cinfo)
1510:Middlewares/Third_Party/LibJPEG/source/jdhuff.c **** {
 5384              		.loc 1 1510 1 is_stmt 1 view -0
 5385              		.cfi_startproc
 5386              		@ args = 0, pretend = 0, frame = 0
 5387              		@ frame_needed = 0, uses_anonymous_args = 0
 5388              		.loc 1 1510 1 is_stmt 0 view .LVU1771
 5389 0000 38B5     		push	{r3, r4, r5, lr}
 5390              	.LCFI31:
 5391              		.cfi_def_cfa_offset 16
 5392              		.cfi_offset 3, -16
 5393              		.cfi_offset 4, -12
 5394              		.cfi_offset 5, -8
 5395              		.cfi_offset 14, -4
 5396 0002 0446     		mov	r4, r0
1511:Middlewares/Third_Party/LibJPEG/source/jdhuff.c ****   huff_entropy_ptr entropy;
 5397              		.loc 1 1511 3 is_stmt 1 view .LVU1772
1512:Middlewares/Third_Party/LibJPEG/source/jdhuff.c ****   int i;
 5398              		.loc 1 1512 3 view .LVU1773
1513:Middlewares/Third_Party/LibJPEG/source/jdhuff.c **** 
1514:Middlewares/Third_Party/LibJPEG/source/jdhuff.c ****   entropy = (huff_entropy_ptr)
 5399              		.loc 1 1514 3 view .LVU1774
1515:Middlewares/Third_Party/LibJPEG/source/jdhuff.c ****     (*cinfo->mem->alloc_small) ((j_common_ptr) cinfo, JPOOL_IMAGE,
 5400              		.loc 1 1515 12 is_stmt 0 view .LVU1775
 5401 0004 4368     		ldr	r3, [r0, #4]
 5402              		.loc 1 1515 6 view .LVU1776
 5403 0006 1B68     		ldr	r3, [r3]
 5404 0008 D822     		movs	r2, #216
ARM GAS  /var/folders/mq/wg13gp494590nh4zyt09lxf00000gn/T//ccUYufpr.s 			page 139


 5405 000a 0121     		movs	r1, #1
 5406 000c 9847     		blx	r3
 5407              	.LVL741:
 5408              		.loc 1 1515 6 view .LVU1777
 5409 000e 0546     		mov	r5, r0
 5410              	.LVL742:
1516:Middlewares/Third_Party/LibJPEG/source/jdhuff.c **** 				SIZEOF(huff_entropy_decoder));
1517:Middlewares/Third_Party/LibJPEG/source/jdhuff.c ****   cinfo->entropy = (struct jpeg_entropy_decoder *) entropy;
 5411              		.loc 1 1517 3 is_stmt 1 view .LVU1778
 5412              		.loc 1 1517 18 is_stmt 0 view .LVU1779
 5413 0010 C4F8D001 		str	r0, [r4, #464]
1518:Middlewares/Third_Party/LibJPEG/source/jdhuff.c ****   entropy->pub.start_pass = start_pass_huff_decoder;
 5414              		.loc 1 1518 3 is_stmt 1 view .LVU1780
 5415              		.loc 1 1518 27 is_stmt 0 view .LVU1781
 5416 0014 1B4B     		ldr	r3, .L422
 5417 0016 0360     		str	r3, [r0]
1519:Middlewares/Third_Party/LibJPEG/source/jdhuff.c **** 
1520:Middlewares/Third_Party/LibJPEG/source/jdhuff.c ****   if (cinfo->progressive_mode) {
 5418              		.loc 1 1520 3 is_stmt 1 view .LVU1782
 5419              		.loc 1 1520 12 is_stmt 0 view .LVU1783
 5420 0018 D4F8E030 		ldr	r3, [r4, #224]
 5421              		.loc 1 1520 6 view .LVU1784
 5422 001c 73B3     		cbz	r3, .L411
 5423              	.LBB42:
1521:Middlewares/Third_Party/LibJPEG/source/jdhuff.c ****     /* Create progression status table */
1522:Middlewares/Third_Party/LibJPEG/source/jdhuff.c ****     int *coef_bit_ptr, ci;
 5424              		.loc 1 1522 5 is_stmt 1 view .LVU1785
1523:Middlewares/Third_Party/LibJPEG/source/jdhuff.c ****     cinfo->coef_bits = (int (*)[DCTSIZE2])
 5425              		.loc 1 1523 5 view .LVU1786
1524:Middlewares/Third_Party/LibJPEG/source/jdhuff.c ****       (*cinfo->mem->alloc_small) ((j_common_ptr) cinfo, JPOOL_IMAGE,
 5426              		.loc 1 1524 14 is_stmt 0 view .LVU1787
 5427 001e 6368     		ldr	r3, [r4, #4]
1525:Middlewares/Third_Party/LibJPEG/source/jdhuff.c **** 				  cinfo->num_components*DCTSIZE2*SIZEOF(int));
 5428              		.loc 1 1525 12 view .LVU1788
 5429 0020 626A     		ldr	r2, [r4, #36]
1524:Middlewares/Third_Party/LibJPEG/source/jdhuff.c ****       (*cinfo->mem->alloc_small) ((j_common_ptr) cinfo, JPOOL_IMAGE,
 5430              		.loc 1 1524 8 view .LVU1789
 5431 0022 1B68     		ldr	r3, [r3]
 5432 0024 1202     		lsls	r2, r2, #8
 5433 0026 0121     		movs	r1, #1
 5434 0028 2046     		mov	r0, r4
 5435              	.LVL743:
1524:Middlewares/Third_Party/LibJPEG/source/jdhuff.c ****       (*cinfo->mem->alloc_small) ((j_common_ptr) cinfo, JPOOL_IMAGE,
 5436              		.loc 1 1524 8 view .LVU1790
 5437 002a 9847     		blx	r3
 5438              	.LVL744:
 5439 002c 0346     		mov	r3, r0
1523:Middlewares/Third_Party/LibJPEG/source/jdhuff.c ****     cinfo->coef_bits = (int (*)[DCTSIZE2])
 5440              		.loc 1 1523 22 view .LVU1791
 5441 002e C4F8A000 		str	r0, [r4, #160]
1526:Middlewares/Third_Party/LibJPEG/source/jdhuff.c ****     coef_bit_ptr = & cinfo->coef_bits[0][0];
 5442              		.loc 1 1526 5 is_stmt 1 view .LVU1792
 5443              	.LVL745:
1527:Middlewares/Third_Party/LibJPEG/source/jdhuff.c ****     for (ci = 0; ci < cinfo->num_components; ci++)
 5444              		.loc 1 1527 5 view .LVU1793
 5445              		.loc 1 1527 13 is_stmt 0 view .LVU1794
 5446 0032 0020     		movs	r0, #0
ARM GAS  /var/folders/mq/wg13gp494590nh4zyt09lxf00000gn/T//ccUYufpr.s 			page 140


 5447              	.LVL746:
 5448              		.loc 1 1527 5 view .LVU1795
 5449 0034 07E0     		b	.L412
 5450              	.LVL747:
 5451              	.L413:
1528:Middlewares/Third_Party/LibJPEG/source/jdhuff.c ****       for (i = 0; i < DCTSIZE2; i++)
1529:Middlewares/Third_Party/LibJPEG/source/jdhuff.c **** 	*coef_bit_ptr++ = -1;
 5452              		.loc 1 1529 2 is_stmt 1 view .LVU1796
 5453              		.loc 1 1529 18 is_stmt 0 view .LVU1797
 5454 0036 4FF0FF31 		mov	r1, #-1
 5455 003a 43F8041B 		str	r1, [r3], #4
 5456              	.LVL748:
1528:Middlewares/Third_Party/LibJPEG/source/jdhuff.c ****       for (i = 0; i < DCTSIZE2; i++)
 5457              		.loc 1 1528 34 is_stmt 1 discriminator 3 view .LVU1798
 5458 003e 0132     		adds	r2, r2, #1
 5459              	.LVL749:
 5460              	.L414:
1528:Middlewares/Third_Party/LibJPEG/source/jdhuff.c ****       for (i = 0; i < DCTSIZE2; i++)
 5461              		.loc 1 1528 21 discriminator 1 view .LVU1799
 5462 0040 3F2A     		cmp	r2, #63
 5463 0042 F8DD     		ble	.L413
1527:Middlewares/Third_Party/LibJPEG/source/jdhuff.c ****     for (ci = 0; ci < cinfo->num_components; ci++)
 5464              		.loc 1 1527 48 discriminator 2 view .LVU1800
 5465 0044 0130     		adds	r0, r0, #1
 5466              	.LVL750:
 5467              	.L412:
1527:Middlewares/Third_Party/LibJPEG/source/jdhuff.c ****     for (ci = 0; ci < cinfo->num_components; ci++)
 5468              		.loc 1 1527 21 discriminator 1 view .LVU1801
1527:Middlewares/Third_Party/LibJPEG/source/jdhuff.c ****     for (ci = 0; ci < cinfo->num_components; ci++)
 5469              		.loc 1 1527 28 is_stmt 0 discriminator 1 view .LVU1802
 5470 0046 626A     		ldr	r2, [r4, #36]
1527:Middlewares/Third_Party/LibJPEG/source/jdhuff.c ****     for (ci = 0; ci < cinfo->num_components; ci++)
 5471              		.loc 1 1527 21 discriminator 1 view .LVU1803
 5472 0048 8242     		cmp	r2, r0
 5473 004a 01DD     		ble	.L421
1528:Middlewares/Third_Party/LibJPEG/source/jdhuff.c ****       for (i = 0; i < DCTSIZE2; i++)
 5474              		.loc 1 1528 14 view .LVU1804
 5475 004c 0022     		movs	r2, #0
 5476 004e F7E7     		b	.L414
 5477              	.L421:
1530:Middlewares/Third_Party/LibJPEG/source/jdhuff.c **** 
1531:Middlewares/Third_Party/LibJPEG/source/jdhuff.c ****     /* Mark derived tables unallocated */
1532:Middlewares/Third_Party/LibJPEG/source/jdhuff.c ****     for (i = 0; i < NUM_HUFF_TBLS; i++) {
 5478              		.loc 1 1532 12 view .LVU1805
 5479 0050 0023     		movs	r3, #0
 5480 0052 06E0     		b	.L415
 5481              	.LVL751:
 5482              	.L416:
1533:Middlewares/Third_Party/LibJPEG/source/jdhuff.c ****       entropy->derived_tbls[i] = NULL;
 5483              		.loc 1 1533 7 is_stmt 1 view .LVU1806
 5484              		.loc 1 1533 32 is_stmt 0 view .LVU1807
 5485 0054 03F10A02 		add	r2, r3, #10
 5486 0058 05EB8202 		add	r2, r5, r2, lsl #2
 5487 005c 0021     		movs	r1, #0
 5488 005e 5160     		str	r1, [r2, #4]
1532:Middlewares/Third_Party/LibJPEG/source/jdhuff.c ****       entropy->derived_tbls[i] = NULL;
 5489              		.loc 1 1532 37 is_stmt 1 discriminator 3 view .LVU1808
ARM GAS  /var/folders/mq/wg13gp494590nh4zyt09lxf00000gn/T//ccUYufpr.s 			page 141


 5490 0060 0133     		adds	r3, r3, #1
 5491              	.LVL752:
 5492              	.L415:
1532:Middlewares/Third_Party/LibJPEG/source/jdhuff.c ****       entropy->derived_tbls[i] = NULL;
 5493              		.loc 1 1532 19 discriminator 1 view .LVU1809
 5494 0062 032B     		cmp	r3, #3
 5495 0064 F6DD     		ble	.L416
 5496              	.LVL753:
 5497              	.L410:
1532:Middlewares/Third_Party/LibJPEG/source/jdhuff.c ****       entropy->derived_tbls[i] = NULL;
 5498              		.loc 1 1532 19 is_stmt 0 discriminator 1 view .LVU1810
 5499              	.LBE42:
1534:Middlewares/Third_Party/LibJPEG/source/jdhuff.c ****     }
1535:Middlewares/Third_Party/LibJPEG/source/jdhuff.c ****   } else {
1536:Middlewares/Third_Party/LibJPEG/source/jdhuff.c ****     /* Mark tables unallocated */
1537:Middlewares/Third_Party/LibJPEG/source/jdhuff.c ****     for (i = 0; i < NUM_HUFF_TBLS; i++) {
1538:Middlewares/Third_Party/LibJPEG/source/jdhuff.c ****       entropy->dc_derived_tbls[i] = entropy->ac_derived_tbls[i] = NULL;
1539:Middlewares/Third_Party/LibJPEG/source/jdhuff.c ****     }
1540:Middlewares/Third_Party/LibJPEG/source/jdhuff.c ****   }
1541:Middlewares/Third_Party/LibJPEG/source/jdhuff.c **** }
 5500              		.loc 1 1541 1 view .LVU1811
 5501 0066 38BD     		pop	{r3, r4, r5, pc}
 5502              	.LVL754:
 5503              	.L418:
1538:Middlewares/Third_Party/LibJPEG/source/jdhuff.c ****     }
 5504              		.loc 1 1538 7 is_stmt 1 view .LVU1812
1538:Middlewares/Third_Party/LibJPEG/source/jdhuff.c ****     }
 5505              		.loc 1 1538 65 is_stmt 0 view .LVU1813
 5506 0068 03F11401 		add	r1, r3, #20
 5507 006c 0022     		movs	r2, #0
 5508 006e 45F82120 		str	r2, [r5, r1, lsl #2]
1538:Middlewares/Third_Party/LibJPEG/source/jdhuff.c ****     }
 5509              		.loc 1 1538 35 view .LVU1814
 5510 0072 03F11001 		add	r1, r3, #16
 5511 0076 45F82120 		str	r2, [r5, r1, lsl #2]
1537:Middlewares/Third_Party/LibJPEG/source/jdhuff.c ****       entropy->dc_derived_tbls[i] = entropy->ac_derived_tbls[i] = NULL;
 5512              		.loc 1 1537 37 is_stmt 1 discriminator 3 view .LVU1815
 5513 007a 0133     		adds	r3, r3, #1
 5514              	.LVL755:
 5515              	.L411:
1537:Middlewares/Third_Party/LibJPEG/source/jdhuff.c ****       entropy->dc_derived_tbls[i] = entropy->ac_derived_tbls[i] = NULL;
 5516              		.loc 1 1537 19 discriminator 1 view .LVU1816
 5517 007c 032B     		cmp	r3, #3
 5518 007e F3DD     		ble	.L418
 5519 0080 F1E7     		b	.L410
 5520              	.L423:
 5521 0082 00BF     		.align	2
 5522              	.L422:
 5523 0084 00000000 		.word	start_pass_huff_decoder
 5524              		.cfi_endproc
 5525              	.LFE158:
 5527              		.section	.rodata.bmask,"a"
 5528              		.align	2
 5531              	bmask:
 5532 0000 00000000 		.word	0
 5533 0004 01000000 		.word	1
 5534 0008 03000000 		.word	3
ARM GAS  /var/folders/mq/wg13gp494590nh4zyt09lxf00000gn/T//ccUYufpr.s 			page 142


 5535 000c 07000000 		.word	7
 5536 0010 0F000000 		.word	15
 5537 0014 1F000000 		.word	31
 5538 0018 3F000000 		.word	63
 5539 001c 7F000000 		.word	127
 5540 0020 FF000000 		.word	255
 5541 0024 FF010000 		.word	511
 5542 0028 FF030000 		.word	1023
 5543 002c FF070000 		.word	2047
 5544 0030 FF0F0000 		.word	4095
 5545 0034 FF1F0000 		.word	8191
 5546 0038 FF3F0000 		.word	16383
 5547 003c FF7F0000 		.word	32767
 5548              		.section	.rodata.jpeg_zigzag_order2,"a"
 5549              		.align	2
 5552              	jpeg_zigzag_order2:
 5553 0000 00000000 		.word	0
 5554 0004 01000000 		.word	1
 5555 0008 02000000 		.word	2
 5556 000c 03000000 		.word	3
 5557              		.section	.rodata.jpeg_zigzag_order3,"a"
 5558              		.align	2
 5561              	jpeg_zigzag_order3:
 5562 0000 00000000 		.word	0
 5563 0004 01000000 		.word	1
 5564 0008 05000000 		.word	5
 5565 000c 02000000 		.word	2
 5566 0010 04000000 		.word	4
 5567 0014 06000000 		.word	6
 5568 0018 03000000 		.word	3
 5569 001c 07000000 		.word	7
 5570 0020 08000000 		.word	8
 5571              		.section	.rodata.jpeg_zigzag_order4,"a"
 5572              		.align	2
 5575              	jpeg_zigzag_order4:
 5576 0000 00000000 		.word	0
 5577 0004 01000000 		.word	1
 5578 0008 05000000 		.word	5
 5579 000c 06000000 		.word	6
 5580 0010 02000000 		.word	2
 5581 0014 04000000 		.word	4
 5582 0018 07000000 		.word	7
 5583 001c 0C000000 		.word	12
 5584 0020 03000000 		.word	3
 5585 0024 08000000 		.word	8
 5586 0028 0B000000 		.word	11
 5587 002c 0D000000 		.word	13
 5588 0030 09000000 		.word	9
 5589 0034 0A000000 		.word	10
 5590 0038 0E000000 		.word	14
 5591 003c 0F000000 		.word	15
 5592              		.section	.rodata.jpeg_zigzag_order5,"a"
 5593              		.align	2
 5596              	jpeg_zigzag_order5:
 5597 0000 00000000 		.word	0
 5598 0004 01000000 		.word	1
 5599 0008 05000000 		.word	5
ARM GAS  /var/folders/mq/wg13gp494590nh4zyt09lxf00000gn/T//ccUYufpr.s 			page 143


 5600 000c 06000000 		.word	6
 5601 0010 0E000000 		.word	14
 5602 0014 02000000 		.word	2
 5603 0018 04000000 		.word	4
 5604 001c 07000000 		.word	7
 5605 0020 0D000000 		.word	13
 5606 0024 0F000000 		.word	15
 5607 0028 03000000 		.word	3
 5608 002c 08000000 		.word	8
 5609 0030 0C000000 		.word	12
 5610 0034 10000000 		.word	16
 5611 0038 15000000 		.word	21
 5612 003c 09000000 		.word	9
 5613 0040 0B000000 		.word	11
 5614 0044 11000000 		.word	17
 5615 0048 14000000 		.word	20
 5616 004c 16000000 		.word	22
 5617 0050 0A000000 		.word	10
 5618 0054 12000000 		.word	18
 5619 0058 13000000 		.word	19
 5620 005c 17000000 		.word	23
 5621 0060 18000000 		.word	24
 5622              		.section	.rodata.jpeg_zigzag_order6,"a"
 5623              		.align	2
 5626              	jpeg_zigzag_order6:
 5627 0000 00000000 		.word	0
 5628 0004 01000000 		.word	1
 5629 0008 05000000 		.word	5
 5630 000c 06000000 		.word	6
 5631 0010 0E000000 		.word	14
 5632 0014 0F000000 		.word	15
 5633 0018 02000000 		.word	2
 5634 001c 04000000 		.word	4
 5635 0020 07000000 		.word	7
 5636 0024 0D000000 		.word	13
 5637 0028 10000000 		.word	16
 5638 002c 19000000 		.word	25
 5639 0030 03000000 		.word	3
 5640 0034 08000000 		.word	8
 5641 0038 0C000000 		.word	12
 5642 003c 11000000 		.word	17
 5643 0040 18000000 		.word	24
 5644 0044 1A000000 		.word	26
 5645 0048 09000000 		.word	9
 5646 004c 0B000000 		.word	11
 5647 0050 12000000 		.word	18
 5648 0054 17000000 		.word	23
 5649 0058 1B000000 		.word	27
 5650 005c 20000000 		.word	32
 5651 0060 0A000000 		.word	10
 5652 0064 13000000 		.word	19
 5653 0068 16000000 		.word	22
 5654 006c 1C000000 		.word	28
 5655 0070 1F000000 		.word	31
 5656 0074 21000000 		.word	33
 5657 0078 14000000 		.word	20
 5658 007c 15000000 		.word	21
ARM GAS  /var/folders/mq/wg13gp494590nh4zyt09lxf00000gn/T//ccUYufpr.s 			page 144


 5659 0080 1D000000 		.word	29
 5660 0084 1E000000 		.word	30
 5661 0088 22000000 		.word	34
 5662 008c 23000000 		.word	35
 5663              		.section	.rodata.jpeg_zigzag_order7,"a"
 5664              		.align	2
 5667              	jpeg_zigzag_order7:
 5668 0000 00000000 		.word	0
 5669 0004 01000000 		.word	1
 5670 0008 05000000 		.word	5
 5671 000c 06000000 		.word	6
 5672 0010 0E000000 		.word	14
 5673 0014 0F000000 		.word	15
 5674 0018 1B000000 		.word	27
 5675 001c 02000000 		.word	2
 5676 0020 04000000 		.word	4
 5677 0024 07000000 		.word	7
 5678 0028 0D000000 		.word	13
 5679 002c 10000000 		.word	16
 5680 0030 1A000000 		.word	26
 5681 0034 1C000000 		.word	28
 5682 0038 03000000 		.word	3
 5683 003c 08000000 		.word	8
 5684 0040 0C000000 		.word	12
 5685 0044 11000000 		.word	17
 5686 0048 19000000 		.word	25
 5687 004c 1D000000 		.word	29
 5688 0050 26000000 		.word	38
 5689 0054 09000000 		.word	9
 5690 0058 0B000000 		.word	11
 5691 005c 12000000 		.word	18
 5692 0060 18000000 		.word	24
 5693 0064 1E000000 		.word	30
 5694 0068 25000000 		.word	37
 5695 006c 27000000 		.word	39
 5696 0070 0A000000 		.word	10
 5697 0074 13000000 		.word	19
 5698 0078 17000000 		.word	23
 5699 007c 1F000000 		.word	31
 5700 0080 24000000 		.word	36
 5701 0084 28000000 		.word	40
 5702 0088 2D000000 		.word	45
 5703 008c 14000000 		.word	20
 5704 0090 16000000 		.word	22
 5705 0094 20000000 		.word	32
 5706 0098 23000000 		.word	35
 5707 009c 29000000 		.word	41
 5708 00a0 2C000000 		.word	44
 5709 00a4 2E000000 		.word	46
 5710 00a8 15000000 		.word	21
 5711 00ac 21000000 		.word	33
 5712 00b0 22000000 		.word	34
 5713 00b4 2A000000 		.word	42
 5714 00b8 2B000000 		.word	43
 5715 00bc 2F000000 		.word	47
 5716 00c0 30000000 		.word	48
 5717              		.section	.rodata.jpeg_zigzag_order,"a"
ARM GAS  /var/folders/mq/wg13gp494590nh4zyt09lxf00000gn/T//ccUYufpr.s 			page 145


 5718              		.align	2
 5721              	jpeg_zigzag_order:
 5722 0000 00000000 		.word	0
 5723 0004 01000000 		.word	1
 5724 0008 05000000 		.word	5
 5725 000c 06000000 		.word	6
 5726 0010 0E000000 		.word	14
 5727 0014 0F000000 		.word	15
 5728 0018 1B000000 		.word	27
 5729 001c 1C000000 		.word	28
 5730 0020 02000000 		.word	2
 5731 0024 04000000 		.word	4
 5732 0028 07000000 		.word	7
 5733 002c 0D000000 		.word	13
 5734 0030 10000000 		.word	16
 5735 0034 1A000000 		.word	26
 5736 0038 1D000000 		.word	29
 5737 003c 2A000000 		.word	42
 5738 0040 03000000 		.word	3
 5739 0044 08000000 		.word	8
 5740 0048 0C000000 		.word	12
 5741 004c 11000000 		.word	17
 5742 0050 19000000 		.word	25
 5743 0054 1E000000 		.word	30
 5744 0058 29000000 		.word	41
 5745 005c 2B000000 		.word	43
 5746 0060 09000000 		.word	9
 5747 0064 0B000000 		.word	11
 5748 0068 12000000 		.word	18
 5749 006c 18000000 		.word	24
 5750 0070 1F000000 		.word	31
 5751 0074 28000000 		.word	40
 5752 0078 2C000000 		.word	44
 5753 007c 35000000 		.word	53
 5754 0080 0A000000 		.word	10
 5755 0084 13000000 		.word	19
 5756 0088 17000000 		.word	23
 5757 008c 20000000 		.word	32
 5758 0090 27000000 		.word	39
 5759 0094 2D000000 		.word	45
 5760 0098 34000000 		.word	52
 5761 009c 36000000 		.word	54
 5762 00a0 14000000 		.word	20
 5763 00a4 16000000 		.word	22
 5764 00a8 21000000 		.word	33
 5765 00ac 26000000 		.word	38
 5766 00b0 2E000000 		.word	46
 5767 00b4 33000000 		.word	51
 5768 00b8 37000000 		.word	55
 5769 00bc 3C000000 		.word	60
 5770 00c0 15000000 		.word	21
 5771 00c4 22000000 		.word	34
 5772 00c8 25000000 		.word	37
 5773 00cc 2F000000 		.word	47
 5774 00d0 32000000 		.word	50
 5775 00d4 38000000 		.word	56
 5776 00d8 3B000000 		.word	59
ARM GAS  /var/folders/mq/wg13gp494590nh4zyt09lxf00000gn/T//ccUYufpr.s 			page 146


 5777 00dc 3D000000 		.word	61
 5778 00e0 23000000 		.word	35
 5779 00e4 24000000 		.word	36
 5780 00e8 30000000 		.word	48
 5781 00ec 31000000 		.word	49
 5782 00f0 39000000 		.word	57
 5783 00f4 3A000000 		.word	58
 5784 00f8 3E000000 		.word	62
 5785 00fc 3F000000 		.word	63
 5786              		.text
 5787              	.Letext0:
 5788              		.file 2 "/Applications/ArmGNUToolchain/13.3.rel1/arm-none-eabi/arm-none-eabi/include/machine/_defa
 5789              		.file 3 "/Applications/ArmGNUToolchain/13.3.rel1/arm-none-eabi/arm-none-eabi/include/sys/_stdint.h
 5790              		.file 4 "/Applications/ArmGNUToolchain/13.3.rel1/arm-none-eabi/lib/gcc/arm-none-eabi/13.3.1/includ
 5791              		.file 5 "Inc/jmorecfg.h"
 5792              		.file 6 "Middlewares/Third_Party/LibJPEG/include/jpeglib.h"
 5793              		.file 7 "Middlewares/Third_Party/LibJPEG/include/jpegint.h"
 5794              		.file 8 "Middlewares/Third_Party/LibJPEG/include/jerror.h"
 5795              		.file 9 "/Applications/ArmGNUToolchain/13.3.rel1/arm-none-eabi/arm-none-eabi/include/string.h"
 5796              		.file 10 "<built-in>"
ARM GAS  /var/folders/mq/wg13gp494590nh4zyt09lxf00000gn/T//ccUYufpr.s 			page 147


DEFINED SYMBOLS
                            *ABS*:00000000 jdhuff.c
/var/folders/mq/wg13gp494590nh4zyt09lxf00000gn/T//ccUYufpr.s:20     .text.jpeg_fill_bit_buffer:00000000 $t
/var/folders/mq/wg13gp494590nh4zyt09lxf00000gn/T//ccUYufpr.s:25     .text.jpeg_fill_bit_buffer:00000000 jpeg_fill_bit_buffer
/var/folders/mq/wg13gp494590nh4zyt09lxf00000gn/T//ccUYufpr.s:258    .text.jpeg_huff_decode:00000000 $t
/var/folders/mq/wg13gp494590nh4zyt09lxf00000gn/T//ccUYufpr.s:263    .text.jpeg_huff_decode:00000000 jpeg_huff_decode
/var/folders/mq/wg13gp494590nh4zyt09lxf00000gn/T//ccUYufpr.s:435    .text.jpeg_huff_decode:0000009c $d
/var/folders/mq/wg13gp494590nh4zyt09lxf00000gn/T//ccUYufpr.s:5531   .rodata.bmask:00000000 bmask
/var/folders/mq/wg13gp494590nh4zyt09lxf00000gn/T//ccUYufpr.s:440    .text.process_restart:00000000 $t
/var/folders/mq/wg13gp494590nh4zyt09lxf00000gn/T//ccUYufpr.s:445    .text.process_restart:00000000 process_restart
/var/folders/mq/wg13gp494590nh4zyt09lxf00000gn/T//ccUYufpr.s:556    .text.decode_mcu_DC_first:00000000 $t
/var/folders/mq/wg13gp494590nh4zyt09lxf00000gn/T//ccUYufpr.s:561    .text.decode_mcu_DC_first:00000000 decode_mcu_DC_first
/var/folders/mq/wg13gp494590nh4zyt09lxf00000gn/T//ccUYufpr.s:934    .text.decode_mcu_DC_first:00000174 $d
/var/folders/mq/wg13gp494590nh4zyt09lxf00000gn/T//ccUYufpr.s:939    .text.decode_mcu_AC_first:00000000 $t
/var/folders/mq/wg13gp494590nh4zyt09lxf00000gn/T//ccUYufpr.s:944    .text.decode_mcu_AC_first:00000000 decode_mcu_AC_first
/var/folders/mq/wg13gp494590nh4zyt09lxf00000gn/T//ccUYufpr.s:1380   .text.decode_mcu_AC_first:00000190 $d
/var/folders/mq/wg13gp494590nh4zyt09lxf00000gn/T//ccUYufpr.s:1385   .text.decode_mcu_DC_refine:00000000 $t
/var/folders/mq/wg13gp494590nh4zyt09lxf00000gn/T//ccUYufpr.s:1390   .text.decode_mcu_DC_refine:00000000 decode_mcu_DC_refine
/var/folders/mq/wg13gp494590nh4zyt09lxf00000gn/T//ccUYufpr.s:1564   .text.decode_mcu_AC_refine:00000000 $t
/var/folders/mq/wg13gp494590nh4zyt09lxf00000gn/T//ccUYufpr.s:1569   .text.decode_mcu_AC_refine:00000000 decode_mcu_AC_refine
/var/folders/mq/wg13gp494590nh4zyt09lxf00000gn/T//ccUYufpr.s:2298   .text.decode_mcu_AC_refine:000002e8 $d
/var/folders/mq/wg13gp494590nh4zyt09lxf00000gn/T//ccUYufpr.s:2303   .text.decode_mcu_sub:00000000 $t
/var/folders/mq/wg13gp494590nh4zyt09lxf00000gn/T//ccUYufpr.s:2308   .text.decode_mcu_sub:00000000 decode_mcu_sub
/var/folders/mq/wg13gp494590nh4zyt09lxf00000gn/T//ccUYufpr.s:3129   .text.decode_mcu_sub:00000324 $d
/var/folders/mq/wg13gp494590nh4zyt09lxf00000gn/T//ccUYufpr.s:3135   .text.decode_mcu:00000000 $t
/var/folders/mq/wg13gp494590nh4zyt09lxf00000gn/T//ccUYufpr.s:3140   .text.decode_mcu:00000000 decode_mcu
/var/folders/mq/wg13gp494590nh4zyt09lxf00000gn/T//ccUYufpr.s:3946   .text.decode_mcu:0000030c $d
/var/folders/mq/wg13gp494590nh4zyt09lxf00000gn/T//ccUYufpr.s:3953   .text.jpeg_make_d_derived_tbl:00000000 $t
/var/folders/mq/wg13gp494590nh4zyt09lxf00000gn/T//ccUYufpr.s:3958   .text.jpeg_make_d_derived_tbl:00000000 jpeg_make_d_derived_tbl
/var/folders/mq/wg13gp494590nh4zyt09lxf00000gn/T//ccUYufpr.s:4403   .text.jpeg_make_d_derived_tbl:000001dc $d
/var/folders/mq/wg13gp494590nh4zyt09lxf00000gn/T//ccUYufpr.s:4408   .text.start_pass_huff_decoder:00000000 $t
/var/folders/mq/wg13gp494590nh4zyt09lxf00000gn/T//ccUYufpr.s:4413   .text.start_pass_huff_decoder:00000000 start_pass_huff_decoder
/var/folders/mq/wg13gp494590nh4zyt09lxf00000gn/T//ccUYufpr.s:5232   .text.start_pass_huff_decoder:000003a4 $d
/var/folders/mq/wg13gp494590nh4zyt09lxf00000gn/T//ccUYufpr.s:5552   .rodata.jpeg_zigzag_order2:00000000 jpeg_zigzag_order2
/var/folders/mq/wg13gp494590nh4zyt09lxf00000gn/T//ccUYufpr.s:5561   .rodata.jpeg_zigzag_order3:00000000 jpeg_zigzag_order3
/var/folders/mq/wg13gp494590nh4zyt09lxf00000gn/T//ccUYufpr.s:5575   .rodata.jpeg_zigzag_order4:00000000 jpeg_zigzag_order4
/var/folders/mq/wg13gp494590nh4zyt09lxf00000gn/T//ccUYufpr.s:5596   .rodata.jpeg_zigzag_order5:00000000 jpeg_zigzag_order5
/var/folders/mq/wg13gp494590nh4zyt09lxf00000gn/T//ccUYufpr.s:5626   .rodata.jpeg_zigzag_order6:00000000 jpeg_zigzag_order6
/var/folders/mq/wg13gp494590nh4zyt09lxf00000gn/T//ccUYufpr.s:5667   .rodata.jpeg_zigzag_order7:00000000 jpeg_zigzag_order7
/var/folders/mq/wg13gp494590nh4zyt09lxf00000gn/T//ccUYufpr.s:5721   .rodata.jpeg_zigzag_order:00000000 jpeg_zigzag_order
/var/folders/mq/wg13gp494590nh4zyt09lxf00000gn/T//ccUYufpr.s:5249   .text.start_pass_huff_decoder:000003d8 $t
/var/folders/mq/wg13gp494590nh4zyt09lxf00000gn/T//ccUYufpr.s:5322   .text.start_pass_huff_decoder:00000438 $d
/var/folders/mq/wg13gp494590nh4zyt09lxf00000gn/T//ccUYufpr.s:5375   .text.jinit_huff_decoder:00000000 $t
/var/folders/mq/wg13gp494590nh4zyt09lxf00000gn/T//ccUYufpr.s:5381   .text.jinit_huff_decoder:00000000 jinit_huff_decoder
/var/folders/mq/wg13gp494590nh4zyt09lxf00000gn/T//ccUYufpr.s:5523   .text.jinit_huff_decoder:00000084 $d
/var/folders/mq/wg13gp494590nh4zyt09lxf00000gn/T//ccUYufpr.s:5528   .rodata.bmask:00000000 $d
/var/folders/mq/wg13gp494590nh4zyt09lxf00000gn/T//ccUYufpr.s:5549   .rodata.jpeg_zigzag_order2:00000000 $d
/var/folders/mq/wg13gp494590nh4zyt09lxf00000gn/T//ccUYufpr.s:5558   .rodata.jpeg_zigzag_order3:00000000 $d
/var/folders/mq/wg13gp494590nh4zyt09lxf00000gn/T//ccUYufpr.s:5572   .rodata.jpeg_zigzag_order4:00000000 $d
/var/folders/mq/wg13gp494590nh4zyt09lxf00000gn/T//ccUYufpr.s:5593   .rodata.jpeg_zigzag_order5:00000000 $d
/var/folders/mq/wg13gp494590nh4zyt09lxf00000gn/T//ccUYufpr.s:5623   .rodata.jpeg_zigzag_order6:00000000 $d
/var/folders/mq/wg13gp494590nh4zyt09lxf00000gn/T//ccUYufpr.s:5664   .rodata.jpeg_zigzag_order7:00000000 $d
/var/folders/mq/wg13gp494590nh4zyt09lxf00000gn/T//ccUYufpr.s:5718   .rodata.jpeg_zigzag_order:00000000 $d

UNDEFINED SYMBOLS
jpeg_natural_order
memset
ARM GAS  /var/folders/mq/wg13gp494590nh4zyt09lxf00000gn/T//ccUYufpr.s 			page 148


