ARM GAS  /var/folders/mq/wg13gp494590nh4zyt09lxf00000gn/T//ccRbBij7.s 			page 1


   1              		.cpu cortex-m7
   2              		.arch armv7e-m
   3              		.fpu fpv5-d16
   4              		.eabi_attribute 28, 1
   5              		.eabi_attribute 20, 1
   6              		.eabi_attribute 21, 1
   7              		.eabi_attribute 23, 3
   8              		.eabi_attribute 24, 1
   9              		.eabi_attribute 25, 1
  10              		.eabi_attribute 26, 1
  11              		.eabi_attribute 30, 1
  12              		.eabi_attribute 34, 1
  13              		.eabi_attribute 18, 4
  14              		.file	"jmemmgr.c"
  15              		.text
  16              	.Ltext0:
  17              		.cfi_sections	.debug_frame
  18              		.file 1 "Middlewares/Third_Party/LibJPEG/source/jmemmgr.c"
  19              		.section	.text.out_of_memory,"ax",%progbits
  20              		.align	1
  21              		.syntax unified
  22              		.thumb
  23              		.thumb_func
  25              	out_of_memory:
  26              	.LVL0:
  27              	.LFB147:
   1:Middlewares/Third_Party/LibJPEG/source/jmemmgr.c **** /*
   2:Middlewares/Third_Party/LibJPEG/source/jmemmgr.c ****  * jmemmgr.c
   3:Middlewares/Third_Party/LibJPEG/source/jmemmgr.c ****  *
   4:Middlewares/Third_Party/LibJPEG/source/jmemmgr.c ****  * Copyright (C) 1991-1997, Thomas G. Lane.
   5:Middlewares/Third_Party/LibJPEG/source/jmemmgr.c ****  * Modified 2011 by Guido Vollbeding.
   6:Middlewares/Third_Party/LibJPEG/source/jmemmgr.c ****  * This file is part of the Independent JPEG Group's software.
   7:Middlewares/Third_Party/LibJPEG/source/jmemmgr.c ****  * For conditions of distribution and use, see the accompanying README file.
   8:Middlewares/Third_Party/LibJPEG/source/jmemmgr.c ****  *
   9:Middlewares/Third_Party/LibJPEG/source/jmemmgr.c ****  * This file contains the JPEG system-independent memory management
  10:Middlewares/Third_Party/LibJPEG/source/jmemmgr.c ****  * routines.  This code is usable across a wide variety of machines; most
  11:Middlewares/Third_Party/LibJPEG/source/jmemmgr.c ****  * of the system dependencies have been isolated in a separate file.
  12:Middlewares/Third_Party/LibJPEG/source/jmemmgr.c ****  * The major functions provided here are:
  13:Middlewares/Third_Party/LibJPEG/source/jmemmgr.c ****  *   * pool-based allocation and freeing of memory;
  14:Middlewares/Third_Party/LibJPEG/source/jmemmgr.c ****  *   * policy decisions about how to divide available memory among the
  15:Middlewares/Third_Party/LibJPEG/source/jmemmgr.c ****  *     virtual arrays;
  16:Middlewares/Third_Party/LibJPEG/source/jmemmgr.c ****  *   * control logic for swapping virtual arrays between main memory and
  17:Middlewares/Third_Party/LibJPEG/source/jmemmgr.c ****  *     backing storage.
  18:Middlewares/Third_Party/LibJPEG/source/jmemmgr.c ****  * The separate system-dependent file provides the actual backing-storage
  19:Middlewares/Third_Party/LibJPEG/source/jmemmgr.c ****  * access code, and it contains the policy decision about how much total
  20:Middlewares/Third_Party/LibJPEG/source/jmemmgr.c ****  * main memory to use.
  21:Middlewares/Third_Party/LibJPEG/source/jmemmgr.c ****  * This file is system-dependent in the sense that some of its functions
  22:Middlewares/Third_Party/LibJPEG/source/jmemmgr.c ****  * are unnecessary in some systems.  For example, if there is enough virtual
  23:Middlewares/Third_Party/LibJPEG/source/jmemmgr.c ****  * memory so that backing storage will never be used, much of the virtual
  24:Middlewares/Third_Party/LibJPEG/source/jmemmgr.c ****  * array control logic could be removed.  (Of course, if you have that much
  25:Middlewares/Third_Party/LibJPEG/source/jmemmgr.c ****  * memory then you shouldn't care about a little bit of unused code...)
  26:Middlewares/Third_Party/LibJPEG/source/jmemmgr.c ****  */
  27:Middlewares/Third_Party/LibJPEG/source/jmemmgr.c **** 
  28:Middlewares/Third_Party/LibJPEG/source/jmemmgr.c **** #define JPEG_INTERNALS
  29:Middlewares/Third_Party/LibJPEG/source/jmemmgr.c **** #define AM_MEMORY_MANAGER	/* we define jvirt_Xarray_control structs */
  30:Middlewares/Third_Party/LibJPEG/source/jmemmgr.c **** #include "jinclude.h"
  31:Middlewares/Third_Party/LibJPEG/source/jmemmgr.c **** #include "jpeglib.h"
ARM GAS  /var/folders/mq/wg13gp494590nh4zyt09lxf00000gn/T//ccRbBij7.s 			page 2


  32:Middlewares/Third_Party/LibJPEG/source/jmemmgr.c **** #include "jmemsys.h"		/* import the system-dependent declarations */
  33:Middlewares/Third_Party/LibJPEG/source/jmemmgr.c **** 
  34:Middlewares/Third_Party/LibJPEG/source/jmemmgr.c **** #ifndef NO_GETENV
  35:Middlewares/Third_Party/LibJPEG/source/jmemmgr.c **** #ifndef HAVE_STDLIB_H		/* <stdlib.h> should declare getenv() */
  36:Middlewares/Third_Party/LibJPEG/source/jmemmgr.c **** extern char * getenv JPP((const char * name));
  37:Middlewares/Third_Party/LibJPEG/source/jmemmgr.c **** #endif
  38:Middlewares/Third_Party/LibJPEG/source/jmemmgr.c **** #endif
  39:Middlewares/Third_Party/LibJPEG/source/jmemmgr.c **** 
  40:Middlewares/Third_Party/LibJPEG/source/jmemmgr.c **** 
  41:Middlewares/Third_Party/LibJPEG/source/jmemmgr.c **** /*
  42:Middlewares/Third_Party/LibJPEG/source/jmemmgr.c ****  * Some important notes:
  43:Middlewares/Third_Party/LibJPEG/source/jmemmgr.c ****  *   The allocation routines provided here must never return NULL.
  44:Middlewares/Third_Party/LibJPEG/source/jmemmgr.c ****  *   They should exit to error_exit if unsuccessful.
  45:Middlewares/Third_Party/LibJPEG/source/jmemmgr.c ****  *
  46:Middlewares/Third_Party/LibJPEG/source/jmemmgr.c ****  *   It's not a good idea to try to merge the sarray and barray routines,
  47:Middlewares/Third_Party/LibJPEG/source/jmemmgr.c ****  *   even though they are textually almost the same, because samples are
  48:Middlewares/Third_Party/LibJPEG/source/jmemmgr.c ****  *   usually stored as bytes while coefficients are shorts or ints.  Thus,
  49:Middlewares/Third_Party/LibJPEG/source/jmemmgr.c ****  *   in machines where byte pointers have a different representation from
  50:Middlewares/Third_Party/LibJPEG/source/jmemmgr.c ****  *   word pointers, the resulting machine code could not be the same.
  51:Middlewares/Third_Party/LibJPEG/source/jmemmgr.c ****  */
  52:Middlewares/Third_Party/LibJPEG/source/jmemmgr.c **** 
  53:Middlewares/Third_Party/LibJPEG/source/jmemmgr.c **** 
  54:Middlewares/Third_Party/LibJPEG/source/jmemmgr.c **** /*
  55:Middlewares/Third_Party/LibJPEG/source/jmemmgr.c ****  * Many machines require storage alignment: longs must start on 4-byte
  56:Middlewares/Third_Party/LibJPEG/source/jmemmgr.c ****  * boundaries, doubles on 8-byte boundaries, etc.  On such machines, malloc()
  57:Middlewares/Third_Party/LibJPEG/source/jmemmgr.c ****  * always returns pointers that are multiples of the worst-case alignment
  58:Middlewares/Third_Party/LibJPEG/source/jmemmgr.c ****  * requirement, and we had better do so too.
  59:Middlewares/Third_Party/LibJPEG/source/jmemmgr.c ****  * There isn't any really portable way to determine the worst-case alignment
  60:Middlewares/Third_Party/LibJPEG/source/jmemmgr.c ****  * requirement.  This module assumes that the alignment requirement is
  61:Middlewares/Third_Party/LibJPEG/source/jmemmgr.c ****  * multiples of sizeof(ALIGN_TYPE).
  62:Middlewares/Third_Party/LibJPEG/source/jmemmgr.c ****  * By default, we define ALIGN_TYPE as double.  This is necessary on some
  63:Middlewares/Third_Party/LibJPEG/source/jmemmgr.c ****  * workstations (where doubles really do need 8-byte alignment) and will work
  64:Middlewares/Third_Party/LibJPEG/source/jmemmgr.c ****  * fine on nearly everything.  If your machine has lesser alignment needs,
  65:Middlewares/Third_Party/LibJPEG/source/jmemmgr.c ****  * you can save a few bytes by making ALIGN_TYPE smaller.
  66:Middlewares/Third_Party/LibJPEG/source/jmemmgr.c ****  * The only place I know of where this will NOT work is certain Macintosh
  67:Middlewares/Third_Party/LibJPEG/source/jmemmgr.c ****  * 680x0 compilers that define double as a 10-byte IEEE extended float.
  68:Middlewares/Third_Party/LibJPEG/source/jmemmgr.c ****  * Doing 10-byte alignment is counterproductive because longwords won't be
  69:Middlewares/Third_Party/LibJPEG/source/jmemmgr.c ****  * aligned well.  Put "#define ALIGN_TYPE long" in jconfig.h if you have
  70:Middlewares/Third_Party/LibJPEG/source/jmemmgr.c ****  * such a compiler.
  71:Middlewares/Third_Party/LibJPEG/source/jmemmgr.c ****  */
  72:Middlewares/Third_Party/LibJPEG/source/jmemmgr.c **** 
  73:Middlewares/Third_Party/LibJPEG/source/jmemmgr.c **** #ifndef ALIGN_TYPE		/* so can override from jconfig.h */
  74:Middlewares/Third_Party/LibJPEG/source/jmemmgr.c **** #define ALIGN_TYPE  double
  75:Middlewares/Third_Party/LibJPEG/source/jmemmgr.c **** #endif
  76:Middlewares/Third_Party/LibJPEG/source/jmemmgr.c **** 
  77:Middlewares/Third_Party/LibJPEG/source/jmemmgr.c **** 
  78:Middlewares/Third_Party/LibJPEG/source/jmemmgr.c **** /*
  79:Middlewares/Third_Party/LibJPEG/source/jmemmgr.c ****  * We allocate objects from "pools", where each pool is gotten with a single
  80:Middlewares/Third_Party/LibJPEG/source/jmemmgr.c ****  * request to jpeg_get_small() or jpeg_get_large().  There is no per-object
  81:Middlewares/Third_Party/LibJPEG/source/jmemmgr.c ****  * overhead within a pool, except for alignment padding.  Each pool has a
  82:Middlewares/Third_Party/LibJPEG/source/jmemmgr.c ****  * header with a link to the next pool of the same class.
  83:Middlewares/Third_Party/LibJPEG/source/jmemmgr.c ****  * Small and large pool headers are identical except that the latter's
  84:Middlewares/Third_Party/LibJPEG/source/jmemmgr.c ****  * link pointer must be FAR on 80x86 machines.
  85:Middlewares/Third_Party/LibJPEG/source/jmemmgr.c ****  * Notice that the "real" header fields are union'ed with a dummy ALIGN_TYPE
  86:Middlewares/Third_Party/LibJPEG/source/jmemmgr.c ****  * field.  This forces the compiler to make SIZEOF(small_pool_hdr) a multiple
  87:Middlewares/Third_Party/LibJPEG/source/jmemmgr.c ****  * of the alignment requirement of ALIGN_TYPE.
  88:Middlewares/Third_Party/LibJPEG/source/jmemmgr.c ****  */
ARM GAS  /var/folders/mq/wg13gp494590nh4zyt09lxf00000gn/T//ccRbBij7.s 			page 3


  89:Middlewares/Third_Party/LibJPEG/source/jmemmgr.c **** 
  90:Middlewares/Third_Party/LibJPEG/source/jmemmgr.c **** typedef union small_pool_struct * small_pool_ptr;
  91:Middlewares/Third_Party/LibJPEG/source/jmemmgr.c **** 
  92:Middlewares/Third_Party/LibJPEG/source/jmemmgr.c **** typedef union small_pool_struct {
  93:Middlewares/Third_Party/LibJPEG/source/jmemmgr.c ****   struct {
  94:Middlewares/Third_Party/LibJPEG/source/jmemmgr.c ****     small_pool_ptr next;	/* next in list of pools */
  95:Middlewares/Third_Party/LibJPEG/source/jmemmgr.c ****     size_t bytes_used;		/* how many bytes already used within pool */
  96:Middlewares/Third_Party/LibJPEG/source/jmemmgr.c ****     size_t bytes_left;		/* bytes still available in this pool */
  97:Middlewares/Third_Party/LibJPEG/source/jmemmgr.c ****   } hdr;
  98:Middlewares/Third_Party/LibJPEG/source/jmemmgr.c ****   ALIGN_TYPE dummy;		/* included in union to ensure alignment */
  99:Middlewares/Third_Party/LibJPEG/source/jmemmgr.c **** } small_pool_hdr;
 100:Middlewares/Third_Party/LibJPEG/source/jmemmgr.c **** 
 101:Middlewares/Third_Party/LibJPEG/source/jmemmgr.c **** typedef union large_pool_struct FAR * large_pool_ptr;
 102:Middlewares/Third_Party/LibJPEG/source/jmemmgr.c **** 
 103:Middlewares/Third_Party/LibJPEG/source/jmemmgr.c **** typedef union large_pool_struct {
 104:Middlewares/Third_Party/LibJPEG/source/jmemmgr.c ****   struct {
 105:Middlewares/Third_Party/LibJPEG/source/jmemmgr.c ****     large_pool_ptr next;	/* next in list of pools */
 106:Middlewares/Third_Party/LibJPEG/source/jmemmgr.c ****     size_t bytes_used;		/* how many bytes already used within pool */
 107:Middlewares/Third_Party/LibJPEG/source/jmemmgr.c ****     size_t bytes_left;		/* bytes still available in this pool */
 108:Middlewares/Third_Party/LibJPEG/source/jmemmgr.c ****   } hdr;
 109:Middlewares/Third_Party/LibJPEG/source/jmemmgr.c ****   ALIGN_TYPE dummy;		/* included in union to ensure alignment */
 110:Middlewares/Third_Party/LibJPEG/source/jmemmgr.c **** } large_pool_hdr;
 111:Middlewares/Third_Party/LibJPEG/source/jmemmgr.c **** 
 112:Middlewares/Third_Party/LibJPEG/source/jmemmgr.c **** 
 113:Middlewares/Third_Party/LibJPEG/source/jmemmgr.c **** /*
 114:Middlewares/Third_Party/LibJPEG/source/jmemmgr.c ****  * Here is the full definition of a memory manager object.
 115:Middlewares/Third_Party/LibJPEG/source/jmemmgr.c ****  */
 116:Middlewares/Third_Party/LibJPEG/source/jmemmgr.c **** 
 117:Middlewares/Third_Party/LibJPEG/source/jmemmgr.c **** typedef struct {
 118:Middlewares/Third_Party/LibJPEG/source/jmemmgr.c ****   struct jpeg_memory_mgr pub;	/* public fields */
 119:Middlewares/Third_Party/LibJPEG/source/jmemmgr.c **** 
 120:Middlewares/Third_Party/LibJPEG/source/jmemmgr.c ****   /* Each pool identifier (lifetime class) names a linked list of pools. */
 121:Middlewares/Third_Party/LibJPEG/source/jmemmgr.c ****   small_pool_ptr small_list[JPOOL_NUMPOOLS];
 122:Middlewares/Third_Party/LibJPEG/source/jmemmgr.c ****   large_pool_ptr large_list[JPOOL_NUMPOOLS];
 123:Middlewares/Third_Party/LibJPEG/source/jmemmgr.c **** 
 124:Middlewares/Third_Party/LibJPEG/source/jmemmgr.c ****   /* Since we only have one lifetime class of virtual arrays, only one
 125:Middlewares/Third_Party/LibJPEG/source/jmemmgr.c ****    * linked list is necessary (for each datatype).  Note that the virtual
 126:Middlewares/Third_Party/LibJPEG/source/jmemmgr.c ****    * array control blocks being linked together are actually stored somewhere
 127:Middlewares/Third_Party/LibJPEG/source/jmemmgr.c ****    * in the small-pool list.
 128:Middlewares/Third_Party/LibJPEG/source/jmemmgr.c ****    */
 129:Middlewares/Third_Party/LibJPEG/source/jmemmgr.c ****   jvirt_sarray_ptr virt_sarray_list;
 130:Middlewares/Third_Party/LibJPEG/source/jmemmgr.c ****   jvirt_barray_ptr virt_barray_list;
 131:Middlewares/Third_Party/LibJPEG/source/jmemmgr.c **** 
 132:Middlewares/Third_Party/LibJPEG/source/jmemmgr.c ****   /* This counts total space obtained from jpeg_get_small/large */
 133:Middlewares/Third_Party/LibJPEG/source/jmemmgr.c ****   long total_space_allocated;
 134:Middlewares/Third_Party/LibJPEG/source/jmemmgr.c **** 
 135:Middlewares/Third_Party/LibJPEG/source/jmemmgr.c ****   /* alloc_sarray and alloc_barray set this value for use by virtual
 136:Middlewares/Third_Party/LibJPEG/source/jmemmgr.c ****    * array routines.
 137:Middlewares/Third_Party/LibJPEG/source/jmemmgr.c ****    */
 138:Middlewares/Third_Party/LibJPEG/source/jmemmgr.c ****   JDIMENSION last_rowsperchunk;	/* from most recent alloc_sarray/barray */
 139:Middlewares/Third_Party/LibJPEG/source/jmemmgr.c **** } my_memory_mgr;
 140:Middlewares/Third_Party/LibJPEG/source/jmemmgr.c **** 
 141:Middlewares/Third_Party/LibJPEG/source/jmemmgr.c **** typedef my_memory_mgr * my_mem_ptr;
 142:Middlewares/Third_Party/LibJPEG/source/jmemmgr.c **** 
 143:Middlewares/Third_Party/LibJPEG/source/jmemmgr.c **** 
 144:Middlewares/Third_Party/LibJPEG/source/jmemmgr.c **** /*
 145:Middlewares/Third_Party/LibJPEG/source/jmemmgr.c ****  * The control blocks for virtual arrays.
ARM GAS  /var/folders/mq/wg13gp494590nh4zyt09lxf00000gn/T//ccRbBij7.s 			page 4


 146:Middlewares/Third_Party/LibJPEG/source/jmemmgr.c ****  * Note that these blocks are allocated in the "small" pool area.
 147:Middlewares/Third_Party/LibJPEG/source/jmemmgr.c ****  * System-dependent info for the associated backing store (if any) is hidden
 148:Middlewares/Third_Party/LibJPEG/source/jmemmgr.c ****  * inside the backing_store_info struct.
 149:Middlewares/Third_Party/LibJPEG/source/jmemmgr.c ****  */
 150:Middlewares/Third_Party/LibJPEG/source/jmemmgr.c **** 
 151:Middlewares/Third_Party/LibJPEG/source/jmemmgr.c **** struct jvirt_sarray_control {
 152:Middlewares/Third_Party/LibJPEG/source/jmemmgr.c ****   JSAMPARRAY mem_buffer;	/* => the in-memory buffer */
 153:Middlewares/Third_Party/LibJPEG/source/jmemmgr.c ****   JDIMENSION rows_in_array;	/* total virtual array height */
 154:Middlewares/Third_Party/LibJPEG/source/jmemmgr.c ****   JDIMENSION samplesperrow;	/* width of array (and of memory buffer) */
 155:Middlewares/Third_Party/LibJPEG/source/jmemmgr.c ****   JDIMENSION maxaccess;		/* max rows accessed by access_virt_sarray */
 156:Middlewares/Third_Party/LibJPEG/source/jmemmgr.c ****   JDIMENSION rows_in_mem;	/* height of memory buffer */
 157:Middlewares/Third_Party/LibJPEG/source/jmemmgr.c ****   JDIMENSION rowsperchunk;	/* allocation chunk size in mem_buffer */
 158:Middlewares/Third_Party/LibJPEG/source/jmemmgr.c ****   JDIMENSION cur_start_row;	/* first logical row # in the buffer */
 159:Middlewares/Third_Party/LibJPEG/source/jmemmgr.c ****   JDIMENSION first_undef_row;	/* row # of first uninitialized row */
 160:Middlewares/Third_Party/LibJPEG/source/jmemmgr.c ****   boolean pre_zero;		/* pre-zero mode requested? */
 161:Middlewares/Third_Party/LibJPEG/source/jmemmgr.c ****   boolean dirty;		/* do current buffer contents need written? */
 162:Middlewares/Third_Party/LibJPEG/source/jmemmgr.c ****   boolean b_s_open;		/* is backing-store data valid? */
 163:Middlewares/Third_Party/LibJPEG/source/jmemmgr.c ****   jvirt_sarray_ptr next;	/* link to next virtual sarray control block */
 164:Middlewares/Third_Party/LibJPEG/source/jmemmgr.c ****   backing_store_info b_s_info;	/* System-dependent control info */
 165:Middlewares/Third_Party/LibJPEG/source/jmemmgr.c **** };
 166:Middlewares/Third_Party/LibJPEG/source/jmemmgr.c **** 
 167:Middlewares/Third_Party/LibJPEG/source/jmemmgr.c **** struct jvirt_barray_control {
 168:Middlewares/Third_Party/LibJPEG/source/jmemmgr.c ****   JBLOCKARRAY mem_buffer;	/* => the in-memory buffer */
 169:Middlewares/Third_Party/LibJPEG/source/jmemmgr.c ****   JDIMENSION rows_in_array;	/* total virtual array height */
 170:Middlewares/Third_Party/LibJPEG/source/jmemmgr.c ****   JDIMENSION blocksperrow;	/* width of array (and of memory buffer) */
 171:Middlewares/Third_Party/LibJPEG/source/jmemmgr.c ****   JDIMENSION maxaccess;		/* max rows accessed by access_virt_barray */
 172:Middlewares/Third_Party/LibJPEG/source/jmemmgr.c ****   JDIMENSION rows_in_mem;	/* height of memory buffer */
 173:Middlewares/Third_Party/LibJPEG/source/jmemmgr.c ****   JDIMENSION rowsperchunk;	/* allocation chunk size in mem_buffer */
 174:Middlewares/Third_Party/LibJPEG/source/jmemmgr.c ****   JDIMENSION cur_start_row;	/* first logical row # in the buffer */
 175:Middlewares/Third_Party/LibJPEG/source/jmemmgr.c ****   JDIMENSION first_undef_row;	/* row # of first uninitialized row */
 176:Middlewares/Third_Party/LibJPEG/source/jmemmgr.c ****   boolean pre_zero;		/* pre-zero mode requested? */
 177:Middlewares/Third_Party/LibJPEG/source/jmemmgr.c ****   boolean dirty;		/* do current buffer contents need written? */
 178:Middlewares/Third_Party/LibJPEG/source/jmemmgr.c ****   boolean b_s_open;		/* is backing-store data valid? */
 179:Middlewares/Third_Party/LibJPEG/source/jmemmgr.c ****   jvirt_barray_ptr next;	/* link to next virtual barray control block */
 180:Middlewares/Third_Party/LibJPEG/source/jmemmgr.c ****   backing_store_info b_s_info;	/* System-dependent control info */
 181:Middlewares/Third_Party/LibJPEG/source/jmemmgr.c **** };
 182:Middlewares/Third_Party/LibJPEG/source/jmemmgr.c **** 
 183:Middlewares/Third_Party/LibJPEG/source/jmemmgr.c **** 
 184:Middlewares/Third_Party/LibJPEG/source/jmemmgr.c **** #ifdef MEM_STATS		/* optional extra stuff for statistics */
 185:Middlewares/Third_Party/LibJPEG/source/jmemmgr.c **** 
 186:Middlewares/Third_Party/LibJPEG/source/jmemmgr.c **** LOCAL(void)
 187:Middlewares/Third_Party/LibJPEG/source/jmemmgr.c **** print_mem_stats (j_common_ptr cinfo, int pool_id)
 188:Middlewares/Third_Party/LibJPEG/source/jmemmgr.c **** {
 189:Middlewares/Third_Party/LibJPEG/source/jmemmgr.c ****   my_mem_ptr mem = (my_mem_ptr) cinfo->mem;
 190:Middlewares/Third_Party/LibJPEG/source/jmemmgr.c ****   small_pool_ptr shdr_ptr;
 191:Middlewares/Third_Party/LibJPEG/source/jmemmgr.c ****   large_pool_ptr lhdr_ptr;
 192:Middlewares/Third_Party/LibJPEG/source/jmemmgr.c **** 
 193:Middlewares/Third_Party/LibJPEG/source/jmemmgr.c ****   /* Since this is only a debugging stub, we can cheat a little by using
 194:Middlewares/Third_Party/LibJPEG/source/jmemmgr.c ****    * fprintf directly rather than going through the trace message code.
 195:Middlewares/Third_Party/LibJPEG/source/jmemmgr.c ****    * This is helpful because message parm array can't handle longs.
 196:Middlewares/Third_Party/LibJPEG/source/jmemmgr.c ****    */
 197:Middlewares/Third_Party/LibJPEG/source/jmemmgr.c ****   fprintf(stderr, "Freeing pool %d, total space = %ld\n",
 198:Middlewares/Third_Party/LibJPEG/source/jmemmgr.c **** 	  pool_id, mem->total_space_allocated);
 199:Middlewares/Third_Party/LibJPEG/source/jmemmgr.c **** 
 200:Middlewares/Third_Party/LibJPEG/source/jmemmgr.c ****   for (lhdr_ptr = mem->large_list[pool_id]; lhdr_ptr != NULL;
 201:Middlewares/Third_Party/LibJPEG/source/jmemmgr.c ****        lhdr_ptr = lhdr_ptr->hdr.next) {
 202:Middlewares/Third_Party/LibJPEG/source/jmemmgr.c ****     fprintf(stderr, "  Large chunk used %ld\n",
ARM GAS  /var/folders/mq/wg13gp494590nh4zyt09lxf00000gn/T//ccRbBij7.s 			page 5


 203:Middlewares/Third_Party/LibJPEG/source/jmemmgr.c **** 	    (long) lhdr_ptr->hdr.bytes_used);
 204:Middlewares/Third_Party/LibJPEG/source/jmemmgr.c ****   }
 205:Middlewares/Third_Party/LibJPEG/source/jmemmgr.c **** 
 206:Middlewares/Third_Party/LibJPEG/source/jmemmgr.c ****   for (shdr_ptr = mem->small_list[pool_id]; shdr_ptr != NULL;
 207:Middlewares/Third_Party/LibJPEG/source/jmemmgr.c ****        shdr_ptr = shdr_ptr->hdr.next) {
 208:Middlewares/Third_Party/LibJPEG/source/jmemmgr.c ****     fprintf(stderr, "  Small chunk used %ld free %ld\n",
 209:Middlewares/Third_Party/LibJPEG/source/jmemmgr.c **** 	    (long) shdr_ptr->hdr.bytes_used,
 210:Middlewares/Third_Party/LibJPEG/source/jmemmgr.c **** 	    (long) shdr_ptr->hdr.bytes_left);
 211:Middlewares/Third_Party/LibJPEG/source/jmemmgr.c ****   }
 212:Middlewares/Third_Party/LibJPEG/source/jmemmgr.c **** }
 213:Middlewares/Third_Party/LibJPEG/source/jmemmgr.c **** 
 214:Middlewares/Third_Party/LibJPEG/source/jmemmgr.c **** #endif /* MEM_STATS */
 215:Middlewares/Third_Party/LibJPEG/source/jmemmgr.c **** 
 216:Middlewares/Third_Party/LibJPEG/source/jmemmgr.c **** 
 217:Middlewares/Third_Party/LibJPEG/source/jmemmgr.c **** LOCAL(void)
 218:Middlewares/Third_Party/LibJPEG/source/jmemmgr.c **** out_of_memory (j_common_ptr cinfo, int which)
 219:Middlewares/Third_Party/LibJPEG/source/jmemmgr.c **** /* Report an out-of-memory error and stop execution */
 220:Middlewares/Third_Party/LibJPEG/source/jmemmgr.c **** /* If we compiled MEM_STATS support, report alloc requests before dying */
 221:Middlewares/Third_Party/LibJPEG/source/jmemmgr.c **** {
  28              		.loc 1 221 1 view -0
  29              		.cfi_startproc
  30              		@ args = 0, pretend = 0, frame = 0
  31              		@ frame_needed = 0, uses_anonymous_args = 0
  32              		.loc 1 221 1 is_stmt 0 view .LVU1
  33 0000 10B5     		push	{r4, lr}
  34              	.LCFI0:
  35              		.cfi_def_cfa_offset 8
  36              		.cfi_offset 4, -8
  37              		.cfi_offset 14, -4
 222:Middlewares/Third_Party/LibJPEG/source/jmemmgr.c **** #ifdef MEM_STATS
 223:Middlewares/Third_Party/LibJPEG/source/jmemmgr.c ****   cinfo->err->trace_level = 2;	/* force self_destruct to report stats */
 224:Middlewares/Third_Party/LibJPEG/source/jmemmgr.c **** #endif
 225:Middlewares/Third_Party/LibJPEG/source/jmemmgr.c ****   ERREXIT1(cinfo, JERR_OUT_OF_MEMORY, which);
  38              		.loc 1 225 3 is_stmt 1 view .LVU2
  39 0002 0268     		ldr	r2, [r0]
  40 0004 3824     		movs	r4, #56
  41 0006 5461     		str	r4, [r2, #20]
  42 0008 0268     		ldr	r2, [r0]
  43 000a 9161     		str	r1, [r2, #24]
  44 000c 0368     		ldr	r3, [r0]
  45 000e 1B68     		ldr	r3, [r3]
  46 0010 9847     		blx	r3
  47              	.LVL1:
 226:Middlewares/Third_Party/LibJPEG/source/jmemmgr.c **** }
  48              		.loc 1 226 1 is_stmt 0 view .LVU3
  49 0012 10BD     		pop	{r4, pc}
  50              		.cfi_endproc
  51              	.LFE147:
  53              		.section	.text.do_sarray_io,"ax",%progbits
  54              		.align	1
  55              		.syntax unified
  56              		.thumb
  57              		.thumb_func
  59              	do_sarray_io:
  60              	.LVL2:
  61              	.LFB155:
 227:Middlewares/Third_Party/LibJPEG/source/jmemmgr.c **** 
ARM GAS  /var/folders/mq/wg13gp494590nh4zyt09lxf00000gn/T//ccRbBij7.s 			page 6


 228:Middlewares/Third_Party/LibJPEG/source/jmemmgr.c **** 
 229:Middlewares/Third_Party/LibJPEG/source/jmemmgr.c **** /*
 230:Middlewares/Third_Party/LibJPEG/source/jmemmgr.c ****  * Allocation of "small" objects.
 231:Middlewares/Third_Party/LibJPEG/source/jmemmgr.c ****  *
 232:Middlewares/Third_Party/LibJPEG/source/jmemmgr.c ****  * For these, we use pooled storage.  When a new pool must be created,
 233:Middlewares/Third_Party/LibJPEG/source/jmemmgr.c ****  * we try to get enough space for the current request plus a "slop" factor,
 234:Middlewares/Third_Party/LibJPEG/source/jmemmgr.c ****  * where the slop will be the amount of leftover space in the new pool.
 235:Middlewares/Third_Party/LibJPEG/source/jmemmgr.c ****  * The speed vs. space tradeoff is largely determined by the slop values.
 236:Middlewares/Third_Party/LibJPEG/source/jmemmgr.c ****  * A different slop value is provided for each pool class (lifetime),
 237:Middlewares/Third_Party/LibJPEG/source/jmemmgr.c ****  * and we also distinguish the first pool of a class from later ones.
 238:Middlewares/Third_Party/LibJPEG/source/jmemmgr.c ****  * NOTE: the values given work fairly well on both 16- and 32-bit-int
 239:Middlewares/Third_Party/LibJPEG/source/jmemmgr.c ****  * machines, but may be too small if longs are 64 bits or more.
 240:Middlewares/Third_Party/LibJPEG/source/jmemmgr.c ****  */
 241:Middlewares/Third_Party/LibJPEG/source/jmemmgr.c **** 
 242:Middlewares/Third_Party/LibJPEG/source/jmemmgr.c **** static const size_t first_pool_slop[JPOOL_NUMPOOLS] = 
 243:Middlewares/Third_Party/LibJPEG/source/jmemmgr.c **** {
 244:Middlewares/Third_Party/LibJPEG/source/jmemmgr.c **** 	1600,			/* first PERMANENT pool */
 245:Middlewares/Third_Party/LibJPEG/source/jmemmgr.c **** 	16000			/* first IMAGE pool */
 246:Middlewares/Third_Party/LibJPEG/source/jmemmgr.c **** };
 247:Middlewares/Third_Party/LibJPEG/source/jmemmgr.c **** 
 248:Middlewares/Third_Party/LibJPEG/source/jmemmgr.c **** static const size_t extra_pool_slop[JPOOL_NUMPOOLS] = 
 249:Middlewares/Third_Party/LibJPEG/source/jmemmgr.c **** {
 250:Middlewares/Third_Party/LibJPEG/source/jmemmgr.c **** 	0,			/* additional PERMANENT pools */
 251:Middlewares/Third_Party/LibJPEG/source/jmemmgr.c **** 	5000			/* additional IMAGE pools */
 252:Middlewares/Third_Party/LibJPEG/source/jmemmgr.c **** };
 253:Middlewares/Third_Party/LibJPEG/source/jmemmgr.c **** 
 254:Middlewares/Third_Party/LibJPEG/source/jmemmgr.c **** #define MIN_SLOP  50		/* greater than 0 to avoid futile looping */
 255:Middlewares/Third_Party/LibJPEG/source/jmemmgr.c **** 
 256:Middlewares/Third_Party/LibJPEG/source/jmemmgr.c **** 
 257:Middlewares/Third_Party/LibJPEG/source/jmemmgr.c **** METHODDEF(void *)
 258:Middlewares/Third_Party/LibJPEG/source/jmemmgr.c **** alloc_small (j_common_ptr cinfo, int pool_id, size_t sizeofobject)
 259:Middlewares/Third_Party/LibJPEG/source/jmemmgr.c **** /* Allocate a "small" object */
 260:Middlewares/Third_Party/LibJPEG/source/jmemmgr.c **** {
 261:Middlewares/Third_Party/LibJPEG/source/jmemmgr.c ****   my_mem_ptr mem = (my_mem_ptr) cinfo->mem;
 262:Middlewares/Third_Party/LibJPEG/source/jmemmgr.c ****   small_pool_ptr hdr_ptr, prev_hdr_ptr;
 263:Middlewares/Third_Party/LibJPEG/source/jmemmgr.c ****   char * data_ptr;
 264:Middlewares/Third_Party/LibJPEG/source/jmemmgr.c ****   size_t odd_bytes, min_request, slop;
 265:Middlewares/Third_Party/LibJPEG/source/jmemmgr.c **** 
 266:Middlewares/Third_Party/LibJPEG/source/jmemmgr.c ****   /* Check for unsatisfiable request (do now to ensure no overflow below) */
 267:Middlewares/Third_Party/LibJPEG/source/jmemmgr.c ****   if (sizeofobject > (size_t) (MAX_ALLOC_CHUNK-SIZEOF(small_pool_hdr)))
 268:Middlewares/Third_Party/LibJPEG/source/jmemmgr.c ****     out_of_memory(cinfo, 1);	/* request exceeds malloc's ability */
 269:Middlewares/Third_Party/LibJPEG/source/jmemmgr.c **** 
 270:Middlewares/Third_Party/LibJPEG/source/jmemmgr.c ****   /* Round up the requested size to a multiple of SIZEOF(ALIGN_TYPE) */
 271:Middlewares/Third_Party/LibJPEG/source/jmemmgr.c ****   odd_bytes = sizeofobject % SIZEOF(ALIGN_TYPE);
 272:Middlewares/Third_Party/LibJPEG/source/jmemmgr.c ****   if (odd_bytes > 0)
 273:Middlewares/Third_Party/LibJPEG/source/jmemmgr.c ****     sizeofobject += SIZEOF(ALIGN_TYPE) - odd_bytes;
 274:Middlewares/Third_Party/LibJPEG/source/jmemmgr.c **** 
 275:Middlewares/Third_Party/LibJPEG/source/jmemmgr.c ****   /* See if space is available in any existing pool */
 276:Middlewares/Third_Party/LibJPEG/source/jmemmgr.c ****   if (pool_id < 0 || pool_id >= JPOOL_NUMPOOLS)
 277:Middlewares/Third_Party/LibJPEG/source/jmemmgr.c ****     ERREXIT1(cinfo, JERR_BAD_POOL_ID, pool_id);	/* safety check */
 278:Middlewares/Third_Party/LibJPEG/source/jmemmgr.c ****   prev_hdr_ptr = NULL;
 279:Middlewares/Third_Party/LibJPEG/source/jmemmgr.c ****   hdr_ptr = mem->small_list[pool_id];
 280:Middlewares/Third_Party/LibJPEG/source/jmemmgr.c ****   while (hdr_ptr != NULL) {
 281:Middlewares/Third_Party/LibJPEG/source/jmemmgr.c ****     if (hdr_ptr->hdr.bytes_left >= sizeofobject)
 282:Middlewares/Third_Party/LibJPEG/source/jmemmgr.c ****       break;			/* found pool with enough space */
 283:Middlewares/Third_Party/LibJPEG/source/jmemmgr.c ****     prev_hdr_ptr = hdr_ptr;
 284:Middlewares/Third_Party/LibJPEG/source/jmemmgr.c ****     hdr_ptr = hdr_ptr->hdr.next;
ARM GAS  /var/folders/mq/wg13gp494590nh4zyt09lxf00000gn/T//ccRbBij7.s 			page 7


 285:Middlewares/Third_Party/LibJPEG/source/jmemmgr.c ****   }
 286:Middlewares/Third_Party/LibJPEG/source/jmemmgr.c **** 
 287:Middlewares/Third_Party/LibJPEG/source/jmemmgr.c ****   /* Time to make a new pool? */
 288:Middlewares/Third_Party/LibJPEG/source/jmemmgr.c ****   if (hdr_ptr == NULL) {
 289:Middlewares/Third_Party/LibJPEG/source/jmemmgr.c ****     /* min_request is what we need now, slop is what will be leftover */
 290:Middlewares/Third_Party/LibJPEG/source/jmemmgr.c ****     min_request = sizeofobject + SIZEOF(small_pool_hdr);
 291:Middlewares/Third_Party/LibJPEG/source/jmemmgr.c ****     if (prev_hdr_ptr == NULL)	/* first pool in class? */
 292:Middlewares/Third_Party/LibJPEG/source/jmemmgr.c ****       slop = first_pool_slop[pool_id];
 293:Middlewares/Third_Party/LibJPEG/source/jmemmgr.c ****     else
 294:Middlewares/Third_Party/LibJPEG/source/jmemmgr.c ****       slop = extra_pool_slop[pool_id];
 295:Middlewares/Third_Party/LibJPEG/source/jmemmgr.c ****     /* Don't ask for more than MAX_ALLOC_CHUNK */
 296:Middlewares/Third_Party/LibJPEG/source/jmemmgr.c ****     if (slop > (size_t) (MAX_ALLOC_CHUNK-min_request))
 297:Middlewares/Third_Party/LibJPEG/source/jmemmgr.c ****       slop = (size_t) (MAX_ALLOC_CHUNK-min_request);
 298:Middlewares/Third_Party/LibJPEG/source/jmemmgr.c ****     /* Try to get space, if fail reduce slop and try again */
 299:Middlewares/Third_Party/LibJPEG/source/jmemmgr.c ****     for (;;) {
 300:Middlewares/Third_Party/LibJPEG/source/jmemmgr.c ****       hdr_ptr = (small_pool_ptr) jpeg_get_small(cinfo, min_request + slop);
 301:Middlewares/Third_Party/LibJPEG/source/jmemmgr.c ****       if (hdr_ptr != NULL)
 302:Middlewares/Third_Party/LibJPEG/source/jmemmgr.c **** 	break;
 303:Middlewares/Third_Party/LibJPEG/source/jmemmgr.c ****       slop /= 2;
 304:Middlewares/Third_Party/LibJPEG/source/jmemmgr.c ****       if (slop < MIN_SLOP)	/* give up when it gets real small */
 305:Middlewares/Third_Party/LibJPEG/source/jmemmgr.c **** 	out_of_memory(cinfo, 2); /* jpeg_get_small failed */
 306:Middlewares/Third_Party/LibJPEG/source/jmemmgr.c ****     }
 307:Middlewares/Third_Party/LibJPEG/source/jmemmgr.c ****     mem->total_space_allocated += min_request + slop;
 308:Middlewares/Third_Party/LibJPEG/source/jmemmgr.c ****     /* Success, initialize the new pool header and add to end of list */
 309:Middlewares/Third_Party/LibJPEG/source/jmemmgr.c ****     hdr_ptr->hdr.next = NULL;
 310:Middlewares/Third_Party/LibJPEG/source/jmemmgr.c ****     hdr_ptr->hdr.bytes_used = 0;
 311:Middlewares/Third_Party/LibJPEG/source/jmemmgr.c ****     hdr_ptr->hdr.bytes_left = sizeofobject + slop;
 312:Middlewares/Third_Party/LibJPEG/source/jmemmgr.c ****     if (prev_hdr_ptr == NULL)	/* first pool in class? */
 313:Middlewares/Third_Party/LibJPEG/source/jmemmgr.c ****       mem->small_list[pool_id] = hdr_ptr;
 314:Middlewares/Third_Party/LibJPEG/source/jmemmgr.c ****     else
 315:Middlewares/Third_Party/LibJPEG/source/jmemmgr.c ****       prev_hdr_ptr->hdr.next = hdr_ptr;
 316:Middlewares/Third_Party/LibJPEG/source/jmemmgr.c ****   }
 317:Middlewares/Third_Party/LibJPEG/source/jmemmgr.c **** 
 318:Middlewares/Third_Party/LibJPEG/source/jmemmgr.c ****   /* OK, allocate the object from the current pool */
 319:Middlewares/Third_Party/LibJPEG/source/jmemmgr.c ****   data_ptr = (char *) (hdr_ptr + 1); /* point to first data byte in pool */
 320:Middlewares/Third_Party/LibJPEG/source/jmemmgr.c ****   data_ptr += hdr_ptr->hdr.bytes_used; /* point to place for object */
 321:Middlewares/Third_Party/LibJPEG/source/jmemmgr.c ****   hdr_ptr->hdr.bytes_used += sizeofobject;
 322:Middlewares/Third_Party/LibJPEG/source/jmemmgr.c ****   hdr_ptr->hdr.bytes_left -= sizeofobject;
 323:Middlewares/Third_Party/LibJPEG/source/jmemmgr.c **** 
 324:Middlewares/Third_Party/LibJPEG/source/jmemmgr.c ****   return (void *) data_ptr;
 325:Middlewares/Third_Party/LibJPEG/source/jmemmgr.c **** }
 326:Middlewares/Third_Party/LibJPEG/source/jmemmgr.c **** 
 327:Middlewares/Third_Party/LibJPEG/source/jmemmgr.c **** 
 328:Middlewares/Third_Party/LibJPEG/source/jmemmgr.c **** /*
 329:Middlewares/Third_Party/LibJPEG/source/jmemmgr.c ****  * Allocation of "large" objects.
 330:Middlewares/Third_Party/LibJPEG/source/jmemmgr.c ****  *
 331:Middlewares/Third_Party/LibJPEG/source/jmemmgr.c ****  * The external semantics of these are the same as "small" objects,
 332:Middlewares/Third_Party/LibJPEG/source/jmemmgr.c ****  * except that FAR pointers are used on 80x86.  However the pool
 333:Middlewares/Third_Party/LibJPEG/source/jmemmgr.c ****  * management heuristics are quite different.  We assume that each
 334:Middlewares/Third_Party/LibJPEG/source/jmemmgr.c ****  * request is large enough that it may as well be passed directly to
 335:Middlewares/Third_Party/LibJPEG/source/jmemmgr.c ****  * jpeg_get_large; the pool management just links everything together
 336:Middlewares/Third_Party/LibJPEG/source/jmemmgr.c ****  * so that we can free it all on demand.
 337:Middlewares/Third_Party/LibJPEG/source/jmemmgr.c ****  * Note: the major use of "large" objects is in JSAMPARRAY and JBLOCKARRAY
 338:Middlewares/Third_Party/LibJPEG/source/jmemmgr.c ****  * structures.  The routines that create these structures (see below)
 339:Middlewares/Third_Party/LibJPEG/source/jmemmgr.c ****  * deliberately bunch rows together to ensure a large request size.
 340:Middlewares/Third_Party/LibJPEG/source/jmemmgr.c ****  */
 341:Middlewares/Third_Party/LibJPEG/source/jmemmgr.c **** 
ARM GAS  /var/folders/mq/wg13gp494590nh4zyt09lxf00000gn/T//ccRbBij7.s 			page 8


 342:Middlewares/Third_Party/LibJPEG/source/jmemmgr.c **** METHODDEF(void FAR *)
 343:Middlewares/Third_Party/LibJPEG/source/jmemmgr.c **** alloc_large (j_common_ptr cinfo, int pool_id, size_t sizeofobject)
 344:Middlewares/Third_Party/LibJPEG/source/jmemmgr.c **** /* Allocate a "large" object */
 345:Middlewares/Third_Party/LibJPEG/source/jmemmgr.c **** {
 346:Middlewares/Third_Party/LibJPEG/source/jmemmgr.c ****   my_mem_ptr mem = (my_mem_ptr) cinfo->mem;
 347:Middlewares/Third_Party/LibJPEG/source/jmemmgr.c ****   large_pool_ptr hdr_ptr;
 348:Middlewares/Third_Party/LibJPEG/source/jmemmgr.c ****   size_t odd_bytes;
 349:Middlewares/Third_Party/LibJPEG/source/jmemmgr.c **** 
 350:Middlewares/Third_Party/LibJPEG/source/jmemmgr.c ****   /* Check for unsatisfiable request (do now to ensure no overflow below) */
 351:Middlewares/Third_Party/LibJPEG/source/jmemmgr.c ****   if (sizeofobject > (size_t) (MAX_ALLOC_CHUNK-SIZEOF(large_pool_hdr)))
 352:Middlewares/Third_Party/LibJPEG/source/jmemmgr.c ****     out_of_memory(cinfo, 3);	/* request exceeds malloc's ability */
 353:Middlewares/Third_Party/LibJPEG/source/jmemmgr.c **** 
 354:Middlewares/Third_Party/LibJPEG/source/jmemmgr.c ****   /* Round up the requested size to a multiple of SIZEOF(ALIGN_TYPE) */
 355:Middlewares/Third_Party/LibJPEG/source/jmemmgr.c ****   odd_bytes = sizeofobject % SIZEOF(ALIGN_TYPE);
 356:Middlewares/Third_Party/LibJPEG/source/jmemmgr.c ****   if (odd_bytes > 0)
 357:Middlewares/Third_Party/LibJPEG/source/jmemmgr.c ****     sizeofobject += SIZEOF(ALIGN_TYPE) - odd_bytes;
 358:Middlewares/Third_Party/LibJPEG/source/jmemmgr.c **** 
 359:Middlewares/Third_Party/LibJPEG/source/jmemmgr.c ****   /* Always make a new pool */
 360:Middlewares/Third_Party/LibJPEG/source/jmemmgr.c ****   if (pool_id < 0 || pool_id >= JPOOL_NUMPOOLS)
 361:Middlewares/Third_Party/LibJPEG/source/jmemmgr.c ****     ERREXIT1(cinfo, JERR_BAD_POOL_ID, pool_id);	/* safety check */
 362:Middlewares/Third_Party/LibJPEG/source/jmemmgr.c **** 
 363:Middlewares/Third_Party/LibJPEG/source/jmemmgr.c ****   hdr_ptr = (large_pool_ptr) jpeg_get_large(cinfo, sizeofobject +
 364:Middlewares/Third_Party/LibJPEG/source/jmemmgr.c **** 					    SIZEOF(large_pool_hdr));
 365:Middlewares/Third_Party/LibJPEG/source/jmemmgr.c ****   if (hdr_ptr == NULL)
 366:Middlewares/Third_Party/LibJPEG/source/jmemmgr.c ****     out_of_memory(cinfo, 4);	/* jpeg_get_large failed */
 367:Middlewares/Third_Party/LibJPEG/source/jmemmgr.c ****   mem->total_space_allocated += sizeofobject + SIZEOF(large_pool_hdr);
 368:Middlewares/Third_Party/LibJPEG/source/jmemmgr.c **** 
 369:Middlewares/Third_Party/LibJPEG/source/jmemmgr.c ****   /* Success, initialize the new pool header and add to list */
 370:Middlewares/Third_Party/LibJPEG/source/jmemmgr.c ****   hdr_ptr->hdr.next = mem->large_list[pool_id];
 371:Middlewares/Third_Party/LibJPEG/source/jmemmgr.c ****   /* We maintain space counts in each pool header for statistical purposes,
 372:Middlewares/Third_Party/LibJPEG/source/jmemmgr.c ****    * even though they are not needed for allocation.
 373:Middlewares/Third_Party/LibJPEG/source/jmemmgr.c ****    */
 374:Middlewares/Third_Party/LibJPEG/source/jmemmgr.c ****   hdr_ptr->hdr.bytes_used = sizeofobject;
 375:Middlewares/Third_Party/LibJPEG/source/jmemmgr.c ****   hdr_ptr->hdr.bytes_left = 0;
 376:Middlewares/Third_Party/LibJPEG/source/jmemmgr.c ****   mem->large_list[pool_id] = hdr_ptr;
 377:Middlewares/Third_Party/LibJPEG/source/jmemmgr.c **** 
 378:Middlewares/Third_Party/LibJPEG/source/jmemmgr.c ****   return (void FAR *) (hdr_ptr + 1); /* point to first data byte in pool */
 379:Middlewares/Third_Party/LibJPEG/source/jmemmgr.c **** }
 380:Middlewares/Third_Party/LibJPEG/source/jmemmgr.c **** 
 381:Middlewares/Third_Party/LibJPEG/source/jmemmgr.c **** 
 382:Middlewares/Third_Party/LibJPEG/source/jmemmgr.c **** /*
 383:Middlewares/Third_Party/LibJPEG/source/jmemmgr.c ****  * Creation of 2-D sample arrays.
 384:Middlewares/Third_Party/LibJPEG/source/jmemmgr.c ****  * The pointers are in near heap, the samples themselves in FAR heap.
 385:Middlewares/Third_Party/LibJPEG/source/jmemmgr.c ****  *
 386:Middlewares/Third_Party/LibJPEG/source/jmemmgr.c ****  * To minimize allocation overhead and to allow I/O of large contiguous
 387:Middlewares/Third_Party/LibJPEG/source/jmemmgr.c ****  * blocks, we allocate the sample rows in groups of as many rows as possible
 388:Middlewares/Third_Party/LibJPEG/source/jmemmgr.c ****  * without exceeding MAX_ALLOC_CHUNK total bytes per allocation request.
 389:Middlewares/Third_Party/LibJPEG/source/jmemmgr.c ****  * NB: the virtual array control routines, later in this file, know about
 390:Middlewares/Third_Party/LibJPEG/source/jmemmgr.c ****  * this chunking of rows.  The rowsperchunk value is left in the mem manager
 391:Middlewares/Third_Party/LibJPEG/source/jmemmgr.c ****  * object so that it can be saved away if this sarray is the workspace for
 392:Middlewares/Third_Party/LibJPEG/source/jmemmgr.c ****  * a virtual array.
 393:Middlewares/Third_Party/LibJPEG/source/jmemmgr.c ****  */
 394:Middlewares/Third_Party/LibJPEG/source/jmemmgr.c **** 
 395:Middlewares/Third_Party/LibJPEG/source/jmemmgr.c **** METHODDEF(JSAMPARRAY)
 396:Middlewares/Third_Party/LibJPEG/source/jmemmgr.c **** alloc_sarray (j_common_ptr cinfo, int pool_id,
 397:Middlewares/Third_Party/LibJPEG/source/jmemmgr.c **** 	      JDIMENSION samplesperrow, JDIMENSION numrows)
 398:Middlewares/Third_Party/LibJPEG/source/jmemmgr.c **** /* Allocate a 2-D sample array */
ARM GAS  /var/folders/mq/wg13gp494590nh4zyt09lxf00000gn/T//ccRbBij7.s 			page 9


 399:Middlewares/Third_Party/LibJPEG/source/jmemmgr.c **** {
 400:Middlewares/Third_Party/LibJPEG/source/jmemmgr.c ****   my_mem_ptr mem = (my_mem_ptr) cinfo->mem;
 401:Middlewares/Third_Party/LibJPEG/source/jmemmgr.c ****   JSAMPARRAY result;
 402:Middlewares/Third_Party/LibJPEG/source/jmemmgr.c ****   JSAMPROW workspace;
 403:Middlewares/Third_Party/LibJPEG/source/jmemmgr.c ****   JDIMENSION rowsperchunk, currow, i;
 404:Middlewares/Third_Party/LibJPEG/source/jmemmgr.c ****   long ltemp;
 405:Middlewares/Third_Party/LibJPEG/source/jmemmgr.c **** 
 406:Middlewares/Third_Party/LibJPEG/source/jmemmgr.c ****   /* Calculate max # of rows allowed in one allocation chunk */
 407:Middlewares/Third_Party/LibJPEG/source/jmemmgr.c ****   ltemp = (MAX_ALLOC_CHUNK-SIZEOF(large_pool_hdr)) /
 408:Middlewares/Third_Party/LibJPEG/source/jmemmgr.c **** 	  ((long) samplesperrow * SIZEOF(JSAMPLE));
 409:Middlewares/Third_Party/LibJPEG/source/jmemmgr.c ****   if (ltemp <= 0)
 410:Middlewares/Third_Party/LibJPEG/source/jmemmgr.c ****     ERREXIT(cinfo, JERR_WIDTH_OVERFLOW);
 411:Middlewares/Third_Party/LibJPEG/source/jmemmgr.c ****   if (ltemp < (long) numrows)
 412:Middlewares/Third_Party/LibJPEG/source/jmemmgr.c ****     rowsperchunk = (JDIMENSION) ltemp;
 413:Middlewares/Third_Party/LibJPEG/source/jmemmgr.c ****   else
 414:Middlewares/Third_Party/LibJPEG/source/jmemmgr.c ****     rowsperchunk = numrows;
 415:Middlewares/Third_Party/LibJPEG/source/jmemmgr.c ****   mem->last_rowsperchunk = rowsperchunk;
 416:Middlewares/Third_Party/LibJPEG/source/jmemmgr.c **** 
 417:Middlewares/Third_Party/LibJPEG/source/jmemmgr.c ****   /* Get space for row pointers (small object) */
 418:Middlewares/Third_Party/LibJPEG/source/jmemmgr.c ****   result = (JSAMPARRAY) alloc_small(cinfo, pool_id,
 419:Middlewares/Third_Party/LibJPEG/source/jmemmgr.c **** 				    (size_t) (numrows * SIZEOF(JSAMPROW)));
 420:Middlewares/Third_Party/LibJPEG/source/jmemmgr.c **** 
 421:Middlewares/Third_Party/LibJPEG/source/jmemmgr.c ****   /* Get the rows themselves (large objects) */
 422:Middlewares/Third_Party/LibJPEG/source/jmemmgr.c ****   currow = 0;
 423:Middlewares/Third_Party/LibJPEG/source/jmemmgr.c ****   while (currow < numrows) {
 424:Middlewares/Third_Party/LibJPEG/source/jmemmgr.c ****     rowsperchunk = MIN(rowsperchunk, numrows - currow);
 425:Middlewares/Third_Party/LibJPEG/source/jmemmgr.c ****     workspace = (JSAMPROW) alloc_large(cinfo, pool_id,
 426:Middlewares/Third_Party/LibJPEG/source/jmemmgr.c **** 	(size_t) ((size_t) rowsperchunk * (size_t) samplesperrow
 427:Middlewares/Third_Party/LibJPEG/source/jmemmgr.c **** 		  * SIZEOF(JSAMPLE)));
 428:Middlewares/Third_Party/LibJPEG/source/jmemmgr.c ****     for (i = rowsperchunk; i > 0; i--) {
 429:Middlewares/Third_Party/LibJPEG/source/jmemmgr.c ****       result[currow++] = workspace;
 430:Middlewares/Third_Party/LibJPEG/source/jmemmgr.c ****       workspace += samplesperrow;
 431:Middlewares/Third_Party/LibJPEG/source/jmemmgr.c ****     }
 432:Middlewares/Third_Party/LibJPEG/source/jmemmgr.c ****   }
 433:Middlewares/Third_Party/LibJPEG/source/jmemmgr.c **** 
 434:Middlewares/Third_Party/LibJPEG/source/jmemmgr.c ****   return result;
 435:Middlewares/Third_Party/LibJPEG/source/jmemmgr.c **** }
 436:Middlewares/Third_Party/LibJPEG/source/jmemmgr.c **** 
 437:Middlewares/Third_Party/LibJPEG/source/jmemmgr.c **** 
 438:Middlewares/Third_Party/LibJPEG/source/jmemmgr.c **** /*
 439:Middlewares/Third_Party/LibJPEG/source/jmemmgr.c ****  * Creation of 2-D coefficient-block arrays.
 440:Middlewares/Third_Party/LibJPEG/source/jmemmgr.c ****  * This is essentially the same as the code for sample arrays, above.
 441:Middlewares/Third_Party/LibJPEG/source/jmemmgr.c ****  */
 442:Middlewares/Third_Party/LibJPEG/source/jmemmgr.c **** 
 443:Middlewares/Third_Party/LibJPEG/source/jmemmgr.c **** METHODDEF(JBLOCKARRAY)
 444:Middlewares/Third_Party/LibJPEG/source/jmemmgr.c **** alloc_barray (j_common_ptr cinfo, int pool_id,
 445:Middlewares/Third_Party/LibJPEG/source/jmemmgr.c **** 	      JDIMENSION blocksperrow, JDIMENSION numrows)
 446:Middlewares/Third_Party/LibJPEG/source/jmemmgr.c **** /* Allocate a 2-D coefficient-block array */
 447:Middlewares/Third_Party/LibJPEG/source/jmemmgr.c **** {
 448:Middlewares/Third_Party/LibJPEG/source/jmemmgr.c ****   my_mem_ptr mem = (my_mem_ptr) cinfo->mem;
 449:Middlewares/Third_Party/LibJPEG/source/jmemmgr.c ****   JBLOCKARRAY result;
 450:Middlewares/Third_Party/LibJPEG/source/jmemmgr.c ****   JBLOCKROW workspace;
 451:Middlewares/Third_Party/LibJPEG/source/jmemmgr.c ****   JDIMENSION rowsperchunk, currow, i;
 452:Middlewares/Third_Party/LibJPEG/source/jmemmgr.c ****   long ltemp;
 453:Middlewares/Third_Party/LibJPEG/source/jmemmgr.c **** 
 454:Middlewares/Third_Party/LibJPEG/source/jmemmgr.c ****   /* Calculate max # of rows allowed in one allocation chunk */
 455:Middlewares/Third_Party/LibJPEG/source/jmemmgr.c ****   ltemp = (MAX_ALLOC_CHUNK-SIZEOF(large_pool_hdr)) /
ARM GAS  /var/folders/mq/wg13gp494590nh4zyt09lxf00000gn/T//ccRbBij7.s 			page 10


 456:Middlewares/Third_Party/LibJPEG/source/jmemmgr.c **** 	  ((long) blocksperrow * SIZEOF(JBLOCK));
 457:Middlewares/Third_Party/LibJPEG/source/jmemmgr.c ****   if (ltemp <= 0)
 458:Middlewares/Third_Party/LibJPEG/source/jmemmgr.c ****     ERREXIT(cinfo, JERR_WIDTH_OVERFLOW);
 459:Middlewares/Third_Party/LibJPEG/source/jmemmgr.c ****   if (ltemp < (long) numrows)
 460:Middlewares/Third_Party/LibJPEG/source/jmemmgr.c ****     rowsperchunk = (JDIMENSION) ltemp;
 461:Middlewares/Third_Party/LibJPEG/source/jmemmgr.c ****   else
 462:Middlewares/Third_Party/LibJPEG/source/jmemmgr.c ****     rowsperchunk = numrows;
 463:Middlewares/Third_Party/LibJPEG/source/jmemmgr.c ****   mem->last_rowsperchunk = rowsperchunk;
 464:Middlewares/Third_Party/LibJPEG/source/jmemmgr.c **** 
 465:Middlewares/Third_Party/LibJPEG/source/jmemmgr.c ****   /* Get space for row pointers (small object) */
 466:Middlewares/Third_Party/LibJPEG/source/jmemmgr.c ****   result = (JBLOCKARRAY) alloc_small(cinfo, pool_id,
 467:Middlewares/Third_Party/LibJPEG/source/jmemmgr.c **** 				     (size_t) (numrows * SIZEOF(JBLOCKROW)));
 468:Middlewares/Third_Party/LibJPEG/source/jmemmgr.c **** 
 469:Middlewares/Third_Party/LibJPEG/source/jmemmgr.c ****   /* Get the rows themselves (large objects) */
 470:Middlewares/Third_Party/LibJPEG/source/jmemmgr.c ****   currow = 0;
 471:Middlewares/Third_Party/LibJPEG/source/jmemmgr.c ****   while (currow < numrows) {
 472:Middlewares/Third_Party/LibJPEG/source/jmemmgr.c ****     rowsperchunk = MIN(rowsperchunk, numrows - currow);
 473:Middlewares/Third_Party/LibJPEG/source/jmemmgr.c ****     workspace = (JBLOCKROW) alloc_large(cinfo, pool_id,
 474:Middlewares/Third_Party/LibJPEG/source/jmemmgr.c **** 	(size_t) ((size_t) rowsperchunk * (size_t) blocksperrow
 475:Middlewares/Third_Party/LibJPEG/source/jmemmgr.c **** 		  * SIZEOF(JBLOCK)));
 476:Middlewares/Third_Party/LibJPEG/source/jmemmgr.c ****     for (i = rowsperchunk; i > 0; i--) {
 477:Middlewares/Third_Party/LibJPEG/source/jmemmgr.c ****       result[currow++] = workspace;
 478:Middlewares/Third_Party/LibJPEG/source/jmemmgr.c ****       workspace += blocksperrow;
 479:Middlewares/Third_Party/LibJPEG/source/jmemmgr.c ****     }
 480:Middlewares/Third_Party/LibJPEG/source/jmemmgr.c ****   }
 481:Middlewares/Third_Party/LibJPEG/source/jmemmgr.c **** 
 482:Middlewares/Third_Party/LibJPEG/source/jmemmgr.c ****   return result;
 483:Middlewares/Third_Party/LibJPEG/source/jmemmgr.c **** }
 484:Middlewares/Third_Party/LibJPEG/source/jmemmgr.c **** 
 485:Middlewares/Third_Party/LibJPEG/source/jmemmgr.c **** 
 486:Middlewares/Third_Party/LibJPEG/source/jmemmgr.c **** /*
 487:Middlewares/Third_Party/LibJPEG/source/jmemmgr.c ****  * About virtual array management:
 488:Middlewares/Third_Party/LibJPEG/source/jmemmgr.c ****  *
 489:Middlewares/Third_Party/LibJPEG/source/jmemmgr.c ****  * The above "normal" array routines are only used to allocate strip buffers
 490:Middlewares/Third_Party/LibJPEG/source/jmemmgr.c ****  * (as wide as the image, but just a few rows high).  Full-image-sized buffers
 491:Middlewares/Third_Party/LibJPEG/source/jmemmgr.c ****  * are handled as "virtual" arrays.  The array is still accessed a strip at a
 492:Middlewares/Third_Party/LibJPEG/source/jmemmgr.c ****  * time, but the memory manager must save the whole array for repeated
 493:Middlewares/Third_Party/LibJPEG/source/jmemmgr.c ****  * accesses.  The intended implementation is that there is a strip buffer in
 494:Middlewares/Third_Party/LibJPEG/source/jmemmgr.c ****  * memory (as high as is possible given the desired memory limit), plus a
 495:Middlewares/Third_Party/LibJPEG/source/jmemmgr.c ****  * backing file that holds the rest of the array.
 496:Middlewares/Third_Party/LibJPEG/source/jmemmgr.c ****  *
 497:Middlewares/Third_Party/LibJPEG/source/jmemmgr.c ****  * The request_virt_array routines are told the total size of the image and
 498:Middlewares/Third_Party/LibJPEG/source/jmemmgr.c ****  * the maximum number of rows that will be accessed at once.  The in-memory
 499:Middlewares/Third_Party/LibJPEG/source/jmemmgr.c ****  * buffer must be at least as large as the maxaccess value.
 500:Middlewares/Third_Party/LibJPEG/source/jmemmgr.c ****  *
 501:Middlewares/Third_Party/LibJPEG/source/jmemmgr.c ****  * The request routines create control blocks but not the in-memory buffers.
 502:Middlewares/Third_Party/LibJPEG/source/jmemmgr.c ****  * That is postponed until realize_virt_arrays is called.  At that time the
 503:Middlewares/Third_Party/LibJPEG/source/jmemmgr.c ****  * total amount of space needed is known (approximately, anyway), so free
 504:Middlewares/Third_Party/LibJPEG/source/jmemmgr.c ****  * memory can be divided up fairly.
 505:Middlewares/Third_Party/LibJPEG/source/jmemmgr.c ****  *
 506:Middlewares/Third_Party/LibJPEG/source/jmemmgr.c ****  * The access_virt_array routines are responsible for making a specific strip
 507:Middlewares/Third_Party/LibJPEG/source/jmemmgr.c ****  * area accessible (after reading or writing the backing file, if necessary).
 508:Middlewares/Third_Party/LibJPEG/source/jmemmgr.c ****  * Note that the access routines are told whether the caller intends to modify
 509:Middlewares/Third_Party/LibJPEG/source/jmemmgr.c ****  * the accessed strip; during a read-only pass this saves having to rewrite
 510:Middlewares/Third_Party/LibJPEG/source/jmemmgr.c ****  * data to disk.  The access routines are also responsible for pre-zeroing
 511:Middlewares/Third_Party/LibJPEG/source/jmemmgr.c ****  * any newly accessed rows, if pre-zeroing was requested.
 512:Middlewares/Third_Party/LibJPEG/source/jmemmgr.c ****  *
ARM GAS  /var/folders/mq/wg13gp494590nh4zyt09lxf00000gn/T//ccRbBij7.s 			page 11


 513:Middlewares/Third_Party/LibJPEG/source/jmemmgr.c ****  * In current usage, the access requests are usually for nonoverlapping
 514:Middlewares/Third_Party/LibJPEG/source/jmemmgr.c ****  * strips; that is, successive access start_row numbers differ by exactly
 515:Middlewares/Third_Party/LibJPEG/source/jmemmgr.c ****  * num_rows = maxaccess.  This means we can get good performance with simple
 516:Middlewares/Third_Party/LibJPEG/source/jmemmgr.c ****  * buffer dump/reload logic, by making the in-memory buffer be a multiple
 517:Middlewares/Third_Party/LibJPEG/source/jmemmgr.c ****  * of the access height; then there will never be accesses across bufferload
 518:Middlewares/Third_Party/LibJPEG/source/jmemmgr.c ****  * boundaries.  The code will still work with overlapping access requests,
 519:Middlewares/Third_Party/LibJPEG/source/jmemmgr.c ****  * but it doesn't handle bufferload overlaps very efficiently.
 520:Middlewares/Third_Party/LibJPEG/source/jmemmgr.c ****  */
 521:Middlewares/Third_Party/LibJPEG/source/jmemmgr.c **** 
 522:Middlewares/Third_Party/LibJPEG/source/jmemmgr.c **** 
 523:Middlewares/Third_Party/LibJPEG/source/jmemmgr.c **** METHODDEF(jvirt_sarray_ptr)
 524:Middlewares/Third_Party/LibJPEG/source/jmemmgr.c **** request_virt_sarray (j_common_ptr cinfo, int pool_id, boolean pre_zero,
 525:Middlewares/Third_Party/LibJPEG/source/jmemmgr.c **** 		     JDIMENSION samplesperrow, JDIMENSION numrows,
 526:Middlewares/Third_Party/LibJPEG/source/jmemmgr.c **** 		     JDIMENSION maxaccess)
 527:Middlewares/Third_Party/LibJPEG/source/jmemmgr.c **** /* Request a virtual 2-D sample array */
 528:Middlewares/Third_Party/LibJPEG/source/jmemmgr.c **** {
 529:Middlewares/Third_Party/LibJPEG/source/jmemmgr.c ****   my_mem_ptr mem = (my_mem_ptr) cinfo->mem;
 530:Middlewares/Third_Party/LibJPEG/source/jmemmgr.c ****   jvirt_sarray_ptr result;
 531:Middlewares/Third_Party/LibJPEG/source/jmemmgr.c **** 
 532:Middlewares/Third_Party/LibJPEG/source/jmemmgr.c ****   /* Only IMAGE-lifetime virtual arrays are currently supported */
 533:Middlewares/Third_Party/LibJPEG/source/jmemmgr.c ****   if (pool_id != JPOOL_IMAGE)
 534:Middlewares/Third_Party/LibJPEG/source/jmemmgr.c ****     ERREXIT1(cinfo, JERR_BAD_POOL_ID, pool_id);	/* safety check */
 535:Middlewares/Third_Party/LibJPEG/source/jmemmgr.c **** 
 536:Middlewares/Third_Party/LibJPEG/source/jmemmgr.c ****   /* get control block */
 537:Middlewares/Third_Party/LibJPEG/source/jmemmgr.c ****   result = (jvirt_sarray_ptr) alloc_small(cinfo, pool_id,
 538:Middlewares/Third_Party/LibJPEG/source/jmemmgr.c **** 					  SIZEOF(struct jvirt_sarray_control));
 539:Middlewares/Third_Party/LibJPEG/source/jmemmgr.c **** 
 540:Middlewares/Third_Party/LibJPEG/source/jmemmgr.c ****   result->mem_buffer = NULL;	/* marks array not yet realized */
 541:Middlewares/Third_Party/LibJPEG/source/jmemmgr.c ****   result->rows_in_array = numrows;
 542:Middlewares/Third_Party/LibJPEG/source/jmemmgr.c ****   result->samplesperrow = samplesperrow;
 543:Middlewares/Third_Party/LibJPEG/source/jmemmgr.c ****   result->maxaccess = maxaccess;
 544:Middlewares/Third_Party/LibJPEG/source/jmemmgr.c ****   result->pre_zero = pre_zero;
 545:Middlewares/Third_Party/LibJPEG/source/jmemmgr.c ****   result->b_s_open = FALSE;	/* no associated backing-store object */
 546:Middlewares/Third_Party/LibJPEG/source/jmemmgr.c ****   result->next = mem->virt_sarray_list; /* add to list of virtual arrays */
 547:Middlewares/Third_Party/LibJPEG/source/jmemmgr.c ****   mem->virt_sarray_list = result;
 548:Middlewares/Third_Party/LibJPEG/source/jmemmgr.c **** 
 549:Middlewares/Third_Party/LibJPEG/source/jmemmgr.c ****   return result;
 550:Middlewares/Third_Party/LibJPEG/source/jmemmgr.c **** }
 551:Middlewares/Third_Party/LibJPEG/source/jmemmgr.c **** 
 552:Middlewares/Third_Party/LibJPEG/source/jmemmgr.c **** 
 553:Middlewares/Third_Party/LibJPEG/source/jmemmgr.c **** METHODDEF(jvirt_barray_ptr)
 554:Middlewares/Third_Party/LibJPEG/source/jmemmgr.c **** request_virt_barray (j_common_ptr cinfo, int pool_id, boolean pre_zero,
 555:Middlewares/Third_Party/LibJPEG/source/jmemmgr.c **** 		     JDIMENSION blocksperrow, JDIMENSION numrows,
 556:Middlewares/Third_Party/LibJPEG/source/jmemmgr.c **** 		     JDIMENSION maxaccess)
 557:Middlewares/Third_Party/LibJPEG/source/jmemmgr.c **** /* Request a virtual 2-D coefficient-block array */
 558:Middlewares/Third_Party/LibJPEG/source/jmemmgr.c **** {
 559:Middlewares/Third_Party/LibJPEG/source/jmemmgr.c ****   my_mem_ptr mem = (my_mem_ptr) cinfo->mem;
 560:Middlewares/Third_Party/LibJPEG/source/jmemmgr.c ****   jvirt_barray_ptr result;
 561:Middlewares/Third_Party/LibJPEG/source/jmemmgr.c **** 
 562:Middlewares/Third_Party/LibJPEG/source/jmemmgr.c ****   /* Only IMAGE-lifetime virtual arrays are currently supported */
 563:Middlewares/Third_Party/LibJPEG/source/jmemmgr.c ****   if (pool_id != JPOOL_IMAGE)
 564:Middlewares/Third_Party/LibJPEG/source/jmemmgr.c ****     ERREXIT1(cinfo, JERR_BAD_POOL_ID, pool_id);	/* safety check */
 565:Middlewares/Third_Party/LibJPEG/source/jmemmgr.c **** 
 566:Middlewares/Third_Party/LibJPEG/source/jmemmgr.c ****   /* get control block */
 567:Middlewares/Third_Party/LibJPEG/source/jmemmgr.c ****   result = (jvirt_barray_ptr) alloc_small(cinfo, pool_id,
 568:Middlewares/Third_Party/LibJPEG/source/jmemmgr.c **** 					  SIZEOF(struct jvirt_barray_control));
 569:Middlewares/Third_Party/LibJPEG/source/jmemmgr.c **** 
ARM GAS  /var/folders/mq/wg13gp494590nh4zyt09lxf00000gn/T//ccRbBij7.s 			page 12


 570:Middlewares/Third_Party/LibJPEG/source/jmemmgr.c ****   result->mem_buffer = NULL;	/* marks array not yet realized */
 571:Middlewares/Third_Party/LibJPEG/source/jmemmgr.c ****   result->rows_in_array = numrows;
 572:Middlewares/Third_Party/LibJPEG/source/jmemmgr.c ****   result->blocksperrow = blocksperrow;
 573:Middlewares/Third_Party/LibJPEG/source/jmemmgr.c ****   result->maxaccess = maxaccess;
 574:Middlewares/Third_Party/LibJPEG/source/jmemmgr.c ****   result->pre_zero = pre_zero;
 575:Middlewares/Third_Party/LibJPEG/source/jmemmgr.c ****   result->b_s_open = FALSE;	/* no associated backing-store object */
 576:Middlewares/Third_Party/LibJPEG/source/jmemmgr.c ****   result->next = mem->virt_barray_list; /* add to list of virtual arrays */
 577:Middlewares/Third_Party/LibJPEG/source/jmemmgr.c ****   mem->virt_barray_list = result;
 578:Middlewares/Third_Party/LibJPEG/source/jmemmgr.c **** 
 579:Middlewares/Third_Party/LibJPEG/source/jmemmgr.c ****   return result;
 580:Middlewares/Third_Party/LibJPEG/source/jmemmgr.c **** }
 581:Middlewares/Third_Party/LibJPEG/source/jmemmgr.c **** 
 582:Middlewares/Third_Party/LibJPEG/source/jmemmgr.c **** 
 583:Middlewares/Third_Party/LibJPEG/source/jmemmgr.c **** METHODDEF(void)
 584:Middlewares/Third_Party/LibJPEG/source/jmemmgr.c **** realize_virt_arrays (j_common_ptr cinfo)
 585:Middlewares/Third_Party/LibJPEG/source/jmemmgr.c **** /* Allocate the in-memory buffers for any unrealized virtual arrays */
 586:Middlewares/Third_Party/LibJPEG/source/jmemmgr.c **** {
 587:Middlewares/Third_Party/LibJPEG/source/jmemmgr.c ****   my_mem_ptr mem = (my_mem_ptr) cinfo->mem;
 588:Middlewares/Third_Party/LibJPEG/source/jmemmgr.c ****   long space_per_minheight, maximum_space, avail_mem;
 589:Middlewares/Third_Party/LibJPEG/source/jmemmgr.c ****   long minheights, max_minheights;
 590:Middlewares/Third_Party/LibJPEG/source/jmemmgr.c ****   jvirt_sarray_ptr sptr;
 591:Middlewares/Third_Party/LibJPEG/source/jmemmgr.c ****   jvirt_barray_ptr bptr;
 592:Middlewares/Third_Party/LibJPEG/source/jmemmgr.c **** 
 593:Middlewares/Third_Party/LibJPEG/source/jmemmgr.c ****   /* Compute the minimum space needed (maxaccess rows in each buffer)
 594:Middlewares/Third_Party/LibJPEG/source/jmemmgr.c ****    * and the maximum space needed (full image height in each buffer).
 595:Middlewares/Third_Party/LibJPEG/source/jmemmgr.c ****    * These may be of use to the system-dependent jpeg_mem_available routine.
 596:Middlewares/Third_Party/LibJPEG/source/jmemmgr.c ****    */
 597:Middlewares/Third_Party/LibJPEG/source/jmemmgr.c ****   space_per_minheight = 0;
 598:Middlewares/Third_Party/LibJPEG/source/jmemmgr.c ****   maximum_space = 0;
 599:Middlewares/Third_Party/LibJPEG/source/jmemmgr.c ****   for (sptr = mem->virt_sarray_list; sptr != NULL; sptr = sptr->next) {
 600:Middlewares/Third_Party/LibJPEG/source/jmemmgr.c ****     if (sptr->mem_buffer == NULL) { /* if not realized yet */
 601:Middlewares/Third_Party/LibJPEG/source/jmemmgr.c ****       space_per_minheight += (long) sptr->maxaccess *
 602:Middlewares/Third_Party/LibJPEG/source/jmemmgr.c **** 			     (long) sptr->samplesperrow * SIZEOF(JSAMPLE);
 603:Middlewares/Third_Party/LibJPEG/source/jmemmgr.c ****       maximum_space += (long) sptr->rows_in_array *
 604:Middlewares/Third_Party/LibJPEG/source/jmemmgr.c **** 		       (long) sptr->samplesperrow * SIZEOF(JSAMPLE);
 605:Middlewares/Third_Party/LibJPEG/source/jmemmgr.c ****     }
 606:Middlewares/Third_Party/LibJPEG/source/jmemmgr.c ****   }
 607:Middlewares/Third_Party/LibJPEG/source/jmemmgr.c ****   for (bptr = mem->virt_barray_list; bptr != NULL; bptr = bptr->next) {
 608:Middlewares/Third_Party/LibJPEG/source/jmemmgr.c ****     if (bptr->mem_buffer == NULL) { /* if not realized yet */
 609:Middlewares/Third_Party/LibJPEG/source/jmemmgr.c ****       space_per_minheight += (long) bptr->maxaccess *
 610:Middlewares/Third_Party/LibJPEG/source/jmemmgr.c **** 			     (long) bptr->blocksperrow * SIZEOF(JBLOCK);
 611:Middlewares/Third_Party/LibJPEG/source/jmemmgr.c ****       maximum_space += (long) bptr->rows_in_array *
 612:Middlewares/Third_Party/LibJPEG/source/jmemmgr.c **** 		       (long) bptr->blocksperrow * SIZEOF(JBLOCK);
 613:Middlewares/Third_Party/LibJPEG/source/jmemmgr.c ****     }
 614:Middlewares/Third_Party/LibJPEG/source/jmemmgr.c ****   }
 615:Middlewares/Third_Party/LibJPEG/source/jmemmgr.c **** 
 616:Middlewares/Third_Party/LibJPEG/source/jmemmgr.c ****   if (space_per_minheight <= 0)
 617:Middlewares/Third_Party/LibJPEG/source/jmemmgr.c ****     return;			/* no unrealized arrays, no work */
 618:Middlewares/Third_Party/LibJPEG/source/jmemmgr.c **** 
 619:Middlewares/Third_Party/LibJPEG/source/jmemmgr.c ****   /* Determine amount of memory to actually use; this is system-dependent. */
 620:Middlewares/Third_Party/LibJPEG/source/jmemmgr.c ****   avail_mem = jpeg_mem_available(cinfo, space_per_minheight, maximum_space,
 621:Middlewares/Third_Party/LibJPEG/source/jmemmgr.c **** 				 mem->total_space_allocated);
 622:Middlewares/Third_Party/LibJPEG/source/jmemmgr.c **** 
 623:Middlewares/Third_Party/LibJPEG/source/jmemmgr.c ****   /* If the maximum space needed is available, make all the buffers full
 624:Middlewares/Third_Party/LibJPEG/source/jmemmgr.c ****    * height; otherwise parcel it out with the same number of minheights
 625:Middlewares/Third_Party/LibJPEG/source/jmemmgr.c ****    * in each buffer.
 626:Middlewares/Third_Party/LibJPEG/source/jmemmgr.c ****    */
ARM GAS  /var/folders/mq/wg13gp494590nh4zyt09lxf00000gn/T//ccRbBij7.s 			page 13


 627:Middlewares/Third_Party/LibJPEG/source/jmemmgr.c ****   if (avail_mem >= maximum_space)
 628:Middlewares/Third_Party/LibJPEG/source/jmemmgr.c ****     max_minheights = 1000000000L;
 629:Middlewares/Third_Party/LibJPEG/source/jmemmgr.c ****   else {
 630:Middlewares/Third_Party/LibJPEG/source/jmemmgr.c ****     max_minheights = avail_mem / space_per_minheight;
 631:Middlewares/Third_Party/LibJPEG/source/jmemmgr.c ****     /* If there doesn't seem to be enough space, try to get the minimum
 632:Middlewares/Third_Party/LibJPEG/source/jmemmgr.c ****      * anyway.  This allows a "stub" implementation of jpeg_mem_available().
 633:Middlewares/Third_Party/LibJPEG/source/jmemmgr.c ****      */
 634:Middlewares/Third_Party/LibJPEG/source/jmemmgr.c ****     if (max_minheights <= 0)
 635:Middlewares/Third_Party/LibJPEG/source/jmemmgr.c ****       max_minheights = 1;
 636:Middlewares/Third_Party/LibJPEG/source/jmemmgr.c ****   }
 637:Middlewares/Third_Party/LibJPEG/source/jmemmgr.c **** 
 638:Middlewares/Third_Party/LibJPEG/source/jmemmgr.c ****   /* Allocate the in-memory buffers and initialize backing store as needed. */
 639:Middlewares/Third_Party/LibJPEG/source/jmemmgr.c **** 
 640:Middlewares/Third_Party/LibJPEG/source/jmemmgr.c ****   for (sptr = mem->virt_sarray_list; sptr != NULL; sptr = sptr->next) {
 641:Middlewares/Third_Party/LibJPEG/source/jmemmgr.c ****     if (sptr->mem_buffer == NULL) { /* if not realized yet */
 642:Middlewares/Third_Party/LibJPEG/source/jmemmgr.c ****       minheights = ((long) sptr->rows_in_array - 1L) / sptr->maxaccess + 1L;
 643:Middlewares/Third_Party/LibJPEG/source/jmemmgr.c ****       if (minheights <= max_minheights) {
 644:Middlewares/Third_Party/LibJPEG/source/jmemmgr.c **** 	/* This buffer fits in memory */
 645:Middlewares/Third_Party/LibJPEG/source/jmemmgr.c **** 	sptr->rows_in_mem = sptr->rows_in_array;
 646:Middlewares/Third_Party/LibJPEG/source/jmemmgr.c ****       } else {
 647:Middlewares/Third_Party/LibJPEG/source/jmemmgr.c **** 	/* It doesn't fit in memory, create backing store. */
 648:Middlewares/Third_Party/LibJPEG/source/jmemmgr.c **** 	sptr->rows_in_mem = (JDIMENSION) (max_minheights * sptr->maxaccess);
 649:Middlewares/Third_Party/LibJPEG/source/jmemmgr.c **** 	jpeg_open_backing_store(cinfo, & sptr->b_s_info,
 650:Middlewares/Third_Party/LibJPEG/source/jmemmgr.c **** 				(long) sptr->rows_in_array *
 651:Middlewares/Third_Party/LibJPEG/source/jmemmgr.c **** 				(long) sptr->samplesperrow *
 652:Middlewares/Third_Party/LibJPEG/source/jmemmgr.c **** 				(long) SIZEOF(JSAMPLE));
 653:Middlewares/Third_Party/LibJPEG/source/jmemmgr.c **** 	sptr->b_s_open = TRUE;
 654:Middlewares/Third_Party/LibJPEG/source/jmemmgr.c ****       }
 655:Middlewares/Third_Party/LibJPEG/source/jmemmgr.c ****       sptr->mem_buffer = alloc_sarray(cinfo, JPOOL_IMAGE,
 656:Middlewares/Third_Party/LibJPEG/source/jmemmgr.c **** 				      sptr->samplesperrow, sptr->rows_in_mem);
 657:Middlewares/Third_Party/LibJPEG/source/jmemmgr.c ****       sptr->rowsperchunk = mem->last_rowsperchunk;
 658:Middlewares/Third_Party/LibJPEG/source/jmemmgr.c ****       sptr->cur_start_row = 0;
 659:Middlewares/Third_Party/LibJPEG/source/jmemmgr.c ****       sptr->first_undef_row = 0;
 660:Middlewares/Third_Party/LibJPEG/source/jmemmgr.c ****       sptr->dirty = FALSE;
 661:Middlewares/Third_Party/LibJPEG/source/jmemmgr.c ****     }
 662:Middlewares/Third_Party/LibJPEG/source/jmemmgr.c ****   }
 663:Middlewares/Third_Party/LibJPEG/source/jmemmgr.c **** 
 664:Middlewares/Third_Party/LibJPEG/source/jmemmgr.c ****   for (bptr = mem->virt_barray_list; bptr != NULL; bptr = bptr->next) {
 665:Middlewares/Third_Party/LibJPEG/source/jmemmgr.c ****     if (bptr->mem_buffer == NULL) { /* if not realized yet */
 666:Middlewares/Third_Party/LibJPEG/source/jmemmgr.c ****       minheights = ((long) bptr->rows_in_array - 1L) / bptr->maxaccess + 1L;
 667:Middlewares/Third_Party/LibJPEG/source/jmemmgr.c ****       if (minheights <= max_minheights) {
 668:Middlewares/Third_Party/LibJPEG/source/jmemmgr.c **** 	/* This buffer fits in memory */
 669:Middlewares/Third_Party/LibJPEG/source/jmemmgr.c **** 	bptr->rows_in_mem = bptr->rows_in_array;
 670:Middlewares/Third_Party/LibJPEG/source/jmemmgr.c ****       } else {
 671:Middlewares/Third_Party/LibJPEG/source/jmemmgr.c **** 	/* It doesn't fit in memory, create backing store. */
 672:Middlewares/Third_Party/LibJPEG/source/jmemmgr.c **** 	bptr->rows_in_mem = (JDIMENSION) (max_minheights * bptr->maxaccess);
 673:Middlewares/Third_Party/LibJPEG/source/jmemmgr.c **** 	jpeg_open_backing_store(cinfo, & bptr->b_s_info,
 674:Middlewares/Third_Party/LibJPEG/source/jmemmgr.c **** 				(long) bptr->rows_in_array *
 675:Middlewares/Third_Party/LibJPEG/source/jmemmgr.c **** 				(long) bptr->blocksperrow *
 676:Middlewares/Third_Party/LibJPEG/source/jmemmgr.c **** 				(long) SIZEOF(JBLOCK));
 677:Middlewares/Third_Party/LibJPEG/source/jmemmgr.c **** 	bptr->b_s_open = TRUE;
 678:Middlewares/Third_Party/LibJPEG/source/jmemmgr.c ****       }
 679:Middlewares/Third_Party/LibJPEG/source/jmemmgr.c ****       bptr->mem_buffer = alloc_barray(cinfo, JPOOL_IMAGE,
 680:Middlewares/Third_Party/LibJPEG/source/jmemmgr.c **** 				      bptr->blocksperrow, bptr->rows_in_mem);
 681:Middlewares/Third_Party/LibJPEG/source/jmemmgr.c ****       bptr->rowsperchunk = mem->last_rowsperchunk;
 682:Middlewares/Third_Party/LibJPEG/source/jmemmgr.c ****       bptr->cur_start_row = 0;
 683:Middlewares/Third_Party/LibJPEG/source/jmemmgr.c ****       bptr->first_undef_row = 0;
ARM GAS  /var/folders/mq/wg13gp494590nh4zyt09lxf00000gn/T//ccRbBij7.s 			page 14


 684:Middlewares/Third_Party/LibJPEG/source/jmemmgr.c ****       bptr->dirty = FALSE;
 685:Middlewares/Third_Party/LibJPEG/source/jmemmgr.c ****     }
 686:Middlewares/Third_Party/LibJPEG/source/jmemmgr.c ****   }
 687:Middlewares/Third_Party/LibJPEG/source/jmemmgr.c **** }
 688:Middlewares/Third_Party/LibJPEG/source/jmemmgr.c **** 
 689:Middlewares/Third_Party/LibJPEG/source/jmemmgr.c **** 
 690:Middlewares/Third_Party/LibJPEG/source/jmemmgr.c **** LOCAL(void)
 691:Middlewares/Third_Party/LibJPEG/source/jmemmgr.c **** do_sarray_io (j_common_ptr cinfo, jvirt_sarray_ptr ptr, boolean writing)
 692:Middlewares/Third_Party/LibJPEG/source/jmemmgr.c **** /* Do backing store read or write of a virtual sample array */
 693:Middlewares/Third_Party/LibJPEG/source/jmemmgr.c **** {
  62              		.loc 1 693 1 is_stmt 1 view -0
  63              		.cfi_startproc
  64              		@ args = 0, pretend = 0, frame = 0
  65              		@ frame_needed = 0, uses_anonymous_args = 0
  66              		.loc 1 693 1 is_stmt 0 view .LVU5
  67 0000 2DE9F04F 		push	{r4, r5, r6, r7, r8, r9, r10, fp, lr}
  68              	.LCFI1:
  69              		.cfi_def_cfa_offset 36
  70              		.cfi_offset 4, -36
  71              		.cfi_offset 5, -32
  72              		.cfi_offset 6, -28
  73              		.cfi_offset 7, -24
  74              		.cfi_offset 8, -20
  75              		.cfi_offset 9, -16
  76              		.cfi_offset 10, -12
  77              		.cfi_offset 11, -8
  78              		.cfi_offset 14, -4
  79 0004 83B0     		sub	sp, sp, #12
  80              	.LCFI2:
  81              		.cfi_def_cfa_offset 48
  82 0006 8246     		mov	r10, r0
  83 0008 0D46     		mov	r5, r1
  84 000a 9046     		mov	r8, r2
 694:Middlewares/Third_Party/LibJPEG/source/jmemmgr.c ****   long bytesperrow, file_offset, byte_count, rows, thisrow, i;
  85              		.loc 1 694 3 is_stmt 1 view .LVU6
 695:Middlewares/Third_Party/LibJPEG/source/jmemmgr.c **** 
 696:Middlewares/Third_Party/LibJPEG/source/jmemmgr.c ****   bytesperrow = (long) ptr->samplesperrow * SIZEOF(JSAMPLE);
  86              		.loc 1 696 3 view .LVU7
  87              		.loc 1 696 27 is_stmt 0 view .LVU8
  88 000c D1F80890 		ldr	r9, [r1, #8]
  89              	.LVL3:
 697:Middlewares/Third_Party/LibJPEG/source/jmemmgr.c ****   file_offset = ptr->cur_start_row * bytesperrow;
  90              		.loc 1 697 3 is_stmt 1 view .LVU9
  91              		.loc 1 697 20 is_stmt 0 view .LVU10
  92 0010 8F69     		ldr	r7, [r1, #24]
  93              		.loc 1 697 36 view .LVU11
  94 0012 07FB09FB 		mul	fp, r7, r9
  95              	.LVL4:
 698:Middlewares/Third_Party/LibJPEG/source/jmemmgr.c ****   /* Loop to read or write each allocation chunk in mem_buffer */
 699:Middlewares/Third_Party/LibJPEG/source/jmemmgr.c ****   for (i = 0; i < (long) ptr->rows_in_mem; i += ptr->rowsperchunk) {
  96              		.loc 1 699 3 is_stmt 1 view .LVU12
  97              		.loc 1 699 10 is_stmt 0 view .LVU13
  98 0016 0026     		movs	r6, #0
  99              		.loc 1 699 3 view .LVU14
 100 0018 0CE0     		b	.L4
 101              	.LVL5:
 102              	.L6:
ARM GAS  /var/folders/mq/wg13gp494590nh4zyt09lxf00000gn/T//ccRbBij7.s 			page 15


 700:Middlewares/Third_Party/LibJPEG/source/jmemmgr.c ****     /* One chunk, but check for short chunk at end of buffer */
 701:Middlewares/Third_Party/LibJPEG/source/jmemmgr.c ****     rows = MIN((long) ptr->rowsperchunk, (long) ptr->rows_in_mem - i);
 702:Middlewares/Third_Party/LibJPEG/source/jmemmgr.c ****     /* Transfer no more than is currently defined */
 703:Middlewares/Third_Party/LibJPEG/source/jmemmgr.c ****     thisrow = (long) ptr->cur_start_row + i;
 704:Middlewares/Third_Party/LibJPEG/source/jmemmgr.c ****     rows = MIN(rows, (long) ptr->first_undef_row - thisrow);
 705:Middlewares/Third_Party/LibJPEG/source/jmemmgr.c ****     /* Transfer no more than fits in file */
 706:Middlewares/Third_Party/LibJPEG/source/jmemmgr.c ****     rows = MIN(rows, (long) ptr->rows_in_array - thisrow);
 707:Middlewares/Third_Party/LibJPEG/source/jmemmgr.c ****     if (rows <= 0)		/* this chunk might be past end of file! */
 708:Middlewares/Third_Party/LibJPEG/source/jmemmgr.c ****       break;
 709:Middlewares/Third_Party/LibJPEG/source/jmemmgr.c ****     byte_count = rows * bytesperrow;
 710:Middlewares/Third_Party/LibJPEG/source/jmemmgr.c ****     if (writing)
 711:Middlewares/Third_Party/LibJPEG/source/jmemmgr.c ****       (*ptr->b_s_info.write_backing_store) (cinfo, & ptr->b_s_info,
 712:Middlewares/Third_Party/LibJPEG/source/jmemmgr.c **** 					    (void FAR *) ptr->mem_buffer[i],
 713:Middlewares/Third_Party/LibJPEG/source/jmemmgr.c **** 					    file_offset, byte_count);
 714:Middlewares/Third_Party/LibJPEG/source/jmemmgr.c ****     else
 715:Middlewares/Third_Party/LibJPEG/source/jmemmgr.c ****       (*ptr->b_s_info.read_backing_store) (cinfo, & ptr->b_s_info,
 103              		.loc 1 715 7 is_stmt 1 view .LVU15
 104              		.loc 1 715 51 is_stmt 0 view .LVU16
 105 001a 2946     		mov	r1, r5
 106              	.LVL6:
 716:Middlewares/Third_Party/LibJPEG/source/jmemmgr.c **** 					   (void FAR *) ptr->mem_buffer[i],
 107              		.loc 1 716 25 view .LVU17
 108 001c 51F8303B 		ldr	r3, [r1], #48
 715:Middlewares/Third_Party/LibJPEG/source/jmemmgr.c **** 					   (void FAR *) ptr->mem_buffer[i],
 109              		.loc 1 715 8 view .LVU18
 110 0020 53F82620 		ldr	r2, [r3, r6, lsl #2]
 111              	.LVL7:
 715:Middlewares/Third_Party/LibJPEG/source/jmemmgr.c **** 					   (void FAR *) ptr->mem_buffer[i],
 112              		.loc 1 715 8 view .LVU19
 113 0024 0094     		str	r4, [sp]
 114              	.LVL8:
 715:Middlewares/Third_Party/LibJPEG/source/jmemmgr.c **** 					   (void FAR *) ptr->mem_buffer[i],
 115              		.loc 1 715 8 view .LVU20
 116 0026 5B46     		mov	r3, fp
 117 0028 5046     		mov	r0, r10
 118 002a 2F6B     		ldr	r7, [r5, #48]
 119 002c B847     		blx	r7
 120              	.LVL9:
 121              	.L7:
 717:Middlewares/Third_Party/LibJPEG/source/jmemmgr.c **** 					   file_offset, byte_count);
 718:Middlewares/Third_Party/LibJPEG/source/jmemmgr.c ****     file_offset += byte_count;
 122              		.loc 1 718 5 is_stmt 1 view .LVU21
 123              		.loc 1 718 17 is_stmt 0 view .LVU22
 124 002e A344     		add	fp, fp, r4
 125              	.LVL10:
 699:Middlewares/Third_Party/LibJPEG/source/jmemmgr.c ****     /* One chunk, but check for short chunk at end of buffer */
 126              		.loc 1 699 46 is_stmt 1 discriminator 2 view .LVU23
 699:Middlewares/Third_Party/LibJPEG/source/jmemmgr.c ****     /* One chunk, but check for short chunk at end of buffer */
 127              		.loc 1 699 52 is_stmt 0 discriminator 2 view .LVU24
 128 0030 6B69     		ldr	r3, [r5, #20]
 699:Middlewares/Third_Party/LibJPEG/source/jmemmgr.c ****     /* One chunk, but check for short chunk at end of buffer */
 129              		.loc 1 699 46 discriminator 2 view .LVU25
 130 0032 1E44     		add	r6, r6, r3
 131              	.LVL11:
 132              	.L4:
 699:Middlewares/Third_Party/LibJPEG/source/jmemmgr.c ****     /* One chunk, but check for short chunk at end of buffer */
 133              		.loc 1 699 17 is_stmt 1 discriminator 1 view .LVU26
ARM GAS  /var/folders/mq/wg13gp494590nh4zyt09lxf00000gn/T//ccRbBij7.s 			page 16


 699:Middlewares/Third_Party/LibJPEG/source/jmemmgr.c ****     /* One chunk, but check for short chunk at end of buffer */
 134              		.loc 1 699 29 is_stmt 0 discriminator 1 view .LVU27
 135 0034 2B69     		ldr	r3, [r5, #16]
 699:Middlewares/Third_Party/LibJPEG/source/jmemmgr.c ****     /* One chunk, but check for short chunk at end of buffer */
 136              		.loc 1 699 17 discriminator 1 view .LVU28
 137 0036 B342     		cmp	r3, r6
 138 0038 22DD     		ble	.L3
 701:Middlewares/Third_Party/LibJPEG/source/jmemmgr.c ****     /* Transfer no more than is currently defined */
 139              		.loc 1 701 5 is_stmt 1 view .LVU29
 701:Middlewares/Third_Party/LibJPEG/source/jmemmgr.c ****     /* Transfer no more than is currently defined */
 140              		.loc 1 701 12 is_stmt 0 view .LVU30
 141 003a 9B1B     		subs	r3, r3, r6
 142 003c 6A69     		ldr	r2, [r5, #20]
 701:Middlewares/Third_Party/LibJPEG/source/jmemmgr.c ****     /* Transfer no more than is currently defined */
 143              		.loc 1 701 10 view .LVU31
 144 003e 9342     		cmp	r3, r2
 145 0040 A8BF     		it	ge
 146 0042 1346     		movge	r3, r2
 147              	.LVL12:
 703:Middlewares/Third_Party/LibJPEG/source/jmemmgr.c ****     rows = MIN(rows, (long) ptr->first_undef_row - thisrow);
 148              		.loc 1 703 5 is_stmt 1 view .LVU32
 703:Middlewares/Third_Party/LibJPEG/source/jmemmgr.c ****     rows = MIN(rows, (long) ptr->first_undef_row - thisrow);
 149              		.loc 1 703 25 is_stmt 0 view .LVU33
 150 0044 A969     		ldr	r1, [r5, #24]
 703:Middlewares/Third_Party/LibJPEG/source/jmemmgr.c ****     rows = MIN(rows, (long) ptr->first_undef_row - thisrow);
 151              		.loc 1 703 13 view .LVU34
 152 0046 3144     		add	r1, r1, r6
 153              	.LVL13:
 704:Middlewares/Third_Party/LibJPEG/source/jmemmgr.c ****     /* Transfer no more than fits in file */
 154              		.loc 1 704 5 is_stmt 1 view .LVU35
 704:Middlewares/Third_Party/LibJPEG/source/jmemmgr.c ****     /* Transfer no more than fits in file */
 155              		.loc 1 704 12 is_stmt 0 view .LVU36
 156 0048 EA69     		ldr	r2, [r5, #28]
 157 004a 521A     		subs	r2, r2, r1
 704:Middlewares/Third_Party/LibJPEG/source/jmemmgr.c ****     /* Transfer no more than fits in file */
 158              		.loc 1 704 10 view .LVU37
 159 004c 9A42     		cmp	r2, r3
 160 004e A8BF     		it	ge
 161 0050 1A46     		movge	r2, r3
 162              	.LVL14:
 706:Middlewares/Third_Party/LibJPEG/source/jmemmgr.c ****     if (rows <= 0)		/* this chunk might be past end of file! */
 163              		.loc 1 706 5 is_stmt 1 view .LVU38
 706:Middlewares/Third_Party/LibJPEG/source/jmemmgr.c ****     if (rows <= 0)		/* this chunk might be past end of file! */
 164              		.loc 1 706 12 is_stmt 0 view .LVU39
 165 0052 6C68     		ldr	r4, [r5, #4]
 166 0054 641A     		subs	r4, r4, r1
 706:Middlewares/Third_Party/LibJPEG/source/jmemmgr.c ****     if (rows <= 0)		/* this chunk might be past end of file! */
 167              		.loc 1 706 10 view .LVU40
 168 0056 9442     		cmp	r4, r2
 169 0058 A8BF     		it	ge
 170 005a 1446     		movge	r4, r2
 171              	.LVL15:
 707:Middlewares/Third_Party/LibJPEG/source/jmemmgr.c ****       break;
 172              		.loc 1 707 5 is_stmt 1 view .LVU41
 707:Middlewares/Third_Party/LibJPEG/source/jmemmgr.c ****       break;
 173              		.loc 1 707 8 is_stmt 0 view .LVU42
 174 005c 002C     		cmp	r4, #0
ARM GAS  /var/folders/mq/wg13gp494590nh4zyt09lxf00000gn/T//ccRbBij7.s 			page 17


 175 005e 0FDD     		ble	.L3
 709:Middlewares/Third_Party/LibJPEG/source/jmemmgr.c ****     if (writing)
 176              		.loc 1 709 5 is_stmt 1 view .LVU43
 709:Middlewares/Third_Party/LibJPEG/source/jmemmgr.c ****     if (writing)
 177              		.loc 1 709 16 is_stmt 0 view .LVU44
 178 0060 04FB09F4 		mul	r4, r4, r9
 179              	.LVL16:
 710:Middlewares/Third_Party/LibJPEG/source/jmemmgr.c ****       (*ptr->b_s_info.write_backing_store) (cinfo, & ptr->b_s_info,
 180              		.loc 1 710 5 is_stmt 1 view .LVU45
 710:Middlewares/Third_Party/LibJPEG/source/jmemmgr.c ****       (*ptr->b_s_info.write_backing_store) (cinfo, & ptr->b_s_info,
 181              		.loc 1 710 8 is_stmt 0 view .LVU46
 182 0064 B8F1000F 		cmp	r8, #0
 183 0068 D7D0     		beq	.L6
 711:Middlewares/Third_Party/LibJPEG/source/jmemmgr.c **** 					    (void FAR *) ptr->mem_buffer[i],
 184              		.loc 1 711 7 is_stmt 1 view .LVU47
 711:Middlewares/Third_Party/LibJPEG/source/jmemmgr.c **** 					    (void FAR *) ptr->mem_buffer[i],
 185              		.loc 1 711 52 is_stmt 0 view .LVU48
 186 006a 2946     		mov	r1, r5
 187              	.LVL17:
 712:Middlewares/Third_Party/LibJPEG/source/jmemmgr.c **** 					    file_offset, byte_count);
 188              		.loc 1 712 26 view .LVU49
 189 006c 51F8303B 		ldr	r3, [r1], #48
 711:Middlewares/Third_Party/LibJPEG/source/jmemmgr.c **** 					    (void FAR *) ptr->mem_buffer[i],
 190              		.loc 1 711 8 view .LVU50
 191 0070 53F82620 		ldr	r2, [r3, r6, lsl #2]
 192              	.LVL18:
 711:Middlewares/Third_Party/LibJPEG/source/jmemmgr.c **** 					    (void FAR *) ptr->mem_buffer[i],
 193              		.loc 1 711 8 view .LVU51
 194 0074 0094     		str	r4, [sp]
 195              	.LVL19:
 711:Middlewares/Third_Party/LibJPEG/source/jmemmgr.c **** 					    (void FAR *) ptr->mem_buffer[i],
 196              		.loc 1 711 8 view .LVU52
 197 0076 5B46     		mov	r3, fp
 198 0078 5046     		mov	r0, r10
 199 007a 6F6B     		ldr	r7, [r5, #52]
 200 007c B847     		blx	r7
 201              	.LVL20:
 202 007e D6E7     		b	.L7
 203              	.LVL21:
 204              	.L3:
 719:Middlewares/Third_Party/LibJPEG/source/jmemmgr.c ****   }
 720:Middlewares/Third_Party/LibJPEG/source/jmemmgr.c **** }
 205              		.loc 1 720 1 view .LVU53
 206 0080 03B0     		add	sp, sp, #12
 207              	.LCFI3:
 208              		.cfi_def_cfa_offset 36
 209              		@ sp needed
 210 0082 BDE8F08F 		pop	{r4, r5, r6, r7, r8, r9, r10, fp, pc}
 211              		.loc 1 720 1 view .LVU54
 212              		.cfi_endproc
 213              	.LFE155:
 215              		.section	.text.do_barray_io,"ax",%progbits
 216              		.align	1
 217              		.syntax unified
 218              		.thumb
 219              		.thumb_func
 221              	do_barray_io:
ARM GAS  /var/folders/mq/wg13gp494590nh4zyt09lxf00000gn/T//ccRbBij7.s 			page 18


 222              	.LVL22:
 223              	.LFB156:
 721:Middlewares/Third_Party/LibJPEG/source/jmemmgr.c **** 
 722:Middlewares/Third_Party/LibJPEG/source/jmemmgr.c **** 
 723:Middlewares/Third_Party/LibJPEG/source/jmemmgr.c **** LOCAL(void)
 724:Middlewares/Third_Party/LibJPEG/source/jmemmgr.c **** do_barray_io (j_common_ptr cinfo, jvirt_barray_ptr ptr, boolean writing)
 725:Middlewares/Third_Party/LibJPEG/source/jmemmgr.c **** /* Do backing store read or write of a virtual coefficient-block array */
 726:Middlewares/Third_Party/LibJPEG/source/jmemmgr.c **** {
 224              		.loc 1 726 1 is_stmt 1 view -0
 225              		.cfi_startproc
 226              		@ args = 0, pretend = 0, frame = 0
 227              		@ frame_needed = 0, uses_anonymous_args = 0
 228              		.loc 1 726 1 is_stmt 0 view .LVU56
 229 0000 2DE9F04F 		push	{r4, r5, r6, r7, r8, r9, r10, fp, lr}
 230              	.LCFI4:
 231              		.cfi_def_cfa_offset 36
 232              		.cfi_offset 4, -36
 233              		.cfi_offset 5, -32
 234              		.cfi_offset 6, -28
 235              		.cfi_offset 7, -24
 236              		.cfi_offset 8, -20
 237              		.cfi_offset 9, -16
 238              		.cfi_offset 10, -12
 239              		.cfi_offset 11, -8
 240              		.cfi_offset 14, -4
 241 0004 83B0     		sub	sp, sp, #12
 242              	.LCFI5:
 243              		.cfi_def_cfa_offset 48
 244 0006 8246     		mov	r10, r0
 245 0008 0D46     		mov	r5, r1
 246 000a 9146     		mov	r9, r2
 727:Middlewares/Third_Party/LibJPEG/source/jmemmgr.c ****   long bytesperrow, file_offset, byte_count, rows, thisrow, i;
 247              		.loc 1 727 3 is_stmt 1 view .LVU57
 728:Middlewares/Third_Party/LibJPEG/source/jmemmgr.c **** 
 729:Middlewares/Third_Party/LibJPEG/source/jmemmgr.c ****   bytesperrow = (long) ptr->blocksperrow * SIZEOF(JBLOCK);
 248              		.loc 1 729 3 view .LVU58
 249              		.loc 1 729 27 is_stmt 0 view .LVU59
 250 000c 8B68     		ldr	r3, [r1, #8]
 251              		.loc 1 729 42 view .LVU60
 252 000e 4FEAC318 		lsl	r8, r3, #7
 253              	.LVL23:
 730:Middlewares/Third_Party/LibJPEG/source/jmemmgr.c ****   file_offset = ptr->cur_start_row * bytesperrow;
 254              		.loc 1 730 3 is_stmt 1 view .LVU61
 255              		.loc 1 730 20 is_stmt 0 view .LVU62
 256 0012 8F69     		ldr	r7, [r1, #24]
 257              		.loc 1 730 36 view .LVU63
 258 0014 07FB08FB 		mul	fp, r7, r8
 259              	.LVL24:
 731:Middlewares/Third_Party/LibJPEG/source/jmemmgr.c ****   /* Loop to read or write each allocation chunk in mem_buffer */
 732:Middlewares/Third_Party/LibJPEG/source/jmemmgr.c ****   for (i = 0; i < (long) ptr->rows_in_mem; i += ptr->rowsperchunk) {
 260              		.loc 1 732 3 is_stmt 1 view .LVU64
 261              		.loc 1 732 10 is_stmt 0 view .LVU65
 262 0018 0026     		movs	r6, #0
 263              		.loc 1 732 3 view .LVU66
 264 001a 0CE0     		b	.L11
 265              	.LVL25:
 266              	.L13:
ARM GAS  /var/folders/mq/wg13gp494590nh4zyt09lxf00000gn/T//ccRbBij7.s 			page 19


 733:Middlewares/Third_Party/LibJPEG/source/jmemmgr.c ****     /* One chunk, but check for short chunk at end of buffer */
 734:Middlewares/Third_Party/LibJPEG/source/jmemmgr.c ****     rows = MIN((long) ptr->rowsperchunk, (long) ptr->rows_in_mem - i);
 735:Middlewares/Third_Party/LibJPEG/source/jmemmgr.c ****     /* Transfer no more than is currently defined */
 736:Middlewares/Third_Party/LibJPEG/source/jmemmgr.c ****     thisrow = (long) ptr->cur_start_row + i;
 737:Middlewares/Third_Party/LibJPEG/source/jmemmgr.c ****     rows = MIN(rows, (long) ptr->first_undef_row - thisrow);
 738:Middlewares/Third_Party/LibJPEG/source/jmemmgr.c ****     /* Transfer no more than fits in file */
 739:Middlewares/Third_Party/LibJPEG/source/jmemmgr.c ****     rows = MIN(rows, (long) ptr->rows_in_array - thisrow);
 740:Middlewares/Third_Party/LibJPEG/source/jmemmgr.c ****     if (rows <= 0)		/* this chunk might be past end of file! */
 741:Middlewares/Third_Party/LibJPEG/source/jmemmgr.c ****       break;
 742:Middlewares/Third_Party/LibJPEG/source/jmemmgr.c ****     byte_count = rows * bytesperrow;
 743:Middlewares/Third_Party/LibJPEG/source/jmemmgr.c ****     if (writing)
 744:Middlewares/Third_Party/LibJPEG/source/jmemmgr.c ****       (*ptr->b_s_info.write_backing_store) (cinfo, & ptr->b_s_info,
 745:Middlewares/Third_Party/LibJPEG/source/jmemmgr.c **** 					    (void FAR *) ptr->mem_buffer[i],
 746:Middlewares/Third_Party/LibJPEG/source/jmemmgr.c **** 					    file_offset, byte_count);
 747:Middlewares/Third_Party/LibJPEG/source/jmemmgr.c ****     else
 748:Middlewares/Third_Party/LibJPEG/source/jmemmgr.c ****       (*ptr->b_s_info.read_backing_store) (cinfo, & ptr->b_s_info,
 267              		.loc 1 748 7 is_stmt 1 view .LVU67
 268              		.loc 1 748 51 is_stmt 0 view .LVU68
 269 001c 2946     		mov	r1, r5
 270              	.LVL26:
 749:Middlewares/Third_Party/LibJPEG/source/jmemmgr.c **** 					   (void FAR *) ptr->mem_buffer[i],
 271              		.loc 1 749 25 view .LVU69
 272 001e 51F8303B 		ldr	r3, [r1], #48
 748:Middlewares/Third_Party/LibJPEG/source/jmemmgr.c **** 					   (void FAR *) ptr->mem_buffer[i],
 273              		.loc 1 748 8 view .LVU70
 274 0022 53F82620 		ldr	r2, [r3, r6, lsl #2]
 275              	.LVL27:
 748:Middlewares/Third_Party/LibJPEG/source/jmemmgr.c **** 					   (void FAR *) ptr->mem_buffer[i],
 276              		.loc 1 748 8 view .LVU71
 277 0026 0094     		str	r4, [sp]
 278              	.LVL28:
 748:Middlewares/Third_Party/LibJPEG/source/jmemmgr.c **** 					   (void FAR *) ptr->mem_buffer[i],
 279              		.loc 1 748 8 view .LVU72
 280 0028 5B46     		mov	r3, fp
 281 002a 5046     		mov	r0, r10
 282 002c 2F6B     		ldr	r7, [r5, #48]
 283 002e B847     		blx	r7
 284              	.LVL29:
 285              	.L14:
 750:Middlewares/Third_Party/LibJPEG/source/jmemmgr.c **** 					   file_offset, byte_count);
 751:Middlewares/Third_Party/LibJPEG/source/jmemmgr.c ****     file_offset += byte_count;
 286              		.loc 1 751 5 is_stmt 1 view .LVU73
 287              		.loc 1 751 17 is_stmt 0 view .LVU74
 288 0030 A344     		add	fp, fp, r4
 289              	.LVL30:
 732:Middlewares/Third_Party/LibJPEG/source/jmemmgr.c ****     /* One chunk, but check for short chunk at end of buffer */
 290              		.loc 1 732 46 is_stmt 1 discriminator 2 view .LVU75
 732:Middlewares/Third_Party/LibJPEG/source/jmemmgr.c ****     /* One chunk, but check for short chunk at end of buffer */
 291              		.loc 1 732 52 is_stmt 0 discriminator 2 view .LVU76
 292 0032 6B69     		ldr	r3, [r5, #20]
 732:Middlewares/Third_Party/LibJPEG/source/jmemmgr.c ****     /* One chunk, but check for short chunk at end of buffer */
 293              		.loc 1 732 46 discriminator 2 view .LVU77
 294 0034 1E44     		add	r6, r6, r3
 295              	.LVL31:
 296              	.L11:
 732:Middlewares/Third_Party/LibJPEG/source/jmemmgr.c ****     /* One chunk, but check for short chunk at end of buffer */
 297              		.loc 1 732 17 is_stmt 1 discriminator 1 view .LVU78
ARM GAS  /var/folders/mq/wg13gp494590nh4zyt09lxf00000gn/T//ccRbBij7.s 			page 20


 732:Middlewares/Third_Party/LibJPEG/source/jmemmgr.c ****     /* One chunk, but check for short chunk at end of buffer */
 298              		.loc 1 732 29 is_stmt 0 discriminator 1 view .LVU79
 299 0036 2B69     		ldr	r3, [r5, #16]
 732:Middlewares/Third_Party/LibJPEG/source/jmemmgr.c ****     /* One chunk, but check for short chunk at end of buffer */
 300              		.loc 1 732 17 discriminator 1 view .LVU80
 301 0038 B342     		cmp	r3, r6
 302 003a 22DD     		ble	.L10
 734:Middlewares/Third_Party/LibJPEG/source/jmemmgr.c ****     /* Transfer no more than is currently defined */
 303              		.loc 1 734 5 is_stmt 1 view .LVU81
 734:Middlewares/Third_Party/LibJPEG/source/jmemmgr.c ****     /* Transfer no more than is currently defined */
 304              		.loc 1 734 12 is_stmt 0 view .LVU82
 305 003c 9B1B     		subs	r3, r3, r6
 306 003e 6A69     		ldr	r2, [r5, #20]
 734:Middlewares/Third_Party/LibJPEG/source/jmemmgr.c ****     /* Transfer no more than is currently defined */
 307              		.loc 1 734 10 view .LVU83
 308 0040 9342     		cmp	r3, r2
 309 0042 A8BF     		it	ge
 310 0044 1346     		movge	r3, r2
 311              	.LVL32:
 736:Middlewares/Third_Party/LibJPEG/source/jmemmgr.c ****     rows = MIN(rows, (long) ptr->first_undef_row - thisrow);
 312              		.loc 1 736 5 is_stmt 1 view .LVU84
 736:Middlewares/Third_Party/LibJPEG/source/jmemmgr.c ****     rows = MIN(rows, (long) ptr->first_undef_row - thisrow);
 313              		.loc 1 736 25 is_stmt 0 view .LVU85
 314 0046 A969     		ldr	r1, [r5, #24]
 736:Middlewares/Third_Party/LibJPEG/source/jmemmgr.c ****     rows = MIN(rows, (long) ptr->first_undef_row - thisrow);
 315              		.loc 1 736 13 view .LVU86
 316 0048 3144     		add	r1, r1, r6
 317              	.LVL33:
 737:Middlewares/Third_Party/LibJPEG/source/jmemmgr.c ****     /* Transfer no more than fits in file */
 318              		.loc 1 737 5 is_stmt 1 view .LVU87
 737:Middlewares/Third_Party/LibJPEG/source/jmemmgr.c ****     /* Transfer no more than fits in file */
 319              		.loc 1 737 12 is_stmt 0 view .LVU88
 320 004a EA69     		ldr	r2, [r5, #28]
 321 004c 521A     		subs	r2, r2, r1
 737:Middlewares/Third_Party/LibJPEG/source/jmemmgr.c ****     /* Transfer no more than fits in file */
 322              		.loc 1 737 10 view .LVU89
 323 004e 9A42     		cmp	r2, r3
 324 0050 A8BF     		it	ge
 325 0052 1A46     		movge	r2, r3
 326              	.LVL34:
 739:Middlewares/Third_Party/LibJPEG/source/jmemmgr.c ****     if (rows <= 0)		/* this chunk might be past end of file! */
 327              		.loc 1 739 5 is_stmt 1 view .LVU90
 739:Middlewares/Third_Party/LibJPEG/source/jmemmgr.c ****     if (rows <= 0)		/* this chunk might be past end of file! */
 328              		.loc 1 739 12 is_stmt 0 view .LVU91
 329 0054 6C68     		ldr	r4, [r5, #4]
 330 0056 641A     		subs	r4, r4, r1
 739:Middlewares/Third_Party/LibJPEG/source/jmemmgr.c ****     if (rows <= 0)		/* this chunk might be past end of file! */
 331              		.loc 1 739 10 view .LVU92
 332 0058 9442     		cmp	r4, r2
 333 005a A8BF     		it	ge
 334 005c 1446     		movge	r4, r2
 335              	.LVL35:
 740:Middlewares/Third_Party/LibJPEG/source/jmemmgr.c ****       break;
 336              		.loc 1 740 5 is_stmt 1 view .LVU93
 740:Middlewares/Third_Party/LibJPEG/source/jmemmgr.c ****       break;
 337              		.loc 1 740 8 is_stmt 0 view .LVU94
 338 005e 002C     		cmp	r4, #0
ARM GAS  /var/folders/mq/wg13gp494590nh4zyt09lxf00000gn/T//ccRbBij7.s 			page 21


 339 0060 0FDD     		ble	.L10
 742:Middlewares/Third_Party/LibJPEG/source/jmemmgr.c ****     if (writing)
 340              		.loc 1 742 5 is_stmt 1 view .LVU95
 742:Middlewares/Third_Party/LibJPEG/source/jmemmgr.c ****     if (writing)
 341              		.loc 1 742 16 is_stmt 0 view .LVU96
 342 0062 04FB08F4 		mul	r4, r4, r8
 343              	.LVL36:
 743:Middlewares/Third_Party/LibJPEG/source/jmemmgr.c ****       (*ptr->b_s_info.write_backing_store) (cinfo, & ptr->b_s_info,
 344              		.loc 1 743 5 is_stmt 1 view .LVU97
 743:Middlewares/Third_Party/LibJPEG/source/jmemmgr.c ****       (*ptr->b_s_info.write_backing_store) (cinfo, & ptr->b_s_info,
 345              		.loc 1 743 8 is_stmt 0 view .LVU98
 346 0066 B9F1000F 		cmp	r9, #0
 347 006a D7D0     		beq	.L13
 744:Middlewares/Third_Party/LibJPEG/source/jmemmgr.c **** 					    (void FAR *) ptr->mem_buffer[i],
 348              		.loc 1 744 7 is_stmt 1 view .LVU99
 744:Middlewares/Third_Party/LibJPEG/source/jmemmgr.c **** 					    (void FAR *) ptr->mem_buffer[i],
 349              		.loc 1 744 52 is_stmt 0 view .LVU100
 350 006c 2946     		mov	r1, r5
 351              	.LVL37:
 745:Middlewares/Third_Party/LibJPEG/source/jmemmgr.c **** 					    file_offset, byte_count);
 352              		.loc 1 745 26 view .LVU101
 353 006e 51F8303B 		ldr	r3, [r1], #48
 744:Middlewares/Third_Party/LibJPEG/source/jmemmgr.c **** 					    (void FAR *) ptr->mem_buffer[i],
 354              		.loc 1 744 8 view .LVU102
 355 0072 53F82620 		ldr	r2, [r3, r6, lsl #2]
 356              	.LVL38:
 744:Middlewares/Third_Party/LibJPEG/source/jmemmgr.c **** 					    (void FAR *) ptr->mem_buffer[i],
 357              		.loc 1 744 8 view .LVU103
 358 0076 0094     		str	r4, [sp]
 359              	.LVL39:
 744:Middlewares/Third_Party/LibJPEG/source/jmemmgr.c **** 					    (void FAR *) ptr->mem_buffer[i],
 360              		.loc 1 744 8 view .LVU104
 361 0078 5B46     		mov	r3, fp
 362 007a 5046     		mov	r0, r10
 363 007c 6F6B     		ldr	r7, [r5, #52]
 364 007e B847     		blx	r7
 365              	.LVL40:
 366 0080 D6E7     		b	.L14
 367              	.LVL41:
 368              	.L10:
 752:Middlewares/Third_Party/LibJPEG/source/jmemmgr.c ****   }
 753:Middlewares/Third_Party/LibJPEG/source/jmemmgr.c **** }
 369              		.loc 1 753 1 view .LVU105
 370 0082 03B0     		add	sp, sp, #12
 371              	.LCFI6:
 372              		.cfi_def_cfa_offset 36
 373              		@ sp needed
 374 0084 BDE8F08F 		pop	{r4, r5, r6, r7, r8, r9, r10, fp, pc}
 375              		.loc 1 753 1 view .LVU106
 376              		.cfi_endproc
 377              	.LFE156:
 379              		.section	.text.alloc_small,"ax",%progbits
 380              		.align	1
 381              		.syntax unified
 382              		.thumb
 383              		.thumb_func
 385              	alloc_small:
ARM GAS  /var/folders/mq/wg13gp494590nh4zyt09lxf00000gn/T//ccRbBij7.s 			page 22


 386              	.LVL42:
 387              	.LFB148:
 260:Middlewares/Third_Party/LibJPEG/source/jmemmgr.c ****   my_mem_ptr mem = (my_mem_ptr) cinfo->mem;
 388              		.loc 1 260 1 is_stmt 1 view -0
 389              		.cfi_startproc
 390              		@ args = 0, pretend = 0, frame = 0
 391              		@ frame_needed = 0, uses_anonymous_args = 0
 260:Middlewares/Third_Party/LibJPEG/source/jmemmgr.c ****   my_mem_ptr mem = (my_mem_ptr) cinfo->mem;
 392              		.loc 1 260 1 is_stmt 0 view .LVU108
 393 0000 2DE9F84F 		push	{r3, r4, r5, r6, r7, r8, r9, r10, fp, lr}
 394              	.LCFI7:
 395              		.cfi_def_cfa_offset 40
 396              		.cfi_offset 3, -40
 397              		.cfi_offset 4, -36
 398              		.cfi_offset 5, -32
 399              		.cfi_offset 6, -28
 400              		.cfi_offset 7, -24
 401              		.cfi_offset 8, -20
 402              		.cfi_offset 9, -16
 403              		.cfi_offset 10, -12
 404              		.cfi_offset 11, -8
 405              		.cfi_offset 14, -4
 406 0004 0646     		mov	r6, r0
 407 0006 8946     		mov	r9, r1
 408 0008 1446     		mov	r4, r2
 261:Middlewares/Third_Party/LibJPEG/source/jmemmgr.c ****   small_pool_ptr hdr_ptr, prev_hdr_ptr;
 409              		.loc 1 261 3 is_stmt 1 view .LVU109
 261:Middlewares/Third_Party/LibJPEG/source/jmemmgr.c ****   small_pool_ptr hdr_ptr, prev_hdr_ptr;
 410              		.loc 1 261 14 is_stmt 0 view .LVU110
 411 000a D0F804B0 		ldr	fp, [r0, #4]
 412              	.LVL43:
 262:Middlewares/Third_Party/LibJPEG/source/jmemmgr.c ****   char * data_ptr;
 413              		.loc 1 262 3 is_stmt 1 view .LVU111
 263:Middlewares/Third_Party/LibJPEG/source/jmemmgr.c ****   size_t odd_bytes, min_request, slop;
 414              		.loc 1 263 3 view .LVU112
 264:Middlewares/Third_Party/LibJPEG/source/jmemmgr.c **** 
 415              		.loc 1 264 3 view .LVU113
 267:Middlewares/Third_Party/LibJPEG/source/jmemmgr.c ****     out_of_memory(cinfo, 1);	/* request exceeds malloc's ability */
 416              		.loc 1 267 3 view .LVU114
 267:Middlewares/Third_Party/LibJPEG/source/jmemmgr.c ****     out_of_memory(cinfo, 1);	/* request exceeds malloc's ability */
 417              		.loc 1 267 6 is_stmt 0 view .LVU115
 418 000e 4FF6F073 		movw	r3, #65520
 419 0012 9A42     		cmp	r2, r3
 420 0014 19D8     		bhi	.L33
 421              	.LVL44:
 422              	.L18:
 271:Middlewares/Third_Party/LibJPEG/source/jmemmgr.c ****   if (odd_bytes > 0)
 423              		.loc 1 271 3 is_stmt 1 view .LVU116
 272:Middlewares/Third_Party/LibJPEG/source/jmemmgr.c ****     sizeofobject += SIZEOF(ALIGN_TYPE) - odd_bytes;
 424              		.loc 1 272 3 view .LVU117
 272:Middlewares/Third_Party/LibJPEG/source/jmemmgr.c ****     sizeofobject += SIZEOF(ALIGN_TYPE) - odd_bytes;
 425              		.loc 1 272 6 is_stmt 0 view .LVU118
 426 0016 14F00703 		ands	r3, r4, #7
 427              	.LVL45:
 272:Middlewares/Third_Party/LibJPEG/source/jmemmgr.c ****     sizeofobject += SIZEOF(ALIGN_TYPE) - odd_bytes;
 428              		.loc 1 272 6 view .LVU119
 429 001a 02D0     		beq	.L19
ARM GAS  /var/folders/mq/wg13gp494590nh4zyt09lxf00000gn/T//ccRbBij7.s 			page 23


 273:Middlewares/Third_Party/LibJPEG/source/jmemmgr.c **** 
 430              		.loc 1 273 5 is_stmt 1 view .LVU120
 273:Middlewares/Third_Party/LibJPEG/source/jmemmgr.c **** 
 431              		.loc 1 273 18 is_stmt 0 view .LVU121
 432 001c E31A     		subs	r3, r4, r3
 433              	.LVL46:
 273:Middlewares/Third_Party/LibJPEG/source/jmemmgr.c **** 
 434              		.loc 1 273 18 view .LVU122
 435 001e 03F10804 		add	r4, r3, #8
 436              	.LVL47:
 437              	.L19:
 276:Middlewares/Third_Party/LibJPEG/source/jmemmgr.c ****     ERREXIT1(cinfo, JERR_BAD_POOL_ID, pool_id);	/* safety check */
 438              		.loc 1 276 3 is_stmt 1 view .LVU123
 276:Middlewares/Third_Party/LibJPEG/source/jmemmgr.c ****     ERREXIT1(cinfo, JERR_BAD_POOL_ID, pool_id);	/* safety check */
 439              		.loc 1 276 6 is_stmt 0 view .LVU124
 440 0022 B9F1010F 		cmp	r9, #1
 441 0026 09D9     		bls	.L20
 277:Middlewares/Third_Party/LibJPEG/source/jmemmgr.c ****   prev_hdr_ptr = NULL;
 442              		.loc 1 277 5 is_stmt 1 view .LVU125
 443 0028 3368     		ldr	r3, [r6]
 444 002a 0F22     		movs	r2, #15
 445 002c 5A61     		str	r2, [r3, #20]
 446 002e 3368     		ldr	r3, [r6]
 447 0030 C3F81890 		str	r9, [r3, #24]
 448 0034 3368     		ldr	r3, [r6]
 449 0036 1B68     		ldr	r3, [r3]
 450 0038 3046     		mov	r0, r6
 451 003a 9847     		blx	r3
 452              	.LVL48:
 453              	.L20:
 278:Middlewares/Third_Party/LibJPEG/source/jmemmgr.c ****   hdr_ptr = mem->small_list[pool_id];
 454              		.loc 1 278 3 view .LVU126
 279:Middlewares/Third_Party/LibJPEG/source/jmemmgr.c ****   while (hdr_ptr != NULL) {
 455              		.loc 1 279 3 view .LVU127
 279:Middlewares/Third_Party/LibJPEG/source/jmemmgr.c ****   while (hdr_ptr != NULL) {
 456              		.loc 1 279 11 is_stmt 0 view .LVU128
 457 003c 09F10C03 		add	r3, r9, #12
 458 0040 0BEB8303 		add	r3, fp, r3, lsl #2
 459 0044 5B68     		ldr	r3, [r3, #4]
 460              	.LVL49:
 280:Middlewares/Third_Party/LibJPEG/source/jmemmgr.c ****     if (hdr_ptr->hdr.bytes_left >= sizeofobject)
 461              		.loc 1 280 3 is_stmt 1 view .LVU129
 278:Middlewares/Third_Party/LibJPEG/source/jmemmgr.c ****   hdr_ptr = mem->small_list[pool_id];
 462              		.loc 1 278 16 is_stmt 0 view .LVU130
 463 0046 0027     		movs	r7, #0
 280:Middlewares/Third_Party/LibJPEG/source/jmemmgr.c ****     if (hdr_ptr->hdr.bytes_left >= sizeofobject)
 464              		.loc 1 280 9 view .LVU131
 465 0048 05E0     		b	.L21
 466              	.LVL50:
 467              	.L33:
 268:Middlewares/Third_Party/LibJPEG/source/jmemmgr.c **** 
 468              		.loc 1 268 5 is_stmt 1 view .LVU132
 469 004a 0121     		movs	r1, #1
 470              	.LVL51:
 268:Middlewares/Third_Party/LibJPEG/source/jmemmgr.c **** 
 471              		.loc 1 268 5 is_stmt 0 view .LVU133
 472 004c FFF7FEFF 		bl	out_of_memory
ARM GAS  /var/folders/mq/wg13gp494590nh4zyt09lxf00000gn/T//ccRbBij7.s 			page 24


 473              	.LVL52:
 268:Middlewares/Third_Party/LibJPEG/source/jmemmgr.c **** 
 474              		.loc 1 268 5 view .LVU134
 475 0050 E1E7     		b	.L18
 476              	.LVL53:
 477              	.L34:
 283:Middlewares/Third_Party/LibJPEG/source/jmemmgr.c ****     hdr_ptr = hdr_ptr->hdr.next;
 478              		.loc 1 283 5 is_stmt 1 view .LVU135
 284:Middlewares/Third_Party/LibJPEG/source/jmemmgr.c ****   }
 479              		.loc 1 284 5 view .LVU136
 283:Middlewares/Third_Party/LibJPEG/source/jmemmgr.c ****     hdr_ptr = hdr_ptr->hdr.next;
 480              		.loc 1 283 18 is_stmt 0 view .LVU137
 481 0052 1F46     		mov	r7, r3
 284:Middlewares/Third_Party/LibJPEG/source/jmemmgr.c ****   }
 482              		.loc 1 284 13 view .LVU138
 483 0054 1B68     		ldr	r3, [r3]
 484              	.LVL54:
 485              	.L21:
 280:Middlewares/Third_Party/LibJPEG/source/jmemmgr.c ****     if (hdr_ptr->hdr.bytes_left >= sizeofobject)
 486              		.loc 1 280 18 is_stmt 1 view .LVU139
 487 0056 13B1     		cbz	r3, .L22
 281:Middlewares/Third_Party/LibJPEG/source/jmemmgr.c ****       break;			/* found pool with enough space */
 488              		.loc 1 281 5 view .LVU140
 281:Middlewares/Third_Party/LibJPEG/source/jmemmgr.c ****       break;			/* found pool with enough space */
 489              		.loc 1 281 21 is_stmt 0 view .LVU141
 490 0058 9A68     		ldr	r2, [r3, #8]
 281:Middlewares/Third_Party/LibJPEG/source/jmemmgr.c ****       break;			/* found pool with enough space */
 491              		.loc 1 281 8 view .LVU142
 492 005a A242     		cmp	r2, r4
 493 005c F9D3     		bcc	.L34
 494              	.L22:
 288:Middlewares/Third_Party/LibJPEG/source/jmemmgr.c ****     /* min_request is what we need now, slop is what will be leftover */
 495              		.loc 1 288 3 is_stmt 1 view .LVU143
 288:Middlewares/Third_Party/LibJPEG/source/jmemmgr.c ****     /* min_request is what we need now, slop is what will be leftover */
 496              		.loc 1 288 6 is_stmt 0 view .LVU144
 497 005e 53B1     		cbz	r3, .L35
 498              	.LVL55:
 499              	.L24:
 319:Middlewares/Third_Party/LibJPEG/source/jmemmgr.c ****   data_ptr += hdr_ptr->hdr.bytes_used; /* point to place for object */
 500              		.loc 1 319 3 is_stmt 1 view .LVU145
 320:Middlewares/Third_Party/LibJPEG/source/jmemmgr.c ****   hdr_ptr->hdr.bytes_used += sizeofobject;
 501              		.loc 1 320 3 view .LVU146
 320:Middlewares/Third_Party/LibJPEG/source/jmemmgr.c ****   hdr_ptr->hdr.bytes_used += sizeofobject;
 502              		.loc 1 320 27 is_stmt 0 view .LVU147
 503 0060 5A68     		ldr	r2, [r3, #4]
 320:Middlewares/Third_Party/LibJPEG/source/jmemmgr.c ****   hdr_ptr->hdr.bytes_used += sizeofobject;
 504              		.loc 1 320 12 view .LVU148
 505 0062 02F11000 		add	r0, r2, #16
 506              	.LVL56:
 321:Middlewares/Third_Party/LibJPEG/source/jmemmgr.c ****   hdr_ptr->hdr.bytes_left -= sizeofobject;
 507              		.loc 1 321 3 is_stmt 1 view .LVU149
 321:Middlewares/Third_Party/LibJPEG/source/jmemmgr.c ****   hdr_ptr->hdr.bytes_left -= sizeofobject;
 508              		.loc 1 321 27 is_stmt 0 view .LVU150
 509 0066 2244     		add	r2, r2, r4
 510 0068 5A60     		str	r2, [r3, #4]
 322:Middlewares/Third_Party/LibJPEG/source/jmemmgr.c **** 
 511              		.loc 1 322 3 is_stmt 1 view .LVU151
ARM GAS  /var/folders/mq/wg13gp494590nh4zyt09lxf00000gn/T//ccRbBij7.s 			page 25


 322:Middlewares/Third_Party/LibJPEG/source/jmemmgr.c **** 
 512              		.loc 1 322 15 is_stmt 0 view .LVU152
 513 006a 9A68     		ldr	r2, [r3, #8]
 322:Middlewares/Third_Party/LibJPEG/source/jmemmgr.c **** 
 514              		.loc 1 322 27 view .LVU153
 515 006c 121B     		subs	r2, r2, r4
 516 006e 9A60     		str	r2, [r3, #8]
 324:Middlewares/Third_Party/LibJPEG/source/jmemmgr.c **** }
 517              		.loc 1 324 3 is_stmt 1 view .LVU154
 325:Middlewares/Third_Party/LibJPEG/source/jmemmgr.c **** 
 518              		.loc 1 325 1 is_stmt 0 view .LVU155
 519 0070 1844     		add	r0, r0, r3
 520              	.LVL57:
 325:Middlewares/Third_Party/LibJPEG/source/jmemmgr.c **** 
 521              		.loc 1 325 1 view .LVU156
 522 0072 BDE8F88F 		pop	{r3, r4, r5, r6, r7, r8, r9, r10, fp, pc}
 523              	.LVL58:
 524              	.L35:
 290:Middlewares/Third_Party/LibJPEG/source/jmemmgr.c ****     if (prev_hdr_ptr == NULL)	/* first pool in class? */
 525              		.loc 1 290 5 is_stmt 1 view .LVU157
 290:Middlewares/Third_Party/LibJPEG/source/jmemmgr.c ****     if (prev_hdr_ptr == NULL)	/* first pool in class? */
 526              		.loc 1 290 17 is_stmt 0 view .LVU158
 527 0076 04F1100A 		add	r10, r4, #16
 528              	.LVL59:
 291:Middlewares/Third_Party/LibJPEG/source/jmemmgr.c ****       slop = first_pool_slop[pool_id];
 529              		.loc 1 291 5 is_stmt 1 view .LVU159
 291:Middlewares/Third_Party/LibJPEG/source/jmemmgr.c ****       slop = first_pool_slop[pool_id];
 530              		.loc 1 291 8 is_stmt 0 view .LVU160
 531 007a 47B1     		cbz	r7, .L36
 294:Middlewares/Third_Party/LibJPEG/source/jmemmgr.c ****     /* Don't ask for more than MAX_ALLOC_CHUNK */
 532              		.loc 1 294 7 is_stmt 1 view .LVU161
 294:Middlewares/Third_Party/LibJPEG/source/jmemmgr.c ****     /* Don't ask for more than MAX_ALLOC_CHUNK */
 533              		.loc 1 294 12 is_stmt 0 view .LVU162
 534 007c 194B     		ldr	r3, .L38
 535              	.LVL60:
 294:Middlewares/Third_Party/LibJPEG/source/jmemmgr.c ****     /* Don't ask for more than MAX_ALLOC_CHUNK */
 536              		.loc 1 294 12 view .LVU163
 537 007e 53F82930 		ldr	r3, [r3, r9, lsl #2]
 538              	.LVL61:
 539              	.L26:
 296:Middlewares/Third_Party/LibJPEG/source/jmemmgr.c ****       slop = (size_t) (MAX_ALLOC_CHUNK-min_request);
 540              		.loc 1 296 5 is_stmt 1 view .LVU164
 296:Middlewares/Third_Party/LibJPEG/source/jmemmgr.c ****       slop = (size_t) (MAX_ALLOC_CHUNK-min_request);
 541              		.loc 1 296 41 is_stmt 0 view .LVU165
 542 0082 CAF58035 		rsb	r5, r10, #65536
 296:Middlewares/Third_Party/LibJPEG/source/jmemmgr.c ****       slop = (size_t) (MAX_ALLOC_CHUNK-min_request);
 543              		.loc 1 296 8 view .LVU166
 544 0086 9D42     		cmp	r5, r3
 545 0088 06D3     		bcc	.L28
 296:Middlewares/Third_Party/LibJPEG/source/jmemmgr.c ****       slop = (size_t) (MAX_ALLOC_CHUNK-min_request);
 546              		.loc 1 296 8 view .LVU167
 547 008a 1D46     		mov	r5, r3
 548              	.LVL62:
 296:Middlewares/Third_Party/LibJPEG/source/jmemmgr.c ****       slop = (size_t) (MAX_ALLOC_CHUNK-min_request);
 549              		.loc 1 296 8 view .LVU168
 550 008c 04E0     		b	.L28
 551              	.LVL63:
ARM GAS  /var/folders/mq/wg13gp494590nh4zyt09lxf00000gn/T//ccRbBij7.s 			page 26


 552              	.L36:
 292:Middlewares/Third_Party/LibJPEG/source/jmemmgr.c ****     else
 553              		.loc 1 292 7 is_stmt 1 view .LVU169
 292:Middlewares/Third_Party/LibJPEG/source/jmemmgr.c ****     else
 554              		.loc 1 292 12 is_stmt 0 view .LVU170
 555 008e 164B     		ldr	r3, .L38+4
 556              	.LVL64:
 292:Middlewares/Third_Party/LibJPEG/source/jmemmgr.c ****     else
 557              		.loc 1 292 12 view .LVU171
 558 0090 53F82930 		ldr	r3, [r3, r9, lsl #2]
 559              	.LVL65:
 292:Middlewares/Third_Party/LibJPEG/source/jmemmgr.c ****     else
 560              		.loc 1 292 12 view .LVU172
 561 0094 F5E7     		b	.L26
 562              	.LVL66:
 563              	.L30:
 296:Middlewares/Third_Party/LibJPEG/source/jmemmgr.c ****       slop = (size_t) (MAX_ALLOC_CHUNK-min_request);
 564              		.loc 1 296 8 view .LVU173
 565 0096 4546     		mov	r5, r8
 566              	.LVL67:
 567              	.L28:
 299:Middlewares/Third_Party/LibJPEG/source/jmemmgr.c ****       hdr_ptr = (small_pool_ptr) jpeg_get_small(cinfo, min_request + slop);
 568              		.loc 1 299 5 is_stmt 1 view .LVU174
 300:Middlewares/Third_Party/LibJPEG/source/jmemmgr.c ****       if (hdr_ptr != NULL)
 569              		.loc 1 300 7 view .LVU175
 300:Middlewares/Third_Party/LibJPEG/source/jmemmgr.c ****       if (hdr_ptr != NULL)
 570              		.loc 1 300 34 is_stmt 0 view .LVU176
 571 0098 05EB0A08 		add	r8, r5, r10
 572 009c 4146     		mov	r1, r8
 573 009e 3046     		mov	r0, r6
 574 00a0 FFF7FEFF 		bl	jpeg_get_small
 575              	.LVL68:
 301:Middlewares/Third_Party/LibJPEG/source/jmemmgr.c **** 	break;
 576              		.loc 1 301 7 is_stmt 1 view .LVU177
 301:Middlewares/Third_Party/LibJPEG/source/jmemmgr.c **** 	break;
 577              		.loc 1 301 10 is_stmt 0 view .LVU178
 578 00a4 0346     		mov	r3, r0
 579 00a6 40B9     		cbnz	r0, .L29
 303:Middlewares/Third_Party/LibJPEG/source/jmemmgr.c ****       if (slop < MIN_SLOP)	/* give up when it gets real small */
 580              		.loc 1 303 7 is_stmt 1 view .LVU179
 303:Middlewares/Third_Party/LibJPEG/source/jmemmgr.c ****       if (slop < MIN_SLOP)	/* give up when it gets real small */
 581              		.loc 1 303 12 is_stmt 0 view .LVU180
 582 00a8 4FEA5508 		lsr	r8, r5, #1
 583              	.LVL69:
 304:Middlewares/Third_Party/LibJPEG/source/jmemmgr.c **** 	out_of_memory(cinfo, 2); /* jpeg_get_small failed */
 584              		.loc 1 304 7 is_stmt 1 view .LVU181
 304:Middlewares/Third_Party/LibJPEG/source/jmemmgr.c **** 	out_of_memory(cinfo, 2); /* jpeg_get_small failed */
 585              		.loc 1 304 10 is_stmt 0 view .LVU182
 586 00ac 632D     		cmp	r5, #99
 587 00ae F2D8     		bhi	.L30
 305:Middlewares/Third_Party/LibJPEG/source/jmemmgr.c ****     }
 588              		.loc 1 305 2 is_stmt 1 view .LVU183
 589 00b0 0221     		movs	r1, #2
 590 00b2 3046     		mov	r0, r6
 591              	.LVL70:
 305:Middlewares/Third_Party/LibJPEG/source/jmemmgr.c ****     }
 592              		.loc 1 305 2 is_stmt 0 view .LVU184
ARM GAS  /var/folders/mq/wg13gp494590nh4zyt09lxf00000gn/T//ccRbBij7.s 			page 27


 593 00b4 FFF7FEFF 		bl	out_of_memory
 594              	.LVL71:
 305:Middlewares/Third_Party/LibJPEG/source/jmemmgr.c ****     }
 595              		.loc 1 305 2 view .LVU185
 596 00b8 EDE7     		b	.L30
 597              	.LVL72:
 598              	.L29:
 307:Middlewares/Third_Party/LibJPEG/source/jmemmgr.c ****     /* Success, initialize the new pool header and add to end of list */
 599              		.loc 1 307 5 is_stmt 1 view .LVU186
 307:Middlewares/Third_Party/LibJPEG/source/jmemmgr.c ****     /* Success, initialize the new pool header and add to end of list */
 600              		.loc 1 307 8 is_stmt 0 view .LVU187
 601 00ba DBF84C20 		ldr	r2, [fp, #76]
 307:Middlewares/Third_Party/LibJPEG/source/jmemmgr.c ****     /* Success, initialize the new pool header and add to end of list */
 602              		.loc 1 307 32 view .LVU188
 603 00be 4244     		add	r2, r2, r8
 604 00c0 CBF84C20 		str	r2, [fp, #76]
 309:Middlewares/Third_Party/LibJPEG/source/jmemmgr.c ****     hdr_ptr->hdr.bytes_used = 0;
 605              		.loc 1 309 5 is_stmt 1 view .LVU189
 309:Middlewares/Third_Party/LibJPEG/source/jmemmgr.c ****     hdr_ptr->hdr.bytes_used = 0;
 606              		.loc 1 309 23 is_stmt 0 view .LVU190
 607 00c4 0022     		movs	r2, #0
 608 00c6 0260     		str	r2, [r0]
 310:Middlewares/Third_Party/LibJPEG/source/jmemmgr.c ****     hdr_ptr->hdr.bytes_left = sizeofobject + slop;
 609              		.loc 1 310 5 is_stmt 1 view .LVU191
 310:Middlewares/Third_Party/LibJPEG/source/jmemmgr.c ****     hdr_ptr->hdr.bytes_left = sizeofobject + slop;
 610              		.loc 1 310 29 is_stmt 0 view .LVU192
 611 00c8 4260     		str	r2, [r0, #4]
 311:Middlewares/Third_Party/LibJPEG/source/jmemmgr.c ****     if (prev_hdr_ptr == NULL)	/* first pool in class? */
 612              		.loc 1 311 5 is_stmt 1 view .LVU193
 311:Middlewares/Third_Party/LibJPEG/source/jmemmgr.c ****     if (prev_hdr_ptr == NULL)	/* first pool in class? */
 613              		.loc 1 311 44 is_stmt 0 view .LVU194
 614 00ca 2544     		add	r5, r5, r4
 615              	.LVL73:
 311:Middlewares/Third_Party/LibJPEG/source/jmemmgr.c ****     if (prev_hdr_ptr == NULL)	/* first pool in class? */
 616              		.loc 1 311 29 view .LVU195
 617 00cc 8560     		str	r5, [r0, #8]
 312:Middlewares/Third_Party/LibJPEG/source/jmemmgr.c ****       mem->small_list[pool_id] = hdr_ptr;
 618              		.loc 1 312 5 is_stmt 1 view .LVU196
 312:Middlewares/Third_Party/LibJPEG/source/jmemmgr.c ****       mem->small_list[pool_id] = hdr_ptr;
 619              		.loc 1 312 8 is_stmt 0 view .LVU197
 620 00ce 0FB1     		cbz	r7, .L37
 315:Middlewares/Third_Party/LibJPEG/source/jmemmgr.c ****   }
 621              		.loc 1 315 7 is_stmt 1 view .LVU198
 315:Middlewares/Third_Party/LibJPEG/source/jmemmgr.c ****   }
 622              		.loc 1 315 30 is_stmt 0 view .LVU199
 623 00d0 3860     		str	r0, [r7]
 624 00d2 C5E7     		b	.L24
 625              	.L37:
 313:Middlewares/Third_Party/LibJPEG/source/jmemmgr.c ****     else
 626              		.loc 1 313 7 is_stmt 1 view .LVU200
 313:Middlewares/Third_Party/LibJPEG/source/jmemmgr.c ****     else
 627              		.loc 1 313 32 is_stmt 0 view .LVU201
 628 00d4 09F10C09 		add	r9, r9, #12
 629              	.LVL74:
 313:Middlewares/Third_Party/LibJPEG/source/jmemmgr.c ****     else
 630              		.loc 1 313 32 view .LVU202
 631 00d8 0BEB890B 		add	fp, fp, r9, lsl #2
ARM GAS  /var/folders/mq/wg13gp494590nh4zyt09lxf00000gn/T//ccRbBij7.s 			page 28


 632              	.LVL75:
 313:Middlewares/Third_Party/LibJPEG/source/jmemmgr.c ****     else
 633              		.loc 1 313 32 view .LVU203
 634 00dc CBF80400 		str	r0, [fp, #4]
 635 00e0 BEE7     		b	.L24
 636              	.L39:
 637 00e2 00BF     		.align	2
 638              	.L38:
 639 00e4 00000000 		.word	extra_pool_slop
 640 00e8 00000000 		.word	first_pool_slop
 641              		.cfi_endproc
 642              	.LFE148:
 644              		.section	.text.request_virt_barray,"ax",%progbits
 645              		.align	1
 646              		.syntax unified
 647              		.thumb
 648              		.thumb_func
 650              	request_virt_barray:
 651              	.LVL76:
 652              	.LFB153:
 558:Middlewares/Third_Party/LibJPEG/source/jmemmgr.c ****   my_mem_ptr mem = (my_mem_ptr) cinfo->mem;
 653              		.loc 1 558 1 is_stmt 1 view -0
 654              		.cfi_startproc
 655              		@ args = 8, pretend = 0, frame = 0
 656              		@ frame_needed = 0, uses_anonymous_args = 0
 558:Middlewares/Third_Party/LibJPEG/source/jmemmgr.c ****   my_mem_ptr mem = (my_mem_ptr) cinfo->mem;
 657              		.loc 1 558 1 is_stmt 0 view .LVU205
 658 0000 2DE9F041 		push	{r4, r5, r6, r7, r8, lr}
 659              	.LCFI8:
 660              		.cfi_def_cfa_offset 24
 661              		.cfi_offset 4, -24
 662              		.cfi_offset 5, -20
 663              		.cfi_offset 6, -16
 664              		.cfi_offset 7, -12
 665              		.cfi_offset 8, -8
 666              		.cfi_offset 14, -4
 667 0004 0446     		mov	r4, r0
 668 0006 0D46     		mov	r5, r1
 669 0008 1646     		mov	r6, r2
 670 000a 1F46     		mov	r7, r3
 559:Middlewares/Third_Party/LibJPEG/source/jmemmgr.c ****   jvirt_barray_ptr result;
 671              		.loc 1 559 3 is_stmt 1 view .LVU206
 559:Middlewares/Third_Party/LibJPEG/source/jmemmgr.c ****   jvirt_barray_ptr result;
 672              		.loc 1 559 14 is_stmt 0 view .LVU207
 673 000c D0F80480 		ldr	r8, [r0, #4]
 674              	.LVL77:
 560:Middlewares/Third_Party/LibJPEG/source/jmemmgr.c **** 
 675              		.loc 1 560 3 is_stmt 1 view .LVU208
 563:Middlewares/Third_Party/LibJPEG/source/jmemmgr.c ****     ERREXIT1(cinfo, JERR_BAD_POOL_ID, pool_id);	/* safety check */
 676              		.loc 1 563 3 view .LVU209
 563:Middlewares/Third_Party/LibJPEG/source/jmemmgr.c ****     ERREXIT1(cinfo, JERR_BAD_POOL_ID, pool_id);	/* safety check */
 677              		.loc 1 563 6 is_stmt 0 view .LVU210
 678 0010 0129     		cmp	r1, #1
 679 0012 07D0     		beq	.L41
 564:Middlewares/Third_Party/LibJPEG/source/jmemmgr.c **** 
 680              		.loc 1 564 5 is_stmt 1 view .LVU211
 681 0014 0368     		ldr	r3, [r0]
ARM GAS  /var/folders/mq/wg13gp494590nh4zyt09lxf00000gn/T//ccRbBij7.s 			page 29


 682              	.LVL78:
 564:Middlewares/Third_Party/LibJPEG/source/jmemmgr.c **** 
 683              		.loc 1 564 5 is_stmt 0 view .LVU212
 684 0016 0F22     		movs	r2, #15
 685              	.LVL79:
 564:Middlewares/Third_Party/LibJPEG/source/jmemmgr.c **** 
 686              		.loc 1 564 5 view .LVU213
 687 0018 5A61     		str	r2, [r3, #20]
 688 001a 0368     		ldr	r3, [r0]
 689 001c 9961     		str	r1, [r3, #24]
 690 001e 0368     		ldr	r3, [r0]
 691 0020 1B68     		ldr	r3, [r3]
 692 0022 9847     		blx	r3
 693              	.LVL80:
 694              	.L41:
 567:Middlewares/Third_Party/LibJPEG/source/jmemmgr.c **** 					  SIZEOF(struct jvirt_barray_control));
 695              		.loc 1 567 3 is_stmt 1 view .LVU214
 567:Middlewares/Third_Party/LibJPEG/source/jmemmgr.c **** 					  SIZEOF(struct jvirt_barray_control));
 696              		.loc 1 567 31 is_stmt 0 view .LVU215
 697 0024 3C22     		movs	r2, #60
 698 0026 2946     		mov	r1, r5
 699 0028 2046     		mov	r0, r4
 700 002a FFF7FEFF 		bl	alloc_small
 701              	.LVL81:
 570:Middlewares/Third_Party/LibJPEG/source/jmemmgr.c ****   result->rows_in_array = numrows;
 702              		.loc 1 570 3 is_stmt 1 view .LVU216
 570:Middlewares/Third_Party/LibJPEG/source/jmemmgr.c ****   result->rows_in_array = numrows;
 703              		.loc 1 570 22 is_stmt 0 view .LVU217
 704 002e 0023     		movs	r3, #0
 705 0030 0360     		str	r3, [r0]
 571:Middlewares/Third_Party/LibJPEG/source/jmemmgr.c ****   result->blocksperrow = blocksperrow;
 706              		.loc 1 571 3 is_stmt 1 view .LVU218
 571:Middlewares/Third_Party/LibJPEG/source/jmemmgr.c ****   result->blocksperrow = blocksperrow;
 707              		.loc 1 571 25 is_stmt 0 view .LVU219
 708 0032 069A     		ldr	r2, [sp, #24]
 709 0034 4260     		str	r2, [r0, #4]
 572:Middlewares/Third_Party/LibJPEG/source/jmemmgr.c ****   result->maxaccess = maxaccess;
 710              		.loc 1 572 3 is_stmt 1 view .LVU220
 572:Middlewares/Third_Party/LibJPEG/source/jmemmgr.c ****   result->maxaccess = maxaccess;
 711              		.loc 1 572 24 is_stmt 0 view .LVU221
 712 0036 8760     		str	r7, [r0, #8]
 573:Middlewares/Third_Party/LibJPEG/source/jmemmgr.c ****   result->pre_zero = pre_zero;
 713              		.loc 1 573 3 is_stmt 1 view .LVU222
 573:Middlewares/Third_Party/LibJPEG/source/jmemmgr.c ****   result->pre_zero = pre_zero;
 714              		.loc 1 573 21 is_stmt 0 view .LVU223
 715 0038 079A     		ldr	r2, [sp, #28]
 716 003a C260     		str	r2, [r0, #12]
 574:Middlewares/Third_Party/LibJPEG/source/jmemmgr.c ****   result->b_s_open = FALSE;	/* no associated backing-store object */
 717              		.loc 1 574 3 is_stmt 1 view .LVU224
 574:Middlewares/Third_Party/LibJPEG/source/jmemmgr.c ****   result->b_s_open = FALSE;	/* no associated backing-store object */
 718              		.loc 1 574 20 is_stmt 0 view .LVU225
 719 003c 0662     		str	r6, [r0, #32]
 575:Middlewares/Third_Party/LibJPEG/source/jmemmgr.c ****   result->next = mem->virt_barray_list; /* add to list of virtual arrays */
 720              		.loc 1 575 3 is_stmt 1 view .LVU226
 575:Middlewares/Third_Party/LibJPEG/source/jmemmgr.c ****   result->next = mem->virt_barray_list; /* add to list of virtual arrays */
 721              		.loc 1 575 20 is_stmt 0 view .LVU227
 722 003e 8362     		str	r3, [r0, #40]
ARM GAS  /var/folders/mq/wg13gp494590nh4zyt09lxf00000gn/T//ccRbBij7.s 			page 30


 576:Middlewares/Third_Party/LibJPEG/source/jmemmgr.c ****   mem->virt_barray_list = result;
 723              		.loc 1 576 3 is_stmt 1 view .LVU228
 576:Middlewares/Third_Party/LibJPEG/source/jmemmgr.c ****   mem->virt_barray_list = result;
 724              		.loc 1 576 21 is_stmt 0 view .LVU229
 725 0040 D8F84830 		ldr	r3, [r8, #72]
 576:Middlewares/Third_Party/LibJPEG/source/jmemmgr.c ****   mem->virt_barray_list = result;
 726              		.loc 1 576 16 view .LVU230
 727 0044 C362     		str	r3, [r0, #44]
 577:Middlewares/Third_Party/LibJPEG/source/jmemmgr.c **** 
 728              		.loc 1 577 3 is_stmt 1 view .LVU231
 577:Middlewares/Third_Party/LibJPEG/source/jmemmgr.c **** 
 729              		.loc 1 577 25 is_stmt 0 view .LVU232
 730 0046 C8F84800 		str	r0, [r8, #72]
 579:Middlewares/Third_Party/LibJPEG/source/jmemmgr.c **** }
 731              		.loc 1 579 3 is_stmt 1 view .LVU233
 580:Middlewares/Third_Party/LibJPEG/source/jmemmgr.c **** 
 732              		.loc 1 580 1 is_stmt 0 view .LVU234
 733 004a BDE8F081 		pop	{r4, r5, r6, r7, r8, pc}
 580:Middlewares/Third_Party/LibJPEG/source/jmemmgr.c **** 
 734              		.loc 1 580 1 view .LVU235
 735              		.cfi_endproc
 736              	.LFE153:
 738              		.section	.text.request_virt_sarray,"ax",%progbits
 739              		.align	1
 740              		.syntax unified
 741              		.thumb
 742              		.thumb_func
 744              	request_virt_sarray:
 745              	.LVL82:
 746              	.LFB152:
 528:Middlewares/Third_Party/LibJPEG/source/jmemmgr.c ****   my_mem_ptr mem = (my_mem_ptr) cinfo->mem;
 747              		.loc 1 528 1 is_stmt 1 view -0
 748              		.cfi_startproc
 749              		@ args = 8, pretend = 0, frame = 0
 750              		@ frame_needed = 0, uses_anonymous_args = 0
 528:Middlewares/Third_Party/LibJPEG/source/jmemmgr.c ****   my_mem_ptr mem = (my_mem_ptr) cinfo->mem;
 751              		.loc 1 528 1 is_stmt 0 view .LVU237
 752 0000 2DE9F041 		push	{r4, r5, r6, r7, r8, lr}
 753              	.LCFI9:
 754              		.cfi_def_cfa_offset 24
 755              		.cfi_offset 4, -24
 756              		.cfi_offset 5, -20
 757              		.cfi_offset 6, -16
 758              		.cfi_offset 7, -12
 759              		.cfi_offset 8, -8
 760              		.cfi_offset 14, -4
 761 0004 0446     		mov	r4, r0
 762 0006 0D46     		mov	r5, r1
 763 0008 1646     		mov	r6, r2
 764 000a 1F46     		mov	r7, r3
 529:Middlewares/Third_Party/LibJPEG/source/jmemmgr.c ****   jvirt_sarray_ptr result;
 765              		.loc 1 529 3 is_stmt 1 view .LVU238
 529:Middlewares/Third_Party/LibJPEG/source/jmemmgr.c ****   jvirt_sarray_ptr result;
 766              		.loc 1 529 14 is_stmt 0 view .LVU239
 767 000c D0F80480 		ldr	r8, [r0, #4]
 768              	.LVL83:
 530:Middlewares/Third_Party/LibJPEG/source/jmemmgr.c **** 
ARM GAS  /var/folders/mq/wg13gp494590nh4zyt09lxf00000gn/T//ccRbBij7.s 			page 31


 769              		.loc 1 530 3 is_stmt 1 view .LVU240
 533:Middlewares/Third_Party/LibJPEG/source/jmemmgr.c ****     ERREXIT1(cinfo, JERR_BAD_POOL_ID, pool_id);	/* safety check */
 770              		.loc 1 533 3 view .LVU241
 533:Middlewares/Third_Party/LibJPEG/source/jmemmgr.c ****     ERREXIT1(cinfo, JERR_BAD_POOL_ID, pool_id);	/* safety check */
 771              		.loc 1 533 6 is_stmt 0 view .LVU242
 772 0010 0129     		cmp	r1, #1
 773 0012 07D0     		beq	.L44
 534:Middlewares/Third_Party/LibJPEG/source/jmemmgr.c **** 
 774              		.loc 1 534 5 is_stmt 1 view .LVU243
 775 0014 0368     		ldr	r3, [r0]
 776              	.LVL84:
 534:Middlewares/Third_Party/LibJPEG/source/jmemmgr.c **** 
 777              		.loc 1 534 5 is_stmt 0 view .LVU244
 778 0016 0F22     		movs	r2, #15
 779              	.LVL85:
 534:Middlewares/Third_Party/LibJPEG/source/jmemmgr.c **** 
 780              		.loc 1 534 5 view .LVU245
 781 0018 5A61     		str	r2, [r3, #20]
 782 001a 0368     		ldr	r3, [r0]
 783 001c 9961     		str	r1, [r3, #24]
 784 001e 0368     		ldr	r3, [r0]
 785 0020 1B68     		ldr	r3, [r3]
 786 0022 9847     		blx	r3
 787              	.LVL86:
 788              	.L44:
 537:Middlewares/Third_Party/LibJPEG/source/jmemmgr.c **** 					  SIZEOF(struct jvirt_sarray_control));
 789              		.loc 1 537 3 is_stmt 1 view .LVU246
 537:Middlewares/Third_Party/LibJPEG/source/jmemmgr.c **** 					  SIZEOF(struct jvirt_sarray_control));
 790              		.loc 1 537 31 is_stmt 0 view .LVU247
 791 0024 3C22     		movs	r2, #60
 792 0026 2946     		mov	r1, r5
 793 0028 2046     		mov	r0, r4
 794 002a FFF7FEFF 		bl	alloc_small
 795              	.LVL87:
 540:Middlewares/Third_Party/LibJPEG/source/jmemmgr.c ****   result->rows_in_array = numrows;
 796              		.loc 1 540 3 is_stmt 1 view .LVU248
 540:Middlewares/Third_Party/LibJPEG/source/jmemmgr.c ****   result->rows_in_array = numrows;
 797              		.loc 1 540 22 is_stmt 0 view .LVU249
 798 002e 0023     		movs	r3, #0
 799 0030 0360     		str	r3, [r0]
 541:Middlewares/Third_Party/LibJPEG/source/jmemmgr.c ****   result->samplesperrow = samplesperrow;
 800              		.loc 1 541 3 is_stmt 1 view .LVU250
 541:Middlewares/Third_Party/LibJPEG/source/jmemmgr.c ****   result->samplesperrow = samplesperrow;
 801              		.loc 1 541 25 is_stmt 0 view .LVU251
 802 0032 069A     		ldr	r2, [sp, #24]
 803 0034 4260     		str	r2, [r0, #4]
 542:Middlewares/Third_Party/LibJPEG/source/jmemmgr.c ****   result->maxaccess = maxaccess;
 804              		.loc 1 542 3 is_stmt 1 view .LVU252
 542:Middlewares/Third_Party/LibJPEG/source/jmemmgr.c ****   result->maxaccess = maxaccess;
 805              		.loc 1 542 25 is_stmt 0 view .LVU253
 806 0036 8760     		str	r7, [r0, #8]
 543:Middlewares/Third_Party/LibJPEG/source/jmemmgr.c ****   result->pre_zero = pre_zero;
 807              		.loc 1 543 3 is_stmt 1 view .LVU254
 543:Middlewares/Third_Party/LibJPEG/source/jmemmgr.c ****   result->pre_zero = pre_zero;
 808              		.loc 1 543 21 is_stmt 0 view .LVU255
 809 0038 079A     		ldr	r2, [sp, #28]
 810 003a C260     		str	r2, [r0, #12]
ARM GAS  /var/folders/mq/wg13gp494590nh4zyt09lxf00000gn/T//ccRbBij7.s 			page 32


 544:Middlewares/Third_Party/LibJPEG/source/jmemmgr.c ****   result->b_s_open = FALSE;	/* no associated backing-store object */
 811              		.loc 1 544 3 is_stmt 1 view .LVU256
 544:Middlewares/Third_Party/LibJPEG/source/jmemmgr.c ****   result->b_s_open = FALSE;	/* no associated backing-store object */
 812              		.loc 1 544 20 is_stmt 0 view .LVU257
 813 003c 0662     		str	r6, [r0, #32]
 545:Middlewares/Third_Party/LibJPEG/source/jmemmgr.c ****   result->next = mem->virt_sarray_list; /* add to list of virtual arrays */
 814              		.loc 1 545 3 is_stmt 1 view .LVU258
 545:Middlewares/Third_Party/LibJPEG/source/jmemmgr.c ****   result->next = mem->virt_sarray_list; /* add to list of virtual arrays */
 815              		.loc 1 545 20 is_stmt 0 view .LVU259
 816 003e 8362     		str	r3, [r0, #40]
 546:Middlewares/Third_Party/LibJPEG/source/jmemmgr.c ****   mem->virt_sarray_list = result;
 817              		.loc 1 546 3 is_stmt 1 view .LVU260
 546:Middlewares/Third_Party/LibJPEG/source/jmemmgr.c ****   mem->virt_sarray_list = result;
 818              		.loc 1 546 21 is_stmt 0 view .LVU261
 819 0040 D8F84430 		ldr	r3, [r8, #68]
 546:Middlewares/Third_Party/LibJPEG/source/jmemmgr.c ****   mem->virt_sarray_list = result;
 820              		.loc 1 546 16 view .LVU262
 821 0044 C362     		str	r3, [r0, #44]
 547:Middlewares/Third_Party/LibJPEG/source/jmemmgr.c **** 
 822              		.loc 1 547 3 is_stmt 1 view .LVU263
 547:Middlewares/Third_Party/LibJPEG/source/jmemmgr.c **** 
 823              		.loc 1 547 25 is_stmt 0 view .LVU264
 824 0046 C8F84400 		str	r0, [r8, #68]
 549:Middlewares/Third_Party/LibJPEG/source/jmemmgr.c **** }
 825              		.loc 1 549 3 is_stmt 1 view .LVU265
 550:Middlewares/Third_Party/LibJPEG/source/jmemmgr.c **** 
 826              		.loc 1 550 1 is_stmt 0 view .LVU266
 827 004a BDE8F081 		pop	{r4, r5, r6, r7, r8, pc}
 550:Middlewares/Third_Party/LibJPEG/source/jmemmgr.c **** 
 828              		.loc 1 550 1 view .LVU267
 829              		.cfi_endproc
 830              	.LFE152:
 832              		.section	.text.free_pool,"ax",%progbits
 833              		.align	1
 834              		.syntax unified
 835              		.thumb
 836              		.thumb_func
 838              	free_pool:
 839              	.LVL88:
 840              	.LFB159:
 754:Middlewares/Third_Party/LibJPEG/source/jmemmgr.c **** 
 755:Middlewares/Third_Party/LibJPEG/source/jmemmgr.c **** 
 756:Middlewares/Third_Party/LibJPEG/source/jmemmgr.c **** METHODDEF(JSAMPARRAY)
 757:Middlewares/Third_Party/LibJPEG/source/jmemmgr.c **** access_virt_sarray (j_common_ptr cinfo, jvirt_sarray_ptr ptr,
 758:Middlewares/Third_Party/LibJPEG/source/jmemmgr.c **** 		    JDIMENSION start_row, JDIMENSION num_rows,
 759:Middlewares/Third_Party/LibJPEG/source/jmemmgr.c **** 		    boolean writable)
 760:Middlewares/Third_Party/LibJPEG/source/jmemmgr.c **** /* Access the part of a virtual sample array starting at start_row */
 761:Middlewares/Third_Party/LibJPEG/source/jmemmgr.c **** /* and extending for num_rows rows.  writable is true if  */
 762:Middlewares/Third_Party/LibJPEG/source/jmemmgr.c **** /* caller intends to modify the accessed area. */
 763:Middlewares/Third_Party/LibJPEG/source/jmemmgr.c **** {
 764:Middlewares/Third_Party/LibJPEG/source/jmemmgr.c ****   JDIMENSION end_row = start_row + num_rows;
 765:Middlewares/Third_Party/LibJPEG/source/jmemmgr.c ****   JDIMENSION undef_row;
 766:Middlewares/Third_Party/LibJPEG/source/jmemmgr.c **** 
 767:Middlewares/Third_Party/LibJPEG/source/jmemmgr.c ****   /* debugging check */
 768:Middlewares/Third_Party/LibJPEG/source/jmemmgr.c ****   if (end_row > ptr->rows_in_array || num_rows > ptr->maxaccess ||
 769:Middlewares/Third_Party/LibJPEG/source/jmemmgr.c ****       ptr->mem_buffer == NULL)
 770:Middlewares/Third_Party/LibJPEG/source/jmemmgr.c ****     ERREXIT(cinfo, JERR_BAD_VIRTUAL_ACCESS);
ARM GAS  /var/folders/mq/wg13gp494590nh4zyt09lxf00000gn/T//ccRbBij7.s 			page 33


 771:Middlewares/Third_Party/LibJPEG/source/jmemmgr.c **** 
 772:Middlewares/Third_Party/LibJPEG/source/jmemmgr.c ****   /* Make the desired part of the virtual array accessible */
 773:Middlewares/Third_Party/LibJPEG/source/jmemmgr.c ****   if (start_row < ptr->cur_start_row ||
 774:Middlewares/Third_Party/LibJPEG/source/jmemmgr.c ****       end_row > ptr->cur_start_row+ptr->rows_in_mem) {
 775:Middlewares/Third_Party/LibJPEG/source/jmemmgr.c ****     if (! ptr->b_s_open)
 776:Middlewares/Third_Party/LibJPEG/source/jmemmgr.c ****       ERREXIT(cinfo, JERR_VIRTUAL_BUG);
 777:Middlewares/Third_Party/LibJPEG/source/jmemmgr.c ****     /* Flush old buffer contents if necessary */
 778:Middlewares/Third_Party/LibJPEG/source/jmemmgr.c ****     if (ptr->dirty) {
 779:Middlewares/Third_Party/LibJPEG/source/jmemmgr.c ****       do_sarray_io(cinfo, ptr, TRUE);
 780:Middlewares/Third_Party/LibJPEG/source/jmemmgr.c ****       ptr->dirty = FALSE;
 781:Middlewares/Third_Party/LibJPEG/source/jmemmgr.c ****     }
 782:Middlewares/Third_Party/LibJPEG/source/jmemmgr.c ****     /* Decide what part of virtual array to access.
 783:Middlewares/Third_Party/LibJPEG/source/jmemmgr.c ****      * Algorithm: if target address > current window, assume forward scan,
 784:Middlewares/Third_Party/LibJPEG/source/jmemmgr.c ****      * load starting at target address.  If target address < current window,
 785:Middlewares/Third_Party/LibJPEG/source/jmemmgr.c ****      * assume backward scan, load so that target area is top of window.
 786:Middlewares/Third_Party/LibJPEG/source/jmemmgr.c ****      * Note that when switching from forward write to forward read, will have
 787:Middlewares/Third_Party/LibJPEG/source/jmemmgr.c ****      * start_row = 0, so the limiting case applies and we load from 0 anyway.
 788:Middlewares/Third_Party/LibJPEG/source/jmemmgr.c ****      */
 789:Middlewares/Third_Party/LibJPEG/source/jmemmgr.c ****     if (start_row > ptr->cur_start_row) {
 790:Middlewares/Third_Party/LibJPEG/source/jmemmgr.c ****       ptr->cur_start_row = start_row;
 791:Middlewares/Third_Party/LibJPEG/source/jmemmgr.c ****     } else {
 792:Middlewares/Third_Party/LibJPEG/source/jmemmgr.c ****       /* use long arithmetic here to avoid overflow & unsigned problems */
 793:Middlewares/Third_Party/LibJPEG/source/jmemmgr.c ****       long ltemp;
 794:Middlewares/Third_Party/LibJPEG/source/jmemmgr.c **** 
 795:Middlewares/Third_Party/LibJPEG/source/jmemmgr.c ****       ltemp = (long) end_row - (long) ptr->rows_in_mem;
 796:Middlewares/Third_Party/LibJPEG/source/jmemmgr.c ****       if (ltemp < 0)
 797:Middlewares/Third_Party/LibJPEG/source/jmemmgr.c **** 	ltemp = 0;		/* don't fall off front end of file */
 798:Middlewares/Third_Party/LibJPEG/source/jmemmgr.c ****       ptr->cur_start_row = (JDIMENSION) ltemp;
 799:Middlewares/Third_Party/LibJPEG/source/jmemmgr.c ****     }
 800:Middlewares/Third_Party/LibJPEG/source/jmemmgr.c ****     /* Read in the selected part of the array.
 801:Middlewares/Third_Party/LibJPEG/source/jmemmgr.c ****      * During the initial write pass, we will do no actual read
 802:Middlewares/Third_Party/LibJPEG/source/jmemmgr.c ****      * because the selected part is all undefined.
 803:Middlewares/Third_Party/LibJPEG/source/jmemmgr.c ****      */
 804:Middlewares/Third_Party/LibJPEG/source/jmemmgr.c ****     do_sarray_io(cinfo, ptr, FALSE);
 805:Middlewares/Third_Party/LibJPEG/source/jmemmgr.c ****   }
 806:Middlewares/Third_Party/LibJPEG/source/jmemmgr.c ****   /* Ensure the accessed part of the array is defined; prezero if needed.
 807:Middlewares/Third_Party/LibJPEG/source/jmemmgr.c ****    * To improve locality of access, we only prezero the part of the array
 808:Middlewares/Third_Party/LibJPEG/source/jmemmgr.c ****    * that the caller is about to access, not the entire in-memory array.
 809:Middlewares/Third_Party/LibJPEG/source/jmemmgr.c ****    */
 810:Middlewares/Third_Party/LibJPEG/source/jmemmgr.c ****   if (ptr->first_undef_row < end_row) {
 811:Middlewares/Third_Party/LibJPEG/source/jmemmgr.c ****     if (ptr->first_undef_row < start_row) {
 812:Middlewares/Third_Party/LibJPEG/source/jmemmgr.c ****       if (writable)		/* writer skipped over a section of array */
 813:Middlewares/Third_Party/LibJPEG/source/jmemmgr.c **** 	ERREXIT(cinfo, JERR_BAD_VIRTUAL_ACCESS);
 814:Middlewares/Third_Party/LibJPEG/source/jmemmgr.c ****       undef_row = start_row;	/* but reader is allowed to read ahead */
 815:Middlewares/Third_Party/LibJPEG/source/jmemmgr.c ****     } else {
 816:Middlewares/Third_Party/LibJPEG/source/jmemmgr.c ****       undef_row = ptr->first_undef_row;
 817:Middlewares/Third_Party/LibJPEG/source/jmemmgr.c ****     }
 818:Middlewares/Third_Party/LibJPEG/source/jmemmgr.c ****     if (writable)
 819:Middlewares/Third_Party/LibJPEG/source/jmemmgr.c ****       ptr->first_undef_row = end_row;
 820:Middlewares/Third_Party/LibJPEG/source/jmemmgr.c ****     if (ptr->pre_zero) {
 821:Middlewares/Third_Party/LibJPEG/source/jmemmgr.c ****       size_t bytesperrow = (size_t) ptr->samplesperrow * SIZEOF(JSAMPLE);
 822:Middlewares/Third_Party/LibJPEG/source/jmemmgr.c ****       undef_row -= ptr->cur_start_row; /* make indexes relative to buffer */
 823:Middlewares/Third_Party/LibJPEG/source/jmemmgr.c ****       end_row -= ptr->cur_start_row;
 824:Middlewares/Third_Party/LibJPEG/source/jmemmgr.c ****       while (undef_row < end_row) {
 825:Middlewares/Third_Party/LibJPEG/source/jmemmgr.c **** 	FMEMZERO((void FAR *) ptr->mem_buffer[undef_row], bytesperrow);
 826:Middlewares/Third_Party/LibJPEG/source/jmemmgr.c **** 	undef_row++;
 827:Middlewares/Third_Party/LibJPEG/source/jmemmgr.c ****       }
ARM GAS  /var/folders/mq/wg13gp494590nh4zyt09lxf00000gn/T//ccRbBij7.s 			page 34


 828:Middlewares/Third_Party/LibJPEG/source/jmemmgr.c ****     } else {
 829:Middlewares/Third_Party/LibJPEG/source/jmemmgr.c ****       if (! writable)		/* reader looking at undefined data */
 830:Middlewares/Third_Party/LibJPEG/source/jmemmgr.c **** 	ERREXIT(cinfo, JERR_BAD_VIRTUAL_ACCESS);
 831:Middlewares/Third_Party/LibJPEG/source/jmemmgr.c ****     }
 832:Middlewares/Third_Party/LibJPEG/source/jmemmgr.c ****   }
 833:Middlewares/Third_Party/LibJPEG/source/jmemmgr.c ****   /* Flag the buffer dirty if caller will write in it */
 834:Middlewares/Third_Party/LibJPEG/source/jmemmgr.c ****   if (writable)
 835:Middlewares/Third_Party/LibJPEG/source/jmemmgr.c ****     ptr->dirty = TRUE;
 836:Middlewares/Third_Party/LibJPEG/source/jmemmgr.c ****   /* Return address of proper part of the buffer */
 837:Middlewares/Third_Party/LibJPEG/source/jmemmgr.c ****   return ptr->mem_buffer + (start_row - ptr->cur_start_row);
 838:Middlewares/Third_Party/LibJPEG/source/jmemmgr.c **** }
 839:Middlewares/Third_Party/LibJPEG/source/jmemmgr.c **** 
 840:Middlewares/Third_Party/LibJPEG/source/jmemmgr.c **** 
 841:Middlewares/Third_Party/LibJPEG/source/jmemmgr.c **** METHODDEF(JBLOCKARRAY)
 842:Middlewares/Third_Party/LibJPEG/source/jmemmgr.c **** access_virt_barray (j_common_ptr cinfo, jvirt_barray_ptr ptr,
 843:Middlewares/Third_Party/LibJPEG/source/jmemmgr.c **** 		    JDIMENSION start_row, JDIMENSION num_rows,
 844:Middlewares/Third_Party/LibJPEG/source/jmemmgr.c **** 		    boolean writable)
 845:Middlewares/Third_Party/LibJPEG/source/jmemmgr.c **** /* Access the part of a virtual block array starting at start_row */
 846:Middlewares/Third_Party/LibJPEG/source/jmemmgr.c **** /* and extending for num_rows rows.  writable is true if  */
 847:Middlewares/Third_Party/LibJPEG/source/jmemmgr.c **** /* caller intends to modify the accessed area. */
 848:Middlewares/Third_Party/LibJPEG/source/jmemmgr.c **** {
 849:Middlewares/Third_Party/LibJPEG/source/jmemmgr.c ****   JDIMENSION end_row = start_row + num_rows;
 850:Middlewares/Third_Party/LibJPEG/source/jmemmgr.c ****   JDIMENSION undef_row;
 851:Middlewares/Third_Party/LibJPEG/source/jmemmgr.c **** 
 852:Middlewares/Third_Party/LibJPEG/source/jmemmgr.c ****   /* debugging check */
 853:Middlewares/Third_Party/LibJPEG/source/jmemmgr.c ****   if (end_row > ptr->rows_in_array || num_rows > ptr->maxaccess ||
 854:Middlewares/Third_Party/LibJPEG/source/jmemmgr.c ****       ptr->mem_buffer == NULL)
 855:Middlewares/Third_Party/LibJPEG/source/jmemmgr.c ****     ERREXIT(cinfo, JERR_BAD_VIRTUAL_ACCESS);
 856:Middlewares/Third_Party/LibJPEG/source/jmemmgr.c **** 
 857:Middlewares/Third_Party/LibJPEG/source/jmemmgr.c ****   /* Make the desired part of the virtual array accessible */
 858:Middlewares/Third_Party/LibJPEG/source/jmemmgr.c ****   if (start_row < ptr->cur_start_row ||
 859:Middlewares/Third_Party/LibJPEG/source/jmemmgr.c ****       end_row > ptr->cur_start_row+ptr->rows_in_mem) {
 860:Middlewares/Third_Party/LibJPEG/source/jmemmgr.c ****     if (! ptr->b_s_open)
 861:Middlewares/Third_Party/LibJPEG/source/jmemmgr.c ****       ERREXIT(cinfo, JERR_VIRTUAL_BUG);
 862:Middlewares/Third_Party/LibJPEG/source/jmemmgr.c ****     /* Flush old buffer contents if necessary */
 863:Middlewares/Third_Party/LibJPEG/source/jmemmgr.c ****     if (ptr->dirty) {
 864:Middlewares/Third_Party/LibJPEG/source/jmemmgr.c ****       do_barray_io(cinfo, ptr, TRUE);
 865:Middlewares/Third_Party/LibJPEG/source/jmemmgr.c ****       ptr->dirty = FALSE;
 866:Middlewares/Third_Party/LibJPEG/source/jmemmgr.c ****     }
 867:Middlewares/Third_Party/LibJPEG/source/jmemmgr.c ****     /* Decide what part of virtual array to access.
 868:Middlewares/Third_Party/LibJPEG/source/jmemmgr.c ****      * Algorithm: if target address > current window, assume forward scan,
 869:Middlewares/Third_Party/LibJPEG/source/jmemmgr.c ****      * load starting at target address.  If target address < current window,
 870:Middlewares/Third_Party/LibJPEG/source/jmemmgr.c ****      * assume backward scan, load so that target area is top of window.
 871:Middlewares/Third_Party/LibJPEG/source/jmemmgr.c ****      * Note that when switching from forward write to forward read, will have
 872:Middlewares/Third_Party/LibJPEG/source/jmemmgr.c ****      * start_row = 0, so the limiting case applies and we load from 0 anyway.
 873:Middlewares/Third_Party/LibJPEG/source/jmemmgr.c ****      */
 874:Middlewares/Third_Party/LibJPEG/source/jmemmgr.c ****     if (start_row > ptr->cur_start_row) {
 875:Middlewares/Third_Party/LibJPEG/source/jmemmgr.c ****       ptr->cur_start_row = start_row;
 876:Middlewares/Third_Party/LibJPEG/source/jmemmgr.c ****     } else {
 877:Middlewares/Third_Party/LibJPEG/source/jmemmgr.c ****       /* use long arithmetic here to avoid overflow & unsigned problems */
 878:Middlewares/Third_Party/LibJPEG/source/jmemmgr.c ****       long ltemp;
 879:Middlewares/Third_Party/LibJPEG/source/jmemmgr.c **** 
 880:Middlewares/Third_Party/LibJPEG/source/jmemmgr.c ****       ltemp = (long) end_row - (long) ptr->rows_in_mem;
 881:Middlewares/Third_Party/LibJPEG/source/jmemmgr.c ****       if (ltemp < 0)
 882:Middlewares/Third_Party/LibJPEG/source/jmemmgr.c **** 	ltemp = 0;		/* don't fall off front end of file */
 883:Middlewares/Third_Party/LibJPEG/source/jmemmgr.c ****       ptr->cur_start_row = (JDIMENSION) ltemp;
 884:Middlewares/Third_Party/LibJPEG/source/jmemmgr.c ****     }
ARM GAS  /var/folders/mq/wg13gp494590nh4zyt09lxf00000gn/T//ccRbBij7.s 			page 35


 885:Middlewares/Third_Party/LibJPEG/source/jmemmgr.c ****     /* Read in the selected part of the array.
 886:Middlewares/Third_Party/LibJPEG/source/jmemmgr.c ****      * During the initial write pass, we will do no actual read
 887:Middlewares/Third_Party/LibJPEG/source/jmemmgr.c ****      * because the selected part is all undefined.
 888:Middlewares/Third_Party/LibJPEG/source/jmemmgr.c ****      */
 889:Middlewares/Third_Party/LibJPEG/source/jmemmgr.c ****     do_barray_io(cinfo, ptr, FALSE);
 890:Middlewares/Third_Party/LibJPEG/source/jmemmgr.c ****   }
 891:Middlewares/Third_Party/LibJPEG/source/jmemmgr.c ****   /* Ensure the accessed part of the array is defined; prezero if needed.
 892:Middlewares/Third_Party/LibJPEG/source/jmemmgr.c ****    * To improve locality of access, we only prezero the part of the array
 893:Middlewares/Third_Party/LibJPEG/source/jmemmgr.c ****    * that the caller is about to access, not the entire in-memory array.
 894:Middlewares/Third_Party/LibJPEG/source/jmemmgr.c ****    */
 895:Middlewares/Third_Party/LibJPEG/source/jmemmgr.c ****   if (ptr->first_undef_row < end_row) {
 896:Middlewares/Third_Party/LibJPEG/source/jmemmgr.c ****     if (ptr->first_undef_row < start_row) {
 897:Middlewares/Third_Party/LibJPEG/source/jmemmgr.c ****       if (writable)		/* writer skipped over a section of array */
 898:Middlewares/Third_Party/LibJPEG/source/jmemmgr.c **** 	ERREXIT(cinfo, JERR_BAD_VIRTUAL_ACCESS);
 899:Middlewares/Third_Party/LibJPEG/source/jmemmgr.c ****       undef_row = start_row;	/* but reader is allowed to read ahead */
 900:Middlewares/Third_Party/LibJPEG/source/jmemmgr.c ****     } else {
 901:Middlewares/Third_Party/LibJPEG/source/jmemmgr.c ****       undef_row = ptr->first_undef_row;
 902:Middlewares/Third_Party/LibJPEG/source/jmemmgr.c ****     }
 903:Middlewares/Third_Party/LibJPEG/source/jmemmgr.c ****     if (writable)
 904:Middlewares/Third_Party/LibJPEG/source/jmemmgr.c ****       ptr->first_undef_row = end_row;
 905:Middlewares/Third_Party/LibJPEG/source/jmemmgr.c ****     if (ptr->pre_zero) {
 906:Middlewares/Third_Party/LibJPEG/source/jmemmgr.c ****       size_t bytesperrow = (size_t) ptr->blocksperrow * SIZEOF(JBLOCK);
 907:Middlewares/Third_Party/LibJPEG/source/jmemmgr.c ****       undef_row -= ptr->cur_start_row; /* make indexes relative to buffer */
 908:Middlewares/Third_Party/LibJPEG/source/jmemmgr.c ****       end_row -= ptr->cur_start_row;
 909:Middlewares/Third_Party/LibJPEG/source/jmemmgr.c ****       while (undef_row < end_row) {
 910:Middlewares/Third_Party/LibJPEG/source/jmemmgr.c **** 	FMEMZERO((void FAR *) ptr->mem_buffer[undef_row], bytesperrow);
 911:Middlewares/Third_Party/LibJPEG/source/jmemmgr.c **** 	undef_row++;
 912:Middlewares/Third_Party/LibJPEG/source/jmemmgr.c ****       }
 913:Middlewares/Third_Party/LibJPEG/source/jmemmgr.c ****     } else {
 914:Middlewares/Third_Party/LibJPEG/source/jmemmgr.c ****       if (! writable)		/* reader looking at undefined data */
 915:Middlewares/Third_Party/LibJPEG/source/jmemmgr.c **** 	ERREXIT(cinfo, JERR_BAD_VIRTUAL_ACCESS);
 916:Middlewares/Third_Party/LibJPEG/source/jmemmgr.c ****     }
 917:Middlewares/Third_Party/LibJPEG/source/jmemmgr.c ****   }
 918:Middlewares/Third_Party/LibJPEG/source/jmemmgr.c ****   /* Flag the buffer dirty if caller will write in it */
 919:Middlewares/Third_Party/LibJPEG/source/jmemmgr.c ****   if (writable)
 920:Middlewares/Third_Party/LibJPEG/source/jmemmgr.c ****     ptr->dirty = TRUE;
 921:Middlewares/Third_Party/LibJPEG/source/jmemmgr.c ****   /* Return address of proper part of the buffer */
 922:Middlewares/Third_Party/LibJPEG/source/jmemmgr.c ****   return ptr->mem_buffer + (start_row - ptr->cur_start_row);
 923:Middlewares/Third_Party/LibJPEG/source/jmemmgr.c **** }
 924:Middlewares/Third_Party/LibJPEG/source/jmemmgr.c **** 
 925:Middlewares/Third_Party/LibJPEG/source/jmemmgr.c **** 
 926:Middlewares/Third_Party/LibJPEG/source/jmemmgr.c **** /*
 927:Middlewares/Third_Party/LibJPEG/source/jmemmgr.c ****  * Release all objects belonging to a specified pool.
 928:Middlewares/Third_Party/LibJPEG/source/jmemmgr.c ****  */
 929:Middlewares/Third_Party/LibJPEG/source/jmemmgr.c **** 
 930:Middlewares/Third_Party/LibJPEG/source/jmemmgr.c **** METHODDEF(void)
 931:Middlewares/Third_Party/LibJPEG/source/jmemmgr.c **** free_pool (j_common_ptr cinfo, int pool_id)
 932:Middlewares/Third_Party/LibJPEG/source/jmemmgr.c **** {
 841              		.loc 1 932 1 is_stmt 1 view -0
 842              		.cfi_startproc
 843              		@ args = 0, pretend = 0, frame = 0
 844              		@ frame_needed = 0, uses_anonymous_args = 0
 845              		.loc 1 932 1 is_stmt 0 view .LVU269
 846 0000 2DE9F041 		push	{r4, r5, r6, r7, r8, lr}
 847              	.LCFI10:
 848              		.cfi_def_cfa_offset 24
 849              		.cfi_offset 4, -24
ARM GAS  /var/folders/mq/wg13gp494590nh4zyt09lxf00000gn/T//ccRbBij7.s 			page 36


 850              		.cfi_offset 5, -20
 851              		.cfi_offset 6, -16
 852              		.cfi_offset 7, -12
 853              		.cfi_offset 8, -8
 854              		.cfi_offset 14, -4
 855 0004 0646     		mov	r6, r0
 856 0006 8846     		mov	r8, r1
 933:Middlewares/Third_Party/LibJPEG/source/jmemmgr.c ****   my_mem_ptr mem = (my_mem_ptr) cinfo->mem;
 857              		.loc 1 933 3 is_stmt 1 view .LVU270
 858              		.loc 1 933 14 is_stmt 0 view .LVU271
 859 0008 4568     		ldr	r5, [r0, #4]
 860              	.LVL89:
 934:Middlewares/Third_Party/LibJPEG/source/jmemmgr.c ****   small_pool_ptr shdr_ptr;
 861              		.loc 1 934 3 is_stmt 1 view .LVU272
 935:Middlewares/Third_Party/LibJPEG/source/jmemmgr.c ****   large_pool_ptr lhdr_ptr;
 862              		.loc 1 935 3 view .LVU273
 936:Middlewares/Third_Party/LibJPEG/source/jmemmgr.c ****   size_t space_freed;
 863              		.loc 1 936 3 view .LVU274
 937:Middlewares/Third_Party/LibJPEG/source/jmemmgr.c **** 
 938:Middlewares/Third_Party/LibJPEG/source/jmemmgr.c ****   if (pool_id < 0 || pool_id >= JPOOL_NUMPOOLS)
 864              		.loc 1 938 3 view .LVU275
 865              		.loc 1 938 6 is_stmt 0 view .LVU276
 866 000a 0129     		cmp	r1, #1
 867 000c 07D9     		bls	.L47
 939:Middlewares/Third_Party/LibJPEG/source/jmemmgr.c ****     ERREXIT1(cinfo, JERR_BAD_POOL_ID, pool_id);	/* safety check */
 868              		.loc 1 939 5 is_stmt 1 view .LVU277
 869 000e 0368     		ldr	r3, [r0]
 870 0010 0F22     		movs	r2, #15
 871 0012 5A61     		str	r2, [r3, #20]
 872 0014 0368     		ldr	r3, [r0]
 873 0016 9961     		str	r1, [r3, #24]
 874 0018 0368     		ldr	r3, [r0]
 875 001a 1B68     		ldr	r3, [r3]
 876 001c 9847     		blx	r3
 877              	.LVL90:
 878              	.L47:
 940:Middlewares/Third_Party/LibJPEG/source/jmemmgr.c **** 
 941:Middlewares/Third_Party/LibJPEG/source/jmemmgr.c **** #ifdef MEM_STATS
 942:Middlewares/Third_Party/LibJPEG/source/jmemmgr.c ****   if (cinfo->err->trace_level > 1)
 943:Middlewares/Third_Party/LibJPEG/source/jmemmgr.c ****     print_mem_stats(cinfo, pool_id); /* print pool's memory usage statistics */
 944:Middlewares/Third_Party/LibJPEG/source/jmemmgr.c **** #endif
 945:Middlewares/Third_Party/LibJPEG/source/jmemmgr.c **** 
 946:Middlewares/Third_Party/LibJPEG/source/jmemmgr.c ****   /* If freeing IMAGE pool, close any virtual arrays first */
 947:Middlewares/Third_Party/LibJPEG/source/jmemmgr.c ****   if (pool_id == JPOOL_IMAGE) {
 879              		.loc 1 947 3 view .LVU278
 880              		.loc 1 947 6 is_stmt 0 view .LVU279
 881 001e B8F1010F 		cmp	r8, #1
 882 0022 07D0     		beq	.L60
 883              	.L48:
 948:Middlewares/Third_Party/LibJPEG/source/jmemmgr.c ****     jvirt_sarray_ptr sptr;
 949:Middlewares/Third_Party/LibJPEG/source/jmemmgr.c ****     jvirt_barray_ptr bptr;
 950:Middlewares/Third_Party/LibJPEG/source/jmemmgr.c **** 
 951:Middlewares/Third_Party/LibJPEG/source/jmemmgr.c ****     for (sptr = mem->virt_sarray_list; sptr != NULL; sptr = sptr->next) {
 952:Middlewares/Third_Party/LibJPEG/source/jmemmgr.c ****       if (sptr->b_s_open) {	/* there may be no backing store */
 953:Middlewares/Third_Party/LibJPEG/source/jmemmgr.c **** 	sptr->b_s_open = FALSE;	/* prevent recursive close if error */
 954:Middlewares/Third_Party/LibJPEG/source/jmemmgr.c **** 	(*sptr->b_s_info.close_backing_store) (cinfo, & sptr->b_s_info);
 955:Middlewares/Third_Party/LibJPEG/source/jmemmgr.c ****       }
ARM GAS  /var/folders/mq/wg13gp494590nh4zyt09lxf00000gn/T//ccRbBij7.s 			page 37


 956:Middlewares/Third_Party/LibJPEG/source/jmemmgr.c ****     }
 957:Middlewares/Third_Party/LibJPEG/source/jmemmgr.c ****     mem->virt_sarray_list = NULL;
 958:Middlewares/Third_Party/LibJPEG/source/jmemmgr.c ****     for (bptr = mem->virt_barray_list; bptr != NULL; bptr = bptr->next) {
 959:Middlewares/Third_Party/LibJPEG/source/jmemmgr.c ****       if (bptr->b_s_open) {	/* there may be no backing store */
 960:Middlewares/Third_Party/LibJPEG/source/jmemmgr.c **** 	bptr->b_s_open = FALSE;	/* prevent recursive close if error */
 961:Middlewares/Third_Party/LibJPEG/source/jmemmgr.c **** 	(*bptr->b_s_info.close_backing_store) (cinfo, & bptr->b_s_info);
 962:Middlewares/Third_Party/LibJPEG/source/jmemmgr.c ****       }
 963:Middlewares/Third_Party/LibJPEG/source/jmemmgr.c ****     }
 964:Middlewares/Third_Party/LibJPEG/source/jmemmgr.c ****     mem->virt_barray_list = NULL;
 965:Middlewares/Third_Party/LibJPEG/source/jmemmgr.c ****   }
 966:Middlewares/Third_Party/LibJPEG/source/jmemmgr.c **** 
 967:Middlewares/Third_Party/LibJPEG/source/jmemmgr.c ****   /* Release large objects */
 968:Middlewares/Third_Party/LibJPEG/source/jmemmgr.c ****   lhdr_ptr = mem->large_list[pool_id];
 884              		.loc 1 968 3 is_stmt 1 view .LVU280
 885              		.loc 1 968 12 is_stmt 0 view .LVU281
 886 0024 08F10E03 		add	r3, r8, #14
 887 0028 05EB8303 		add	r3, r5, r3, lsl #2
 888 002c 5968     		ldr	r1, [r3, #4]
 889              	.LVL91:
 969:Middlewares/Third_Party/LibJPEG/source/jmemmgr.c ****   mem->large_list[pool_id] = NULL;
 890              		.loc 1 969 3 is_stmt 1 view .LVU282
 891              		.loc 1 969 28 is_stmt 0 view .LVU283
 892 002e 0022     		movs	r2, #0
 893 0030 5A60     		str	r2, [r3, #4]
 970:Middlewares/Third_Party/LibJPEG/source/jmemmgr.c **** 
 971:Middlewares/Third_Party/LibJPEG/source/jmemmgr.c ****   while (lhdr_ptr != NULL) {
 894              		.loc 1 971 3 is_stmt 1 view .LVU284
 895              		.loc 1 971 9 is_stmt 0 view .LVU285
 896 0032 2FE0     		b	.L55
 897              	.LVL92:
 898              	.L60:
 899              	.LBB2:
 948:Middlewares/Third_Party/LibJPEG/source/jmemmgr.c ****     jvirt_barray_ptr bptr;
 900              		.loc 1 948 5 is_stmt 1 view .LVU286
 949:Middlewares/Third_Party/LibJPEG/source/jmemmgr.c **** 
 901              		.loc 1 949 5 view .LVU287
 951:Middlewares/Third_Party/LibJPEG/source/jmemmgr.c ****       if (sptr->b_s_open) {	/* there may be no backing store */
 902              		.loc 1 951 5 view .LVU288
 951:Middlewares/Third_Party/LibJPEG/source/jmemmgr.c ****       if (sptr->b_s_open) {	/* there may be no backing store */
 903              		.loc 1 951 15 is_stmt 0 view .LVU289
 904 0034 6C6C     		ldr	r4, [r5, #68]
 905              	.LVL93:
 951:Middlewares/Third_Party/LibJPEG/source/jmemmgr.c ****       if (sptr->b_s_open) {	/* there may be no backing store */
 906              		.loc 1 951 5 view .LVU290
 907 0036 00E0     		b	.L49
 908              	.L50:
 951:Middlewares/Third_Party/LibJPEG/source/jmemmgr.c ****       if (sptr->b_s_open) {	/* there may be no backing store */
 909              		.loc 1 951 59 is_stmt 1 discriminator 2 view .LVU291
 910 0038 E46A     		ldr	r4, [r4, #44]
 911              	.LVL94:
 912              	.L49:
 951:Middlewares/Third_Party/LibJPEG/source/jmemmgr.c ****       if (sptr->b_s_open) {	/* there may be no backing store */
 913              		.loc 1 951 45 discriminator 1 view .LVU292
 914 003a 54B1     		cbz	r4, .L61
 952:Middlewares/Third_Party/LibJPEG/source/jmemmgr.c **** 	sptr->b_s_open = FALSE;	/* prevent recursive close if error */
 915              		.loc 1 952 7 view .LVU293
 952:Middlewares/Third_Party/LibJPEG/source/jmemmgr.c **** 	sptr->b_s_open = FALSE;	/* prevent recursive close if error */
ARM GAS  /var/folders/mq/wg13gp494590nh4zyt09lxf00000gn/T//ccRbBij7.s 			page 38


 916              		.loc 1 952 15 is_stmt 0 view .LVU294
 917 003c A36A     		ldr	r3, [r4, #40]
 952:Middlewares/Third_Party/LibJPEG/source/jmemmgr.c **** 	sptr->b_s_open = FALSE;	/* prevent recursive close if error */
 918              		.loc 1 952 10 view .LVU295
 919 003e 002B     		cmp	r3, #0
 920 0040 FAD0     		beq	.L50
 953:Middlewares/Third_Party/LibJPEG/source/jmemmgr.c **** 	(*sptr->b_s_info.close_backing_store) (cinfo, & sptr->b_s_info);
 921              		.loc 1 953 2 is_stmt 1 view .LVU296
 953:Middlewares/Third_Party/LibJPEG/source/jmemmgr.c **** 	(*sptr->b_s_info.close_backing_store) (cinfo, & sptr->b_s_info);
 922              		.loc 1 953 17 is_stmt 0 view .LVU297
 923 0042 0023     		movs	r3, #0
 924 0044 A362     		str	r3, [r4, #40]
 954:Middlewares/Third_Party/LibJPEG/source/jmemmgr.c ****       }
 925              		.loc 1 954 2 is_stmt 1 view .LVU298
 954:Middlewares/Third_Party/LibJPEG/source/jmemmgr.c ****       }
 926              		.loc 1 954 3 is_stmt 0 view .LVU299
 927 0046 A36B     		ldr	r3, [r4, #56]
 928 0048 04F13001 		add	r1, r4, #48
 929 004c 3046     		mov	r0, r6
 930 004e 9847     		blx	r3
 931              	.LVL95:
 932 0050 F2E7     		b	.L50
 933              	.L61:
 957:Middlewares/Third_Party/LibJPEG/source/jmemmgr.c ****     for (bptr = mem->virt_barray_list; bptr != NULL; bptr = bptr->next) {
 934              		.loc 1 957 5 is_stmt 1 view .LVU300
 957:Middlewares/Third_Party/LibJPEG/source/jmemmgr.c ****     for (bptr = mem->virt_barray_list; bptr != NULL; bptr = bptr->next) {
 935              		.loc 1 957 27 is_stmt 0 view .LVU301
 936 0052 0023     		movs	r3, #0
 937 0054 6B64     		str	r3, [r5, #68]
 958:Middlewares/Third_Party/LibJPEG/source/jmemmgr.c ****       if (bptr->b_s_open) {	/* there may be no backing store */
 938              		.loc 1 958 5 is_stmt 1 view .LVU302
 958:Middlewares/Third_Party/LibJPEG/source/jmemmgr.c ****       if (bptr->b_s_open) {	/* there may be no backing store */
 939              		.loc 1 958 15 is_stmt 0 view .LVU303
 940 0056 AC6C     		ldr	r4, [r5, #72]
 941              	.LVL96:
 958:Middlewares/Third_Party/LibJPEG/source/jmemmgr.c ****       if (bptr->b_s_open) {	/* there may be no backing store */
 942              		.loc 1 958 5 view .LVU304
 943 0058 00E0     		b	.L52
 944              	.L53:
 958:Middlewares/Third_Party/LibJPEG/source/jmemmgr.c ****       if (bptr->b_s_open) {	/* there may be no backing store */
 945              		.loc 1 958 59 is_stmt 1 discriminator 2 view .LVU305
 946 005a E46A     		ldr	r4, [r4, #44]
 947              	.LVL97:
 948              	.L52:
 958:Middlewares/Third_Party/LibJPEG/source/jmemmgr.c ****       if (bptr->b_s_open) {	/* there may be no backing store */
 949              		.loc 1 958 45 discriminator 1 view .LVU306
 950 005c 54B1     		cbz	r4, .L62
 959:Middlewares/Third_Party/LibJPEG/source/jmemmgr.c **** 	bptr->b_s_open = FALSE;	/* prevent recursive close if error */
 951              		.loc 1 959 7 view .LVU307
 959:Middlewares/Third_Party/LibJPEG/source/jmemmgr.c **** 	bptr->b_s_open = FALSE;	/* prevent recursive close if error */
 952              		.loc 1 959 15 is_stmt 0 view .LVU308
 953 005e A36A     		ldr	r3, [r4, #40]
 959:Middlewares/Third_Party/LibJPEG/source/jmemmgr.c **** 	bptr->b_s_open = FALSE;	/* prevent recursive close if error */
 954              		.loc 1 959 10 view .LVU309
 955 0060 002B     		cmp	r3, #0
 956 0062 FAD0     		beq	.L53
 960:Middlewares/Third_Party/LibJPEG/source/jmemmgr.c **** 	(*bptr->b_s_info.close_backing_store) (cinfo, & bptr->b_s_info);
ARM GAS  /var/folders/mq/wg13gp494590nh4zyt09lxf00000gn/T//ccRbBij7.s 			page 39


 957              		.loc 1 960 2 is_stmt 1 view .LVU310
 960:Middlewares/Third_Party/LibJPEG/source/jmemmgr.c **** 	(*bptr->b_s_info.close_backing_store) (cinfo, & bptr->b_s_info);
 958              		.loc 1 960 17 is_stmt 0 view .LVU311
 959 0064 0023     		movs	r3, #0
 960 0066 A362     		str	r3, [r4, #40]
 961:Middlewares/Third_Party/LibJPEG/source/jmemmgr.c ****       }
 961              		.loc 1 961 2 is_stmt 1 view .LVU312
 961:Middlewares/Third_Party/LibJPEG/source/jmemmgr.c ****       }
 962              		.loc 1 961 3 is_stmt 0 view .LVU313
 963 0068 A36B     		ldr	r3, [r4, #56]
 964 006a 04F13001 		add	r1, r4, #48
 965 006e 3046     		mov	r0, r6
 966 0070 9847     		blx	r3
 967              	.LVL98:
 968 0072 F2E7     		b	.L53
 969              	.L62:
 964:Middlewares/Third_Party/LibJPEG/source/jmemmgr.c ****   }
 970              		.loc 1 964 5 is_stmt 1 view .LVU314
 964:Middlewares/Third_Party/LibJPEG/source/jmemmgr.c ****   }
 971              		.loc 1 964 27 is_stmt 0 view .LVU315
 972 0074 0023     		movs	r3, #0
 973 0076 AB64     		str	r3, [r5, #72]
 974 0078 D4E7     		b	.L48
 975              	.LVL99:
 976              	.L56:
 964:Middlewares/Third_Party/LibJPEG/source/jmemmgr.c ****   }
 977              		.loc 1 964 27 view .LVU316
 978              	.LBE2:
 979              	.LBB3:
 972:Middlewares/Third_Party/LibJPEG/source/jmemmgr.c ****     large_pool_ptr next_lhdr_ptr = lhdr_ptr->hdr.next;
 980              		.loc 1 972 5 is_stmt 1 view .LVU317
 981              		.loc 1 972 20 is_stmt 0 view .LVU318
 982 007a 0F68     		ldr	r7, [r1]
 983              	.LVL100:
 973:Middlewares/Third_Party/LibJPEG/source/jmemmgr.c ****     space_freed = lhdr_ptr->hdr.bytes_used +
 984              		.loc 1 973 5 is_stmt 1 view .LVU319
 985              		.loc 1 973 32 is_stmt 0 view .LVU320
 986 007c 4C68     		ldr	r4, [r1, #4]
 974:Middlewares/Third_Party/LibJPEG/source/jmemmgr.c **** 		  lhdr_ptr->hdr.bytes_left +
 987              		.loc 1 974 18 view .LVU321
 988 007e 8B68     		ldr	r3, [r1, #8]
 973:Middlewares/Third_Party/LibJPEG/source/jmemmgr.c ****     space_freed = lhdr_ptr->hdr.bytes_used +
 989              		.loc 1 973 44 view .LVU322
 990 0080 1C44     		add	r4, r4, r3
 973:Middlewares/Third_Party/LibJPEG/source/jmemmgr.c ****     space_freed = lhdr_ptr->hdr.bytes_used +
 991              		.loc 1 973 17 view .LVU323
 992 0082 1034     		adds	r4, r4, #16
 993              	.LVL101:
 975:Middlewares/Third_Party/LibJPEG/source/jmemmgr.c **** 		  SIZEOF(large_pool_hdr);
 976:Middlewares/Third_Party/LibJPEG/source/jmemmgr.c ****     jpeg_free_large(cinfo, (void FAR *) lhdr_ptr, space_freed);
 994              		.loc 1 976 5 is_stmt 1 view .LVU324
 995 0084 2246     		mov	r2, r4
 996 0086 3046     		mov	r0, r6
 997 0088 FFF7FEFF 		bl	jpeg_free_large
 998              	.LVL102:
 977:Middlewares/Third_Party/LibJPEG/source/jmemmgr.c ****     mem->total_space_allocated -= space_freed;
 999              		.loc 1 977 5 view .LVU325
ARM GAS  /var/folders/mq/wg13gp494590nh4zyt09lxf00000gn/T//ccRbBij7.s 			page 40


 1000              		.loc 1 977 8 is_stmt 0 view .LVU326
 1001 008c EB6C     		ldr	r3, [r5, #76]
 1002              		.loc 1 977 32 view .LVU327
 1003 008e 1B1B     		subs	r3, r3, r4
 1004 0090 EB64     		str	r3, [r5, #76]
 978:Middlewares/Third_Party/LibJPEG/source/jmemmgr.c ****     lhdr_ptr = next_lhdr_ptr;
 1005              		.loc 1 978 5 is_stmt 1 view .LVU328
 1006              	.LVL103:
 1007              		.loc 1 978 14 is_stmt 0 view .LVU329
 1008 0092 3946     		mov	r1, r7
 1009              	.LVL104:
 1010              	.L55:
 1011              		.loc 1 978 14 view .LVU330
 1012              	.LBE3:
 971:Middlewares/Third_Party/LibJPEG/source/jmemmgr.c ****     large_pool_ptr next_lhdr_ptr = lhdr_ptr->hdr.next;
 1013              		.loc 1 971 19 is_stmt 1 view .LVU331
 1014 0094 0029     		cmp	r1, #0
 1015 0096 F0D1     		bne	.L56
 979:Middlewares/Third_Party/LibJPEG/source/jmemmgr.c ****   }
 980:Middlewares/Third_Party/LibJPEG/source/jmemmgr.c **** 
 981:Middlewares/Third_Party/LibJPEG/source/jmemmgr.c ****   /* Release small objects */
 982:Middlewares/Third_Party/LibJPEG/source/jmemmgr.c ****   shdr_ptr = mem->small_list[pool_id];
 1016              		.loc 1 982 3 view .LVU332
 1017              		.loc 1 982 12 is_stmt 0 view .LVU333
 1018 0098 08F10C08 		add	r8, r8, #12
 1019              	.LVL105:
 1020              		.loc 1 982 12 view .LVU334
 1021 009c 05EB8808 		add	r8, r5, r8, lsl #2
 1022              	.LVL106:
 1023              		.loc 1 982 12 view .LVU335
 1024 00a0 D8F80410 		ldr	r1, [r8, #4]
 1025              	.LVL107:
 983:Middlewares/Third_Party/LibJPEG/source/jmemmgr.c ****   mem->small_list[pool_id] = NULL;
 1026              		.loc 1 983 3 is_stmt 1 view .LVU336
 1027              		.loc 1 983 28 is_stmt 0 view .LVU337
 1028 00a4 0023     		movs	r3, #0
 1029 00a6 C8F80430 		str	r3, [r8, #4]
 984:Middlewares/Third_Party/LibJPEG/source/jmemmgr.c **** 
 985:Middlewares/Third_Party/LibJPEG/source/jmemmgr.c ****   while (shdr_ptr != NULL) {
 1030              		.loc 1 985 3 is_stmt 1 view .LVU338
 1031              		.loc 1 985 9 is_stmt 0 view .LVU339
 1032 00aa 0CE0     		b	.L57
 1033              	.L58:
 1034              	.LBB4:
 986:Middlewares/Third_Party/LibJPEG/source/jmemmgr.c ****     small_pool_ptr next_shdr_ptr = shdr_ptr->hdr.next;
 1035              		.loc 1 986 5 is_stmt 1 view .LVU340
 1036              		.loc 1 986 20 is_stmt 0 view .LVU341
 1037 00ac 0F68     		ldr	r7, [r1]
 1038              	.LVL108:
 987:Middlewares/Third_Party/LibJPEG/source/jmemmgr.c ****     space_freed = shdr_ptr->hdr.bytes_used +
 1039              		.loc 1 987 5 is_stmt 1 view .LVU342
 1040              		.loc 1 987 32 is_stmt 0 view .LVU343
 1041 00ae 4C68     		ldr	r4, [r1, #4]
 988:Middlewares/Third_Party/LibJPEG/source/jmemmgr.c **** 		  shdr_ptr->hdr.bytes_left +
 1042              		.loc 1 988 18 view .LVU344
 1043 00b0 8B68     		ldr	r3, [r1, #8]
 987:Middlewares/Third_Party/LibJPEG/source/jmemmgr.c ****     space_freed = shdr_ptr->hdr.bytes_used +
ARM GAS  /var/folders/mq/wg13gp494590nh4zyt09lxf00000gn/T//ccRbBij7.s 			page 41


 1044              		.loc 1 987 44 view .LVU345
 1045 00b2 1C44     		add	r4, r4, r3
 987:Middlewares/Third_Party/LibJPEG/source/jmemmgr.c ****     space_freed = shdr_ptr->hdr.bytes_used +
 1046              		.loc 1 987 17 view .LVU346
 1047 00b4 1034     		adds	r4, r4, #16
 1048              	.LVL109:
 989:Middlewares/Third_Party/LibJPEG/source/jmemmgr.c **** 		  SIZEOF(small_pool_hdr);
 990:Middlewares/Third_Party/LibJPEG/source/jmemmgr.c ****     jpeg_free_small(cinfo, (void *) shdr_ptr, space_freed);
 1049              		.loc 1 990 5 is_stmt 1 view .LVU347
 1050 00b6 2246     		mov	r2, r4
 1051 00b8 3046     		mov	r0, r6
 1052 00ba FFF7FEFF 		bl	jpeg_free_small
 1053              	.LVL110:
 991:Middlewares/Third_Party/LibJPEG/source/jmemmgr.c ****     mem->total_space_allocated -= space_freed;
 1054              		.loc 1 991 5 view .LVU348
 1055              		.loc 1 991 8 is_stmt 0 view .LVU349
 1056 00be EB6C     		ldr	r3, [r5, #76]
 1057              		.loc 1 991 32 view .LVU350
 1058 00c0 1B1B     		subs	r3, r3, r4
 1059 00c2 EB64     		str	r3, [r5, #76]
 992:Middlewares/Third_Party/LibJPEG/source/jmemmgr.c ****     shdr_ptr = next_shdr_ptr;
 1060              		.loc 1 992 5 is_stmt 1 view .LVU351
 1061              	.LVL111:
 1062              		.loc 1 992 14 is_stmt 0 view .LVU352
 1063 00c4 3946     		mov	r1, r7
 1064              	.LVL112:
 1065              	.L57:
 1066              		.loc 1 992 14 view .LVU353
 1067              	.LBE4:
 985:Middlewares/Third_Party/LibJPEG/source/jmemmgr.c ****     small_pool_ptr next_shdr_ptr = shdr_ptr->hdr.next;
 1068              		.loc 1 985 19 is_stmt 1 view .LVU354
 1069 00c6 0029     		cmp	r1, #0
 1070 00c8 F0D1     		bne	.L58
 993:Middlewares/Third_Party/LibJPEG/source/jmemmgr.c ****   }
 994:Middlewares/Third_Party/LibJPEG/source/jmemmgr.c **** }
 1071              		.loc 1 994 1 is_stmt 0 view .LVU355
 1072 00ca BDE8F081 		pop	{r4, r5, r6, r7, r8, pc}
 1073              		.loc 1 994 1 view .LVU356
 1074              		.cfi_endproc
 1075              	.LFE159:
 1077              		.section	.text.self_destruct,"ax",%progbits
 1078              		.align	1
 1079              		.syntax unified
 1080              		.thumb
 1081              		.thumb_func
 1083              	self_destruct:
 1084              	.LVL113:
 1085              	.LFB160:
 995:Middlewares/Third_Party/LibJPEG/source/jmemmgr.c **** 
 996:Middlewares/Third_Party/LibJPEG/source/jmemmgr.c **** 
 997:Middlewares/Third_Party/LibJPEG/source/jmemmgr.c **** /*
 998:Middlewares/Third_Party/LibJPEG/source/jmemmgr.c ****  * Close up shop entirely.
 999:Middlewares/Third_Party/LibJPEG/source/jmemmgr.c ****  * Note that this cannot be called unless cinfo->mem is non-NULL.
1000:Middlewares/Third_Party/LibJPEG/source/jmemmgr.c ****  */
1001:Middlewares/Third_Party/LibJPEG/source/jmemmgr.c **** 
1002:Middlewares/Third_Party/LibJPEG/source/jmemmgr.c **** METHODDEF(void)
1003:Middlewares/Third_Party/LibJPEG/source/jmemmgr.c **** self_destruct (j_common_ptr cinfo)
ARM GAS  /var/folders/mq/wg13gp494590nh4zyt09lxf00000gn/T//ccRbBij7.s 			page 42


1004:Middlewares/Third_Party/LibJPEG/source/jmemmgr.c **** {
 1086              		.loc 1 1004 1 is_stmt 1 view -0
 1087              		.cfi_startproc
 1088              		@ args = 0, pretend = 0, frame = 0
 1089              		@ frame_needed = 0, uses_anonymous_args = 0
 1090              		.loc 1 1004 1 is_stmt 0 view .LVU358
 1091 0000 38B5     		push	{r3, r4, r5, lr}
 1092              	.LCFI11:
 1093              		.cfi_def_cfa_offset 16
 1094              		.cfi_offset 3, -16
 1095              		.cfi_offset 4, -12
 1096              		.cfi_offset 5, -8
 1097              		.cfi_offset 14, -4
 1098 0002 0546     		mov	r5, r0
1005:Middlewares/Third_Party/LibJPEG/source/jmemmgr.c ****   int pool;
 1099              		.loc 1 1005 3 is_stmt 1 view .LVU359
1006:Middlewares/Third_Party/LibJPEG/source/jmemmgr.c **** 
1007:Middlewares/Third_Party/LibJPEG/source/jmemmgr.c ****   /* Close all backing store, release all memory.
1008:Middlewares/Third_Party/LibJPEG/source/jmemmgr.c ****    * Releasing pools in reverse order might help avoid fragmentation
1009:Middlewares/Third_Party/LibJPEG/source/jmemmgr.c ****    * with some (brain-damaged) malloc libraries.
1010:Middlewares/Third_Party/LibJPEG/source/jmemmgr.c ****    */
1011:Middlewares/Third_Party/LibJPEG/source/jmemmgr.c ****   for (pool = JPOOL_NUMPOOLS-1; pool >= JPOOL_PERMANENT; pool--) {
 1100              		.loc 1 1011 3 view .LVU360
 1101              	.LVL114:
 1102              		.loc 1 1011 13 is_stmt 0 view .LVU361
 1103 0004 0124     		movs	r4, #1
 1104              		.loc 1 1011 3 view .LVU362
 1105 0006 04E0     		b	.L64
 1106              	.LVL115:
 1107              	.L65:
1012:Middlewares/Third_Party/LibJPEG/source/jmemmgr.c ****     free_pool(cinfo, pool);
 1108              		.loc 1 1012 5 is_stmt 1 view .LVU363
 1109 0008 2146     		mov	r1, r4
 1110 000a 2846     		mov	r0, r5
 1111 000c FFF7FEFF 		bl	free_pool
 1112              	.LVL116:
1011:Middlewares/Third_Party/LibJPEG/source/jmemmgr.c ****     free_pool(cinfo, pool);
 1113              		.loc 1 1011 62 discriminator 3 view .LVU364
 1114 0010 013C     		subs	r4, r4, #1
 1115              	.LVL117:
 1116              	.L64:
1011:Middlewares/Third_Party/LibJPEG/source/jmemmgr.c ****     free_pool(cinfo, pool);
 1117              		.loc 1 1011 38 discriminator 1 view .LVU365
 1118 0012 002C     		cmp	r4, #0
 1119 0014 F8DA     		bge	.L65
1013:Middlewares/Third_Party/LibJPEG/source/jmemmgr.c ****   }
1014:Middlewares/Third_Party/LibJPEG/source/jmemmgr.c **** 
1015:Middlewares/Third_Party/LibJPEG/source/jmemmgr.c ****   /* Release the memory manager control block too. */
1016:Middlewares/Third_Party/LibJPEG/source/jmemmgr.c ****   jpeg_free_small(cinfo, (void *) cinfo->mem, SIZEOF(my_memory_mgr));
 1120              		.loc 1 1016 3 view .LVU366
 1121 0016 5422     		movs	r2, #84
 1122 0018 6968     		ldr	r1, [r5, #4]
 1123 001a 2846     		mov	r0, r5
 1124 001c FFF7FEFF 		bl	jpeg_free_small
 1125              	.LVL118:
1017:Middlewares/Third_Party/LibJPEG/source/jmemmgr.c ****   cinfo->mem = NULL;		/* ensures I will be called only once */
 1126              		.loc 1 1017 3 view .LVU367
ARM GAS  /var/folders/mq/wg13gp494590nh4zyt09lxf00000gn/T//ccRbBij7.s 			page 43


 1127              		.loc 1 1017 14 is_stmt 0 view .LVU368
 1128 0020 0023     		movs	r3, #0
 1129 0022 6B60     		str	r3, [r5, #4]
1018:Middlewares/Third_Party/LibJPEG/source/jmemmgr.c **** 
1019:Middlewares/Third_Party/LibJPEG/source/jmemmgr.c ****   jpeg_mem_term(cinfo);		/* system-dependent cleanup */
 1130              		.loc 1 1019 3 is_stmt 1 view .LVU369
 1131 0024 2846     		mov	r0, r5
 1132 0026 FFF7FEFF 		bl	jpeg_mem_term
 1133              	.LVL119:
1020:Middlewares/Third_Party/LibJPEG/source/jmemmgr.c **** }
 1134              		.loc 1 1020 1 is_stmt 0 view .LVU370
 1135 002a 38BD     		pop	{r3, r4, r5, pc}
 1136              		.loc 1 1020 1 view .LVU371
 1137              		.cfi_endproc
 1138              	.LFE160:
 1140              		.section	.text.access_virt_barray,"ax",%progbits
 1141              		.align	1
 1142              		.syntax unified
 1143              		.thumb
 1144              		.thumb_func
 1146              	access_virt_barray:
 1147              	.LVL120:
 1148              	.LFB158:
 848:Middlewares/Third_Party/LibJPEG/source/jmemmgr.c ****   JDIMENSION end_row = start_row + num_rows;
 1149              		.loc 1 848 1 is_stmt 1 view -0
 1150              		.cfi_startproc
 1151              		@ args = 4, pretend = 0, frame = 0
 1152              		@ frame_needed = 0, uses_anonymous_args = 0
 848:Middlewares/Third_Party/LibJPEG/source/jmemmgr.c ****   JDIMENSION end_row = start_row + num_rows;
 1153              		.loc 1 848 1 is_stmt 0 view .LVU373
 1154 0000 2DE9F843 		push	{r3, r4, r5, r6, r7, r8, r9, lr}
 1155              	.LCFI12:
 1156              		.cfi_def_cfa_offset 32
 1157              		.cfi_offset 3, -32
 1158              		.cfi_offset 4, -28
 1159              		.cfi_offset 5, -24
 1160              		.cfi_offset 6, -20
 1161              		.cfi_offset 7, -16
 1162              		.cfi_offset 8, -12
 1163              		.cfi_offset 9, -8
 1164              		.cfi_offset 14, -4
 1165 0004 0746     		mov	r7, r0
 1166 0006 0C46     		mov	r4, r1
 1167 0008 1646     		mov	r6, r2
 1168 000a DDF82090 		ldr	r9, [sp, #32]
 849:Middlewares/Third_Party/LibJPEG/source/jmemmgr.c ****   JDIMENSION undef_row;
 1169              		.loc 1 849 3 is_stmt 1 view .LVU374
 849:Middlewares/Third_Party/LibJPEG/source/jmemmgr.c ****   JDIMENSION undef_row;
 1170              		.loc 1 849 14 is_stmt 0 view .LVU375
 1171 000e 02EB0308 		add	r8, r2, r3
 1172              	.LVL121:
 850:Middlewares/Third_Party/LibJPEG/source/jmemmgr.c **** 
 1173              		.loc 1 850 3 is_stmt 1 view .LVU376
 853:Middlewares/Third_Party/LibJPEG/source/jmemmgr.c ****       ptr->mem_buffer == NULL)
 1174              		.loc 1 853 3 view .LVU377
 853:Middlewares/Third_Party/LibJPEG/source/jmemmgr.c ****       ptr->mem_buffer == NULL)
 1175              		.loc 1 853 20 is_stmt 0 view .LVU378
ARM GAS  /var/folders/mq/wg13gp494590nh4zyt09lxf00000gn/T//ccRbBij7.s 			page 44


 1176 0012 4A68     		ldr	r2, [r1, #4]
 1177              	.LVL122:
 853:Middlewares/Third_Party/LibJPEG/source/jmemmgr.c ****       ptr->mem_buffer == NULL)
 1178              		.loc 1 853 6 view .LVU379
 1179 0014 4245     		cmp	r2, r8
 1180 0016 04D3     		bcc	.L68
 853:Middlewares/Third_Party/LibJPEG/source/jmemmgr.c ****       ptr->mem_buffer == NULL)
 1181              		.loc 1 853 53 discriminator 1 view .LVU380
 1182 0018 CA68     		ldr	r2, [r1, #12]
 853:Middlewares/Third_Party/LibJPEG/source/jmemmgr.c ****       ptr->mem_buffer == NULL)
 1183              		.loc 1 853 36 discriminator 1 view .LVU381
 1184 001a 9A42     		cmp	r2, r3
 1185 001c 01D3     		bcc	.L68
 854:Middlewares/Third_Party/LibJPEG/source/jmemmgr.c ****     ERREXIT(cinfo, JERR_BAD_VIRTUAL_ACCESS);
 1186              		.loc 1 854 10 view .LVU382
 1187 001e 0B68     		ldr	r3, [r1]
 1188              	.LVL123:
 853:Middlewares/Third_Party/LibJPEG/source/jmemmgr.c ****       ptr->mem_buffer == NULL)
 1189              		.loc 1 853 65 discriminator 2 view .LVU383
 1190 0020 33B9     		cbnz	r3, .L69
 1191              	.L68:
 855:Middlewares/Third_Party/LibJPEG/source/jmemmgr.c **** 
 1192              		.loc 1 855 5 is_stmt 1 view .LVU384
 1193 0022 3B68     		ldr	r3, [r7]
 1194 0024 1722     		movs	r2, #23
 1195 0026 5A61     		str	r2, [r3, #20]
 1196 0028 3B68     		ldr	r3, [r7]
 1197 002a 1B68     		ldr	r3, [r3]
 1198 002c 3846     		mov	r0, r7
 1199              	.LVL124:
 855:Middlewares/Third_Party/LibJPEG/source/jmemmgr.c **** 
 1200              		.loc 1 855 5 is_stmt 0 view .LVU385
 1201 002e 9847     		blx	r3
 1202              	.LVL125:
 1203              	.L69:
 858:Middlewares/Third_Party/LibJPEG/source/jmemmgr.c ****       end_row > ptr->cur_start_row+ptr->rows_in_mem) {
 1204              		.loc 1 858 3 is_stmt 1 view .LVU386
 858:Middlewares/Third_Party/LibJPEG/source/jmemmgr.c ****       end_row > ptr->cur_start_row+ptr->rows_in_mem) {
 1205              		.loc 1 858 22 is_stmt 0 view .LVU387
 1206 0030 A369     		ldr	r3, [r4, #24]
 858:Middlewares/Third_Party/LibJPEG/source/jmemmgr.c ****       end_row > ptr->cur_start_row+ptr->rows_in_mem) {
 1207              		.loc 1 858 6 view .LVU388
 1208 0032 B342     		cmp	r3, r6
 1209 0034 03D8     		bhi	.L70
 859:Middlewares/Third_Party/LibJPEG/source/jmemmgr.c ****     if (! ptr->b_s_open)
 1210              		.loc 1 859 39 view .LVU389
 1211 0036 2269     		ldr	r2, [r4, #16]
 859:Middlewares/Third_Party/LibJPEG/source/jmemmgr.c ****     if (! ptr->b_s_open)
 1212              		.loc 1 859 35 view .LVU390
 1213 0038 1344     		add	r3, r3, r2
 858:Middlewares/Third_Party/LibJPEG/source/jmemmgr.c ****       end_row > ptr->cur_start_row+ptr->rows_in_mem) {
 1214              		.loc 1 858 38 discriminator 1 view .LVU391
 1215 003a 4345     		cmp	r3, r8
 1216 003c 13D2     		bcs	.L71
 1217              	.L70:
 860:Middlewares/Third_Party/LibJPEG/source/jmemmgr.c ****       ERREXIT(cinfo, JERR_VIRTUAL_BUG);
 1218              		.loc 1 860 5 is_stmt 1 view .LVU392
ARM GAS  /var/folders/mq/wg13gp494590nh4zyt09lxf00000gn/T//ccRbBij7.s 			page 45


 860:Middlewares/Third_Party/LibJPEG/source/jmemmgr.c ****       ERREXIT(cinfo, JERR_VIRTUAL_BUG);
 1219              		.loc 1 860 14 is_stmt 0 view .LVU393
 1220 003e A36A     		ldr	r3, [r4, #40]
 860:Middlewares/Third_Party/LibJPEG/source/jmemmgr.c ****       ERREXIT(cinfo, JERR_VIRTUAL_BUG);
 1221              		.loc 1 860 8 view .LVU394
 1222 0040 33B9     		cbnz	r3, .L72
 861:Middlewares/Third_Party/LibJPEG/source/jmemmgr.c ****     /* Flush old buffer contents if necessary */
 1223              		.loc 1 861 7 is_stmt 1 view .LVU395
 1224 0042 3B68     		ldr	r3, [r7]
 1225 0044 4722     		movs	r2, #71
 1226 0046 5A61     		str	r2, [r3, #20]
 1227 0048 3B68     		ldr	r3, [r7]
 1228 004a 1B68     		ldr	r3, [r3]
 1229 004c 3846     		mov	r0, r7
 1230 004e 9847     		blx	r3
 1231              	.LVL126:
 1232              	.L72:
 863:Middlewares/Third_Party/LibJPEG/source/jmemmgr.c ****       do_barray_io(cinfo, ptr, TRUE);
 1233              		.loc 1 863 5 view .LVU396
 863:Middlewares/Third_Party/LibJPEG/source/jmemmgr.c ****       do_barray_io(cinfo, ptr, TRUE);
 1234              		.loc 1 863 12 is_stmt 0 view .LVU397
 1235 0050 636A     		ldr	r3, [r4, #36]
 863:Middlewares/Third_Party/LibJPEG/source/jmemmgr.c ****       do_barray_io(cinfo, ptr, TRUE);
 1236              		.loc 1 863 8 view .LVU398
 1237 0052 33BB     		cbnz	r3, .L88
 1238              	.L73:
 874:Middlewares/Third_Party/LibJPEG/source/jmemmgr.c ****       ptr->cur_start_row = start_row;
 1239              		.loc 1 874 5 is_stmt 1 view .LVU399
 874:Middlewares/Third_Party/LibJPEG/source/jmemmgr.c ****       ptr->cur_start_row = start_row;
 1240              		.loc 1 874 24 is_stmt 0 view .LVU400
 1241 0054 A369     		ldr	r3, [r4, #24]
 874:Middlewares/Third_Party/LibJPEG/source/jmemmgr.c ****       ptr->cur_start_row = start_row;
 1242              		.loc 1 874 8 view .LVU401
 1243 0056 B342     		cmp	r3, r6
 1244 0058 2BD2     		bcs	.L74
 875:Middlewares/Third_Party/LibJPEG/source/jmemmgr.c ****     } else {
 1245              		.loc 1 875 7 is_stmt 1 view .LVU402
 875:Middlewares/Third_Party/LibJPEG/source/jmemmgr.c ****     } else {
 1246              		.loc 1 875 26 is_stmt 0 view .LVU403
 1247 005a A661     		str	r6, [r4, #24]
 1248              	.L75:
 889:Middlewares/Third_Party/LibJPEG/source/jmemmgr.c ****   }
 1249              		.loc 1 889 5 is_stmt 1 view .LVU404
 1250 005c 0022     		movs	r2, #0
 1251 005e 2146     		mov	r1, r4
 1252 0060 3846     		mov	r0, r7
 1253 0062 FFF7FEFF 		bl	do_barray_io
 1254              	.LVL127:
 1255              	.L71:
 895:Middlewares/Third_Party/LibJPEG/source/jmemmgr.c ****     if (ptr->first_undef_row < start_row) {
 1256              		.loc 1 895 3 view .LVU405
 895:Middlewares/Third_Party/LibJPEG/source/jmemmgr.c ****     if (ptr->first_undef_row < start_row) {
 1257              		.loc 1 895 10 is_stmt 0 view .LVU406
 1258 0066 E569     		ldr	r5, [r4, #28]
 895:Middlewares/Third_Party/LibJPEG/source/jmemmgr.c ****     if (ptr->first_undef_row < start_row) {
 1259              		.loc 1 895 6 view .LVU407
 1260 0068 4545     		cmp	r5, r8
ARM GAS  /var/folders/mq/wg13gp494590nh4zyt09lxf00000gn/T//ccRbBij7.s 			page 46


 1261 006a 36D2     		bcs	.L77
 896:Middlewares/Third_Party/LibJPEG/source/jmemmgr.c ****       if (writable)		/* writer skipped over a section of array */
 1262              		.loc 1 896 5 is_stmt 1 view .LVU408
 896:Middlewares/Third_Party/LibJPEG/source/jmemmgr.c ****       if (writable)		/* writer skipped over a section of array */
 1263              		.loc 1 896 8 is_stmt 0 view .LVU409
 1264 006c B542     		cmp	r5, r6
 1265 006e 0AD2     		bcs	.L78
 897:Middlewares/Third_Party/LibJPEG/source/jmemmgr.c **** 	ERREXIT(cinfo, JERR_BAD_VIRTUAL_ACCESS);
 1266              		.loc 1 897 7 is_stmt 1 view .LVU410
 897:Middlewares/Third_Party/LibJPEG/source/jmemmgr.c **** 	ERREXIT(cinfo, JERR_BAD_VIRTUAL_ACCESS);
 1267              		.loc 1 897 10 is_stmt 0 view .LVU411
 1268 0070 B9F1000F 		cmp	r9, #0
 1269 0074 25D0     		beq	.L86
 898:Middlewares/Third_Party/LibJPEG/source/jmemmgr.c ****       undef_row = start_row;	/* but reader is allowed to read ahead */
 1270              		.loc 1 898 2 is_stmt 1 view .LVU412
 1271 0076 3B68     		ldr	r3, [r7]
 1272 0078 1722     		movs	r2, #23
 1273 007a 5A61     		str	r2, [r3, #20]
 1274 007c 3B68     		ldr	r3, [r7]
 1275 007e 1B68     		ldr	r3, [r3]
 1276 0080 3846     		mov	r0, r7
 1277 0082 9847     		blx	r3
 1278              	.LVL128:
 899:Middlewares/Third_Party/LibJPEG/source/jmemmgr.c ****     } else {
 1279              		.loc 1 899 7 view .LVU413
 899:Middlewares/Third_Party/LibJPEG/source/jmemmgr.c ****     } else {
 1280              		.loc 1 899 17 is_stmt 0 view .LVU414
 1281 0084 3546     		mov	r5, r6
 1282              	.LVL129:
 1283              	.L78:
 903:Middlewares/Third_Party/LibJPEG/source/jmemmgr.c ****       ptr->first_undef_row = end_row;
 1284              		.loc 1 903 5 is_stmt 1 view .LVU415
 903:Middlewares/Third_Party/LibJPEG/source/jmemmgr.c ****       ptr->first_undef_row = end_row;
 1285              		.loc 1 903 8 is_stmt 0 view .LVU416
 1286 0086 B9F1000F 		cmp	r9, #0
 1287 008a 01D0     		beq	.L79
 904:Middlewares/Third_Party/LibJPEG/source/jmemmgr.c ****     if (ptr->pre_zero) {
 1288              		.loc 1 904 7 is_stmt 1 view .LVU417
 904:Middlewares/Third_Party/LibJPEG/source/jmemmgr.c ****     if (ptr->pre_zero) {
 1289              		.loc 1 904 28 is_stmt 0 view .LVU418
 1290 008c C4F81C80 		str	r8, [r4, #28]
 1291              	.LVL130:
 1292              	.L79:
 905:Middlewares/Third_Party/LibJPEG/source/jmemmgr.c ****       size_t bytesperrow = (size_t) ptr->blocksperrow * SIZEOF(JBLOCK);
 1293              		.loc 1 905 5 is_stmt 1 view .LVU419
 905:Middlewares/Third_Party/LibJPEG/source/jmemmgr.c ****       size_t bytesperrow = (size_t) ptr->blocksperrow * SIZEOF(JBLOCK);
 1294              		.loc 1 905 12 is_stmt 0 view .LVU420
 1295 0090 236A     		ldr	r3, [r4, #32]
 905:Middlewares/Third_Party/LibJPEG/source/jmemmgr.c ****       size_t bytesperrow = (size_t) ptr->blocksperrow * SIZEOF(JBLOCK);
 1296              		.loc 1 905 8 view .LVU421
 1297 0092 73B3     		cbz	r3, .L80
 1298              	.LBB5:
 906:Middlewares/Third_Party/LibJPEG/source/jmemmgr.c ****       undef_row -= ptr->cur_start_row; /* make indexes relative to buffer */
 1299              		.loc 1 906 7 is_stmt 1 view .LVU422
 906:Middlewares/Third_Party/LibJPEG/source/jmemmgr.c ****       undef_row -= ptr->cur_start_row; /* make indexes relative to buffer */
 1300              		.loc 1 906 40 is_stmt 0 view .LVU423
 1301 0094 A768     		ldr	r7, [r4, #8]
ARM GAS  /var/folders/mq/wg13gp494590nh4zyt09lxf00000gn/T//ccRbBij7.s 			page 47


 1302              	.LVL131:
 906:Middlewares/Third_Party/LibJPEG/source/jmemmgr.c ****       undef_row -= ptr->cur_start_row; /* make indexes relative to buffer */
 1303              		.loc 1 906 14 view .LVU424
 1304 0096 FF01     		lsls	r7, r7, #7
 1305              	.LVL132:
 907:Middlewares/Third_Party/LibJPEG/source/jmemmgr.c ****       end_row -= ptr->cur_start_row;
 1306              		.loc 1 907 7 is_stmt 1 view .LVU425
 907:Middlewares/Third_Party/LibJPEG/source/jmemmgr.c ****       end_row -= ptr->cur_start_row;
 1307              		.loc 1 907 23 is_stmt 0 view .LVU426
 1308 0098 A369     		ldr	r3, [r4, #24]
 907:Middlewares/Third_Party/LibJPEG/source/jmemmgr.c ****       end_row -= ptr->cur_start_row;
 1309              		.loc 1 907 17 view .LVU427
 1310 009a ED1A     		subs	r5, r5, r3
 1311              	.LVL133:
 908:Middlewares/Third_Party/LibJPEG/source/jmemmgr.c ****       while (undef_row < end_row) {
 1312              		.loc 1 908 7 is_stmt 1 view .LVU428
 908:Middlewares/Third_Party/LibJPEG/source/jmemmgr.c ****       while (undef_row < end_row) {
 1313              		.loc 1 908 15 is_stmt 0 view .LVU429
 1314 009c A8EB0308 		sub	r8, r8, r3
 1315              	.LVL134:
 909:Middlewares/Third_Party/LibJPEG/source/jmemmgr.c **** 	FMEMZERO((void FAR *) ptr->mem_buffer[undef_row], bytesperrow);
 1316              		.loc 1 909 7 is_stmt 1 view .LVU430
 909:Middlewares/Third_Party/LibJPEG/source/jmemmgr.c **** 	FMEMZERO((void FAR *) ptr->mem_buffer[undef_row], bytesperrow);
 1317              		.loc 1 909 13 is_stmt 0 view .LVU431
 1318 00a0 19E0     		b	.L81
 1319              	.LVL135:
 1320              	.L88:
 909:Middlewares/Third_Party/LibJPEG/source/jmemmgr.c **** 	FMEMZERO((void FAR *) ptr->mem_buffer[undef_row], bytesperrow);
 1321              		.loc 1 909 13 view .LVU432
 1322              	.LBE5:
 864:Middlewares/Third_Party/LibJPEG/source/jmemmgr.c ****       ptr->dirty = FALSE;
 1323              		.loc 1 864 7 is_stmt 1 view .LVU433
 1324 00a2 0122     		movs	r2, #1
 1325 00a4 2146     		mov	r1, r4
 1326 00a6 3846     		mov	r0, r7
 1327 00a8 FFF7FEFF 		bl	do_barray_io
 1328              	.LVL136:
 865:Middlewares/Third_Party/LibJPEG/source/jmemmgr.c ****     }
 1329              		.loc 1 865 7 view .LVU434
 865:Middlewares/Third_Party/LibJPEG/source/jmemmgr.c ****     }
 1330              		.loc 1 865 18 is_stmt 0 view .LVU435
 1331 00ac 0023     		movs	r3, #0
 1332 00ae 6362     		str	r3, [r4, #36]
 1333 00b0 D0E7     		b	.L73
 1334              	.L74:
 1335              	.LBB6:
 878:Middlewares/Third_Party/LibJPEG/source/jmemmgr.c **** 
 1336              		.loc 1 878 7 is_stmt 1 view .LVU436
 880:Middlewares/Third_Party/LibJPEG/source/jmemmgr.c ****       if (ltemp < 0)
 1337              		.loc 1 880 7 view .LVU437
 880:Middlewares/Third_Party/LibJPEG/source/jmemmgr.c ****       if (ltemp < 0)
 1338              		.loc 1 880 42 is_stmt 0 view .LVU438
 1339 00b2 2369     		ldr	r3, [r4, #16]
 1340              	.LVL137:
 881:Middlewares/Third_Party/LibJPEG/source/jmemmgr.c **** 	ltemp = 0;		/* don't fall off front end of file */
 1341              		.loc 1 881 7 is_stmt 1 view .LVU439
 881:Middlewares/Third_Party/LibJPEG/source/jmemmgr.c **** 	ltemp = 0;		/* don't fall off front end of file */
ARM GAS  /var/folders/mq/wg13gp494590nh4zyt09lxf00000gn/T//ccRbBij7.s 			page 48


 1342              		.loc 1 881 10 is_stmt 0 view .LVU440
 1343 00b4 B8EB0303 		subs	r3, r8, r3
 1344              	.LVL138:
 881:Middlewares/Third_Party/LibJPEG/source/jmemmgr.c **** 	ltemp = 0;		/* don't fall off front end of file */
 1345              		.loc 1 881 10 view .LVU441
 1346 00b8 01D4     		bmi	.L89
 1347              	.LVL139:
 1348              	.L76:
 883:Middlewares/Third_Party/LibJPEG/source/jmemmgr.c ****     }
 1349              		.loc 1 883 7 is_stmt 1 view .LVU442
 883:Middlewares/Third_Party/LibJPEG/source/jmemmgr.c ****     }
 1350              		.loc 1 883 26 is_stmt 0 view .LVU443
 1351 00ba A361     		str	r3, [r4, #24]
 1352 00bc CEE7     		b	.L75
 1353              	.L89:
 882:Middlewares/Third_Party/LibJPEG/source/jmemmgr.c ****       ptr->cur_start_row = (JDIMENSION) ltemp;
 1354              		.loc 1 882 8 view .LVU444
 1355 00be 0023     		movs	r3, #0
 1356              	.LVL140:
 882:Middlewares/Third_Party/LibJPEG/source/jmemmgr.c ****       ptr->cur_start_row = (JDIMENSION) ltemp;
 1357              		.loc 1 882 8 view .LVU445
 1358 00c0 FBE7     		b	.L76
 1359              	.LVL141:
 1360              	.L86:
 882:Middlewares/Third_Party/LibJPEG/source/jmemmgr.c ****       ptr->cur_start_row = (JDIMENSION) ltemp;
 1361              		.loc 1 882 8 view .LVU446
 1362              	.LBE6:
 899:Middlewares/Third_Party/LibJPEG/source/jmemmgr.c ****     } else {
 1363              		.loc 1 899 17 view .LVU447
 1364 00c2 3546     		mov	r5, r6
 1365 00c4 E4E7     		b	.L79
 1366              	.LVL142:
 1367              	.L82:
 1368              	.LBB7:
 910:Middlewares/Third_Party/LibJPEG/source/jmemmgr.c **** 	undef_row++;
 1369              		.loc 1 910 2 is_stmt 1 view .LVU448
 1370 00c6 2368     		ldr	r3, [r4]
 1371 00c8 3A46     		mov	r2, r7
 1372 00ca 0021     		movs	r1, #0
 1373 00cc 53F82500 		ldr	r0, [r3, r5, lsl #2]
 1374 00d0 FFF7FEFF 		bl	memset
 1375              	.LVL143:
 911:Middlewares/Third_Party/LibJPEG/source/jmemmgr.c ****       }
 1376              		.loc 1 911 2 view .LVU449
 911:Middlewares/Third_Party/LibJPEG/source/jmemmgr.c ****       }
 1377              		.loc 1 911 11 is_stmt 0 view .LVU450
 1378 00d4 0135     		adds	r5, r5, #1
 1379              	.LVL144:
 1380              	.L81:
 909:Middlewares/Third_Party/LibJPEG/source/jmemmgr.c **** 	FMEMZERO((void FAR *) ptr->mem_buffer[undef_row], bytesperrow);
 1381              		.loc 1 909 24 is_stmt 1 view .LVU451
 1382 00d6 4545     		cmp	r5, r8
 1383 00d8 F5D3     		bcc	.L82
 1384              	.LVL145:
 1385              	.L77:
 909:Middlewares/Third_Party/LibJPEG/source/jmemmgr.c **** 	FMEMZERO((void FAR *) ptr->mem_buffer[undef_row], bytesperrow);
 1386              		.loc 1 909 24 is_stmt 0 view .LVU452
ARM GAS  /var/folders/mq/wg13gp494590nh4zyt09lxf00000gn/T//ccRbBij7.s 			page 49


 1387              	.LBE7:
 919:Middlewares/Third_Party/LibJPEG/source/jmemmgr.c ****     ptr->dirty = TRUE;
 1388              		.loc 1 919 3 is_stmt 1 view .LVU453
 919:Middlewares/Third_Party/LibJPEG/source/jmemmgr.c ****     ptr->dirty = TRUE;
 1389              		.loc 1 919 6 is_stmt 0 view .LVU454
 1390 00da B9F1000F 		cmp	r9, #0
 1391 00de 01D0     		beq	.L84
 1392              	.L83:
 920:Middlewares/Third_Party/LibJPEG/source/jmemmgr.c ****   /* Return address of proper part of the buffer */
 1393              		.loc 1 920 5 is_stmt 1 view .LVU455
 920:Middlewares/Third_Party/LibJPEG/source/jmemmgr.c ****   /* Return address of proper part of the buffer */
 1394              		.loc 1 920 16 is_stmt 0 view .LVU456
 1395 00e0 0123     		movs	r3, #1
 1396 00e2 6362     		str	r3, [r4, #36]
 1397              	.L84:
 922:Middlewares/Third_Party/LibJPEG/source/jmemmgr.c **** }
 1398              		.loc 1 922 3 is_stmt 1 view .LVU457
 922:Middlewares/Third_Party/LibJPEG/source/jmemmgr.c **** }
 1399              		.loc 1 922 13 is_stmt 0 view .LVU458
 1400 00e4 2068     		ldr	r0, [r4]
 922:Middlewares/Third_Party/LibJPEG/source/jmemmgr.c **** }
 1401              		.loc 1 922 44 view .LVU459
 1402 00e6 A369     		ldr	r3, [r4, #24]
 922:Middlewares/Third_Party/LibJPEG/source/jmemmgr.c **** }
 1403              		.loc 1 922 39 view .LVU460
 1404 00e8 F61A     		subs	r6, r6, r3
 1405              	.LVL146:
 923:Middlewares/Third_Party/LibJPEG/source/jmemmgr.c **** 
 1406              		.loc 1 923 1 view .LVU461
 1407 00ea 00EB8600 		add	r0, r0, r6, lsl #2
 1408 00ee BDE8F883 		pop	{r3, r4, r5, r6, r7, r8, r9, pc}
 1409              	.LVL147:
 1410              	.L80:
 914:Middlewares/Third_Party/LibJPEG/source/jmemmgr.c **** 	ERREXIT(cinfo, JERR_BAD_VIRTUAL_ACCESS);
 1411              		.loc 1 914 7 is_stmt 1 view .LVU462
 914:Middlewares/Third_Party/LibJPEG/source/jmemmgr.c **** 	ERREXIT(cinfo, JERR_BAD_VIRTUAL_ACCESS);
 1412              		.loc 1 914 10 is_stmt 0 view .LVU463
 1413 00f2 B9F1000F 		cmp	r9, #0
 1414 00f6 F3D1     		bne	.L83
 915:Middlewares/Third_Party/LibJPEG/source/jmemmgr.c ****     }
 1415              		.loc 1 915 2 is_stmt 1 view .LVU464
 1416 00f8 3B68     		ldr	r3, [r7]
 1417 00fa 1722     		movs	r2, #23
 1418 00fc 5A61     		str	r2, [r3, #20]
 1419 00fe 3B68     		ldr	r3, [r7]
 1420 0100 1B68     		ldr	r3, [r3]
 1421 0102 3846     		mov	r0, r7
 1422 0104 9847     		blx	r3
 1423              	.LVL148:
 1424 0106 E8E7     		b	.L77
 1425              		.cfi_endproc
 1426              	.LFE158:
 1428              		.section	.text.access_virt_sarray,"ax",%progbits
 1429              		.align	1
 1430              		.syntax unified
 1431              		.thumb
 1432              		.thumb_func
ARM GAS  /var/folders/mq/wg13gp494590nh4zyt09lxf00000gn/T//ccRbBij7.s 			page 50


 1434              	access_virt_sarray:
 1435              	.LVL149:
 1436              	.LFB157:
 763:Middlewares/Third_Party/LibJPEG/source/jmemmgr.c ****   JDIMENSION end_row = start_row + num_rows;
 1437              		.loc 1 763 1 view -0
 1438              		.cfi_startproc
 1439              		@ args = 4, pretend = 0, frame = 0
 1440              		@ frame_needed = 0, uses_anonymous_args = 0
 763:Middlewares/Third_Party/LibJPEG/source/jmemmgr.c ****   JDIMENSION end_row = start_row + num_rows;
 1441              		.loc 1 763 1 is_stmt 0 view .LVU466
 1442 0000 2DE9F843 		push	{r3, r4, r5, r6, r7, r8, r9, lr}
 1443              	.LCFI13:
 1444              		.cfi_def_cfa_offset 32
 1445              		.cfi_offset 3, -32
 1446              		.cfi_offset 4, -28
 1447              		.cfi_offset 5, -24
 1448              		.cfi_offset 6, -20
 1449              		.cfi_offset 7, -16
 1450              		.cfi_offset 8, -12
 1451              		.cfi_offset 9, -8
 1452              		.cfi_offset 14, -4
 1453 0004 0746     		mov	r7, r0
 1454 0006 0C46     		mov	r4, r1
 1455 0008 1646     		mov	r6, r2
 1456 000a DDF82090 		ldr	r9, [sp, #32]
 764:Middlewares/Third_Party/LibJPEG/source/jmemmgr.c ****   JDIMENSION undef_row;
 1457              		.loc 1 764 3 is_stmt 1 view .LVU467
 764:Middlewares/Third_Party/LibJPEG/source/jmemmgr.c ****   JDIMENSION undef_row;
 1458              		.loc 1 764 14 is_stmt 0 view .LVU468
 1459 000e 02EB0308 		add	r8, r2, r3
 1460              	.LVL150:
 765:Middlewares/Third_Party/LibJPEG/source/jmemmgr.c **** 
 1461              		.loc 1 765 3 is_stmt 1 view .LVU469
 768:Middlewares/Third_Party/LibJPEG/source/jmemmgr.c ****       ptr->mem_buffer == NULL)
 1462              		.loc 1 768 3 view .LVU470
 768:Middlewares/Third_Party/LibJPEG/source/jmemmgr.c ****       ptr->mem_buffer == NULL)
 1463              		.loc 1 768 20 is_stmt 0 view .LVU471
 1464 0012 4A68     		ldr	r2, [r1, #4]
 1465              	.LVL151:
 768:Middlewares/Third_Party/LibJPEG/source/jmemmgr.c ****       ptr->mem_buffer == NULL)
 1466              		.loc 1 768 6 view .LVU472
 1467 0014 4245     		cmp	r2, r8
 1468 0016 04D3     		bcc	.L91
 768:Middlewares/Third_Party/LibJPEG/source/jmemmgr.c ****       ptr->mem_buffer == NULL)
 1469              		.loc 1 768 53 discriminator 1 view .LVU473
 1470 0018 CA68     		ldr	r2, [r1, #12]
 768:Middlewares/Third_Party/LibJPEG/source/jmemmgr.c ****       ptr->mem_buffer == NULL)
 1471              		.loc 1 768 36 discriminator 1 view .LVU474
 1472 001a 9A42     		cmp	r2, r3
 1473 001c 01D3     		bcc	.L91
 769:Middlewares/Third_Party/LibJPEG/source/jmemmgr.c ****     ERREXIT(cinfo, JERR_BAD_VIRTUAL_ACCESS);
 1474              		.loc 1 769 10 view .LVU475
 1475 001e 0B68     		ldr	r3, [r1]
 1476              	.LVL152:
 768:Middlewares/Third_Party/LibJPEG/source/jmemmgr.c ****       ptr->mem_buffer == NULL)
 1477              		.loc 1 768 65 discriminator 2 view .LVU476
 1478 0020 33B9     		cbnz	r3, .L92
ARM GAS  /var/folders/mq/wg13gp494590nh4zyt09lxf00000gn/T//ccRbBij7.s 			page 51


 1479              	.L91:
 770:Middlewares/Third_Party/LibJPEG/source/jmemmgr.c **** 
 1480              		.loc 1 770 5 is_stmt 1 view .LVU477
 1481 0022 3B68     		ldr	r3, [r7]
 1482 0024 1722     		movs	r2, #23
 1483 0026 5A61     		str	r2, [r3, #20]
 1484 0028 3B68     		ldr	r3, [r7]
 1485 002a 1B68     		ldr	r3, [r3]
 1486 002c 3846     		mov	r0, r7
 1487              	.LVL153:
 770:Middlewares/Third_Party/LibJPEG/source/jmemmgr.c **** 
 1488              		.loc 1 770 5 is_stmt 0 view .LVU478
 1489 002e 9847     		blx	r3
 1490              	.LVL154:
 1491              	.L92:
 773:Middlewares/Third_Party/LibJPEG/source/jmemmgr.c ****       end_row > ptr->cur_start_row+ptr->rows_in_mem) {
 1492              		.loc 1 773 3 is_stmt 1 view .LVU479
 773:Middlewares/Third_Party/LibJPEG/source/jmemmgr.c ****       end_row > ptr->cur_start_row+ptr->rows_in_mem) {
 1493              		.loc 1 773 22 is_stmt 0 view .LVU480
 1494 0030 A369     		ldr	r3, [r4, #24]
 773:Middlewares/Third_Party/LibJPEG/source/jmemmgr.c ****       end_row > ptr->cur_start_row+ptr->rows_in_mem) {
 1495              		.loc 1 773 6 view .LVU481
 1496 0032 B342     		cmp	r3, r6
 1497 0034 03D8     		bhi	.L93
 774:Middlewares/Third_Party/LibJPEG/source/jmemmgr.c ****     if (! ptr->b_s_open)
 1498              		.loc 1 774 39 view .LVU482
 1499 0036 2269     		ldr	r2, [r4, #16]
 774:Middlewares/Third_Party/LibJPEG/source/jmemmgr.c ****     if (! ptr->b_s_open)
 1500              		.loc 1 774 35 view .LVU483
 1501 0038 1344     		add	r3, r3, r2
 773:Middlewares/Third_Party/LibJPEG/source/jmemmgr.c ****       end_row > ptr->cur_start_row+ptr->rows_in_mem) {
 1502              		.loc 1 773 38 discriminator 1 view .LVU484
 1503 003a 4345     		cmp	r3, r8
 1504 003c 13D2     		bcs	.L94
 1505              	.L93:
 775:Middlewares/Third_Party/LibJPEG/source/jmemmgr.c ****       ERREXIT(cinfo, JERR_VIRTUAL_BUG);
 1506              		.loc 1 775 5 is_stmt 1 view .LVU485
 775:Middlewares/Third_Party/LibJPEG/source/jmemmgr.c ****       ERREXIT(cinfo, JERR_VIRTUAL_BUG);
 1507              		.loc 1 775 14 is_stmt 0 view .LVU486
 1508 003e A36A     		ldr	r3, [r4, #40]
 775:Middlewares/Third_Party/LibJPEG/source/jmemmgr.c ****       ERREXIT(cinfo, JERR_VIRTUAL_BUG);
 1509              		.loc 1 775 8 view .LVU487
 1510 0040 33B9     		cbnz	r3, .L95
 776:Middlewares/Third_Party/LibJPEG/source/jmemmgr.c ****     /* Flush old buffer contents if necessary */
 1511              		.loc 1 776 7 is_stmt 1 view .LVU488
 1512 0042 3B68     		ldr	r3, [r7]
 1513 0044 4722     		movs	r2, #71
 1514 0046 5A61     		str	r2, [r3, #20]
 1515 0048 3B68     		ldr	r3, [r7]
 1516 004a 1B68     		ldr	r3, [r3]
 1517 004c 3846     		mov	r0, r7
 1518 004e 9847     		blx	r3
 1519              	.LVL155:
 1520              	.L95:
 778:Middlewares/Third_Party/LibJPEG/source/jmemmgr.c ****       do_sarray_io(cinfo, ptr, TRUE);
 1521              		.loc 1 778 5 view .LVU489
 778:Middlewares/Third_Party/LibJPEG/source/jmemmgr.c ****       do_sarray_io(cinfo, ptr, TRUE);
ARM GAS  /var/folders/mq/wg13gp494590nh4zyt09lxf00000gn/T//ccRbBij7.s 			page 52


 1522              		.loc 1 778 12 is_stmt 0 view .LVU490
 1523 0050 636A     		ldr	r3, [r4, #36]
 778:Middlewares/Third_Party/LibJPEG/source/jmemmgr.c ****       do_sarray_io(cinfo, ptr, TRUE);
 1524              		.loc 1 778 8 view .LVU491
 1525 0052 2BBB     		cbnz	r3, .L111
 1526              	.L96:
 789:Middlewares/Third_Party/LibJPEG/source/jmemmgr.c ****       ptr->cur_start_row = start_row;
 1527              		.loc 1 789 5 is_stmt 1 view .LVU492
 789:Middlewares/Third_Party/LibJPEG/source/jmemmgr.c ****       ptr->cur_start_row = start_row;
 1528              		.loc 1 789 24 is_stmt 0 view .LVU493
 1529 0054 A369     		ldr	r3, [r4, #24]
 789:Middlewares/Third_Party/LibJPEG/source/jmemmgr.c ****       ptr->cur_start_row = start_row;
 1530              		.loc 1 789 8 view .LVU494
 1531 0056 B342     		cmp	r3, r6
 1532 0058 2AD2     		bcs	.L97
 790:Middlewares/Third_Party/LibJPEG/source/jmemmgr.c ****     } else {
 1533              		.loc 1 790 7 is_stmt 1 view .LVU495
 790:Middlewares/Third_Party/LibJPEG/source/jmemmgr.c ****     } else {
 1534              		.loc 1 790 26 is_stmt 0 view .LVU496
 1535 005a A661     		str	r6, [r4, #24]
 1536              	.L98:
 804:Middlewares/Third_Party/LibJPEG/source/jmemmgr.c ****   }
 1537              		.loc 1 804 5 is_stmt 1 view .LVU497
 1538 005c 0022     		movs	r2, #0
 1539 005e 2146     		mov	r1, r4
 1540 0060 3846     		mov	r0, r7
 1541 0062 FFF7FEFF 		bl	do_sarray_io
 1542              	.LVL156:
 1543              	.L94:
 810:Middlewares/Third_Party/LibJPEG/source/jmemmgr.c ****     if (ptr->first_undef_row < start_row) {
 1544              		.loc 1 810 3 view .LVU498
 810:Middlewares/Third_Party/LibJPEG/source/jmemmgr.c ****     if (ptr->first_undef_row < start_row) {
 1545              		.loc 1 810 10 is_stmt 0 view .LVU499
 1546 0066 E569     		ldr	r5, [r4, #28]
 810:Middlewares/Third_Party/LibJPEG/source/jmemmgr.c ****     if (ptr->first_undef_row < start_row) {
 1547              		.loc 1 810 6 view .LVU500
 1548 0068 4545     		cmp	r5, r8
 1549 006a 35D2     		bcs	.L100
 811:Middlewares/Third_Party/LibJPEG/source/jmemmgr.c ****       if (writable)		/* writer skipped over a section of array */
 1550              		.loc 1 811 5 is_stmt 1 view .LVU501
 811:Middlewares/Third_Party/LibJPEG/source/jmemmgr.c ****       if (writable)		/* writer skipped over a section of array */
 1551              		.loc 1 811 8 is_stmt 0 view .LVU502
 1552 006c B542     		cmp	r5, r6
 1553 006e 0AD2     		bcs	.L101
 812:Middlewares/Third_Party/LibJPEG/source/jmemmgr.c **** 	ERREXIT(cinfo, JERR_BAD_VIRTUAL_ACCESS);
 1554              		.loc 1 812 7 is_stmt 1 view .LVU503
 812:Middlewares/Third_Party/LibJPEG/source/jmemmgr.c **** 	ERREXIT(cinfo, JERR_BAD_VIRTUAL_ACCESS);
 1555              		.loc 1 812 10 is_stmt 0 view .LVU504
 1556 0070 B9F1000F 		cmp	r9, #0
 1557 0074 24D0     		beq	.L109
 813:Middlewares/Third_Party/LibJPEG/source/jmemmgr.c ****       undef_row = start_row;	/* but reader is allowed to read ahead */
 1558              		.loc 1 813 2 is_stmt 1 view .LVU505
 1559 0076 3B68     		ldr	r3, [r7]
 1560 0078 1722     		movs	r2, #23
 1561 007a 5A61     		str	r2, [r3, #20]
 1562 007c 3B68     		ldr	r3, [r7]
 1563 007e 1B68     		ldr	r3, [r3]
ARM GAS  /var/folders/mq/wg13gp494590nh4zyt09lxf00000gn/T//ccRbBij7.s 			page 53


 1564 0080 3846     		mov	r0, r7
 1565 0082 9847     		blx	r3
 1566              	.LVL157:
 814:Middlewares/Third_Party/LibJPEG/source/jmemmgr.c ****     } else {
 1567              		.loc 1 814 7 view .LVU506
 814:Middlewares/Third_Party/LibJPEG/source/jmemmgr.c ****     } else {
 1568              		.loc 1 814 17 is_stmt 0 view .LVU507
 1569 0084 3546     		mov	r5, r6
 1570              	.LVL158:
 1571              	.L101:
 818:Middlewares/Third_Party/LibJPEG/source/jmemmgr.c ****       ptr->first_undef_row = end_row;
 1572              		.loc 1 818 5 is_stmt 1 view .LVU508
 818:Middlewares/Third_Party/LibJPEG/source/jmemmgr.c ****       ptr->first_undef_row = end_row;
 1573              		.loc 1 818 8 is_stmt 0 view .LVU509
 1574 0086 B9F1000F 		cmp	r9, #0
 1575 008a 01D0     		beq	.L102
 819:Middlewares/Third_Party/LibJPEG/source/jmemmgr.c ****     if (ptr->pre_zero) {
 1576              		.loc 1 819 7 is_stmt 1 view .LVU510
 819:Middlewares/Third_Party/LibJPEG/source/jmemmgr.c ****     if (ptr->pre_zero) {
 1577              		.loc 1 819 28 is_stmt 0 view .LVU511
 1578 008c C4F81C80 		str	r8, [r4, #28]
 1579              	.LVL159:
 1580              	.L102:
 820:Middlewares/Third_Party/LibJPEG/source/jmemmgr.c ****       size_t bytesperrow = (size_t) ptr->samplesperrow * SIZEOF(JSAMPLE);
 1581              		.loc 1 820 5 is_stmt 1 view .LVU512
 820:Middlewares/Third_Party/LibJPEG/source/jmemmgr.c ****       size_t bytesperrow = (size_t) ptr->samplesperrow * SIZEOF(JSAMPLE);
 1582              		.loc 1 820 12 is_stmt 0 view .LVU513
 1583 0090 236A     		ldr	r3, [r4, #32]
 820:Middlewares/Third_Party/LibJPEG/source/jmemmgr.c ****       size_t bytesperrow = (size_t) ptr->samplesperrow * SIZEOF(JSAMPLE);
 1584              		.loc 1 820 8 view .LVU514
 1585 0092 6BB3     		cbz	r3, .L103
 1586              	.LBB8:
 821:Middlewares/Third_Party/LibJPEG/source/jmemmgr.c ****       undef_row -= ptr->cur_start_row; /* make indexes relative to buffer */
 1587              		.loc 1 821 7 is_stmt 1 view .LVU515
 821:Middlewares/Third_Party/LibJPEG/source/jmemmgr.c ****       undef_row -= ptr->cur_start_row; /* make indexes relative to buffer */
 1588              		.loc 1 821 14 is_stmt 0 view .LVU516
 1589 0094 A768     		ldr	r7, [r4, #8]
 1590              	.LVL160:
 822:Middlewares/Third_Party/LibJPEG/source/jmemmgr.c ****       end_row -= ptr->cur_start_row;
 1591              		.loc 1 822 7 is_stmt 1 view .LVU517
 822:Middlewares/Third_Party/LibJPEG/source/jmemmgr.c ****       end_row -= ptr->cur_start_row;
 1592              		.loc 1 822 23 is_stmt 0 view .LVU518
 1593 0096 A369     		ldr	r3, [r4, #24]
 822:Middlewares/Third_Party/LibJPEG/source/jmemmgr.c ****       end_row -= ptr->cur_start_row;
 1594              		.loc 1 822 17 view .LVU519
 1595 0098 ED1A     		subs	r5, r5, r3
 1596              	.LVL161:
 823:Middlewares/Third_Party/LibJPEG/source/jmemmgr.c ****       while (undef_row < end_row) {
 1597              		.loc 1 823 7 is_stmt 1 view .LVU520
 823:Middlewares/Third_Party/LibJPEG/source/jmemmgr.c ****       while (undef_row < end_row) {
 1598              		.loc 1 823 15 is_stmt 0 view .LVU521
 1599 009a A8EB0308 		sub	r8, r8, r3
 1600              	.LVL162:
 824:Middlewares/Third_Party/LibJPEG/source/jmemmgr.c **** 	FMEMZERO((void FAR *) ptr->mem_buffer[undef_row], bytesperrow);
 1601              		.loc 1 824 7 is_stmt 1 view .LVU522
 824:Middlewares/Third_Party/LibJPEG/source/jmemmgr.c **** 	FMEMZERO((void FAR *) ptr->mem_buffer[undef_row], bytesperrow);
 1602              		.loc 1 824 13 is_stmt 0 view .LVU523
ARM GAS  /var/folders/mq/wg13gp494590nh4zyt09lxf00000gn/T//ccRbBij7.s 			page 54


 1603 009e 19E0     		b	.L104
 1604              	.LVL163:
 1605              	.L111:
 824:Middlewares/Third_Party/LibJPEG/source/jmemmgr.c **** 	FMEMZERO((void FAR *) ptr->mem_buffer[undef_row], bytesperrow);
 1606              		.loc 1 824 13 view .LVU524
 1607              	.LBE8:
 779:Middlewares/Third_Party/LibJPEG/source/jmemmgr.c ****       ptr->dirty = FALSE;
 1608              		.loc 1 779 7 is_stmt 1 view .LVU525
 1609 00a0 0122     		movs	r2, #1
 1610 00a2 2146     		mov	r1, r4
 1611 00a4 3846     		mov	r0, r7
 1612 00a6 FFF7FEFF 		bl	do_sarray_io
 1613              	.LVL164:
 780:Middlewares/Third_Party/LibJPEG/source/jmemmgr.c ****     }
 1614              		.loc 1 780 7 view .LVU526
 780:Middlewares/Third_Party/LibJPEG/source/jmemmgr.c ****     }
 1615              		.loc 1 780 18 is_stmt 0 view .LVU527
 1616 00aa 0023     		movs	r3, #0
 1617 00ac 6362     		str	r3, [r4, #36]
 1618 00ae D1E7     		b	.L96
 1619              	.L97:
 1620              	.LBB9:
 793:Middlewares/Third_Party/LibJPEG/source/jmemmgr.c **** 
 1621              		.loc 1 793 7 is_stmt 1 view .LVU528
 795:Middlewares/Third_Party/LibJPEG/source/jmemmgr.c ****       if (ltemp < 0)
 1622              		.loc 1 795 7 view .LVU529
 795:Middlewares/Third_Party/LibJPEG/source/jmemmgr.c ****       if (ltemp < 0)
 1623              		.loc 1 795 42 is_stmt 0 view .LVU530
 1624 00b0 2369     		ldr	r3, [r4, #16]
 1625              	.LVL165:
 796:Middlewares/Third_Party/LibJPEG/source/jmemmgr.c **** 	ltemp = 0;		/* don't fall off front end of file */
 1626              		.loc 1 796 7 is_stmt 1 view .LVU531
 796:Middlewares/Third_Party/LibJPEG/source/jmemmgr.c **** 	ltemp = 0;		/* don't fall off front end of file */
 1627              		.loc 1 796 10 is_stmt 0 view .LVU532
 1628 00b2 B8EB0303 		subs	r3, r8, r3
 1629              	.LVL166:
 796:Middlewares/Third_Party/LibJPEG/source/jmemmgr.c **** 	ltemp = 0;		/* don't fall off front end of file */
 1630              		.loc 1 796 10 view .LVU533
 1631 00b6 01D4     		bmi	.L112
 1632              	.LVL167:
 1633              	.L99:
 798:Middlewares/Third_Party/LibJPEG/source/jmemmgr.c ****     }
 1634              		.loc 1 798 7 is_stmt 1 view .LVU534
 798:Middlewares/Third_Party/LibJPEG/source/jmemmgr.c ****     }
 1635              		.loc 1 798 26 is_stmt 0 view .LVU535
 1636 00b8 A361     		str	r3, [r4, #24]
 1637 00ba CFE7     		b	.L98
 1638              	.L112:
 797:Middlewares/Third_Party/LibJPEG/source/jmemmgr.c ****       ptr->cur_start_row = (JDIMENSION) ltemp;
 1639              		.loc 1 797 8 view .LVU536
 1640 00bc 0023     		movs	r3, #0
 1641              	.LVL168:
 797:Middlewares/Third_Party/LibJPEG/source/jmemmgr.c ****       ptr->cur_start_row = (JDIMENSION) ltemp;
 1642              		.loc 1 797 8 view .LVU537
 1643 00be FBE7     		b	.L99
 1644              	.LVL169:
 1645              	.L109:
ARM GAS  /var/folders/mq/wg13gp494590nh4zyt09lxf00000gn/T//ccRbBij7.s 			page 55


 797:Middlewares/Third_Party/LibJPEG/source/jmemmgr.c ****       ptr->cur_start_row = (JDIMENSION) ltemp;
 1646              		.loc 1 797 8 view .LVU538
 1647              	.LBE9:
 814:Middlewares/Third_Party/LibJPEG/source/jmemmgr.c ****     } else {
 1648              		.loc 1 814 17 view .LVU539
 1649 00c0 3546     		mov	r5, r6
 1650 00c2 E5E7     		b	.L102
 1651              	.LVL170:
 1652              	.L105:
 1653              	.LBB10:
 825:Middlewares/Third_Party/LibJPEG/source/jmemmgr.c **** 	undef_row++;
 1654              		.loc 1 825 2 is_stmt 1 view .LVU540
 1655 00c4 2368     		ldr	r3, [r4]
 1656 00c6 3A46     		mov	r2, r7
 1657 00c8 0021     		movs	r1, #0
 1658 00ca 53F82500 		ldr	r0, [r3, r5, lsl #2]
 1659 00ce FFF7FEFF 		bl	memset
 1660              	.LVL171:
 826:Middlewares/Third_Party/LibJPEG/source/jmemmgr.c ****       }
 1661              		.loc 1 826 2 view .LVU541
 826:Middlewares/Third_Party/LibJPEG/source/jmemmgr.c ****       }
 1662              		.loc 1 826 11 is_stmt 0 view .LVU542
 1663 00d2 0135     		adds	r5, r5, #1
 1664              	.LVL172:
 1665              	.L104:
 824:Middlewares/Third_Party/LibJPEG/source/jmemmgr.c **** 	FMEMZERO((void FAR *) ptr->mem_buffer[undef_row], bytesperrow);
 1666              		.loc 1 824 24 is_stmt 1 view .LVU543
 1667 00d4 4545     		cmp	r5, r8
 1668 00d6 F5D3     		bcc	.L105
 1669              	.LVL173:
 1670              	.L100:
 824:Middlewares/Third_Party/LibJPEG/source/jmemmgr.c **** 	FMEMZERO((void FAR *) ptr->mem_buffer[undef_row], bytesperrow);
 1671              		.loc 1 824 24 is_stmt 0 view .LVU544
 1672              	.LBE10:
 834:Middlewares/Third_Party/LibJPEG/source/jmemmgr.c ****     ptr->dirty = TRUE;
 1673              		.loc 1 834 3 is_stmt 1 view .LVU545
 834:Middlewares/Third_Party/LibJPEG/source/jmemmgr.c ****     ptr->dirty = TRUE;
 1674              		.loc 1 834 6 is_stmt 0 view .LVU546
 1675 00d8 B9F1000F 		cmp	r9, #0
 1676 00dc 01D0     		beq	.L107
 1677              	.L106:
 835:Middlewares/Third_Party/LibJPEG/source/jmemmgr.c ****   /* Return address of proper part of the buffer */
 1678              		.loc 1 835 5 is_stmt 1 view .LVU547
 835:Middlewares/Third_Party/LibJPEG/source/jmemmgr.c ****   /* Return address of proper part of the buffer */
 1679              		.loc 1 835 16 is_stmt 0 view .LVU548
 1680 00de 0123     		movs	r3, #1
 1681 00e0 6362     		str	r3, [r4, #36]
 1682              	.L107:
 837:Middlewares/Third_Party/LibJPEG/source/jmemmgr.c **** }
 1683              		.loc 1 837 3 is_stmt 1 view .LVU549
 837:Middlewares/Third_Party/LibJPEG/source/jmemmgr.c **** }
 1684              		.loc 1 837 13 is_stmt 0 view .LVU550
 1685 00e2 2068     		ldr	r0, [r4]
 837:Middlewares/Third_Party/LibJPEG/source/jmemmgr.c **** }
 1686              		.loc 1 837 44 view .LVU551
 1687 00e4 A369     		ldr	r3, [r4, #24]
 837:Middlewares/Third_Party/LibJPEG/source/jmemmgr.c **** }
ARM GAS  /var/folders/mq/wg13gp494590nh4zyt09lxf00000gn/T//ccRbBij7.s 			page 56


 1688              		.loc 1 837 39 view .LVU552
 1689 00e6 F61A     		subs	r6, r6, r3
 1690              	.LVL174:
 838:Middlewares/Third_Party/LibJPEG/source/jmemmgr.c **** 
 1691              		.loc 1 838 1 view .LVU553
 1692 00e8 00EB8600 		add	r0, r0, r6, lsl #2
 1693 00ec BDE8F883 		pop	{r3, r4, r5, r6, r7, r8, r9, pc}
 1694              	.LVL175:
 1695              	.L103:
 829:Middlewares/Third_Party/LibJPEG/source/jmemmgr.c **** 	ERREXIT(cinfo, JERR_BAD_VIRTUAL_ACCESS);
 1696              		.loc 1 829 7 is_stmt 1 view .LVU554
 829:Middlewares/Third_Party/LibJPEG/source/jmemmgr.c **** 	ERREXIT(cinfo, JERR_BAD_VIRTUAL_ACCESS);
 1697              		.loc 1 829 10 is_stmt 0 view .LVU555
 1698 00f0 B9F1000F 		cmp	r9, #0
 1699 00f4 F3D1     		bne	.L106
 830:Middlewares/Third_Party/LibJPEG/source/jmemmgr.c ****     }
 1700              		.loc 1 830 2 is_stmt 1 view .LVU556
 1701 00f6 3B68     		ldr	r3, [r7]
 1702 00f8 1722     		movs	r2, #23
 1703 00fa 5A61     		str	r2, [r3, #20]
 1704 00fc 3B68     		ldr	r3, [r7]
 1705 00fe 1B68     		ldr	r3, [r3]
 1706 0100 3846     		mov	r0, r7
 1707 0102 9847     		blx	r3
 1708              	.LVL176:
 1709 0104 E8E7     		b	.L100
 1710              		.cfi_endproc
 1711              	.LFE157:
 1713              		.section	.text.alloc_large,"ax",%progbits
 1714              		.align	1
 1715              		.syntax unified
 1716              		.thumb
 1717              		.thumb_func
 1719              	alloc_large:
 1720              	.LVL177:
 1721              	.LFB149:
 345:Middlewares/Third_Party/LibJPEG/source/jmemmgr.c ****   my_mem_ptr mem = (my_mem_ptr) cinfo->mem;
 1722              		.loc 1 345 1 view -0
 1723              		.cfi_startproc
 1724              		@ args = 0, pretend = 0, frame = 0
 1725              		@ frame_needed = 0, uses_anonymous_args = 0
 345:Middlewares/Third_Party/LibJPEG/source/jmemmgr.c ****   my_mem_ptr mem = (my_mem_ptr) cinfo->mem;
 1726              		.loc 1 345 1 is_stmt 0 view .LVU558
 1727 0000 2DE9F041 		push	{r4, r5, r6, r7, r8, lr}
 1728              	.LCFI14:
 1729              		.cfi_def_cfa_offset 24
 1730              		.cfi_offset 4, -24
 1731              		.cfi_offset 5, -20
 1732              		.cfi_offset 6, -16
 1733              		.cfi_offset 7, -12
 1734              		.cfi_offset 8, -8
 1735              		.cfi_offset 14, -4
 1736 0004 0546     		mov	r5, r0
 1737 0006 0E46     		mov	r6, r1
 1738 0008 1446     		mov	r4, r2
 346:Middlewares/Third_Party/LibJPEG/source/jmemmgr.c ****   large_pool_ptr hdr_ptr;
 1739              		.loc 1 346 3 is_stmt 1 view .LVU559
ARM GAS  /var/folders/mq/wg13gp494590nh4zyt09lxf00000gn/T//ccRbBij7.s 			page 57


 346:Middlewares/Third_Party/LibJPEG/source/jmemmgr.c ****   large_pool_ptr hdr_ptr;
 1740              		.loc 1 346 14 is_stmt 0 view .LVU560
 1741 000a 4768     		ldr	r7, [r0, #4]
 1742              	.LVL178:
 347:Middlewares/Third_Party/LibJPEG/source/jmemmgr.c ****   size_t odd_bytes;
 1743              		.loc 1 347 3 is_stmt 1 view .LVU561
 348:Middlewares/Third_Party/LibJPEG/source/jmemmgr.c **** 
 1744              		.loc 1 348 3 view .LVU562
 351:Middlewares/Third_Party/LibJPEG/source/jmemmgr.c ****     out_of_memory(cinfo, 3);	/* request exceeds malloc's ability */
 1745              		.loc 1 351 3 view .LVU563
 351:Middlewares/Third_Party/LibJPEG/source/jmemmgr.c ****     out_of_memory(cinfo, 3);	/* request exceeds malloc's ability */
 1746              		.loc 1 351 6 is_stmt 0 view .LVU564
 1747 000c 4FF6F073 		movw	r3, #65520
 1748 0010 9A42     		cmp	r2, r3
 1749 0012 2CD8     		bhi	.L119
 1750              	.LVL179:
 1751              	.L114:
 355:Middlewares/Third_Party/LibJPEG/source/jmemmgr.c ****   if (odd_bytes > 0)
 1752              		.loc 1 355 3 is_stmt 1 view .LVU565
 356:Middlewares/Third_Party/LibJPEG/source/jmemmgr.c ****     sizeofobject += SIZEOF(ALIGN_TYPE) - odd_bytes;
 1753              		.loc 1 356 3 view .LVU566
 356:Middlewares/Third_Party/LibJPEG/source/jmemmgr.c ****     sizeofobject += SIZEOF(ALIGN_TYPE) - odd_bytes;
 1754              		.loc 1 356 6 is_stmt 0 view .LVU567
 1755 0014 14F00703 		ands	r3, r4, #7
 1756              	.LVL180:
 356:Middlewares/Third_Party/LibJPEG/source/jmemmgr.c ****     sizeofobject += SIZEOF(ALIGN_TYPE) - odd_bytes;
 1757              		.loc 1 356 6 view .LVU568
 1758 0018 02D0     		beq	.L115
 357:Middlewares/Third_Party/LibJPEG/source/jmemmgr.c **** 
 1759              		.loc 1 357 5 is_stmt 1 view .LVU569
 357:Middlewares/Third_Party/LibJPEG/source/jmemmgr.c **** 
 1760              		.loc 1 357 18 is_stmt 0 view .LVU570
 1761 001a E31A     		subs	r3, r4, r3
 1762              	.LVL181:
 357:Middlewares/Third_Party/LibJPEG/source/jmemmgr.c **** 
 1763              		.loc 1 357 18 view .LVU571
 1764 001c 03F10804 		add	r4, r3, #8
 1765              	.LVL182:
 1766              	.L115:
 360:Middlewares/Third_Party/LibJPEG/source/jmemmgr.c ****     ERREXIT1(cinfo, JERR_BAD_POOL_ID, pool_id);	/* safety check */
 1767              		.loc 1 360 3 is_stmt 1 view .LVU572
 360:Middlewares/Third_Party/LibJPEG/source/jmemmgr.c ****     ERREXIT1(cinfo, JERR_BAD_POOL_ID, pool_id);	/* safety check */
 1768              		.loc 1 360 6 is_stmt 0 view .LVU573
 1769 0020 012E     		cmp	r6, #1
 1770 0022 08D9     		bls	.L116
 361:Middlewares/Third_Party/LibJPEG/source/jmemmgr.c **** 
 1771              		.loc 1 361 5 is_stmt 1 view .LVU574
 1772 0024 2B68     		ldr	r3, [r5]
 1773 0026 0F22     		movs	r2, #15
 1774 0028 5A61     		str	r2, [r3, #20]
 1775 002a 2B68     		ldr	r3, [r5]
 1776 002c 9E61     		str	r6, [r3, #24]
 1777 002e 2B68     		ldr	r3, [r5]
 1778 0030 1B68     		ldr	r3, [r3]
 1779 0032 2846     		mov	r0, r5
 1780 0034 9847     		blx	r3
 1781              	.LVL183:
ARM GAS  /var/folders/mq/wg13gp494590nh4zyt09lxf00000gn/T//ccRbBij7.s 			page 58


 1782              	.L116:
 363:Middlewares/Third_Party/LibJPEG/source/jmemmgr.c **** 					    SIZEOF(large_pool_hdr));
 1783              		.loc 1 363 3 view .LVU575
 363:Middlewares/Third_Party/LibJPEG/source/jmemmgr.c **** 					    SIZEOF(large_pool_hdr));
 1784              		.loc 1 363 30 is_stmt 0 view .LVU576
 1785 0036 04F11001 		add	r1, r4, #16
 1786 003a 2846     		mov	r0, r5
 1787 003c FFF7FEFF 		bl	jpeg_get_large
 1788              	.LVL184:
 365:Middlewares/Third_Party/LibJPEG/source/jmemmgr.c ****     out_of_memory(cinfo, 4);	/* jpeg_get_large failed */
 1789              		.loc 1 365 3 is_stmt 1 view .LVU577
 365:Middlewares/Third_Party/LibJPEG/source/jmemmgr.c ****     out_of_memory(cinfo, 4);	/* jpeg_get_large failed */
 1790              		.loc 1 365 6 is_stmt 0 view .LVU578
 1791 0040 8046     		mov	r8, r0
 1792 0042 C0B1     		cbz	r0, .L120
 1793              	.LVL185:
 1794              	.L117:
 367:Middlewares/Third_Party/LibJPEG/source/jmemmgr.c **** 
 1795              		.loc 1 367 3 is_stmt 1 view .LVU579
 367:Middlewares/Third_Party/LibJPEG/source/jmemmgr.c **** 
 1796              		.loc 1 367 6 is_stmt 0 view .LVU580
 1797 0044 FB6C     		ldr	r3, [r7, #76]
 367:Middlewares/Third_Party/LibJPEG/source/jmemmgr.c **** 
 1798              		.loc 1 367 30 view .LVU581
 1799 0046 2344     		add	r3, r3, r4
 1800 0048 1033     		adds	r3, r3, #16
 1801 004a FB64     		str	r3, [r7, #76]
 370:Middlewares/Third_Party/LibJPEG/source/jmemmgr.c ****   /* We maintain space counts in each pool header for statistical purposes,
 1802              		.loc 1 370 3 is_stmt 1 view .LVU582
 370:Middlewares/Third_Party/LibJPEG/source/jmemmgr.c ****   /* We maintain space counts in each pool header for statistical purposes,
 1803              		.loc 1 370 38 is_stmt 0 view .LVU583
 1804 004c 0E36     		adds	r6, r6, #14
 1805              	.LVL186:
 370:Middlewares/Third_Party/LibJPEG/source/jmemmgr.c ****   /* We maintain space counts in each pool header for statistical purposes,
 1806              		.loc 1 370 38 view .LVU584
 1807 004e 07EB8607 		add	r7, r7, r6, lsl #2
 1808              	.LVL187:
 370:Middlewares/Third_Party/LibJPEG/source/jmemmgr.c ****   /* We maintain space counts in each pool header for statistical purposes,
 1809              		.loc 1 370 38 view .LVU585
 1810 0052 7B68     		ldr	r3, [r7, #4]
 370:Middlewares/Third_Party/LibJPEG/source/jmemmgr.c ****   /* We maintain space counts in each pool header for statistical purposes,
 1811              		.loc 1 370 21 view .LVU586
 1812 0054 C8F80030 		str	r3, [r8]
 374:Middlewares/Third_Party/LibJPEG/source/jmemmgr.c ****   hdr_ptr->hdr.bytes_left = 0;
 1813              		.loc 1 374 3 is_stmt 1 view .LVU587
 374:Middlewares/Third_Party/LibJPEG/source/jmemmgr.c ****   hdr_ptr->hdr.bytes_left = 0;
 1814              		.loc 1 374 27 is_stmt 0 view .LVU588
 1815 0058 C8F80440 		str	r4, [r8, #4]
 375:Middlewares/Third_Party/LibJPEG/source/jmemmgr.c ****   mem->large_list[pool_id] = hdr_ptr;
 1816              		.loc 1 375 3 is_stmt 1 view .LVU589
 375:Middlewares/Third_Party/LibJPEG/source/jmemmgr.c ****   mem->large_list[pool_id] = hdr_ptr;
 1817              		.loc 1 375 27 is_stmt 0 view .LVU590
 1818 005c 0023     		movs	r3, #0
 1819 005e C8F80830 		str	r3, [r8, #8]
 376:Middlewares/Third_Party/LibJPEG/source/jmemmgr.c **** 
 1820              		.loc 1 376 3 is_stmt 1 view .LVU591
 376:Middlewares/Third_Party/LibJPEG/source/jmemmgr.c **** 
ARM GAS  /var/folders/mq/wg13gp494590nh4zyt09lxf00000gn/T//ccRbBij7.s 			page 59


 1821              		.loc 1 376 28 is_stmt 0 view .LVU592
 1822 0062 C7F80480 		str	r8, [r7, #4]
 378:Middlewares/Third_Party/LibJPEG/source/jmemmgr.c **** }
 1823              		.loc 1 378 3 is_stmt 1 view .LVU593
 379:Middlewares/Third_Party/LibJPEG/source/jmemmgr.c **** 
 1824              		.loc 1 379 1 is_stmt 0 view .LVU594
 1825 0066 08F11000 		add	r0, r8, #16
 1826 006a BDE8F081 		pop	{r4, r5, r6, r7, r8, pc}
 1827              	.LVL188:
 1828              	.L119:
 352:Middlewares/Third_Party/LibJPEG/source/jmemmgr.c **** 
 1829              		.loc 1 352 5 is_stmt 1 view .LVU595
 1830 006e 0321     		movs	r1, #3
 1831              	.LVL189:
 352:Middlewares/Third_Party/LibJPEG/source/jmemmgr.c **** 
 1832              		.loc 1 352 5 is_stmt 0 view .LVU596
 1833 0070 FFF7FEFF 		bl	out_of_memory
 1834              	.LVL190:
 352:Middlewares/Third_Party/LibJPEG/source/jmemmgr.c **** 
 1835              		.loc 1 352 5 view .LVU597
 1836 0074 CEE7     		b	.L114
 1837              	.LVL191:
 1838              	.L120:
 366:Middlewares/Third_Party/LibJPEG/source/jmemmgr.c ****   mem->total_space_allocated += sizeofobject + SIZEOF(large_pool_hdr);
 1839              		.loc 1 366 5 is_stmt 1 view .LVU598
 1840 0076 0421     		movs	r1, #4
 1841 0078 2846     		mov	r0, r5
 1842              	.LVL192:
 366:Middlewares/Third_Party/LibJPEG/source/jmemmgr.c ****   mem->total_space_allocated += sizeofobject + SIZEOF(large_pool_hdr);
 1843              		.loc 1 366 5 is_stmt 0 view .LVU599
 1844 007a FFF7FEFF 		bl	out_of_memory
 1845              	.LVL193:
 1846 007e E1E7     		b	.L117
 1847              		.cfi_endproc
 1848              	.LFE149:
 1850              		.section	.text.alloc_barray,"ax",%progbits
 1851              		.align	1
 1852              		.syntax unified
 1853              		.thumb
 1854              		.thumb_func
 1856              	alloc_barray:
 1857              	.LVL194:
 1858              	.LFB151:
 447:Middlewares/Third_Party/LibJPEG/source/jmemmgr.c ****   my_mem_ptr mem = (my_mem_ptr) cinfo->mem;
 1859              		.loc 1 447 1 is_stmt 1 view -0
 1860              		.cfi_startproc
 1861              		@ args = 0, pretend = 0, frame = 0
 1862              		@ frame_needed = 0, uses_anonymous_args = 0
 447:Middlewares/Third_Party/LibJPEG/source/jmemmgr.c ****   my_mem_ptr mem = (my_mem_ptr) cinfo->mem;
 1863              		.loc 1 447 1 is_stmt 0 view .LVU601
 1864 0000 2DE9F84F 		push	{r3, r4, r5, r6, r7, r8, r9, r10, fp, lr}
 1865              	.LCFI15:
 1866              		.cfi_def_cfa_offset 40
 1867              		.cfi_offset 3, -40
 1868              		.cfi_offset 4, -36
 1869              		.cfi_offset 5, -32
 1870              		.cfi_offset 6, -28
ARM GAS  /var/folders/mq/wg13gp494590nh4zyt09lxf00000gn/T//ccRbBij7.s 			page 60


 1871              		.cfi_offset 7, -24
 1872              		.cfi_offset 8, -20
 1873              		.cfi_offset 9, -16
 1874              		.cfi_offset 10, -12
 1875              		.cfi_offset 11, -8
 1876              		.cfi_offset 14, -4
 1877 0004 8146     		mov	r9, r0
 1878 0006 8A46     		mov	r10, r1
 1879 0008 9346     		mov	fp, r2
 1880 000a 9846     		mov	r8, r3
 448:Middlewares/Third_Party/LibJPEG/source/jmemmgr.c ****   JBLOCKARRAY result;
 1881              		.loc 1 448 3 is_stmt 1 view .LVU602
 448:Middlewares/Third_Party/LibJPEG/source/jmemmgr.c ****   JBLOCKARRAY result;
 1882              		.loc 1 448 14 is_stmt 0 view .LVU603
 1883 000c 4468     		ldr	r4, [r0, #4]
 1884              	.LVL195:
 449:Middlewares/Third_Party/LibJPEG/source/jmemmgr.c ****   JBLOCKROW workspace;
 1885              		.loc 1 449 3 is_stmt 1 view .LVU604
 450:Middlewares/Third_Party/LibJPEG/source/jmemmgr.c ****   JDIMENSION rowsperchunk, currow, i;
 1886              		.loc 1 450 3 view .LVU605
 451:Middlewares/Third_Party/LibJPEG/source/jmemmgr.c ****   long ltemp;
 1887              		.loc 1 451 3 view .LVU606
 452:Middlewares/Third_Party/LibJPEG/source/jmemmgr.c **** 
 1888              		.loc 1 452 3 view .LVU607
 455:Middlewares/Third_Party/LibJPEG/source/jmemmgr.c **** 	  ((long) blocksperrow * SIZEOF(JBLOCK));
 1889              		.loc 1 455 3 view .LVU608
 456:Middlewares/Third_Party/LibJPEG/source/jmemmgr.c ****   if (ltemp <= 0)
 1890              		.loc 1 456 25 is_stmt 0 view .LVU609
 1891 000e D601     		lsls	r6, r2, #7
 455:Middlewares/Third_Party/LibJPEG/source/jmemmgr.c **** 	  ((long) blocksperrow * SIZEOF(JBLOCK));
 1892              		.loc 1 455 52 view .LVU610
 1893 0010 4FF6F077 		movw	r7, #65520
 1894 0014 B7FBF6F7 		udiv	r7, r7, r6
 455:Middlewares/Third_Party/LibJPEG/source/jmemmgr.c **** 	  ((long) blocksperrow * SIZEOF(JBLOCK));
 1895              		.loc 1 455 9 view .LVU611
 1896 0018 3D46     		mov	r5, r7
 1897              	.LVL196:
 457:Middlewares/Third_Party/LibJPEG/source/jmemmgr.c ****     ERREXIT(cinfo, JERR_WIDTH_OVERFLOW);
 1898              		.loc 1 457 3 is_stmt 1 view .LVU612
 457:Middlewares/Third_Party/LibJPEG/source/jmemmgr.c ****     ERREXIT(cinfo, JERR_WIDTH_OVERFLOW);
 1899              		.loc 1 457 6 is_stmt 0 view .LVU613
 1900 001a 67B1     		cbz	r7, .L130
 1901              	.LVL197:
 1902              	.L122:
 459:Middlewares/Third_Party/LibJPEG/source/jmemmgr.c ****     rowsperchunk = (JDIMENSION) ltemp;
 1903              		.loc 1 459 3 is_stmt 1 view .LVU614
 459:Middlewares/Third_Party/LibJPEG/source/jmemmgr.c ****     rowsperchunk = (JDIMENSION) ltemp;
 1904              		.loc 1 459 6 is_stmt 0 view .LVU615
 1905 001c A845     		cmp	r8, r5
 1906 001e 00DC     		bgt	.L123
 462:Middlewares/Third_Party/LibJPEG/source/jmemmgr.c ****   mem->last_rowsperchunk = rowsperchunk;
 1907              		.loc 1 462 18 view .LVU616
 1908 0020 4746     		mov	r7, r8
 1909              	.L123:
 1910              	.LVL198:
 463:Middlewares/Third_Party/LibJPEG/source/jmemmgr.c **** 
 1911              		.loc 1 463 3 is_stmt 1 view .LVU617
ARM GAS  /var/folders/mq/wg13gp494590nh4zyt09lxf00000gn/T//ccRbBij7.s 			page 61


 463:Middlewares/Third_Party/LibJPEG/source/jmemmgr.c **** 
 1912              		.loc 1 463 26 is_stmt 0 view .LVU618
 1913 0022 2765     		str	r7, [r4, #80]
 466:Middlewares/Third_Party/LibJPEG/source/jmemmgr.c **** 				     (size_t) (numrows * SIZEOF(JBLOCKROW)));
 1914              		.loc 1 466 3 is_stmt 1 view .LVU619
 466:Middlewares/Third_Party/LibJPEG/source/jmemmgr.c **** 				     (size_t) (numrows * SIZEOF(JBLOCKROW)));
 1915              		.loc 1 466 26 is_stmt 0 view .LVU620
 1916 0024 4FEA8802 		lsl	r2, r8, #2
 1917 0028 5146     		mov	r1, r10
 1918 002a 4846     		mov	r0, r9
 1919 002c FFF7FEFF 		bl	alloc_small
 1920              	.LVL199:
 1921 0030 0546     		mov	r5, r0
 1922              	.LVL200:
 470:Middlewares/Third_Party/LibJPEG/source/jmemmgr.c ****   while (currow < numrows) {
 1923              		.loc 1 470 3 is_stmt 1 view .LVU621
 471:Middlewares/Third_Party/LibJPEG/source/jmemmgr.c ****     rowsperchunk = MIN(rowsperchunk, numrows - currow);
 1924              		.loc 1 471 3 view .LVU622
 470:Middlewares/Third_Party/LibJPEG/source/jmemmgr.c ****   while (currow < numrows) {
 1925              		.loc 1 470 10 is_stmt 0 view .LVU623
 1926 0032 0024     		movs	r4, #0
 1927              	.LVL201:
 471:Middlewares/Third_Party/LibJPEG/source/jmemmgr.c ****     rowsperchunk = MIN(rowsperchunk, numrows - currow);
 1928              		.loc 1 471 9 view .LVU624
 1929 0034 0DE0     		b	.L124
 1930              	.LVL202:
 1931              	.L130:
 458:Middlewares/Third_Party/LibJPEG/source/jmemmgr.c ****   if (ltemp < (long) numrows)
 1932              		.loc 1 458 5 is_stmt 1 view .LVU625
 1933 0036 0368     		ldr	r3, [r0]
 1934              	.LVL203:
 458:Middlewares/Third_Party/LibJPEG/source/jmemmgr.c ****   if (ltemp < (long) numrows)
 1935              		.loc 1 458 5 is_stmt 0 view .LVU626
 1936 0038 4822     		movs	r2, #72
 1937              	.LVL204:
 458:Middlewares/Third_Party/LibJPEG/source/jmemmgr.c ****   if (ltemp < (long) numrows)
 1938              		.loc 1 458 5 view .LVU627
 1939 003a 5A61     		str	r2, [r3, #20]
 1940 003c 0368     		ldr	r3, [r0]
 1941 003e 1B68     		ldr	r3, [r3]
 1942 0040 9847     		blx	r3
 1943              	.LVL205:
 458:Middlewares/Third_Party/LibJPEG/source/jmemmgr.c ****   if (ltemp < (long) numrows)
 1944              		.loc 1 458 5 view .LVU628
 1945 0042 EBE7     		b	.L122
 1946              	.LVL206:
 1947              	.L126:
 477:Middlewares/Third_Party/LibJPEG/source/jmemmgr.c ****       workspace += blocksperrow;
 1948              		.loc 1 477 7 is_stmt 1 view .LVU629
 477:Middlewares/Third_Party/LibJPEG/source/jmemmgr.c ****       workspace += blocksperrow;
 1949              		.loc 1 477 24 is_stmt 0 view .LVU630
 1950 0044 45F82400 		str	r0, [r5, r4, lsl #2]
 478:Middlewares/Third_Party/LibJPEG/source/jmemmgr.c ****     }
 1951              		.loc 1 478 7 is_stmt 1 view .LVU631
 478:Middlewares/Third_Party/LibJPEG/source/jmemmgr.c ****     }
 1952              		.loc 1 478 17 is_stmt 0 view .LVU632
 1953 0048 3044     		add	r0, r0, r6
ARM GAS  /var/folders/mq/wg13gp494590nh4zyt09lxf00000gn/T//ccRbBij7.s 			page 62


 1954              	.LVL207:
 476:Middlewares/Third_Party/LibJPEG/source/jmemmgr.c ****       result[currow++] = workspace;
 1955              		.loc 1 476 36 is_stmt 1 discriminator 3 view .LVU633
 1956 004a 013B     		subs	r3, r3, #1
 1957              	.LVL208:
 477:Middlewares/Third_Party/LibJPEG/source/jmemmgr.c ****       workspace += blocksperrow;
 1958              		.loc 1 477 20 is_stmt 0 view .LVU634
 1959 004c 0134     		adds	r4, r4, #1
 1960              	.LVL209:
 1961              	.L125:
 476:Middlewares/Third_Party/LibJPEG/source/jmemmgr.c ****       result[currow++] = workspace;
 1962              		.loc 1 476 30 is_stmt 1 discriminator 1 view .LVU635
 1963 004e 002B     		cmp	r3, #0
 1964 0050 F8D1     		bne	.L126
 1965              	.LVL210:
 1966              	.L124:
 471:Middlewares/Third_Party/LibJPEG/source/jmemmgr.c ****     rowsperchunk = MIN(rowsperchunk, numrows - currow);
 1967              		.loc 1 471 17 view .LVU636
 1968 0052 4445     		cmp	r4, r8
 1969 0054 0DD2     		bcs	.L131
 472:Middlewares/Third_Party/LibJPEG/source/jmemmgr.c ****     workspace = (JBLOCKROW) alloc_large(cinfo, pool_id,
 1970              		.loc 1 472 5 view .LVU637
 472:Middlewares/Third_Party/LibJPEG/source/jmemmgr.c ****     workspace = (JBLOCKROW) alloc_large(cinfo, pool_id,
 1971              		.loc 1 472 20 is_stmt 0 view .LVU638
 1972 0056 A8EB0403 		sub	r3, r8, r4
 472:Middlewares/Third_Party/LibJPEG/source/jmemmgr.c ****     workspace = (JBLOCKROW) alloc_large(cinfo, pool_id,
 1973              		.loc 1 472 18 view .LVU639
 1974 005a 9F42     		cmp	r7, r3
 1975 005c 28BF     		it	cs
 1976 005e 1F46     		movcs	r7, r3
 1977              	.LVL211:
 473:Middlewares/Third_Party/LibJPEG/source/jmemmgr.c **** 	(size_t) ((size_t) rowsperchunk * (size_t) blocksperrow
 1978              		.loc 1 473 5 is_stmt 1 view .LVU640
 474:Middlewares/Third_Party/LibJPEG/source/jmemmgr.c **** 		  * SIZEOF(JBLOCK)));
 1979              		.loc 1 474 34 is_stmt 0 view .LVU641
 1980 0060 07FB0BF2 		mul	r2, r7, fp
 473:Middlewares/Third_Party/LibJPEG/source/jmemmgr.c **** 	(size_t) ((size_t) rowsperchunk * (size_t) blocksperrow
 1981              		.loc 1 473 29 view .LVU642
 1982 0064 D201     		lsls	r2, r2, #7
 1983 0066 5146     		mov	r1, r10
 1984 0068 4846     		mov	r0, r9
 1985 006a FFF7FEFF 		bl	alloc_large
 1986              	.LVL212:
 476:Middlewares/Third_Party/LibJPEG/source/jmemmgr.c ****       result[currow++] = workspace;
 1987              		.loc 1 476 5 is_stmt 1 view .LVU643
 476:Middlewares/Third_Party/LibJPEG/source/jmemmgr.c ****       result[currow++] = workspace;
 1988              		.loc 1 476 12 is_stmt 0 view .LVU644
 1989 006e 3B46     		mov	r3, r7
 476:Middlewares/Third_Party/LibJPEG/source/jmemmgr.c ****       result[currow++] = workspace;
 1990              		.loc 1 476 5 view .LVU645
 1991 0070 EDE7     		b	.L125
 1992              	.LVL213:
 1993              	.L131:
 482:Middlewares/Third_Party/LibJPEG/source/jmemmgr.c **** }
 1994              		.loc 1 482 3 is_stmt 1 view .LVU646
 483:Middlewares/Third_Party/LibJPEG/source/jmemmgr.c **** 
 1995              		.loc 1 483 1 is_stmt 0 view .LVU647
ARM GAS  /var/folders/mq/wg13gp494590nh4zyt09lxf00000gn/T//ccRbBij7.s 			page 63


 1996 0072 2846     		mov	r0, r5
 1997 0074 BDE8F88F 		pop	{r3, r4, r5, r6, r7, r8, r9, r10, fp, pc}
 483:Middlewares/Third_Party/LibJPEG/source/jmemmgr.c **** 
 1998              		.loc 1 483 1 view .LVU648
 1999              		.cfi_endproc
 2000              	.LFE151:
 2002              		.section	.text.alloc_sarray,"ax",%progbits
 2003              		.align	1
 2004              		.syntax unified
 2005              		.thumb
 2006              		.thumb_func
 2008              	alloc_sarray:
 2009              	.LVL214:
 2010              	.LFB150:
 399:Middlewares/Third_Party/LibJPEG/source/jmemmgr.c ****   my_mem_ptr mem = (my_mem_ptr) cinfo->mem;
 2011              		.loc 1 399 1 is_stmt 1 view -0
 2012              		.cfi_startproc
 2013              		@ args = 0, pretend = 0, frame = 0
 2014              		@ frame_needed = 0, uses_anonymous_args = 0
 399:Middlewares/Third_Party/LibJPEG/source/jmemmgr.c ****   my_mem_ptr mem = (my_mem_ptr) cinfo->mem;
 2015              		.loc 1 399 1 is_stmt 0 view .LVU650
 2016 0000 2DE9F047 		push	{r4, r5, r6, r7, r8, r9, r10, lr}
 2017              	.LCFI16:
 2018              		.cfi_def_cfa_offset 32
 2019              		.cfi_offset 4, -32
 2020              		.cfi_offset 5, -28
 2021              		.cfi_offset 6, -24
 2022              		.cfi_offset 7, -20
 2023              		.cfi_offset 8, -16
 2024              		.cfi_offset 9, -12
 2025              		.cfi_offset 10, -8
 2026              		.cfi_offset 14, -4
 2027 0004 8146     		mov	r9, r0
 2028 0006 8A46     		mov	r10, r1
 2029 0008 1546     		mov	r5, r2
 2030 000a 9846     		mov	r8, r3
 400:Middlewares/Third_Party/LibJPEG/source/jmemmgr.c ****   JSAMPARRAY result;
 2031              		.loc 1 400 3 is_stmt 1 view .LVU651
 400:Middlewares/Third_Party/LibJPEG/source/jmemmgr.c ****   JSAMPARRAY result;
 2032              		.loc 1 400 14 is_stmt 0 view .LVU652
 2033 000c 4468     		ldr	r4, [r0, #4]
 2034              	.LVL215:
 401:Middlewares/Third_Party/LibJPEG/source/jmemmgr.c ****   JSAMPROW workspace;
 2035              		.loc 1 401 3 is_stmt 1 view .LVU653
 402:Middlewares/Third_Party/LibJPEG/source/jmemmgr.c ****   JDIMENSION rowsperchunk, currow, i;
 2036              		.loc 1 402 3 view .LVU654
 403:Middlewares/Third_Party/LibJPEG/source/jmemmgr.c ****   long ltemp;
 2037              		.loc 1 403 3 view .LVU655
 404:Middlewares/Third_Party/LibJPEG/source/jmemmgr.c **** 
 2038              		.loc 1 404 3 view .LVU656
 407:Middlewares/Third_Party/LibJPEG/source/jmemmgr.c **** 	  ((long) samplesperrow * SIZEOF(JSAMPLE));
 2039              		.loc 1 407 3 view .LVU657
 407:Middlewares/Third_Party/LibJPEG/source/jmemmgr.c **** 	  ((long) samplesperrow * SIZEOF(JSAMPLE));
 2040              		.loc 1 407 52 is_stmt 0 view .LVU658
 2041 000e 4FF6F077 		movw	r7, #65520
 2042 0012 B7FBF2F7 		udiv	r7, r7, r2
 407:Middlewares/Third_Party/LibJPEG/source/jmemmgr.c **** 	  ((long) samplesperrow * SIZEOF(JSAMPLE));
ARM GAS  /var/folders/mq/wg13gp494590nh4zyt09lxf00000gn/T//ccRbBij7.s 			page 64


 2043              		.loc 1 407 9 view .LVU659
 2044 0016 3E46     		mov	r6, r7
 2045              	.LVL216:
 409:Middlewares/Third_Party/LibJPEG/source/jmemmgr.c ****     ERREXIT(cinfo, JERR_WIDTH_OVERFLOW);
 2046              		.loc 1 409 3 is_stmt 1 view .LVU660
 409:Middlewares/Third_Party/LibJPEG/source/jmemmgr.c ****     ERREXIT(cinfo, JERR_WIDTH_OVERFLOW);
 2047              		.loc 1 409 6 is_stmt 0 view .LVU661
 2048 0018 67B1     		cbz	r7, .L141
 2049              	.LVL217:
 2050              	.L133:
 411:Middlewares/Third_Party/LibJPEG/source/jmemmgr.c ****     rowsperchunk = (JDIMENSION) ltemp;
 2051              		.loc 1 411 3 is_stmt 1 view .LVU662
 411:Middlewares/Third_Party/LibJPEG/source/jmemmgr.c ****     rowsperchunk = (JDIMENSION) ltemp;
 2052              		.loc 1 411 6 is_stmt 0 view .LVU663
 2053 001a B045     		cmp	r8, r6
 2054 001c 00DC     		bgt	.L134
 414:Middlewares/Third_Party/LibJPEG/source/jmemmgr.c ****   mem->last_rowsperchunk = rowsperchunk;
 2055              		.loc 1 414 18 view .LVU664
 2056 001e 4746     		mov	r7, r8
 2057              	.L134:
 2058              	.LVL218:
 415:Middlewares/Third_Party/LibJPEG/source/jmemmgr.c **** 
 2059              		.loc 1 415 3 is_stmt 1 view .LVU665
 415:Middlewares/Third_Party/LibJPEG/source/jmemmgr.c **** 
 2060              		.loc 1 415 26 is_stmt 0 view .LVU666
 2061 0020 2765     		str	r7, [r4, #80]
 418:Middlewares/Third_Party/LibJPEG/source/jmemmgr.c **** 				    (size_t) (numrows * SIZEOF(JSAMPROW)));
 2062              		.loc 1 418 3 is_stmt 1 view .LVU667
 418:Middlewares/Third_Party/LibJPEG/source/jmemmgr.c **** 				    (size_t) (numrows * SIZEOF(JSAMPROW)));
 2063              		.loc 1 418 25 is_stmt 0 view .LVU668
 2064 0022 4FEA8802 		lsl	r2, r8, #2
 2065 0026 5146     		mov	r1, r10
 2066 0028 4846     		mov	r0, r9
 2067 002a FFF7FEFF 		bl	alloc_small
 2068              	.LVL219:
 2069 002e 0646     		mov	r6, r0
 2070              	.LVL220:
 422:Middlewares/Third_Party/LibJPEG/source/jmemmgr.c ****   while (currow < numrows) {
 2071              		.loc 1 422 3 is_stmt 1 view .LVU669
 423:Middlewares/Third_Party/LibJPEG/source/jmemmgr.c ****     rowsperchunk = MIN(rowsperchunk, numrows - currow);
 2072              		.loc 1 423 3 view .LVU670
 422:Middlewares/Third_Party/LibJPEG/source/jmemmgr.c ****   while (currow < numrows) {
 2073              		.loc 1 422 10 is_stmt 0 view .LVU671
 2074 0030 0024     		movs	r4, #0
 2075              	.LVL221:
 423:Middlewares/Third_Party/LibJPEG/source/jmemmgr.c ****     rowsperchunk = MIN(rowsperchunk, numrows - currow);
 2076              		.loc 1 423 9 view .LVU672
 2077 0032 0DE0     		b	.L135
 2078              	.LVL222:
 2079              	.L141:
 410:Middlewares/Third_Party/LibJPEG/source/jmemmgr.c ****   if (ltemp < (long) numrows)
 2080              		.loc 1 410 5 is_stmt 1 view .LVU673
 2081 0034 0368     		ldr	r3, [r0]
 2082              	.LVL223:
 410:Middlewares/Third_Party/LibJPEG/source/jmemmgr.c ****   if (ltemp < (long) numrows)
 2083              		.loc 1 410 5 is_stmt 0 view .LVU674
 2084 0036 4822     		movs	r2, #72
ARM GAS  /var/folders/mq/wg13gp494590nh4zyt09lxf00000gn/T//ccRbBij7.s 			page 65


 2085              	.LVL224:
 410:Middlewares/Third_Party/LibJPEG/source/jmemmgr.c ****   if (ltemp < (long) numrows)
 2086              		.loc 1 410 5 view .LVU675
 2087 0038 5A61     		str	r2, [r3, #20]
 2088 003a 0368     		ldr	r3, [r0]
 2089 003c 1B68     		ldr	r3, [r3]
 2090 003e 9847     		blx	r3
 2091              	.LVL225:
 410:Middlewares/Third_Party/LibJPEG/source/jmemmgr.c ****   if (ltemp < (long) numrows)
 2092              		.loc 1 410 5 view .LVU676
 2093 0040 EBE7     		b	.L133
 2094              	.LVL226:
 2095              	.L137:
 429:Middlewares/Third_Party/LibJPEG/source/jmemmgr.c ****       workspace += samplesperrow;
 2096              		.loc 1 429 7 is_stmt 1 view .LVU677
 429:Middlewares/Third_Party/LibJPEG/source/jmemmgr.c ****       workspace += samplesperrow;
 2097              		.loc 1 429 24 is_stmt 0 view .LVU678
 2098 0042 46F82400 		str	r0, [r6, r4, lsl #2]
 430:Middlewares/Third_Party/LibJPEG/source/jmemmgr.c ****     }
 2099              		.loc 1 430 7 is_stmt 1 view .LVU679
 430:Middlewares/Third_Party/LibJPEG/source/jmemmgr.c ****     }
 2100              		.loc 1 430 17 is_stmt 0 view .LVU680
 2101 0046 2844     		add	r0, r0, r5
 2102              	.LVL227:
 428:Middlewares/Third_Party/LibJPEG/source/jmemmgr.c ****       result[currow++] = workspace;
 2103              		.loc 1 428 36 is_stmt 1 discriminator 3 view .LVU681
 2104 0048 013B     		subs	r3, r3, #1
 2105              	.LVL228:
 429:Middlewares/Third_Party/LibJPEG/source/jmemmgr.c ****       workspace += samplesperrow;
 2106              		.loc 1 429 20 is_stmt 0 view .LVU682
 2107 004a 0134     		adds	r4, r4, #1
 2108              	.LVL229:
 2109              	.L136:
 428:Middlewares/Third_Party/LibJPEG/source/jmemmgr.c ****       result[currow++] = workspace;
 2110              		.loc 1 428 30 is_stmt 1 discriminator 1 view .LVU683
 2111 004c 002B     		cmp	r3, #0
 2112 004e F8D1     		bne	.L137
 2113              	.LVL230:
 2114              	.L135:
 423:Middlewares/Third_Party/LibJPEG/source/jmemmgr.c ****     rowsperchunk = MIN(rowsperchunk, numrows - currow);
 2115              		.loc 1 423 17 view .LVU684
 2116 0050 4445     		cmp	r4, r8
 2117 0052 0CD2     		bcs	.L142
 424:Middlewares/Third_Party/LibJPEG/source/jmemmgr.c ****     workspace = (JSAMPROW) alloc_large(cinfo, pool_id,
 2118              		.loc 1 424 5 view .LVU685
 424:Middlewares/Third_Party/LibJPEG/source/jmemmgr.c ****     workspace = (JSAMPROW) alloc_large(cinfo, pool_id,
 2119              		.loc 1 424 20 is_stmt 0 view .LVU686
 2120 0054 A8EB0403 		sub	r3, r8, r4
 424:Middlewares/Third_Party/LibJPEG/source/jmemmgr.c ****     workspace = (JSAMPROW) alloc_large(cinfo, pool_id,
 2121              		.loc 1 424 18 view .LVU687
 2122 0058 9F42     		cmp	r7, r3
 2123 005a 28BF     		it	cs
 2124 005c 1F46     		movcs	r7, r3
 2125              	.LVL231:
 425:Middlewares/Third_Party/LibJPEG/source/jmemmgr.c **** 	(size_t) ((size_t) rowsperchunk * (size_t) samplesperrow
 2126              		.loc 1 425 5 is_stmt 1 view .LVU688
 425:Middlewares/Third_Party/LibJPEG/source/jmemmgr.c **** 	(size_t) ((size_t) rowsperchunk * (size_t) samplesperrow
ARM GAS  /var/folders/mq/wg13gp494590nh4zyt09lxf00000gn/T//ccRbBij7.s 			page 66


 2127              		.loc 1 425 28 is_stmt 0 view .LVU689
 2128 005e 07FB05F2 		mul	r2, r7, r5
 2129 0062 5146     		mov	r1, r10
 2130 0064 4846     		mov	r0, r9
 2131 0066 FFF7FEFF 		bl	alloc_large
 2132              	.LVL232:
 428:Middlewares/Third_Party/LibJPEG/source/jmemmgr.c ****       result[currow++] = workspace;
 2133              		.loc 1 428 5 is_stmt 1 view .LVU690
 428:Middlewares/Third_Party/LibJPEG/source/jmemmgr.c ****       result[currow++] = workspace;
 2134              		.loc 1 428 12 is_stmt 0 view .LVU691
 2135 006a 3B46     		mov	r3, r7
 428:Middlewares/Third_Party/LibJPEG/source/jmemmgr.c ****       result[currow++] = workspace;
 2136              		.loc 1 428 5 view .LVU692
 2137 006c EEE7     		b	.L136
 2138              	.LVL233:
 2139              	.L142:
 434:Middlewares/Third_Party/LibJPEG/source/jmemmgr.c **** }
 2140              		.loc 1 434 3 is_stmt 1 view .LVU693
 435:Middlewares/Third_Party/LibJPEG/source/jmemmgr.c **** 
 2141              		.loc 1 435 1 is_stmt 0 view .LVU694
 2142 006e 3046     		mov	r0, r6
 2143 0070 BDE8F087 		pop	{r4, r5, r6, r7, r8, r9, r10, pc}
 435:Middlewares/Third_Party/LibJPEG/source/jmemmgr.c **** 
 2144              		.loc 1 435 1 view .LVU695
 2145              		.cfi_endproc
 2146              	.LFE150:
 2148              		.section	.text.realize_virt_arrays,"ax",%progbits
 2149              		.align	1
 2150              		.syntax unified
 2151              		.thumb
 2152              		.thumb_func
 2154              	realize_virt_arrays:
 2155              	.LVL234:
 2156              	.LFB154:
 586:Middlewares/Third_Party/LibJPEG/source/jmemmgr.c ****   my_mem_ptr mem = (my_mem_ptr) cinfo->mem;
 2157              		.loc 1 586 1 is_stmt 1 view -0
 2158              		.cfi_startproc
 2159              		@ args = 0, pretend = 0, frame = 0
 2160              		@ frame_needed = 0, uses_anonymous_args = 0
 586:Middlewares/Third_Party/LibJPEG/source/jmemmgr.c ****   my_mem_ptr mem = (my_mem_ptr) cinfo->mem;
 2161              		.loc 1 586 1 is_stmt 0 view .LVU697
 2162 0000 F8B5     		push	{r3, r4, r5, r6, r7, lr}
 2163              	.LCFI17:
 2164              		.cfi_def_cfa_offset 24
 2165              		.cfi_offset 3, -24
 2166              		.cfi_offset 4, -20
 2167              		.cfi_offset 5, -16
 2168              		.cfi_offset 6, -12
 2169              		.cfi_offset 7, -8
 2170              		.cfi_offset 14, -4
 2171 0002 0546     		mov	r5, r0
 587:Middlewares/Third_Party/LibJPEG/source/jmemmgr.c ****   long space_per_minheight, maximum_space, avail_mem;
 2172              		.loc 1 587 3 is_stmt 1 view .LVU698
 587:Middlewares/Third_Party/LibJPEG/source/jmemmgr.c ****   long space_per_minheight, maximum_space, avail_mem;
 2173              		.loc 1 587 14 is_stmt 0 view .LVU699
 2174 0004 4668     		ldr	r6, [r0, #4]
 2175              	.LVL235:
ARM GAS  /var/folders/mq/wg13gp494590nh4zyt09lxf00000gn/T//ccRbBij7.s 			page 67


 588:Middlewares/Third_Party/LibJPEG/source/jmemmgr.c ****   long minheights, max_minheights;
 2176              		.loc 1 588 3 is_stmt 1 view .LVU700
 589:Middlewares/Third_Party/LibJPEG/source/jmemmgr.c ****   jvirt_sarray_ptr sptr;
 2177              		.loc 1 589 3 view .LVU701
 590:Middlewares/Third_Party/LibJPEG/source/jmemmgr.c ****   jvirt_barray_ptr bptr;
 2178              		.loc 1 590 3 view .LVU702
 591:Middlewares/Third_Party/LibJPEG/source/jmemmgr.c **** 
 2179              		.loc 1 591 3 view .LVU703
 597:Middlewares/Third_Party/LibJPEG/source/jmemmgr.c ****   maximum_space = 0;
 2180              		.loc 1 597 3 view .LVU704
 598:Middlewares/Third_Party/LibJPEG/source/jmemmgr.c ****   for (sptr = mem->virt_sarray_list; sptr != NULL; sptr = sptr->next) {
 2181              		.loc 1 598 3 view .LVU705
 599:Middlewares/Third_Party/LibJPEG/source/jmemmgr.c ****     if (sptr->mem_buffer == NULL) { /* if not realized yet */
 2182              		.loc 1 599 3 view .LVU706
 599:Middlewares/Third_Party/LibJPEG/source/jmemmgr.c ****     if (sptr->mem_buffer == NULL) { /* if not realized yet */
 2183              		.loc 1 599 13 is_stmt 0 view .LVU707
 2184 0006 736C     		ldr	r3, [r6, #68]
 2185              	.LVL236:
 598:Middlewares/Third_Party/LibJPEG/source/jmemmgr.c ****   for (sptr = mem->virt_sarray_list; sptr != NULL; sptr = sptr->next) {
 2186              		.loc 1 598 17 view .LVU708
 2187 0008 0024     		movs	r4, #0
 597:Middlewares/Third_Party/LibJPEG/source/jmemmgr.c ****   maximum_space = 0;
 2188              		.loc 1 597 23 view .LVU709
 2189 000a 2746     		mov	r7, r4
