ARM GAS  /var/folders/mq/wg13gp494590nh4zyt09lxf00000gn/T//ccZMG5bD.s 			page 1


   1              		.cpu cortex-m7
   2              		.arch armv7e-m
   3              		.fpu fpv5-d16
   4              		.eabi_attribute 28, 1
   5              		.eabi_attribute 20, 1
   6              		.eabi_attribute 21, 1
   7              		.eabi_attribute 23, 3
   8              		.eabi_attribute 24, 1
   9              		.eabi_attribute 25, 1
  10              		.eabi_attribute 26, 1
  11              		.eabi_attribute 30, 1
  12              		.eabi_attribute 34, 1
  13              		.eabi_attribute 18, 4
  14              		.file	"st7735.c"
  15              		.text
  16              	.Ltext0:
  17              		.cfi_sections	.debug_frame
  18              		.file 1 "Drivers/BSP/ST7735/st7735.c"
  19              		.section	.text.ST7735_DeInit,"ax",%progbits
  20              		.align	1
  21              		.global	ST7735_DeInit
  22              		.syntax unified
  23              		.thumb
  24              		.thumb_func
  26              	ST7735_DeInit:
  27              	.LVL0:
  28              	.LFB2:
   1:Drivers/BSP/ST7735/st7735.c **** /**
   2:Drivers/BSP/ST7735/st7735.c ****   ******************************************************************************
   3:Drivers/BSP/ST7735/st7735.c ****   * @file    st7735.c
   4:Drivers/BSP/ST7735/st7735.c ****   * @author  MCD Application Team
   5:Drivers/BSP/ST7735/st7735.c ****   * @brief   This file includes the driver for ST7735 LCD mounted on the Adafruit
   6:Drivers/BSP/ST7735/st7735.c ****   *          1.8" TFT LCD shield (reference ID 802).
   7:Drivers/BSP/ST7735/st7735.c ****   ******************************************************************************
   8:Drivers/BSP/ST7735/st7735.c ****   * @attention
   9:Drivers/BSP/ST7735/st7735.c ****   *
  10:Drivers/BSP/ST7735/st7735.c ****   * <h2><center>&copy; Copyright (c) 2018 STMicroelectronics.
  11:Drivers/BSP/ST7735/st7735.c ****   * All rights reserved.</center></h2>
  12:Drivers/BSP/ST7735/st7735.c ****   *
  13:Drivers/BSP/ST7735/st7735.c ****   * This software component is licensed by ST under BSD 3-Clause license,
  14:Drivers/BSP/ST7735/st7735.c ****   * the "License"; You may not use this file except in compliance with the
  15:Drivers/BSP/ST7735/st7735.c ****   * License. You may obtain a copy of the License at:
  16:Drivers/BSP/ST7735/st7735.c ****   *                        opensource.org/licenses/BSD-3-Clause
  17:Drivers/BSP/ST7735/st7735.c ****   *
  18:Drivers/BSP/ST7735/st7735.c ****   ******************************************************************************
  19:Drivers/BSP/ST7735/st7735.c ****   */
  20:Drivers/BSP/ST7735/st7735.c **** 
  21:Drivers/BSP/ST7735/st7735.c **** /* Includes ------------------------------------------------------------------*/
  22:Drivers/BSP/ST7735/st7735.c **** #include "st7735.h"
  23:Drivers/BSP/ST7735/st7735.c **** 
  24:Drivers/BSP/ST7735/st7735.c **** /** @addtogroup BSP
  25:Drivers/BSP/ST7735/st7735.c ****   * @{
  26:Drivers/BSP/ST7735/st7735.c ****   */
  27:Drivers/BSP/ST7735/st7735.c **** 
  28:Drivers/BSP/ST7735/st7735.c **** /** @addtogroup Components
  29:Drivers/BSP/ST7735/st7735.c ****   * @{
  30:Drivers/BSP/ST7735/st7735.c ****   */
ARM GAS  /var/folders/mq/wg13gp494590nh4zyt09lxf00000gn/T//ccZMG5bD.s 			page 2


  31:Drivers/BSP/ST7735/st7735.c **** 
  32:Drivers/BSP/ST7735/st7735.c **** 
  33:Drivers/BSP/ST7735/st7735.c **** /**
  34:Drivers/BSP/ST7735/st7735.c ****   * @}
  35:Drivers/BSP/ST7735/st7735.c ****   */
  36:Drivers/BSP/ST7735/st7735.c **** 
  37:Drivers/BSP/ST7735/st7735.c **** /** @defgroup ST7735_Private_Variables Private Variables
  38:Drivers/BSP/ST7735/st7735.c ****   * @{
  39:Drivers/BSP/ST7735/st7735.c ****   */
  40:Drivers/BSP/ST7735/st7735.c **** ST7735_LCD_Drv_t   ST7735_LCD_Driver =
  41:Drivers/BSP/ST7735/st7735.c **** {
  42:Drivers/BSP/ST7735/st7735.c ****   ST7735_Init,
  43:Drivers/BSP/ST7735/st7735.c ****   ST7735_DeInit,
  44:Drivers/BSP/ST7735/st7735.c ****   ST7735_ReadID,
  45:Drivers/BSP/ST7735/st7735.c ****   ST7735_DisplayOn,
  46:Drivers/BSP/ST7735/st7735.c ****   ST7735_DisplayOff,
  47:Drivers/BSP/ST7735/st7735.c ****   ST7735_SetBrightness,
  48:Drivers/BSP/ST7735/st7735.c ****   ST7735_GetBrightness,
  49:Drivers/BSP/ST7735/st7735.c ****   ST7735_SetOrientation,
  50:Drivers/BSP/ST7735/st7735.c ****   ST7735_GetOrientation,
  51:Drivers/BSP/ST7735/st7735.c ****   ST7735_SetCursor,
  52:Drivers/BSP/ST7735/st7735.c ****   ST7735_DrawBitmap,
  53:Drivers/BSP/ST7735/st7735.c ****   ST7735_FillRGBRect,
  54:Drivers/BSP/ST7735/st7735.c ****   ST7735_DrawHLine,
  55:Drivers/BSP/ST7735/st7735.c ****   ST7735_DrawVLine,
  56:Drivers/BSP/ST7735/st7735.c ****   ST7735_FillRect,
  57:Drivers/BSP/ST7735/st7735.c ****   ST7735_GetPixel,
  58:Drivers/BSP/ST7735/st7735.c ****   ST7735_SetPixel,
  59:Drivers/BSP/ST7735/st7735.c ****   ST7735_GetXSize,
  60:Drivers/BSP/ST7735/st7735.c ****   ST7735_GetYSize,
  61:Drivers/BSP/ST7735/st7735.c **** };
  62:Drivers/BSP/ST7735/st7735.c **** 
  63:Drivers/BSP/ST7735/st7735.c **** /* The below table handle the different values to be set to Memory Data Access Control
  64:Drivers/BSP/ST7735/st7735.c ****    depending on the orientation and pbm image writing where the data order is inverted
  65:Drivers/BSP/ST7735/st7735.c **** */
  66:Drivers/BSP/ST7735/st7735.c **** static uint32_t OrientationTab[4][2] =
  67:Drivers/BSP/ST7735/st7735.c **** {
  68:Drivers/BSP/ST7735/st7735.c ****   {0x40U , 0xC0U}, /* Portrait orientation choice of LCD screen               */
  69:Drivers/BSP/ST7735/st7735.c ****   {0x80U , 0x00U}, /* Portrait rotated 180° orientation choice of LCD screen  */
  70:Drivers/BSP/ST7735/st7735.c ****   {0x20U , 0x60U}, /* Landscape orientation choice of LCD screen              */
  71:Drivers/BSP/ST7735/st7735.c ****   {0xE0U , 0xA0U}  /* Landscape rotated 180° orientation choice of LCD screen */
  72:Drivers/BSP/ST7735/st7735.c **** };
  73:Drivers/BSP/ST7735/st7735.c **** 
  74:Drivers/BSP/ST7735/st7735.c **** ST7735_Ctx_t ST7735Ctx;
  75:Drivers/BSP/ST7735/st7735.c **** /**
  76:Drivers/BSP/ST7735/st7735.c ****   * @}
  77:Drivers/BSP/ST7735/st7735.c ****   */
  78:Drivers/BSP/ST7735/st7735.c **** 
  79:Drivers/BSP/ST7735/st7735.c **** /** @defgroup ST7735_Private_FunctionsPrototypes Private Functions Prototypes
  80:Drivers/BSP/ST7735/st7735.c ****   * @{
  81:Drivers/BSP/ST7735/st7735.c ****   */
  82:Drivers/BSP/ST7735/st7735.c **** static int32_t ST7735_SetDisplayWindow(ST7735_Object_t *pObj, uint32_t Xpos, uint32_t Ypos, uint32_
  83:Drivers/BSP/ST7735/st7735.c **** static int32_t ST7735_ReadRegWrap(void *Handle, uint8_t Reg, uint8_t* pData);
  84:Drivers/BSP/ST7735/st7735.c **** static int32_t ST7735_WriteRegWrap(void *Handle, uint8_t Reg, uint8_t *pData, uint32_t Length);
  85:Drivers/BSP/ST7735/st7735.c **** static int32_t ST7735_SendDataWrap(void *Handle, uint8_t *pData, uint32_t Length);
  86:Drivers/BSP/ST7735/st7735.c **** static int32_t ST7735_RecvDataWrap(void *Handle, uint8_t *pData, uint32_t Length);
  87:Drivers/BSP/ST7735/st7735.c **** static int32_t ST7735_IO_Delay(ST7735_Object_t *pObj, uint32_t Delay);
ARM GAS  /var/folders/mq/wg13gp494590nh4zyt09lxf00000gn/T//ccZMG5bD.s 			page 3


  88:Drivers/BSP/ST7735/st7735.c **** /**
  89:Drivers/BSP/ST7735/st7735.c **** * @}
  90:Drivers/BSP/ST7735/st7735.c **** */
  91:Drivers/BSP/ST7735/st7735.c **** 
  92:Drivers/BSP/ST7735/st7735.c **** /** @addtogroup ST7735_Exported_Functions
  93:Drivers/BSP/ST7735/st7735.c ****   * @{
  94:Drivers/BSP/ST7735/st7735.c ****   */
  95:Drivers/BSP/ST7735/st7735.c **** /**
  96:Drivers/BSP/ST7735/st7735.c ****   * @brief  Register component IO bus
  97:Drivers/BSP/ST7735/st7735.c ****   * @param  pObj Component object pointer
  98:Drivers/BSP/ST7735/st7735.c ****   * @param  pIO  Component IO structure pointer
  99:Drivers/BSP/ST7735/st7735.c ****   * @retval Component status
 100:Drivers/BSP/ST7735/st7735.c ****   */
 101:Drivers/BSP/ST7735/st7735.c **** int32_t ST7735_RegisterBusIO (ST7735_Object_t *pObj, ST7735_IO_t *pIO)
 102:Drivers/BSP/ST7735/st7735.c **** {
 103:Drivers/BSP/ST7735/st7735.c ****   int32_t ret;
 104:Drivers/BSP/ST7735/st7735.c **** 
 105:Drivers/BSP/ST7735/st7735.c ****   if(pObj == NULL)
 106:Drivers/BSP/ST7735/st7735.c ****   {
 107:Drivers/BSP/ST7735/st7735.c ****     ret = ST7735_ERROR;
 108:Drivers/BSP/ST7735/st7735.c ****   }
 109:Drivers/BSP/ST7735/st7735.c ****   else
 110:Drivers/BSP/ST7735/st7735.c ****   {
 111:Drivers/BSP/ST7735/st7735.c ****     pObj->IO.Init      = pIO->Init;
 112:Drivers/BSP/ST7735/st7735.c ****     pObj->IO.DeInit    = pIO->DeInit;
 113:Drivers/BSP/ST7735/st7735.c ****     pObj->IO.Address   = pIO->Address;
 114:Drivers/BSP/ST7735/st7735.c ****     pObj->IO.WriteReg  = pIO->WriteReg;
 115:Drivers/BSP/ST7735/st7735.c ****     pObj->IO.ReadReg   = pIO->ReadReg;
 116:Drivers/BSP/ST7735/st7735.c ****     pObj->IO.SendData  = pIO->SendData;
 117:Drivers/BSP/ST7735/st7735.c ****     pObj->IO.RecvData  = pIO->RecvData;
 118:Drivers/BSP/ST7735/st7735.c ****     pObj->IO.GetTick   = pIO->GetTick;
 119:Drivers/BSP/ST7735/st7735.c **** 
 120:Drivers/BSP/ST7735/st7735.c ****     pObj->Ctx.ReadReg   = ST7735_ReadRegWrap;
 121:Drivers/BSP/ST7735/st7735.c ****     pObj->Ctx.WriteReg  = ST7735_WriteRegWrap;
 122:Drivers/BSP/ST7735/st7735.c ****     pObj->Ctx.SendData  = ST7735_SendDataWrap;
 123:Drivers/BSP/ST7735/st7735.c ****     pObj->Ctx.RecvData  = ST7735_RecvDataWrap;
 124:Drivers/BSP/ST7735/st7735.c ****     pObj->Ctx.handle    = pObj;
 125:Drivers/BSP/ST7735/st7735.c **** 
 126:Drivers/BSP/ST7735/st7735.c ****     if(pObj->IO.Init != NULL)
 127:Drivers/BSP/ST7735/st7735.c ****     {
 128:Drivers/BSP/ST7735/st7735.c ****       ret = pObj->IO.Init();
 129:Drivers/BSP/ST7735/st7735.c ****     }
 130:Drivers/BSP/ST7735/st7735.c ****     else
 131:Drivers/BSP/ST7735/st7735.c ****     {
 132:Drivers/BSP/ST7735/st7735.c ****       ret = ST7735_ERROR;
 133:Drivers/BSP/ST7735/st7735.c ****     }
 134:Drivers/BSP/ST7735/st7735.c ****   }
 135:Drivers/BSP/ST7735/st7735.c **** 
 136:Drivers/BSP/ST7735/st7735.c ****   return ret;
 137:Drivers/BSP/ST7735/st7735.c **** }
 138:Drivers/BSP/ST7735/st7735.c **** 
 139:Drivers/BSP/ST7735/st7735.c **** /**
 140:Drivers/BSP/ST7735/st7735.c ****   * @brief  Initialize the st7735 LCD Component.
 141:Drivers/BSP/ST7735/st7735.c ****   * @param  pObj Component object
 142:Drivers/BSP/ST7735/st7735.c ****   * @param  ColorCoding RGB mode
 143:Drivers/BSP/ST7735/st7735.c ****   * @param  Orientation Display orientation
 144:Drivers/BSP/ST7735/st7735.c ****   * @retval Component status
ARM GAS  /var/folders/mq/wg13gp494590nh4zyt09lxf00000gn/T//ccZMG5bD.s 			page 4


 145:Drivers/BSP/ST7735/st7735.c ****   */
 146:Drivers/BSP/ST7735/st7735.c **** int32_t ST7735_Init(ST7735_Object_t *pObj, uint32_t ColorCoding, ST7735_Ctx_t *pDriver)
 147:Drivers/BSP/ST7735/st7735.c **** {
 148:Drivers/BSP/ST7735/st7735.c ****   uint8_t tmp;
 149:Drivers/BSP/ST7735/st7735.c ****   int32_t ret;
 150:Drivers/BSP/ST7735/st7735.c **** 
 151:Drivers/BSP/ST7735/st7735.c ****   if(pObj == NULL)
 152:Drivers/BSP/ST7735/st7735.c ****   {
 153:Drivers/BSP/ST7735/st7735.c ****     ret = ST7735_ERROR;
 154:Drivers/BSP/ST7735/st7735.c ****   }
 155:Drivers/BSP/ST7735/st7735.c ****   else
 156:Drivers/BSP/ST7735/st7735.c ****   {
 157:Drivers/BSP/ST7735/st7735.c **** 		/* Out of sleep mode, 0 args, delay 120ms */
 158:Drivers/BSP/ST7735/st7735.c ****     tmp = 0x00U;
 159:Drivers/BSP/ST7735/st7735.c ****     ret = st7735_write_reg(&pObj->Ctx, ST7735_SW_RESET, &tmp, 0);
 160:Drivers/BSP/ST7735/st7735.c **** 		(void)ST7735_IO_Delay(pObj, 120);
 161:Drivers/BSP/ST7735/st7735.c **** 		
 162:Drivers/BSP/ST7735/st7735.c **** 		tmp = 0x00U;
 163:Drivers/BSP/ST7735/st7735.c ****     ret = st7735_write_reg(&pObj->Ctx, ST7735_SW_RESET, &tmp, 0);
 164:Drivers/BSP/ST7735/st7735.c **** 		(void)ST7735_IO_Delay(pObj, 120);
 165:Drivers/BSP/ST7735/st7735.c **** 		
 166:Drivers/BSP/ST7735/st7735.c ****     /* Out of sleep mode, 0 args, no delay */
 167:Drivers/BSP/ST7735/st7735.c ****     tmp = 0x00U;
 168:Drivers/BSP/ST7735/st7735.c ****     ret += st7735_write_reg(&pObj->Ctx, ST7735_SLEEP_OUT, &tmp, 1);
 169:Drivers/BSP/ST7735/st7735.c ****     
 170:Drivers/BSP/ST7735/st7735.c **** 		/* Frame rate ctrl - normal mode, 3 args:Rate = fosc/(1x2+40) * (LINE+2C+2D)*/
 171:Drivers/BSP/ST7735/st7735.c ****     ret += st7735_write_reg(&pObj->Ctx, ST7735_FRAME_RATE_CTRL1, &tmp, 0);
 172:Drivers/BSP/ST7735/st7735.c ****     tmp = 0x01U;
 173:Drivers/BSP/ST7735/st7735.c ****     ret += st7735_send_data(&pObj->Ctx, &tmp, 1);
 174:Drivers/BSP/ST7735/st7735.c ****     tmp = 0x2CU;
 175:Drivers/BSP/ST7735/st7735.c ****     ret += st7735_send_data(&pObj->Ctx, &tmp, 1);
 176:Drivers/BSP/ST7735/st7735.c ****     tmp = 0x2DU;
 177:Drivers/BSP/ST7735/st7735.c ****     ret += st7735_send_data(&pObj->Ctx, &tmp, 1);
 178:Drivers/BSP/ST7735/st7735.c **** 
 179:Drivers/BSP/ST7735/st7735.c ****     /* Frame rate control - idle mode, 3 args:Rate = fosc/(1x2+40) * (LINE+2C+2D) */
 180:Drivers/BSP/ST7735/st7735.c ****     tmp = 0x01U;
 181:Drivers/BSP/ST7735/st7735.c ****     ret += st7735_write_reg(&pObj->Ctx, ST7735_FRAME_RATE_CTRL2, &tmp, 1);
 182:Drivers/BSP/ST7735/st7735.c ****     tmp = 0x2CU;
 183:Drivers/BSP/ST7735/st7735.c ****     ret += st7735_send_data(&pObj->Ctx, &tmp, 1);
 184:Drivers/BSP/ST7735/st7735.c ****     tmp = 0x2DU;
 185:Drivers/BSP/ST7735/st7735.c ****     ret += st7735_send_data(&pObj->Ctx, &tmp, 1);
 186:Drivers/BSP/ST7735/st7735.c **** 
 187:Drivers/BSP/ST7735/st7735.c ****     /* Frame rate ctrl - partial mode, 6 args: Dot inversion mode, Line inversion mode */
 188:Drivers/BSP/ST7735/st7735.c ****     tmp = 0x01U;
 189:Drivers/BSP/ST7735/st7735.c ****     ret += st7735_write_reg(&pObj->Ctx, ST7735_FRAME_RATE_CTRL3, &tmp, 1);
 190:Drivers/BSP/ST7735/st7735.c ****     tmp = 0x2CU;
 191:Drivers/BSP/ST7735/st7735.c ****     ret += st7735_send_data(&pObj->Ctx, &tmp, 1);
 192:Drivers/BSP/ST7735/st7735.c ****     tmp = 0x2DU;
 193:Drivers/BSP/ST7735/st7735.c ****     ret += st7735_send_data(&pObj->Ctx, &tmp, 1);
 194:Drivers/BSP/ST7735/st7735.c ****     tmp = 0x01U;
 195:Drivers/BSP/ST7735/st7735.c ****     ret += st7735_send_data(&pObj->Ctx, &tmp, 1);
 196:Drivers/BSP/ST7735/st7735.c ****     tmp = 0x2CU;
 197:Drivers/BSP/ST7735/st7735.c ****     ret += st7735_send_data(&pObj->Ctx, &tmp, 1);
 198:Drivers/BSP/ST7735/st7735.c ****     tmp = 0x2DU;
 199:Drivers/BSP/ST7735/st7735.c ****     ret += st7735_send_data(&pObj->Ctx, &tmp, 1);
 200:Drivers/BSP/ST7735/st7735.c **** 
 201:Drivers/BSP/ST7735/st7735.c ****     /* Display inversion ctrl, 1 arg, no delay: No inversion */
ARM GAS  /var/folders/mq/wg13gp494590nh4zyt09lxf00000gn/T//ccZMG5bD.s 			page 5


 202:Drivers/BSP/ST7735/st7735.c ****     tmp = 0x07U;
 203:Drivers/BSP/ST7735/st7735.c ****     ret += st7735_write_reg(&pObj->Ctx, ST7735_FRAME_INVERSION_CTRL, &tmp, 1);
 204:Drivers/BSP/ST7735/st7735.c **** 
 205:Drivers/BSP/ST7735/st7735.c ****     /* Power control, 3 args, no delay: -4.6V , AUTO mode */
 206:Drivers/BSP/ST7735/st7735.c ****     tmp = 0xA2U;
 207:Drivers/BSP/ST7735/st7735.c ****     ret += st7735_write_reg(&pObj->Ctx, ST7735_PWR_CTRL1, &tmp, 1);
 208:Drivers/BSP/ST7735/st7735.c ****     tmp = 0x02U;
 209:Drivers/BSP/ST7735/st7735.c ****     ret += st7735_send_data(&pObj->Ctx, &tmp, 1);
 210:Drivers/BSP/ST7735/st7735.c ****     tmp = 0x84U;
 211:Drivers/BSP/ST7735/st7735.c ****     ret += st7735_send_data(&pObj->Ctx, &tmp, 1);
 212:Drivers/BSP/ST7735/st7735.c **** 
 213:Drivers/BSP/ST7735/st7735.c ****     /* Power control, 1 arg, no delay: VGH25 = 2.4C VGSEL = -10 VGH = 3 * AVDD */
 214:Drivers/BSP/ST7735/st7735.c ****     tmp = 0xC5U;
 215:Drivers/BSP/ST7735/st7735.c ****     ret += st7735_write_reg(&pObj->Ctx, ST7735_PWR_CTRL2, &tmp, 1);
 216:Drivers/BSP/ST7735/st7735.c **** 
 217:Drivers/BSP/ST7735/st7735.c ****     /* Power control, 2 args, no delay: Opamp current small, Boost frequency */
 218:Drivers/BSP/ST7735/st7735.c ****     tmp = 0x0AU;
 219:Drivers/BSP/ST7735/st7735.c ****     ret += st7735_write_reg(&pObj->Ctx, ST7735_PWR_CTRL3, &tmp, 1);
 220:Drivers/BSP/ST7735/st7735.c ****     tmp = 0x00U;
 221:Drivers/BSP/ST7735/st7735.c ****     ret += st7735_send_data(&pObj->Ctx, &tmp, 1);
 222:Drivers/BSP/ST7735/st7735.c **** 
 223:Drivers/BSP/ST7735/st7735.c ****     /* Power control, 2 args, no delay: BCLK/2, Opamp current small & Medium low */
 224:Drivers/BSP/ST7735/st7735.c ****     tmp = 0x8AU;
 225:Drivers/BSP/ST7735/st7735.c ****     ret += st7735_write_reg(&pObj->Ctx, ST7735_PWR_CTRL4, &tmp, 1);
 226:Drivers/BSP/ST7735/st7735.c ****     tmp = 0x2AU;
 227:Drivers/BSP/ST7735/st7735.c ****     ret += st7735_send_data(&pObj->Ctx, &tmp, 1);
 228:Drivers/BSP/ST7735/st7735.c **** 
 229:Drivers/BSP/ST7735/st7735.c ****     /* Power control, 2 args, no delay */
 230:Drivers/BSP/ST7735/st7735.c ****     tmp = 0x8AU;
 231:Drivers/BSP/ST7735/st7735.c ****     ret += st7735_write_reg(&pObj->Ctx, ST7735_PWR_CTRL5, &tmp, 1);
 232:Drivers/BSP/ST7735/st7735.c ****     tmp = 0xEEU;
 233:Drivers/BSP/ST7735/st7735.c ****     ret += st7735_send_data(&pObj->Ctx, &tmp, 1);
 234:Drivers/BSP/ST7735/st7735.c **** 
 235:Drivers/BSP/ST7735/st7735.c ****     /* Power control, 1 arg, no delay */
 236:Drivers/BSP/ST7735/st7735.c ****     tmp = 0x0EU;
 237:Drivers/BSP/ST7735/st7735.c ****     ret += st7735_write_reg(&pObj->Ctx, ST7735_VCOMH_VCOML_CTRL1, &tmp, 1);
 238:Drivers/BSP/ST7735/st7735.c **** 
 239:Drivers/BSP/ST7735/st7735.c **** 		/* choose panel*/
 240:Drivers/BSP/ST7735/st7735.c **** 		if (pDriver->Panel == HannStar_Panel) {
 241:Drivers/BSP/ST7735/st7735.c **** 			ret += st7735_write_reg(&pObj->Ctx, ST7735_DISPLAY_INVERSION_ON, &tmp, 0);
 242:Drivers/BSP/ST7735/st7735.c **** 		} else {
 243:Drivers/BSP/ST7735/st7735.c **** 			ret += st7735_write_reg(&pObj->Ctx, ST7735_DISPLAY_INVERSION_OFF, &tmp, 0);
 244:Drivers/BSP/ST7735/st7735.c **** 		}
 245:Drivers/BSP/ST7735/st7735.c ****     /* Set color mode, 1 arg, no delay */
 246:Drivers/BSP/ST7735/st7735.c ****     ret += st7735_write_reg(&pObj->Ctx, ST7735_COLOR_MODE, (uint8_t*)&ColorCoding, 1);
 247:Drivers/BSP/ST7735/st7735.c **** 
 248:Drivers/BSP/ST7735/st7735.c ****     /* Magical unicorn dust, 16 args, no delay */
 249:Drivers/BSP/ST7735/st7735.c ****     tmp = 0x02U;
 250:Drivers/BSP/ST7735/st7735.c ****     ret += st7735_write_reg(&pObj->Ctx, ST7735_PV_GAMMA_CTRL, &tmp, 1);
 251:Drivers/BSP/ST7735/st7735.c ****     tmp = 0x1CU;
 252:Drivers/BSP/ST7735/st7735.c ****     ret += st7735_send_data(&pObj->Ctx, &tmp, 1);
 253:Drivers/BSP/ST7735/st7735.c ****     tmp = 0x07U;
 254:Drivers/BSP/ST7735/st7735.c ****     ret += st7735_send_data(&pObj->Ctx, &tmp, 1);
 255:Drivers/BSP/ST7735/st7735.c ****     tmp = 0x12U;
 256:Drivers/BSP/ST7735/st7735.c ****     ret += st7735_send_data(&pObj->Ctx, &tmp, 1);
 257:Drivers/BSP/ST7735/st7735.c ****     tmp = 0x37U;
 258:Drivers/BSP/ST7735/st7735.c ****     ret += st7735_send_data(&pObj->Ctx, &tmp, 1);
ARM GAS  /var/folders/mq/wg13gp494590nh4zyt09lxf00000gn/T//ccZMG5bD.s 			page 6


 259:Drivers/BSP/ST7735/st7735.c ****     tmp = 0x32U;
 260:Drivers/BSP/ST7735/st7735.c ****     ret += st7735_send_data(&pObj->Ctx, &tmp, 1);
 261:Drivers/BSP/ST7735/st7735.c ****     tmp = 0x29U;
 262:Drivers/BSP/ST7735/st7735.c ****     ret += st7735_send_data(&pObj->Ctx, &tmp, 1);
 263:Drivers/BSP/ST7735/st7735.c ****     tmp = 0x2DU;
 264:Drivers/BSP/ST7735/st7735.c ****     ret += st7735_send_data(&pObj->Ctx, &tmp, 1);
 265:Drivers/BSP/ST7735/st7735.c ****     tmp = 0x29U;
 266:Drivers/BSP/ST7735/st7735.c ****     ret += st7735_send_data(&pObj->Ctx, &tmp, 1);
 267:Drivers/BSP/ST7735/st7735.c ****     tmp = 0x25U;
 268:Drivers/BSP/ST7735/st7735.c ****     ret += st7735_send_data(&pObj->Ctx, &tmp, 1);
 269:Drivers/BSP/ST7735/st7735.c ****     tmp = 0x2BU;
 270:Drivers/BSP/ST7735/st7735.c ****     ret += st7735_send_data(&pObj->Ctx, &tmp, 1);
 271:Drivers/BSP/ST7735/st7735.c ****     tmp = 0x39U;
 272:Drivers/BSP/ST7735/st7735.c ****     ret += st7735_send_data(&pObj->Ctx, &tmp, 1);
 273:Drivers/BSP/ST7735/st7735.c ****     tmp = 0x00U;
 274:Drivers/BSP/ST7735/st7735.c ****     ret += st7735_send_data(&pObj->Ctx, &tmp, 1);
 275:Drivers/BSP/ST7735/st7735.c ****     tmp = 0x01U;
 276:Drivers/BSP/ST7735/st7735.c ****     ret += st7735_send_data(&pObj->Ctx, &tmp, 1);
 277:Drivers/BSP/ST7735/st7735.c ****     tmp = 0x03U;
 278:Drivers/BSP/ST7735/st7735.c ****     ret += st7735_send_data(&pObj->Ctx, &tmp, 1);
 279:Drivers/BSP/ST7735/st7735.c ****     tmp = 0x10U;
 280:Drivers/BSP/ST7735/st7735.c ****     ret += st7735_send_data(&pObj->Ctx, &tmp, 1);
 281:Drivers/BSP/ST7735/st7735.c **** 
 282:Drivers/BSP/ST7735/st7735.c ****     /* Sparkles and rainbows, 16 args, no delay */
 283:Drivers/BSP/ST7735/st7735.c ****     tmp = 0x03U;
 284:Drivers/BSP/ST7735/st7735.c ****     ret += st7735_write_reg(&pObj->Ctx, ST7735_NV_GAMMA_CTRL, &tmp, 1);
 285:Drivers/BSP/ST7735/st7735.c ****     tmp = 0x1DU;
 286:Drivers/BSP/ST7735/st7735.c ****     ret += st7735_send_data(&pObj->Ctx, &tmp, 1);
 287:Drivers/BSP/ST7735/st7735.c ****     tmp = 0x07U;
 288:Drivers/BSP/ST7735/st7735.c ****     ret += st7735_send_data(&pObj->Ctx, &tmp, 1);
 289:Drivers/BSP/ST7735/st7735.c ****     tmp = 0x06U;
 290:Drivers/BSP/ST7735/st7735.c ****     ret += st7735_send_data(&pObj->Ctx, &tmp, 1);
 291:Drivers/BSP/ST7735/st7735.c ****     tmp = 0x2EU;
 292:Drivers/BSP/ST7735/st7735.c ****     ret += st7735_send_data(&pObj->Ctx, &tmp, 1);
 293:Drivers/BSP/ST7735/st7735.c ****     tmp = 0x2CU;
 294:Drivers/BSP/ST7735/st7735.c ****     ret += st7735_send_data(&pObj->Ctx, &tmp, 1);
 295:Drivers/BSP/ST7735/st7735.c ****     tmp = 0x29U;
 296:Drivers/BSP/ST7735/st7735.c ****     ret += st7735_send_data(&pObj->Ctx, &tmp, 1);
 297:Drivers/BSP/ST7735/st7735.c ****     tmp = 0x2DU;
 298:Drivers/BSP/ST7735/st7735.c ****     ret += st7735_send_data(&pObj->Ctx, &tmp, 1);
 299:Drivers/BSP/ST7735/st7735.c ****     tmp = 0x2EU;
 300:Drivers/BSP/ST7735/st7735.c ****     ret += st7735_send_data(&pObj->Ctx, &tmp, 1);
 301:Drivers/BSP/ST7735/st7735.c ****     tmp = 0x2EU;
 302:Drivers/BSP/ST7735/st7735.c ****     ret += st7735_send_data(&pObj->Ctx, &tmp, 1);
 303:Drivers/BSP/ST7735/st7735.c ****     tmp = 0x37U;
 304:Drivers/BSP/ST7735/st7735.c ****     ret += st7735_send_data(&pObj->Ctx, &tmp, 1);
 305:Drivers/BSP/ST7735/st7735.c ****     tmp = 0x3FU;
 306:Drivers/BSP/ST7735/st7735.c ****     ret += st7735_send_data(&pObj->Ctx, &tmp, 1);
 307:Drivers/BSP/ST7735/st7735.c ****     tmp = 0x00U;
 308:Drivers/BSP/ST7735/st7735.c ****     ret += st7735_send_data(&pObj->Ctx, &tmp, 1);
 309:Drivers/BSP/ST7735/st7735.c ****     tmp = 0x00U;
 310:Drivers/BSP/ST7735/st7735.c ****     ret += st7735_send_data(&pObj->Ctx, &tmp, 1);
 311:Drivers/BSP/ST7735/st7735.c ****     tmp = 0x02U;
 312:Drivers/BSP/ST7735/st7735.c ****     ret += st7735_send_data(&pObj->Ctx, &tmp, 1);
 313:Drivers/BSP/ST7735/st7735.c ****     tmp = 0x10U;
 314:Drivers/BSP/ST7735/st7735.c ****     ret += st7735_send_data(&pObj->Ctx, &tmp, 1);
 315:Drivers/BSP/ST7735/st7735.c **** 
ARM GAS  /var/folders/mq/wg13gp494590nh4zyt09lxf00000gn/T//ccZMG5bD.s 			page 7


 316:Drivers/BSP/ST7735/st7735.c ****     /* Normal display on, no args, no delay */
 317:Drivers/BSP/ST7735/st7735.c ****     tmp  = 0x00U;
 318:Drivers/BSP/ST7735/st7735.c ****     ret += st7735_write_reg(&pObj->Ctx, ST7735_NORMAL_DISPLAY_OFF, &tmp, 1);
 319:Drivers/BSP/ST7735/st7735.c **** 
 320:Drivers/BSP/ST7735/st7735.c ****     /* Main screen turn on, no delay */
 321:Drivers/BSP/ST7735/st7735.c ****     ret += st7735_write_reg(&pObj->Ctx, ST7735_DISPLAY_ON, &tmp, 1);
 322:Drivers/BSP/ST7735/st7735.c **** 
 323:Drivers/BSP/ST7735/st7735.c ****     /* Set the display Orientation and the default display window */
 324:Drivers/BSP/ST7735/st7735.c ****     ret += ST7735_SetOrientation(pObj, pDriver);
 325:Drivers/BSP/ST7735/st7735.c ****   }
 326:Drivers/BSP/ST7735/st7735.c **** 
 327:Drivers/BSP/ST7735/st7735.c ****   if(ret != ST7735_OK)
 328:Drivers/BSP/ST7735/st7735.c ****   {
 329:Drivers/BSP/ST7735/st7735.c ****     ret = ST7735_ERROR;
 330:Drivers/BSP/ST7735/st7735.c ****   }
 331:Drivers/BSP/ST7735/st7735.c **** 
 332:Drivers/BSP/ST7735/st7735.c ****   return ret;
 333:Drivers/BSP/ST7735/st7735.c **** }
 334:Drivers/BSP/ST7735/st7735.c **** 
 335:Drivers/BSP/ST7735/st7735.c **** /**
 336:Drivers/BSP/ST7735/st7735.c ****   * @brief  De-Initialize the st7735 LCD Component.
 337:Drivers/BSP/ST7735/st7735.c ****   * @param  pObj Component object
 338:Drivers/BSP/ST7735/st7735.c ****   * @retval Component status
 339:Drivers/BSP/ST7735/st7735.c ****   */
 340:Drivers/BSP/ST7735/st7735.c **** int32_t ST7735_DeInit(ST7735_Object_t *pObj)
 341:Drivers/BSP/ST7735/st7735.c **** {
  29              		.loc 1 341 1 view -0
  30              		.cfi_startproc
  31              		@ args = 0, pretend = 0, frame = 0
  32              		@ frame_needed = 0, uses_anonymous_args = 0
  33              		@ link register save eliminated.
 342:Drivers/BSP/ST7735/st7735.c ****   (void)(pObj);
  34              		.loc 1 342 3 view .LVU1
 343:Drivers/BSP/ST7735/st7735.c **** 
 344:Drivers/BSP/ST7735/st7735.c ****   return ST7735_OK;
  35              		.loc 1 344 3 view .LVU2
 345:Drivers/BSP/ST7735/st7735.c **** }
  36              		.loc 1 345 1 is_stmt 0 view .LVU3
  37 0000 0020     		movs	r0, #0
  38              	.LVL1:
  39              		.loc 1 345 1 view .LVU4
  40 0002 7047     		bx	lr
  41              		.cfi_endproc
  42              	.LFE2:
  44              		.section	.text.ST7735_SetBrightness,"ax",%progbits
  45              		.align	1
  46              		.global	ST7735_SetBrightness
  47              		.syntax unified
  48              		.thumb
  49              		.thumb_func
  51              	ST7735_SetBrightness:
  52              	.LVL2:
  53              	.LFB6:
 346:Drivers/BSP/ST7735/st7735.c **** 
 347:Drivers/BSP/ST7735/st7735.c **** /**
 348:Drivers/BSP/ST7735/st7735.c ****   * @brief  Get the st7735 ID.
 349:Drivers/BSP/ST7735/st7735.c ****   * @param  pObj Component object
ARM GAS  /var/folders/mq/wg13gp494590nh4zyt09lxf00000gn/T//ccZMG5bD.s 			page 8


 350:Drivers/BSP/ST7735/st7735.c ****   * @param  Id Component ID
 351:Drivers/BSP/ST7735/st7735.c ****   * @retval The component status
 352:Drivers/BSP/ST7735/st7735.c ****   */
 353:Drivers/BSP/ST7735/st7735.c **** int32_t ST7735_ReadID(ST7735_Object_t *pObj, uint32_t *Id)
 354:Drivers/BSP/ST7735/st7735.c **** {
 355:Drivers/BSP/ST7735/st7735.c ****   int32_t ret;
 356:Drivers/BSP/ST7735/st7735.c ****   uint8_t tmp[3];
 357:Drivers/BSP/ST7735/st7735.c **** 
 358:Drivers/BSP/ST7735/st7735.c ****   if(st7735_read_reg(&pObj->Ctx, ST7735_READ_ID1, &tmp[0]) != ST7735_OK)
 359:Drivers/BSP/ST7735/st7735.c ****   {
 360:Drivers/BSP/ST7735/st7735.c ****     ret = ST7735_ERROR;
 361:Drivers/BSP/ST7735/st7735.c ****   }
 362:Drivers/BSP/ST7735/st7735.c ****   else if(st7735_read_reg(&pObj->Ctx, ST7735_READ_ID2, &tmp[1]) != ST7735_OK)
 363:Drivers/BSP/ST7735/st7735.c ****   {
 364:Drivers/BSP/ST7735/st7735.c ****     ret = ST7735_ERROR;
 365:Drivers/BSP/ST7735/st7735.c ****   }	
 366:Drivers/BSP/ST7735/st7735.c **** 	else if(st7735_read_reg(&pObj->Ctx, ST7735_READ_ID3, &tmp[2]) != ST7735_OK)
 367:Drivers/BSP/ST7735/st7735.c ****   {
 368:Drivers/BSP/ST7735/st7735.c ****     ret = ST7735_ERROR;
 369:Drivers/BSP/ST7735/st7735.c ****   }	
 370:Drivers/BSP/ST7735/st7735.c ****   else
 371:Drivers/BSP/ST7735/st7735.c ****   {
 372:Drivers/BSP/ST7735/st7735.c **** 		
 373:Drivers/BSP/ST7735/st7735.c ****     *Id = ((uint32_t)tmp[2])<<0| ((uint32_t)tmp[1])<<8 | ((uint32_t)tmp[0])<<16;
 374:Drivers/BSP/ST7735/st7735.c **** 		//*Id = __rbit(*Id);
 375:Drivers/BSP/ST7735/st7735.c ****     ret = ST7735_OK;
 376:Drivers/BSP/ST7735/st7735.c ****   }
 377:Drivers/BSP/ST7735/st7735.c **** 
 378:Drivers/BSP/ST7735/st7735.c ****   return ret;
 379:Drivers/BSP/ST7735/st7735.c **** }
 380:Drivers/BSP/ST7735/st7735.c **** 
 381:Drivers/BSP/ST7735/st7735.c **** /**
 382:Drivers/BSP/ST7735/st7735.c ****   * @brief  Enables the Display.
 383:Drivers/BSP/ST7735/st7735.c ****   * @param  pObj Component object
 384:Drivers/BSP/ST7735/st7735.c ****   * @retval The component status
 385:Drivers/BSP/ST7735/st7735.c ****   */
 386:Drivers/BSP/ST7735/st7735.c **** int32_t ST7735_DisplayOn(ST7735_Object_t *pObj)
 387:Drivers/BSP/ST7735/st7735.c **** {
 388:Drivers/BSP/ST7735/st7735.c ****   int32_t ret;
 389:Drivers/BSP/ST7735/st7735.c ****   uint8_t tmp = 0;
 390:Drivers/BSP/ST7735/st7735.c **** 
 391:Drivers/BSP/ST7735/st7735.c ****   ret = st7735_write_reg(&pObj->Ctx, ST7735_NORMAL_DISPLAY_OFF, &tmp, 0);
 392:Drivers/BSP/ST7735/st7735.c ****   (void)ST7735_IO_Delay(pObj, 10);
 393:Drivers/BSP/ST7735/st7735.c ****   ret += st7735_write_reg(&pObj->Ctx, ST7735_DISPLAY_ON, &tmp, 0);
 394:Drivers/BSP/ST7735/st7735.c ****   (void)ST7735_IO_Delay(pObj, 10);
 395:Drivers/BSP/ST7735/st7735.c ****   ret += st7735_write_reg(&pObj->Ctx, ST7735_MADCTL, &tmp, 0);
 396:Drivers/BSP/ST7735/st7735.c **** 	tmp = ST7735Ctx.Panel == HannStar_Panel ? 
 397:Drivers/BSP/ST7735/st7735.c **** 			(uint8_t)OrientationTab[ST7735Ctx.Orientation][1] | LCD_BGR :
 398:Drivers/BSP/ST7735/st7735.c **** 			(uint8_t)OrientationTab[ST7735Ctx.Orientation][1] | LCD_RGB;
 399:Drivers/BSP/ST7735/st7735.c ****   ret += st7735_send_data(&pObj->Ctx, &tmp, 1);
 400:Drivers/BSP/ST7735/st7735.c ****   if(ret != ST7735_OK)
 401:Drivers/BSP/ST7735/st7735.c ****   {
 402:Drivers/BSP/ST7735/st7735.c ****     ret = ST7735_ERROR;
 403:Drivers/BSP/ST7735/st7735.c ****   }
 404:Drivers/BSP/ST7735/st7735.c **** 
 405:Drivers/BSP/ST7735/st7735.c ****   return ret;
 406:Drivers/BSP/ST7735/st7735.c **** }
ARM GAS  /var/folders/mq/wg13gp494590nh4zyt09lxf00000gn/T//ccZMG5bD.s 			page 9


 407:Drivers/BSP/ST7735/st7735.c **** 
 408:Drivers/BSP/ST7735/st7735.c **** /**
 409:Drivers/BSP/ST7735/st7735.c ****   * @brief  Disables the Display.
 410:Drivers/BSP/ST7735/st7735.c ****   * @param  pObj Component object
 411:Drivers/BSP/ST7735/st7735.c ****   * @retval The component status
 412:Drivers/BSP/ST7735/st7735.c ****   */
 413:Drivers/BSP/ST7735/st7735.c **** int32_t ST7735_DisplayOff(ST7735_Object_t *pObj)
 414:Drivers/BSP/ST7735/st7735.c **** {
 415:Drivers/BSP/ST7735/st7735.c ****   int32_t ret;
 416:Drivers/BSP/ST7735/st7735.c ****   uint8_t tmp = 0;
 417:Drivers/BSP/ST7735/st7735.c **** 
 418:Drivers/BSP/ST7735/st7735.c ****   ret = st7735_write_reg(&pObj->Ctx, ST7735_NORMAL_DISPLAY_OFF, &tmp, 0);
 419:Drivers/BSP/ST7735/st7735.c ****   (void)ST7735_IO_Delay(pObj, 10);
 420:Drivers/BSP/ST7735/st7735.c ****   ret += st7735_write_reg(&pObj->Ctx, ST7735_DISPLAY_OFF, &tmp, 0);
 421:Drivers/BSP/ST7735/st7735.c ****   (void)ST7735_IO_Delay(pObj, 10);
 422:Drivers/BSP/ST7735/st7735.c ****   ret += st7735_write_reg(&pObj->Ctx, ST7735_MADCTL, &tmp, 0);
 423:Drivers/BSP/ST7735/st7735.c **** 	tmp = ST7735Ctx.Panel == HannStar_Panel ? 
 424:Drivers/BSP/ST7735/st7735.c **** 		(uint8_t)OrientationTab[ST7735Ctx.Orientation][1] | LCD_BGR :
 425:Drivers/BSP/ST7735/st7735.c **** 		(uint8_t)OrientationTab[ST7735Ctx.Orientation][1] | LCD_RGB;
 426:Drivers/BSP/ST7735/st7735.c ****   ret += st7735_send_data(&pObj->Ctx, &tmp, 1);
 427:Drivers/BSP/ST7735/st7735.c ****   if(ret != ST7735_OK)
 428:Drivers/BSP/ST7735/st7735.c ****   {
 429:Drivers/BSP/ST7735/st7735.c ****     ret = ST7735_ERROR;
 430:Drivers/BSP/ST7735/st7735.c ****   }
 431:Drivers/BSP/ST7735/st7735.c **** 
 432:Drivers/BSP/ST7735/st7735.c ****   return ret;
 433:Drivers/BSP/ST7735/st7735.c **** }
 434:Drivers/BSP/ST7735/st7735.c **** 
 435:Drivers/BSP/ST7735/st7735.c **** /**
 436:Drivers/BSP/ST7735/st7735.c ****   * @brief  Set the display brightness.
 437:Drivers/BSP/ST7735/st7735.c ****   * @param  pObj Component object
 438:Drivers/BSP/ST7735/st7735.c ****   * @param  Brightness   display brightness to be set
 439:Drivers/BSP/ST7735/st7735.c ****   * @retval Component status
 440:Drivers/BSP/ST7735/st7735.c ****   */
 441:Drivers/BSP/ST7735/st7735.c **** int32_t ST7735_SetBrightness(ST7735_Object_t *pObj, uint32_t Brightness)
 442:Drivers/BSP/ST7735/st7735.c **** {
  54              		.loc 1 442 1 is_stmt 1 view -0
  55              		.cfi_startproc
  56              		@ args = 0, pretend = 0, frame = 0
  57              		@ frame_needed = 0, uses_anonymous_args = 0
  58              		@ link register save eliminated.
 443:Drivers/BSP/ST7735/st7735.c ****   (void)(pObj);
  59              		.loc 1 443 3 view .LVU6
 444:Drivers/BSP/ST7735/st7735.c ****   (void)(Brightness);
  60              		.loc 1 444 3 view .LVU7
 445:Drivers/BSP/ST7735/st7735.c **** 	
 446:Drivers/BSP/ST7735/st7735.c ****   /* Feature not supported */
 447:Drivers/BSP/ST7735/st7735.c ****   return ST7735_ERROR;
  61              		.loc 1 447 3 view .LVU8
 448:Drivers/BSP/ST7735/st7735.c **** }
  62              		.loc 1 448 1 is_stmt 0 view .LVU9
  63 0000 4FF0FF30 		mov	r0, #-1
  64              	.LVL3:
  65              		.loc 1 448 1 view .LVU10
  66 0004 7047     		bx	lr
  67              		.cfi_endproc
  68              	.LFE6:
ARM GAS  /var/folders/mq/wg13gp494590nh4zyt09lxf00000gn/T//ccZMG5bD.s 			page 10


  70              		.section	.text.ST7735_GetBrightness,"ax",%progbits
  71              		.align	1
  72              		.global	ST7735_GetBrightness
  73              		.syntax unified
  74              		.thumb
  75              		.thumb_func
  77              	ST7735_GetBrightness:
  78              	.LVL4:
  79              	.LFB7:
 449:Drivers/BSP/ST7735/st7735.c **** 
 450:Drivers/BSP/ST7735/st7735.c **** /**
 451:Drivers/BSP/ST7735/st7735.c ****   * @brief  Get the display brightness.
 452:Drivers/BSP/ST7735/st7735.c ****   * @param  pObj Component object
 453:Drivers/BSP/ST7735/st7735.c ****   * @param  Brightness   display brightness to be returned
 454:Drivers/BSP/ST7735/st7735.c ****   * @retval Component status
 455:Drivers/BSP/ST7735/st7735.c ****   */
 456:Drivers/BSP/ST7735/st7735.c **** int32_t ST7735_GetBrightness(ST7735_Object_t *pObj, uint32_t *Brightness)
 457:Drivers/BSP/ST7735/st7735.c **** {
  80              		.loc 1 457 1 is_stmt 1 view -0
  81              		.cfi_startproc
  82              		@ args = 0, pretend = 0, frame = 0
  83              		@ frame_needed = 0, uses_anonymous_args = 0
  84              		@ link register save eliminated.
 458:Drivers/BSP/ST7735/st7735.c ****   (void)(pObj);
  85              		.loc 1 458 3 view .LVU12
 459:Drivers/BSP/ST7735/st7735.c ****   (void)(Brightness);
  86              		.loc 1 459 3 view .LVU13
 460:Drivers/BSP/ST7735/st7735.c **** 
 461:Drivers/BSP/ST7735/st7735.c ****   /* Feature not supported */
 462:Drivers/BSP/ST7735/st7735.c ****   return ST7735_ERROR;
  87              		.loc 1 462 3 view .LVU14
 463:Drivers/BSP/ST7735/st7735.c **** }
  88              		.loc 1 463 1 is_stmt 0 view .LVU15
  89 0000 4FF0FF30 		mov	r0, #-1
  90              	.LVL5:
  91              		.loc 1 463 1 view .LVU16
  92 0004 7047     		bx	lr
  93              		.cfi_endproc
  94              	.LFE7:
  96              		.section	.text.ST7735_GetOrientation,"ax",%progbits
  97              		.align	1
  98              		.global	ST7735_GetOrientation
  99              		.syntax unified
 100              		.thumb
 101              		.thumb_func
 103              	ST7735_GetOrientation:
 104              	.LVL6:
 105              	.LFB9:
 464:Drivers/BSP/ST7735/st7735.c **** 
 465:Drivers/BSP/ST7735/st7735.c **** /**
 466:Drivers/BSP/ST7735/st7735.c ****   * @brief  Set the Display Orientation.
 467:Drivers/BSP/ST7735/st7735.c ****   * @param  pObj Component object
 468:Drivers/BSP/ST7735/st7735.c ****   * @param  Orientation ST7735_ORIENTATION_PORTRAIT, ST7735_ORIENTATION_PORTRAIT_ROT180
 469:Drivers/BSP/ST7735/st7735.c ****   *                     ST7735_ORIENTATION_LANDSCAPE or ST7735_ORIENTATION_LANDSCAPE_ROT180
 470:Drivers/BSP/ST7735/st7735.c ****   * @retval The component status
 471:Drivers/BSP/ST7735/st7735.c ****   */
 472:Drivers/BSP/ST7735/st7735.c **** int32_t ST7735_SetOrientation(ST7735_Object_t *pObj, ST7735_Ctx_t *pDriver)
ARM GAS  /var/folders/mq/wg13gp494590nh4zyt09lxf00000gn/T//ccZMG5bD.s 			page 11


 473:Drivers/BSP/ST7735/st7735.c **** {
 474:Drivers/BSP/ST7735/st7735.c ****   int32_t ret;
 475:Drivers/BSP/ST7735/st7735.c ****   uint8_t tmp;
 476:Drivers/BSP/ST7735/st7735.c **** 
 477:Drivers/BSP/ST7735/st7735.c ****   if((pDriver->Orientation == ST7735_ORIENTATION_PORTRAIT) || (pDriver->Orientation == ST7735_ORIEN
 478:Drivers/BSP/ST7735/st7735.c ****   {
 479:Drivers/BSP/ST7735/st7735.c **** 		if (pDriver->Type == ST7735_0_9_inch_screen) {
 480:Drivers/BSP/ST7735/st7735.c **** 			ST7735Ctx.Width  = ST7735_0_9_WIDTH;
 481:Drivers/BSP/ST7735/st7735.c **** 			ST7735Ctx.Height = ST7735_0_9_HEIGHT;
 482:Drivers/BSP/ST7735/st7735.c **** 		} else if (pDriver->Type == ST7735_1_8_inch_screen || pDriver->Type == ST7735_1_8a_inch_screen){
 483:Drivers/BSP/ST7735/st7735.c **** 			ST7735Ctx.Width  = ST7735_1_8_WIDTH;
 484:Drivers/BSP/ST7735/st7735.c **** 			ST7735Ctx.Height = ST7735_1_8_HEIGHT;
 485:Drivers/BSP/ST7735/st7735.c **** 		}
 486:Drivers/BSP/ST7735/st7735.c ****   }
 487:Drivers/BSP/ST7735/st7735.c ****   else
 488:Drivers/BSP/ST7735/st7735.c ****   {
 489:Drivers/BSP/ST7735/st7735.c **** 		if (pDriver->Type == ST7735_0_9_inch_screen) {
 490:Drivers/BSP/ST7735/st7735.c **** 			ST7735Ctx.Width  = ST7735_0_9_HEIGHT;
 491:Drivers/BSP/ST7735/st7735.c **** 			ST7735Ctx.Height = ST7735_0_9_WIDTH;
 492:Drivers/BSP/ST7735/st7735.c **** 		} else if (pDriver->Type == ST7735_1_8_inch_screen || pDriver->Type == ST7735_1_8a_inch_screen){
 493:Drivers/BSP/ST7735/st7735.c **** 			ST7735Ctx.Width  = ST7735_1_8_HEIGHT;
 494:Drivers/BSP/ST7735/st7735.c **** 			ST7735Ctx.Height = ST7735_1_8_WIDTH;
 495:Drivers/BSP/ST7735/st7735.c **** 		}
 496:Drivers/BSP/ST7735/st7735.c ****   }
 497:Drivers/BSP/ST7735/st7735.c **** 	
 498:Drivers/BSP/ST7735/st7735.c **** 	ST7735Ctx.Orientation = pDriver->Orientation;
 499:Drivers/BSP/ST7735/st7735.c **** 	ST7735Ctx.Panel = pDriver->Panel;
 500:Drivers/BSP/ST7735/st7735.c **** 	ST7735Ctx.Type = pDriver->Type;
 501:Drivers/BSP/ST7735/st7735.c **** 	
 502:Drivers/BSP/ST7735/st7735.c ****   ret = ST7735_SetDisplayWindow(pObj, 0U, 0U, ST7735Ctx.Width, ST7735Ctx.Height);
 503:Drivers/BSP/ST7735/st7735.c **** 
 504:Drivers/BSP/ST7735/st7735.c **** 	tmp = ST7735Ctx.Panel == HannStar_Panel ? 
 505:Drivers/BSP/ST7735/st7735.c **** 			(uint8_t)OrientationTab[ST7735Ctx.Orientation][1] | LCD_BGR :
 506:Drivers/BSP/ST7735/st7735.c **** 			(uint8_t)OrientationTab[ST7735Ctx.Orientation][1] | LCD_RGB;
 507:Drivers/BSP/ST7735/st7735.c ****   ret += st7735_write_reg(&pObj->Ctx, ST7735_MADCTL, &tmp, 1);
 508:Drivers/BSP/ST7735/st7735.c **** 
 509:Drivers/BSP/ST7735/st7735.c ****   
 510:Drivers/BSP/ST7735/st7735.c **** 
 511:Drivers/BSP/ST7735/st7735.c ****   if(ret != ST7735_OK)
 512:Drivers/BSP/ST7735/st7735.c ****   {
 513:Drivers/BSP/ST7735/st7735.c ****     ret = ST7735_ERROR;
 514:Drivers/BSP/ST7735/st7735.c ****   }
 515:Drivers/BSP/ST7735/st7735.c **** 
 516:Drivers/BSP/ST7735/st7735.c ****   return ret;
 517:Drivers/BSP/ST7735/st7735.c **** }
 518:Drivers/BSP/ST7735/st7735.c **** 
 519:Drivers/BSP/ST7735/st7735.c **** /**
 520:Drivers/BSP/ST7735/st7735.c ****   * @brief  Set the Display Orientation.
 521:Drivers/BSP/ST7735/st7735.c ****   * @param  pObj Component object
 522:Drivers/BSP/ST7735/st7735.c ****   * @param  Orientation ST7735_ORIENTATION_PORTRAIT, ST7735_ORIENTATION_LANDSCAPE
 523:Drivers/BSP/ST7735/st7735.c ****   *                      or ST7735_ORIENTATION_LANDSCAPE_ROT180
 524:Drivers/BSP/ST7735/st7735.c ****   * @retval The component status
 525:Drivers/BSP/ST7735/st7735.c ****   */
 526:Drivers/BSP/ST7735/st7735.c **** int32_t ST7735_GetOrientation(ST7735_Object_t *pObj, uint32_t *Orientation)
 527:Drivers/BSP/ST7735/st7735.c **** {
 106              		.loc 1 527 1 is_stmt 1 view -0
 107              		.cfi_startproc
ARM GAS  /var/folders/mq/wg13gp494590nh4zyt09lxf00000gn/T//ccZMG5bD.s 			page 12


 108              		@ args = 0, pretend = 0, frame = 0
 109              		@ frame_needed = 0, uses_anonymous_args = 0
 110              		@ link register save eliminated.
 528:Drivers/BSP/ST7735/st7735.c **** 
 529:Drivers/BSP/ST7735/st7735.c ****   *Orientation = ST7735Ctx.Orientation;
 111              		.loc 1 529 3 view .LVU18
 112              		.loc 1 529 27 is_stmt 0 view .LVU19
 113 0000 024B     		ldr	r3, .L5
 114 0002 9B68     		ldr	r3, [r3, #8]
 115              		.loc 1 529 16 view .LVU20
 116 0004 0B60     		str	r3, [r1]
 530:Drivers/BSP/ST7735/st7735.c **** 
 531:Drivers/BSP/ST7735/st7735.c ****   return ST7735_OK;
 117              		.loc 1 531 3 is_stmt 1 view .LVU21
 532:Drivers/BSP/ST7735/st7735.c **** }
 118              		.loc 1 532 1 is_stmt 0 view .LVU22
 119 0006 0020     		movs	r0, #0
 120              	.LVL7:
 121              		.loc 1 532 1 view .LVU23
 122 0008 7047     		bx	lr
 123              	.L6:
 124 000a 00BF     		.align	2
 125              	.L5:
 126 000c 00000000 		.word	ST7735Ctx
 127              		.cfi_endproc
 128              	.LFE9:
 130              		.section	.text.ST7735_GetXSize,"ax",%progbits
 131              		.align	1
 132              		.global	ST7735_GetXSize
 133              		.syntax unified
 134              		.thumb
 135              		.thumb_func
 137              	ST7735_GetXSize:
 138              	.LVL8:
 139              	.LFB18:
 533:Drivers/BSP/ST7735/st7735.c **** 
 534:Drivers/BSP/ST7735/st7735.c **** /**
 535:Drivers/BSP/ST7735/st7735.c ****   * @brief  Set Cursor position.
 536:Drivers/BSP/ST7735/st7735.c ****   * @param  pObj Component object
 537:Drivers/BSP/ST7735/st7735.c ****   * @param  Xpos specifies the X position.
 538:Drivers/BSP/ST7735/st7735.c ****   * @param  Ypos specifies the Y position.
 539:Drivers/BSP/ST7735/st7735.c ****   * @retval The component status
 540:Drivers/BSP/ST7735/st7735.c ****   */
 541:Drivers/BSP/ST7735/st7735.c **** int32_t ST7735_SetCursor(ST7735_Object_t *pObj, uint32_t Xpos, uint32_t Ypos)
 542:Drivers/BSP/ST7735/st7735.c **** {
 543:Drivers/BSP/ST7735/st7735.c ****   int32_t ret;
 544:Drivers/BSP/ST7735/st7735.c ****   uint8_t tmp;
 545:Drivers/BSP/ST7735/st7735.c **** 	
 546:Drivers/BSP/ST7735/st7735.c **** 	/* Cursor calibration */
 547:Drivers/BSP/ST7735/st7735.c **** 	if(ST7735Ctx.Orientation <= ST7735_ORIENTATION_PORTRAIT_ROT180) {
 548:Drivers/BSP/ST7735/st7735.c **** 		if (ST7735Ctx.Type == ST7735_0_9_inch_screen) {		//0.96 ST7735
 549:Drivers/BSP/ST7735/st7735.c **** 			if (ST7735Ctx.Panel == HannStar_Panel) {
 550:Drivers/BSP/ST7735/st7735.c **** 				Xpos += 26;
 551:Drivers/BSP/ST7735/st7735.c **** 				Ypos += 1;
 552:Drivers/BSP/ST7735/st7735.c **** 			} else {		//BOE Panel
 553:Drivers/BSP/ST7735/st7735.c **** 				Xpos += 24;
 554:Drivers/BSP/ST7735/st7735.c **** 				Ypos += 0;
ARM GAS  /var/folders/mq/wg13gp494590nh4zyt09lxf00000gn/T//ccZMG5bD.s 			page 13


 555:Drivers/BSP/ST7735/st7735.c **** 			}
 556:Drivers/BSP/ST7735/st7735.c **** 		}
 557:Drivers/BSP/ST7735/st7735.c ****     else if(ST7735Ctx.Type == ST7735_1_8a_inch_screen){
 558:Drivers/BSP/ST7735/st7735.c ****       if (ST7735Ctx.Panel == BOE_Panel) {
 559:Drivers/BSP/ST7735/st7735.c **** 				Xpos += 2;
 560:Drivers/BSP/ST7735/st7735.c **** 				Ypos += 1;
 561:Drivers/BSP/ST7735/st7735.c **** 			}
 562:Drivers/BSP/ST7735/st7735.c ****     }
 563:Drivers/BSP/ST7735/st7735.c **** 	} else {
 564:Drivers/BSP/ST7735/st7735.c **** 		if (ST7735Ctx.Type == ST7735_0_9_inch_screen) {
 565:Drivers/BSP/ST7735/st7735.c **** 			if (ST7735Ctx.Panel == HannStar_Panel) {		//0.96 ST7735
 566:Drivers/BSP/ST7735/st7735.c **** 				Xpos += 1;
 567:Drivers/BSP/ST7735/st7735.c **** 				Ypos += 26;
 568:Drivers/BSP/ST7735/st7735.c **** 			} else {		//BOE Panel
 569:Drivers/BSP/ST7735/st7735.c **** 				Xpos += 0;
 570:Drivers/BSP/ST7735/st7735.c **** 				Ypos += 24;
 571:Drivers/BSP/ST7735/st7735.c **** 			}
 572:Drivers/BSP/ST7735/st7735.c **** 		}
 573:Drivers/BSP/ST7735/st7735.c ****     else if(ST7735Ctx.Type == ST7735_1_8a_inch_screen){
 574:Drivers/BSP/ST7735/st7735.c ****       if (ST7735Ctx.Panel == BOE_Panel) {
 575:Drivers/BSP/ST7735/st7735.c **** 				Xpos += 1;
 576:Drivers/BSP/ST7735/st7735.c **** 				Ypos += 2;
 577:Drivers/BSP/ST7735/st7735.c **** 			}
 578:Drivers/BSP/ST7735/st7735.c ****     }
 579:Drivers/BSP/ST7735/st7735.c **** 	}
 580:Drivers/BSP/ST7735/st7735.c **** 	
 581:Drivers/BSP/ST7735/st7735.c ****   ret = st7735_write_reg(&pObj->Ctx, ST7735_CASET, &tmp, 0);
 582:Drivers/BSP/ST7735/st7735.c ****   tmp = (uint8_t)(Xpos >> 8U);
 583:Drivers/BSP/ST7735/st7735.c ****   ret += st7735_send_data(&pObj->Ctx, &tmp, 1);
 584:Drivers/BSP/ST7735/st7735.c ****   tmp = (uint8_t)(Xpos & 0xFFU);
 585:Drivers/BSP/ST7735/st7735.c ****   ret += st7735_send_data(&pObj->Ctx, &tmp, 1);
 586:Drivers/BSP/ST7735/st7735.c **** 
 587:Drivers/BSP/ST7735/st7735.c ****   ret += st7735_write_reg(&pObj->Ctx, ST7735_RASET, &tmp, 0);
 588:Drivers/BSP/ST7735/st7735.c ****   tmp = (uint8_t)(Ypos >> 8U);
 589:Drivers/BSP/ST7735/st7735.c ****   ret += st7735_send_data(&pObj->Ctx, &tmp, 1);
 590:Drivers/BSP/ST7735/st7735.c ****   tmp = (uint8_t)(Ypos & 0xFFU);
 591:Drivers/BSP/ST7735/st7735.c ****   ret += st7735_send_data(&pObj->Ctx, &tmp, 1);
 592:Drivers/BSP/ST7735/st7735.c ****   ret += st7735_write_reg(&pObj->Ctx, ST7735_WRITE_RAM, &tmp, 0);
 593:Drivers/BSP/ST7735/st7735.c **** 
 594:Drivers/BSP/ST7735/st7735.c ****   if(ret != ST7735_OK)
 595:Drivers/BSP/ST7735/st7735.c ****   {
 596:Drivers/BSP/ST7735/st7735.c ****     ret = ST7735_ERROR;
 597:Drivers/BSP/ST7735/st7735.c ****   }
 598:Drivers/BSP/ST7735/st7735.c **** 
 599:Drivers/BSP/ST7735/st7735.c ****   return ret;
 600:Drivers/BSP/ST7735/st7735.c **** }
 601:Drivers/BSP/ST7735/st7735.c **** 
 602:Drivers/BSP/ST7735/st7735.c **** /**
 603:Drivers/BSP/ST7735/st7735.c ****   * @brief  Displays a bitmap picture.
 604:Drivers/BSP/ST7735/st7735.c ****   * @param  pObj Component object
 605:Drivers/BSP/ST7735/st7735.c ****   * @param  Xpos Bmp X position in the LCD
 606:Drivers/BSP/ST7735/st7735.c ****   * @param  Ypos Bmp Y position in the LCD
 607:Drivers/BSP/ST7735/st7735.c ****   * @param  pBmp Bmp picture address.
 608:Drivers/BSP/ST7735/st7735.c ****   * @retval The component status
 609:Drivers/BSP/ST7735/st7735.c ****   */
 610:Drivers/BSP/ST7735/st7735.c **** int32_t ST7735_DrawBitmap(ST7735_Object_t *pObj, uint32_t Xpos, uint32_t Ypos, uint8_t *pBmp)
 611:Drivers/BSP/ST7735/st7735.c **** {
ARM GAS  /var/folders/mq/wg13gp494590nh4zyt09lxf00000gn/T//ccZMG5bD.s 			page 14


 612:Drivers/BSP/ST7735/st7735.c ****   int32_t ret = ST7735_OK;
 613:Drivers/BSP/ST7735/st7735.c ****   uint32_t index, size, width, height, y_pos;
 614:Drivers/BSP/ST7735/st7735.c ****   uint8_t pixel_val[2], tmp;
 615:Drivers/BSP/ST7735/st7735.c ****   uint8_t *pbmp;
 616:Drivers/BSP/ST7735/st7735.c ****   uint32_t counter = 0;
 617:Drivers/BSP/ST7735/st7735.c **** 
 618:Drivers/BSP/ST7735/st7735.c ****   /* Get bitmap data address offset */
 619:Drivers/BSP/ST7735/st7735.c ****   index = (uint32_t)pBmp[10] + ((uint32_t)pBmp[11] << 8) + ((uint32_t)pBmp[12] << 16)  + ((uint32_t
 620:Drivers/BSP/ST7735/st7735.c **** 
 621:Drivers/BSP/ST7735/st7735.c ****   /* Read bitmap width */
 622:Drivers/BSP/ST7735/st7735.c ****   width = (uint32_t)pBmp[18] + ((uint32_t)pBmp[19] << 8) + ((uint32_t)pBmp[20] << 16)  + ((uint32_t
 623:Drivers/BSP/ST7735/st7735.c **** 
 624:Drivers/BSP/ST7735/st7735.c ****   /* Read bitmap height */
 625:Drivers/BSP/ST7735/st7735.c ****   height = (uint32_t)pBmp[22] + ((uint32_t)pBmp[23] << 8) + ((uint32_t)pBmp[24] << 16)  + ((uint32_
 626:Drivers/BSP/ST7735/st7735.c **** 
 627:Drivers/BSP/ST7735/st7735.c ****   /* Read bitmap size */
 628:Drivers/BSP/ST7735/st7735.c ****   size = (uint32_t)pBmp[2] + ((uint32_t)pBmp[3] << 8) + ((uint32_t)pBmp[4] << 16)  + ((uint32_t)pBm
 629:Drivers/BSP/ST7735/st7735.c ****   size = size - index;
 630:Drivers/BSP/ST7735/st7735.c **** 
 631:Drivers/BSP/ST7735/st7735.c ****   pbmp = pBmp + index;
 632:Drivers/BSP/ST7735/st7735.c **** 
 633:Drivers/BSP/ST7735/st7735.c ****   /* Remap Ypos, st7735 works with inverted X in case of bitmap */
 634:Drivers/BSP/ST7735/st7735.c ****   /* X = 0, cursor is on Top corner */
 635:Drivers/BSP/ST7735/st7735.c ****   y_pos = ST7735Ctx.Height - Ypos - height;
 636:Drivers/BSP/ST7735/st7735.c **** 
 637:Drivers/BSP/ST7735/st7735.c ****   if(ST7735_SetDisplayWindow(pObj, Xpos, y_pos, width, height) != ST7735_OK)
 638:Drivers/BSP/ST7735/st7735.c ****   {
 639:Drivers/BSP/ST7735/st7735.c ****     ret = ST7735_ERROR;
 640:Drivers/BSP/ST7735/st7735.c ****   }
 641:Drivers/BSP/ST7735/st7735.c ****   else
 642:Drivers/BSP/ST7735/st7735.c ****   {
 643:Drivers/BSP/ST7735/st7735.c ****     /* Set GRAM write direction and BGR = 0 */
 644:Drivers/BSP/ST7735/st7735.c ****     tmp = ST7735Ctx.Panel == HannStar_Panel ? 
 645:Drivers/BSP/ST7735/st7735.c **** 					(uint8_t)OrientationTab[ST7735Ctx.Orientation][0] | LCD_BGR :
 646:Drivers/BSP/ST7735/st7735.c **** 					(uint8_t)OrientationTab[ST7735Ctx.Orientation][0] | LCD_RGB;
 647:Drivers/BSP/ST7735/st7735.c **** 
 648:Drivers/BSP/ST7735/st7735.c ****     if(st7735_write_reg(&pObj->Ctx, ST7735_MADCTL, &tmp, 1) != ST7735_OK)
 649:Drivers/BSP/ST7735/st7735.c ****     {
 650:Drivers/BSP/ST7735/st7735.c ****       ret = ST7735_ERROR;
 651:Drivers/BSP/ST7735/st7735.c ****     }/* Set Cursor */
 652:Drivers/BSP/ST7735/st7735.c ****     else if(ST7735_SetCursor(pObj, Xpos, y_pos) != ST7735_OK)
 653:Drivers/BSP/ST7735/st7735.c ****     {
 654:Drivers/BSP/ST7735/st7735.c ****       ret = ST7735_ERROR;
 655:Drivers/BSP/ST7735/st7735.c ****     }
 656:Drivers/BSP/ST7735/st7735.c ****     else
 657:Drivers/BSP/ST7735/st7735.c ****     {
 658:Drivers/BSP/ST7735/st7735.c ****       do
 659:Drivers/BSP/ST7735/st7735.c ****       {
 660:Drivers/BSP/ST7735/st7735.c ****         pixel_val[0] = *(pbmp + 1);
 661:Drivers/BSP/ST7735/st7735.c ****         pixel_val[1] = *(pbmp);
 662:Drivers/BSP/ST7735/st7735.c ****         if(st7735_send_data(&pObj->Ctx, pixel_val, 2U) != ST7735_OK)
 663:Drivers/BSP/ST7735/st7735.c ****         {
 664:Drivers/BSP/ST7735/st7735.c ****           ret = ST7735_ERROR;
 665:Drivers/BSP/ST7735/st7735.c ****           break;
 666:Drivers/BSP/ST7735/st7735.c ****         }
 667:Drivers/BSP/ST7735/st7735.c ****         counter +=2U;
 668:Drivers/BSP/ST7735/st7735.c ****         pbmp += 2;
ARM GAS  /var/folders/mq/wg13gp494590nh4zyt09lxf00000gn/T//ccZMG5bD.s 			page 15


 669:Drivers/BSP/ST7735/st7735.c ****       }while(counter < size);
 670:Drivers/BSP/ST7735/st7735.c **** 
 671:Drivers/BSP/ST7735/st7735.c **** 			tmp = ST7735Ctx.Panel == HannStar_Panel ? 
 672:Drivers/BSP/ST7735/st7735.c **** 						(uint8_t)OrientationTab[ST7735Ctx.Orientation][1] | LCD_BGR :
 673:Drivers/BSP/ST7735/st7735.c **** 						(uint8_t)OrientationTab[ST7735Ctx.Orientation][1] | LCD_RGB;
 674:Drivers/BSP/ST7735/st7735.c ****       if(st7735_write_reg(&pObj->Ctx, ST7735_MADCTL, &tmp, 1) != ST7735_OK)
 675:Drivers/BSP/ST7735/st7735.c ****       {
 676:Drivers/BSP/ST7735/st7735.c ****         ret = ST7735_ERROR;
 677:Drivers/BSP/ST7735/st7735.c ****       }
 678:Drivers/BSP/ST7735/st7735.c ****       else
 679:Drivers/BSP/ST7735/st7735.c ****       {
 680:Drivers/BSP/ST7735/st7735.c ****         if(ST7735_SetDisplayWindow(pObj, 0U, 0U, ST7735Ctx.Width, ST7735Ctx.Height) != ST7735_OK)
 681:Drivers/BSP/ST7735/st7735.c ****         {
 682:Drivers/BSP/ST7735/st7735.c ****           ret = ST7735_ERROR;
 683:Drivers/BSP/ST7735/st7735.c ****         }
 684:Drivers/BSP/ST7735/st7735.c ****       }
 685:Drivers/BSP/ST7735/st7735.c ****     }
 686:Drivers/BSP/ST7735/st7735.c ****   }
 687:Drivers/BSP/ST7735/st7735.c **** 
 688:Drivers/BSP/ST7735/st7735.c ****   return ret;
 689:Drivers/BSP/ST7735/st7735.c **** }
 690:Drivers/BSP/ST7735/st7735.c **** 
 691:Drivers/BSP/ST7735/st7735.c **** /**
 692:Drivers/BSP/ST7735/st7735.c ****   * @brief  Draws a full RGB rectangle
 693:Drivers/BSP/ST7735/st7735.c ****   * @param  pObj Component object
 694:Drivers/BSP/ST7735/st7735.c ****   * @param  Xpos   specifies the X position.
 695:Drivers/BSP/ST7735/st7735.c ****   * @param  Ypos   specifies the Y position.
 696:Drivers/BSP/ST7735/st7735.c ****   * @param  pData  pointer to RGB data
 697:Drivers/BSP/ST7735/st7735.c ****   * @param  Width  specifies the rectangle width.
 698:Drivers/BSP/ST7735/st7735.c ****   * @param  Height Specifies the rectangle height
 699:Drivers/BSP/ST7735/st7735.c ****   * @retval The component status
 700:Drivers/BSP/ST7735/st7735.c ****   */
 701:Drivers/BSP/ST7735/st7735.c **** int32_t ST7735_FillRGBRect(ST7735_Object_t *pObj, uint32_t Xpos, uint32_t Ypos, uint8_t *pData, uin
 702:Drivers/BSP/ST7735/st7735.c **** {
 703:Drivers/BSP/ST7735/st7735.c ****   int32_t ret = ST7735_OK;
 704:Drivers/BSP/ST7735/st7735.c ****   static uint8_t pdata[640];
 705:Drivers/BSP/ST7735/st7735.c ****   uint8_t *rgb_data = pData;
 706:Drivers/BSP/ST7735/st7735.c ****   uint32_t i, j;
 707:Drivers/BSP/ST7735/st7735.c **** 
 708:Drivers/BSP/ST7735/st7735.c ****   if(((Xpos + Width) > ST7735Ctx.Width) || ((Ypos + Height) > ST7735Ctx.Height))
 709:Drivers/BSP/ST7735/st7735.c ****   {
 710:Drivers/BSP/ST7735/st7735.c ****     ret = ST7735_ERROR;
 711:Drivers/BSP/ST7735/st7735.c ****   }/* Set Cursor */
 712:Drivers/BSP/ST7735/st7735.c ****   else
 713:Drivers/BSP/ST7735/st7735.c ****   {
 714:Drivers/BSP/ST7735/st7735.c ****     for(j = 0; j < Height; j++)
 715:Drivers/BSP/ST7735/st7735.c ****     {
 716:Drivers/BSP/ST7735/st7735.c ****       if(ST7735_SetCursor(pObj, Xpos, Ypos+j) != ST7735_OK)
 717:Drivers/BSP/ST7735/st7735.c ****       {
 718:Drivers/BSP/ST7735/st7735.c ****         ret = ST7735_ERROR;
 719:Drivers/BSP/ST7735/st7735.c ****       }
 720:Drivers/BSP/ST7735/st7735.c ****       else
 721:Drivers/BSP/ST7735/st7735.c ****       {
 722:Drivers/BSP/ST7735/st7735.c ****         for(i = 0; i < Width; i++)
 723:Drivers/BSP/ST7735/st7735.c ****         {
 724:Drivers/BSP/ST7735/st7735.c ****           pdata[2U*i] = (uint8_t)(*(rgb_data));
 725:Drivers/BSP/ST7735/st7735.c ****           pdata[(2U*i) + 1U] = (uint8_t)(*(rgb_data + 1));
ARM GAS  /var/folders/mq/wg13gp494590nh4zyt09lxf00000gn/T//ccZMG5bD.s 			page 16


 726:Drivers/BSP/ST7735/st7735.c ****           rgb_data +=2;
 727:Drivers/BSP/ST7735/st7735.c ****         }
 728:Drivers/BSP/ST7735/st7735.c ****         if(st7735_send_data(&pObj->Ctx, (uint8_t*)&pdata[0], 2U*Width) != ST7735_OK)
 729:Drivers/BSP/ST7735/st7735.c ****         {
 730:Drivers/BSP/ST7735/st7735.c ****           ret = ST7735_ERROR;
 731:Drivers/BSP/ST7735/st7735.c ****         }
 732:Drivers/BSP/ST7735/st7735.c ****       }
 733:Drivers/BSP/ST7735/st7735.c ****     }
 734:Drivers/BSP/ST7735/st7735.c ****   }
 735:Drivers/BSP/ST7735/st7735.c **** 
 736:Drivers/BSP/ST7735/st7735.c ****   return ret;
 737:Drivers/BSP/ST7735/st7735.c **** }
 738:Drivers/BSP/ST7735/st7735.c **** 
 739:Drivers/BSP/ST7735/st7735.c **** /**
 740:Drivers/BSP/ST7735/st7735.c ****   * @brief  Draw Horizontal line.
 741:Drivers/BSP/ST7735/st7735.c ****   * @param  pObj Component object
 742:Drivers/BSP/ST7735/st7735.c ****   * @param  Xpos   specifies the X position.
 743:Drivers/BSP/ST7735/st7735.c ****   * @param  Ypos   specifies the Y position.
 744:Drivers/BSP/ST7735/st7735.c ****   * @param  Length specifies the Line length.
 745:Drivers/BSP/ST7735/st7735.c ****   * @param  Color  Specifies the RGB color in RGB565 format
 746:Drivers/BSP/ST7735/st7735.c ****   * @retval The component status
 747:Drivers/BSP/ST7735/st7735.c ****   */
 748:Drivers/BSP/ST7735/st7735.c **** int32_t ST7735_DrawHLine(ST7735_Object_t *pObj, uint32_t Xpos, uint32_t Ypos, uint32_t Length, uint
 749:Drivers/BSP/ST7735/st7735.c **** {
 750:Drivers/BSP/ST7735/st7735.c ****   int32_t ret = ST7735_OK;
 751:Drivers/BSP/ST7735/st7735.c ****   uint32_t i;
 752:Drivers/BSP/ST7735/st7735.c ****   static uint8_t pdata[640];
 753:Drivers/BSP/ST7735/st7735.c **** 	
 754:Drivers/BSP/ST7735/st7735.c ****   if((Xpos + Length) > ST7735Ctx.Width)
 755:Drivers/BSP/ST7735/st7735.c ****   {
 756:Drivers/BSP/ST7735/st7735.c ****     ret = ST7735_ERROR;
 757:Drivers/BSP/ST7735/st7735.c ****   }/* Set Cursor */
 758:Drivers/BSP/ST7735/st7735.c ****   else if(ST7735_SetCursor(pObj, Xpos, Ypos) != ST7735_OK)
 759:Drivers/BSP/ST7735/st7735.c ****   {
 760:Drivers/BSP/ST7735/st7735.c ****     ret = ST7735_ERROR;
 761:Drivers/BSP/ST7735/st7735.c ****   }
 762:Drivers/BSP/ST7735/st7735.c ****   else
 763:Drivers/BSP/ST7735/st7735.c ****   {
 764:Drivers/BSP/ST7735/st7735.c ****     for(i = 0; i < Length; i++)
 765:Drivers/BSP/ST7735/st7735.c ****     {
 766:Drivers/BSP/ST7735/st7735.c ****       /* Exchange LSB and MSB to fit LCD specification */
 767:Drivers/BSP/ST7735/st7735.c ****       pdata[2U*i] = (uint8_t)(Color >> 8);
 768:Drivers/BSP/ST7735/st7735.c ****       pdata[(2U*i) + 1U] = (uint8_t)(Color);
 769:Drivers/BSP/ST7735/st7735.c **** 			
 770:Drivers/BSP/ST7735/st7735.c **** //      pdata[(2U*i) + 1U] = (uint8_t)(Color >> 8);
 771:Drivers/BSP/ST7735/st7735.c **** //      pdata[2U*i] = (uint8_t)(Color);			
 772:Drivers/BSP/ST7735/st7735.c ****     }
 773:Drivers/BSP/ST7735/st7735.c ****     if(st7735_send_data(&pObj->Ctx, (uint8_t*)&pdata[0], 2U*Length) != ST7735_OK)
 774:Drivers/BSP/ST7735/st7735.c ****     {
 775:Drivers/BSP/ST7735/st7735.c ****       ret = ST7735_ERROR;
 776:Drivers/BSP/ST7735/st7735.c ****     }
 777:Drivers/BSP/ST7735/st7735.c ****   }
 778:Drivers/BSP/ST7735/st7735.c **** 
 779:Drivers/BSP/ST7735/st7735.c ****   return ret;
 780:Drivers/BSP/ST7735/st7735.c **** }
 781:Drivers/BSP/ST7735/st7735.c **** 
 782:Drivers/BSP/ST7735/st7735.c **** /**
ARM GAS  /var/folders/mq/wg13gp494590nh4zyt09lxf00000gn/T//ccZMG5bD.s 			page 17


 783:Drivers/BSP/ST7735/st7735.c ****   * @brief  Draw vertical line.
 784:Drivers/BSP/ST7735/st7735.c ****   * @param  pObj Component object
 785:Drivers/BSP/ST7735/st7735.c ****   * @param  Color    Specifies the RGB color
 786:Drivers/BSP/ST7735/st7735.c ****   * @param  Xpos     specifies the X position.
 787:Drivers/BSP/ST7735/st7735.c ****   * @param  Ypos     specifies the Y position.
 788:Drivers/BSP/ST7735/st7735.c ****   * @param  Length   specifies the Line length.
 789:Drivers/BSP/ST7735/st7735.c ****   * @retval The component status
 790:Drivers/BSP/ST7735/st7735.c ****   */
 791:Drivers/BSP/ST7735/st7735.c **** int32_t ST7735_DrawVLine(ST7735_Object_t *pObj, uint32_t Xpos, uint32_t Ypos, uint32_t Length, uint
 792:Drivers/BSP/ST7735/st7735.c **** {
 793:Drivers/BSP/ST7735/st7735.c ****   int32_t ret = ST7735_OK;
 794:Drivers/BSP/ST7735/st7735.c ****   uint32_t counter;
 795:Drivers/BSP/ST7735/st7735.c **** 
 796:Drivers/BSP/ST7735/st7735.c ****   if((Ypos + Length) > ST7735Ctx.Height)
 797:Drivers/BSP/ST7735/st7735.c ****   {
 798:Drivers/BSP/ST7735/st7735.c ****     ret = ST7735_ERROR;
 799:Drivers/BSP/ST7735/st7735.c ****   }
 800:Drivers/BSP/ST7735/st7735.c ****   else
 801:Drivers/BSP/ST7735/st7735.c ****   {
 802:Drivers/BSP/ST7735/st7735.c ****     for(counter = 0; counter < Length; counter++)
 803:Drivers/BSP/ST7735/st7735.c ****     {
 804:Drivers/BSP/ST7735/st7735.c ****       if(ST7735_SetPixel(pObj, Xpos, Ypos + counter, Color) != ST7735_OK)
 805:Drivers/BSP/ST7735/st7735.c ****       {
 806:Drivers/BSP/ST7735/st7735.c ****         ret = ST7735_ERROR;
 807:Drivers/BSP/ST7735/st7735.c ****         break;
 808:Drivers/BSP/ST7735/st7735.c ****       }
 809:Drivers/BSP/ST7735/st7735.c ****     }
 810:Drivers/BSP/ST7735/st7735.c ****   }
 811:Drivers/BSP/ST7735/st7735.c **** 
 812:Drivers/BSP/ST7735/st7735.c ****   return ret;
 813:Drivers/BSP/ST7735/st7735.c **** }
 814:Drivers/BSP/ST7735/st7735.c **** 
 815:Drivers/BSP/ST7735/st7735.c **** /**
 816:Drivers/BSP/ST7735/st7735.c ****   * @brief  Fill rectangle
 817:Drivers/BSP/ST7735/st7735.c ****   * @param  pObj Component object
 818:Drivers/BSP/ST7735/st7735.c ****   * @param  Xpos X position
 819:Drivers/BSP/ST7735/st7735.c ****   * @param  Ypos Y position
 820:Drivers/BSP/ST7735/st7735.c ****   * @param  Width Rectangle width
 821:Drivers/BSP/ST7735/st7735.c ****   * @param  Height Rectangle height
 822:Drivers/BSP/ST7735/st7735.c ****   * @param  Color Draw color
 823:Drivers/BSP/ST7735/st7735.c ****   * @retval Component status
 824:Drivers/BSP/ST7735/st7735.c ****   */
 825:Drivers/BSP/ST7735/st7735.c **** int32_t ST7735_FillRect(ST7735_Object_t *pObj, uint32_t Xpos, uint32_t Ypos, uint32_t Width, uint32
 826:Drivers/BSP/ST7735/st7735.c **** {
 827:Drivers/BSP/ST7735/st7735.c ****   int32_t ret = ST7735_OK;
 828:Drivers/BSP/ST7735/st7735.c ****   uint32_t i, y_pos = Ypos;
 829:Drivers/BSP/ST7735/st7735.c **** 
 830:Drivers/BSP/ST7735/st7735.c ****   for(i = 0; i < Height; i++)
 831:Drivers/BSP/ST7735/st7735.c ****   {
 832:Drivers/BSP/ST7735/st7735.c ****     if(ST7735_DrawHLine(pObj, Xpos, y_pos, Width, Color) != ST7735_OK)
 833:Drivers/BSP/ST7735/st7735.c ****     {
 834:Drivers/BSP/ST7735/st7735.c ****       ret = ST7735_ERROR;
 835:Drivers/BSP/ST7735/st7735.c ****       break;
 836:Drivers/BSP/ST7735/st7735.c ****     }
 837:Drivers/BSP/ST7735/st7735.c ****     y_pos++;
 838:Drivers/BSP/ST7735/st7735.c ****   }
 839:Drivers/BSP/ST7735/st7735.c **** 
ARM GAS  /var/folders/mq/wg13gp494590nh4zyt09lxf00000gn/T//ccZMG5bD.s 			page 18


 840:Drivers/BSP/ST7735/st7735.c ****   return ret;
 841:Drivers/BSP/ST7735/st7735.c **** }
 842:Drivers/BSP/ST7735/st7735.c **** 
 843:Drivers/BSP/ST7735/st7735.c **** /**
 844:Drivers/BSP/ST7735/st7735.c ****   * @brief  Write pixel.
 845:Drivers/BSP/ST7735/st7735.c ****   * @param  pObj Component object
 846:Drivers/BSP/ST7735/st7735.c ****   * @param  Xpos specifies the X position.
 847:Drivers/BSP/ST7735/st7735.c ****   * @param  Ypos specifies the Y position.
 848:Drivers/BSP/ST7735/st7735.c ****   * @param  Color the RGB pixel color in RGB565 format
 849:Drivers/BSP/ST7735/st7735.c ****   * @retval The component status
 850:Drivers/BSP/ST7735/st7735.c ****   */
 851:Drivers/BSP/ST7735/st7735.c **** int32_t ST7735_SetPixel(ST7735_Object_t *pObj, uint32_t Xpos, uint32_t Ypos, uint32_t Color)
 852:Drivers/BSP/ST7735/st7735.c **** {
 853:Drivers/BSP/ST7735/st7735.c ****   int32_t ret = ST7735_OK;
 854:Drivers/BSP/ST7735/st7735.c ****   uint16_t color;
 855:Drivers/BSP/ST7735/st7735.c **** 
 856:Drivers/BSP/ST7735/st7735.c ****   /* Exchange LSB and MSB to fit LCD specification */
 857:Drivers/BSP/ST7735/st7735.c ****   color = (uint16_t)((uint16_t)Color << 8);
 858:Drivers/BSP/ST7735/st7735.c ****   color |= (uint16_t)((uint16_t)(Color >> 8));
 859:Drivers/BSP/ST7735/st7735.c **** 
 860:Drivers/BSP/ST7735/st7735.c ****   if((Xpos >= ST7735Ctx.Width) || (Ypos >= ST7735Ctx.Height))
 861:Drivers/BSP/ST7735/st7735.c ****   {
 862:Drivers/BSP/ST7735/st7735.c ****     ret = ST7735_ERROR;
 863:Drivers/BSP/ST7735/st7735.c ****   }/* Set Cursor */
 864:Drivers/BSP/ST7735/st7735.c ****   else if(ST7735_SetCursor(pObj, Xpos, Ypos) != ST7735_OK)
 865:Drivers/BSP/ST7735/st7735.c ****   {
 866:Drivers/BSP/ST7735/st7735.c ****     ret = ST7735_ERROR;
 867:Drivers/BSP/ST7735/st7735.c ****   }
 868:Drivers/BSP/ST7735/st7735.c ****   else
 869:Drivers/BSP/ST7735/st7735.c ****   {
 870:Drivers/BSP/ST7735/st7735.c ****     /* Write RAM data */
 871:Drivers/BSP/ST7735/st7735.c ****     if(st7735_send_data(&pObj->Ctx, (uint8_t*)&color, 2) != ST7735_OK)
 872:Drivers/BSP/ST7735/st7735.c ****     {
 873:Drivers/BSP/ST7735/st7735.c ****       ret = ST7735_ERROR;
 874:Drivers/BSP/ST7735/st7735.c ****     }
 875:Drivers/BSP/ST7735/st7735.c ****   }
 876:Drivers/BSP/ST7735/st7735.c **** 
 877:Drivers/BSP/ST7735/st7735.c ****   return ret;
 878:Drivers/BSP/ST7735/st7735.c **** }
 879:Drivers/BSP/ST7735/st7735.c **** 
 880:Drivers/BSP/ST7735/st7735.c **** /**
 881:Drivers/BSP/ST7735/st7735.c ****   * @brief  Read pixel.
 882:Drivers/BSP/ST7735/st7735.c ****   * @param  pObj Component object
 883:Drivers/BSP/ST7735/st7735.c ****   * @param  Xpos specifies the X position.
 884:Drivers/BSP/ST7735/st7735.c ****   * @param  Ypos specifies the Y position.
 885:Drivers/BSP/ST7735/st7735.c ****   * @param  Color the RGB pixel color in RGB565 format
 886:Drivers/BSP/ST7735/st7735.c ****   * @retval The component status
 887:Drivers/BSP/ST7735/st7735.c ****   */
 888:Drivers/BSP/ST7735/st7735.c **** int32_t ST7735_GetPixel(ST7735_Object_t *pObj, uint32_t Xpos, uint32_t Ypos, uint32_t *Color)
 889:Drivers/BSP/ST7735/st7735.c **** {
 890:Drivers/BSP/ST7735/st7735.c ****   int32_t ret;
 891:Drivers/BSP/ST7735/st7735.c ****   uint8_t pixel_lsb, pixel_msb;
 892:Drivers/BSP/ST7735/st7735.c ****   uint8_t tmp;
 893:Drivers/BSP/ST7735/st7735.c **** 
 894:Drivers/BSP/ST7735/st7735.c **** 
 895:Drivers/BSP/ST7735/st7735.c ****   /* Set Cursor */
 896:Drivers/BSP/ST7735/st7735.c ****   ret = ST7735_SetCursor(pObj, Xpos, Ypos);
ARM GAS  /var/folders/mq/wg13gp494590nh4zyt09lxf00000gn/T//ccZMG5bD.s 			page 19


 897:Drivers/BSP/ST7735/st7735.c **** 
 898:Drivers/BSP/ST7735/st7735.c ****   /* Prepare to read LCD RAM */
 899:Drivers/BSP/ST7735/st7735.c ****   ret += st7735_read_reg(&pObj->Ctx, ST7735_READ_RAM, &tmp);   /* RAM read data command */
 900:Drivers/BSP/ST7735/st7735.c **** 
 901:Drivers/BSP/ST7735/st7735.c ****   /* Dummy read */
 902:Drivers/BSP/ST7735/st7735.c ****   ret += st7735_recv_data(&pObj->Ctx, &tmp, 1);
 903:Drivers/BSP/ST7735/st7735.c **** 
 904:Drivers/BSP/ST7735/st7735.c ****   /* Read first part of the RGB888 data */
 905:Drivers/BSP/ST7735/st7735.c ****   ret += st7735_recv_data(&pObj->Ctx, &pixel_lsb, 1);
 906:Drivers/BSP/ST7735/st7735.c ****   /* Read first part of the RGB888 data */
 907:Drivers/BSP/ST7735/st7735.c ****   ret += st7735_recv_data(&pObj->Ctx, &pixel_msb, 1);
 908:Drivers/BSP/ST7735/st7735.c **** 
 909:Drivers/BSP/ST7735/st7735.c ****   *Color = ((uint32_t)(pixel_lsb)) + ((uint32_t)(pixel_msb) << 8);
 910:Drivers/BSP/ST7735/st7735.c **** 
 911:Drivers/BSP/ST7735/st7735.c ****   if(ret != ST7735_OK)
 912:Drivers/BSP/ST7735/st7735.c ****   {
 913:Drivers/BSP/ST7735/st7735.c ****     ret = ST7735_ERROR;
 914:Drivers/BSP/ST7735/st7735.c ****   }
 915:Drivers/BSP/ST7735/st7735.c **** 
 916:Drivers/BSP/ST7735/st7735.c ****   return ret;
 917:Drivers/BSP/ST7735/st7735.c **** }
 918:Drivers/BSP/ST7735/st7735.c **** 
 919:Drivers/BSP/ST7735/st7735.c **** /**
 920:Drivers/BSP/ST7735/st7735.c ****   * @brief  Get the LCD pixel Width.
 921:Drivers/BSP/ST7735/st7735.c ****   * @param  pObj Component object
 922:Drivers/BSP/ST7735/st7735.c ****   * @retval The Lcd Pixel Width
 923:Drivers/BSP/ST7735/st7735.c ****   */
 924:Drivers/BSP/ST7735/st7735.c **** int32_t ST7735_GetXSize(ST7735_Object_t *pObj, uint32_t *XSize)
 925:Drivers/BSP/ST7735/st7735.c **** {
 140              		.loc 1 925 1 is_stmt 1 view -0
 141              		.cfi_startproc
 142              		@ args = 0, pretend = 0, frame = 0
 143              		@ frame_needed = 0, uses_anonymous_args = 0
 144              		@ link register save eliminated.
 926:Drivers/BSP/ST7735/st7735.c ****   (void)pObj;
 145              		.loc 1 926 3 view .LVU25
 927:Drivers/BSP/ST7735/st7735.c **** 
 928:Drivers/BSP/ST7735/st7735.c ****   *XSize = ST7735Ctx.Width;
 146              		.loc 1 928 3 view .LVU26
 147              		.loc 1 928 21 is_stmt 0 view .LVU27
 148 0000 024B     		ldr	r3, .L8
 149 0002 1B68     		ldr	r3, [r3]
 150              		.loc 1 928 10 view .LVU28
 151 0004 0B60     		str	r3, [r1]
 929:Drivers/BSP/ST7735/st7735.c **** 
 930:Drivers/BSP/ST7735/st7735.c ****   return ST7735_OK;
 152              		.loc 1 930 3 is_stmt 1 view .LVU29
 931:Drivers/BSP/ST7735/st7735.c **** }
 153              		.loc 1 931 1 is_stmt 0 view .LVU30
 154 0006 0020     		movs	r0, #0
 155              	.LVL9:
 156              		.loc 1 931 1 view .LVU31
 157 0008 7047     		bx	lr
 158              	.L9:
 159 000a 00BF     		.align	2
 160              	.L8:
 161 000c 00000000 		.word	ST7735Ctx
ARM GAS  /var/folders/mq/wg13gp494590nh4zyt09lxf00000gn/T//ccZMG5bD.s 			page 20


 162              		.cfi_endproc
 163              	.LFE18:
 165              		.section	.text.ST7735_GetYSize,"ax",%progbits
 166              		.align	1
 167              		.global	ST7735_GetYSize
 168              		.syntax unified
 169              		.thumb
 170              		.thumb_func
 172              	ST7735_GetYSize:
 173              	.LVL10:
 174              	.LFB19:
 932:Drivers/BSP/ST7735/st7735.c **** 
 933:Drivers/BSP/ST7735/st7735.c **** /**
 934:Drivers/BSP/ST7735/st7735.c ****   * @brief  Get the LCD pixel Height.
 935:Drivers/BSP/ST7735/st7735.c ****   * @param  pObj Component object
 936:Drivers/BSP/ST7735/st7735.c ****   * @retval The Lcd Pixel Height
 937:Drivers/BSP/ST7735/st7735.c ****   */
 938:Drivers/BSP/ST7735/st7735.c **** int32_t ST7735_GetYSize(ST7735_Object_t *pObj, uint32_t *YSize)
 939:Drivers/BSP/ST7735/st7735.c **** {
 175              		.loc 1 939 1 is_stmt 1 view -0
 176              		.cfi_startproc
 177              		@ args = 0, pretend = 0, frame = 0
 178              		@ frame_needed = 0, uses_anonymous_args = 0
 179              		@ link register save eliminated.
 940:Drivers/BSP/ST7735/st7735.c ****   (void)pObj;
 180              		.loc 1 940 3 view .LVU33
 941:Drivers/BSP/ST7735/st7735.c **** 
 942:Drivers/BSP/ST7735/st7735.c ****   *YSize = ST7735Ctx.Height;
 181              		.loc 1 942 3 view .LVU34
 182              		.loc 1 942 21 is_stmt 0 view .LVU35
 183 0000 024B     		ldr	r3, .L11
 184 0002 5B68     		ldr	r3, [r3, #4]
 185              		.loc 1 942 10 view .LVU36
 186 0004 0B60     		str	r3, [r1]
 943:Drivers/BSP/ST7735/st7735.c **** 
 944:Drivers/BSP/ST7735/st7735.c ****   return ST7735_OK;
 187              		.loc 1 944 3 is_stmt 1 view .LVU37
 945:Drivers/BSP/ST7735/st7735.c **** }
 188              		.loc 1 945 1 is_stmt 0 view .LVU38
 189 0006 0020     		movs	r0, #0
 190              	.LVL11:
 191              		.loc 1 945 1 view .LVU39
 192 0008 7047     		bx	lr
 193              	.L12:
 194 000a 00BF     		.align	2
 195              	.L11:
 196 000c 00000000 		.word	ST7735Ctx
 197              		.cfi_endproc
 198              	.LFE19:
 200              		.section	.text.ST7735_ReadRegWrap,"ax",%progbits
 201              		.align	1
 202              		.syntax unified
 203              		.thumb
 204              		.thumb_func
 206              	ST7735_ReadRegWrap:
 207              	.LVL12:
 208              	.LFB21:
ARM GAS  /var/folders/mq/wg13gp494590nh4zyt09lxf00000gn/T//ccZMG5bD.s 			page 21


 946:Drivers/BSP/ST7735/st7735.c **** 
 947:Drivers/BSP/ST7735/st7735.c **** /**
 948:Drivers/BSP/ST7735/st7735.c ****   * @}
 949:Drivers/BSP/ST7735/st7735.c ****   */
 950:Drivers/BSP/ST7735/st7735.c **** 
 951:Drivers/BSP/ST7735/st7735.c **** /** @defgroup ST7735_Private_Functions  Private Functions
 952:Drivers/BSP/ST7735/st7735.c ****   * @{
 953:Drivers/BSP/ST7735/st7735.c ****   */
 954:Drivers/BSP/ST7735/st7735.c **** /**
 955:Drivers/BSP/ST7735/st7735.c ****   * @brief  Sets a display window
 956:Drivers/BSP/ST7735/st7735.c ****   * @param  Xpos   specifies the X bottom left position.
 957:Drivers/BSP/ST7735/st7735.c ****   * @param  Ypos   specifies the Y bottom left position.
 958:Drivers/BSP/ST7735/st7735.c ****   * @param  Height display window height.
 959:Drivers/BSP/ST7735/st7735.c ****   * @param  Width  display window width.
 960:Drivers/BSP/ST7735/st7735.c ****   * @retval Component status
 961:Drivers/BSP/ST7735/st7735.c ****   */
 962:Drivers/BSP/ST7735/st7735.c **** static int32_t ST7735_SetDisplayWindow(ST7735_Object_t *pObj, uint32_t Xpos, uint32_t Ypos, uint32_
 963:Drivers/BSP/ST7735/st7735.c **** {
 964:Drivers/BSP/ST7735/st7735.c ****   int32_t ret;
 965:Drivers/BSP/ST7735/st7735.c ****   uint8_t tmp;
 966:Drivers/BSP/ST7735/st7735.c **** 
 967:Drivers/BSP/ST7735/st7735.c **** 	/* Cursor calibration */
 968:Drivers/BSP/ST7735/st7735.c **** 	if(ST7735Ctx.Orientation <= ST7735_ORIENTATION_PORTRAIT_ROT180) {
 969:Drivers/BSP/ST7735/st7735.c **** 		if (ST7735Ctx.Type == ST7735_0_9_inch_screen) {		//0.96 ST7735
 970:Drivers/BSP/ST7735/st7735.c **** 			if (ST7735Ctx.Panel == HannStar_Panel) {
 971:Drivers/BSP/ST7735/st7735.c **** 				Xpos += 26;
 972:Drivers/BSP/ST7735/st7735.c **** 				Ypos += 1;
 973:Drivers/BSP/ST7735/st7735.c **** 			} else {		//BOE Panel
 974:Drivers/BSP/ST7735/st7735.c **** 				Xpos += 24;
 975:Drivers/BSP/ST7735/st7735.c **** 				Ypos += 0;
 976:Drivers/BSP/ST7735/st7735.c **** 			}
 977:Drivers/BSP/ST7735/st7735.c **** 		}
 978:Drivers/BSP/ST7735/st7735.c ****     else if(ST7735Ctx.Type == ST7735_1_8a_inch_screen){
 979:Drivers/BSP/ST7735/st7735.c ****       if (ST7735Ctx.Panel == BOE_Panel) {
 980:Drivers/BSP/ST7735/st7735.c **** 				Xpos += 2;
 981:Drivers/BSP/ST7735/st7735.c **** 				Ypos += 1;
 982:Drivers/BSP/ST7735/st7735.c **** 			}
 983:Drivers/BSP/ST7735/st7735.c ****     }
 984:Drivers/BSP/ST7735/st7735.c **** 	} else {
 985:Drivers/BSP/ST7735/st7735.c **** 		if (ST7735Ctx.Type == ST7735_0_9_inch_screen) {
 986:Drivers/BSP/ST7735/st7735.c **** 			if (ST7735Ctx.Panel == HannStar_Panel) {		//0.96 ST7735
 987:Drivers/BSP/ST7735/st7735.c **** 				Xpos += 1;
 988:Drivers/BSP/ST7735/st7735.c **** 				Ypos += 26;
 989:Drivers/BSP/ST7735/st7735.c **** 			} else {		//BOE Panel
 990:Drivers/BSP/ST7735/st7735.c **** 				Xpos += 1;
 991:Drivers/BSP/ST7735/st7735.c **** 				Ypos += 24;
 992:Drivers/BSP/ST7735/st7735.c **** 			}
 993:Drivers/BSP/ST7735/st7735.c **** 		}
 994:Drivers/BSP/ST7735/st7735.c ****     else if(ST7735Ctx.Type == ST7735_1_8a_inch_screen){
 995:Drivers/BSP/ST7735/st7735.c ****       if (ST7735Ctx.Panel == BOE_Panel) {
 996:Drivers/BSP/ST7735/st7735.c **** 				Xpos += 1;
 997:Drivers/BSP/ST7735/st7735.c **** 				Ypos += 2;
 998:Drivers/BSP/ST7735/st7735.c **** 			}
 999:Drivers/BSP/ST7735/st7735.c ****     }
1000:Drivers/BSP/ST7735/st7735.c **** 	}
1001:Drivers/BSP/ST7735/st7735.c **** 	
1002:Drivers/BSP/ST7735/st7735.c ****   /* Column addr set, 4 args, no delay: XSTART = Xpos, XEND = (Xpos + Width - 1) */
ARM GAS  /var/folders/mq/wg13gp494590nh4zyt09lxf00000gn/T//ccZMG5bD.s 			page 22


1003:Drivers/BSP/ST7735/st7735.c ****   ret = st7735_write_reg(&pObj->Ctx, ST7735_CASET, &tmp, 0);
1004:Drivers/BSP/ST7735/st7735.c ****   tmp = (uint8_t)(Xpos >> 8U);
1005:Drivers/BSP/ST7735/st7735.c ****   ret += st7735_send_data(&pObj->Ctx, &tmp, 1);
1006:Drivers/BSP/ST7735/st7735.c ****   tmp = (uint8_t)(Xpos & 0xFFU);
1007:Drivers/BSP/ST7735/st7735.c ****   ret += st7735_send_data(&pObj->Ctx, &tmp, 1);
1008:Drivers/BSP/ST7735/st7735.c ****   tmp = (uint8_t)((Xpos + Width - 1U) >> 8U);
1009:Drivers/BSP/ST7735/st7735.c ****   ret += st7735_send_data(&pObj->Ctx, &tmp, 1);
1010:Drivers/BSP/ST7735/st7735.c ****   tmp = (uint8_t)((Xpos + Width - 1U) & 0xFFU);
1011:Drivers/BSP/ST7735/st7735.c ****   ret += st7735_send_data(&pObj->Ctx, &tmp, 1);
1012:Drivers/BSP/ST7735/st7735.c **** 
1013:Drivers/BSP/ST7735/st7735.c ****   /* Row addr set, 4 args, no delay: YSTART = Ypos, YEND = (Ypos + Height - 1) */
1014:Drivers/BSP/ST7735/st7735.c ****   ret += st7735_write_reg(&pObj->Ctx, ST7735_RASET, &tmp, 0);
1015:Drivers/BSP/ST7735/st7735.c ****   tmp = (uint8_t)(Ypos >> 8U);
1016:Drivers/BSP/ST7735/st7735.c ****   ret += st7735_send_data(&pObj->Ctx, &tmp, 1);
1017:Drivers/BSP/ST7735/st7735.c ****   tmp = (uint8_t)(Ypos & 0xFFU);
1018:Drivers/BSP/ST7735/st7735.c ****   ret += st7735_send_data(&pObj->Ctx, &tmp, 1);
1019:Drivers/BSP/ST7735/st7735.c ****   tmp = (uint8_t)((Ypos + Height - 1U) >> 8U);
1020:Drivers/BSP/ST7735/st7735.c ****   ret += st7735_send_data(&pObj->Ctx, &tmp, 1);
1021:Drivers/BSP/ST7735/st7735.c ****   tmp = (uint8_t)((Ypos + Height - 1U) & 0xFFU);
1022:Drivers/BSP/ST7735/st7735.c ****   ret += st7735_send_data(&pObj->Ctx, &tmp, 1);
1023:Drivers/BSP/ST7735/st7735.c **** 
1024:Drivers/BSP/ST7735/st7735.c ****   if(ret != ST7735_OK)
1025:Drivers/BSP/ST7735/st7735.c ****   {
1026:Drivers/BSP/ST7735/st7735.c ****     ret = ST7735_ERROR;
1027:Drivers/BSP/ST7735/st7735.c ****   }
1028:Drivers/BSP/ST7735/st7735.c **** 
1029:Drivers/BSP/ST7735/st7735.c ****   return ret;
1030:Drivers/BSP/ST7735/st7735.c **** }
1031:Drivers/BSP/ST7735/st7735.c **** 
1032:Drivers/BSP/ST7735/st7735.c **** /**
1033:Drivers/BSP/ST7735/st7735.c ****   * @brief  Wrap component ReadReg to Bus Read function
1034:Drivers/BSP/ST7735/st7735.c ****   * @param  Handle  Component object handle
1035:Drivers/BSP/ST7735/st7735.c ****   * @param  Reg  The target register address to write
1036:Drivers/BSP/ST7735/st7735.c ****   * @param  pData  The target register value to be written
1037:Drivers/BSP/ST7735/st7735.c ****   * @retval Component error status
1038:Drivers/BSP/ST7735/st7735.c ****   */
1039:Drivers/BSP/ST7735/st7735.c **** static int32_t ST7735_ReadRegWrap(void *Handle, uint8_t Reg, uint8_t* pData)
1040:Drivers/BSP/ST7735/st7735.c **** {
 209              		.loc 1 1040 1 is_stmt 1 view -0
 210              		.cfi_startproc
 211              		@ args = 0, pretend = 0, frame = 0
 212              		@ frame_needed = 0, uses_anonymous_args = 0
 213              		.loc 1 1040 1 is_stmt 0 view .LVU41
 214 0000 08B5     		push	{r3, lr}
 215              	.LCFI0:
 216              		.cfi_def_cfa_offset 8
 217              		.cfi_offset 3, -8
 218              		.cfi_offset 14, -4
 219 0002 0346     		mov	r3, r0
 220 0004 0846     		mov	r0, r1
 221              	.LVL13:
1041:Drivers/BSP/ST7735/st7735.c ****   ST7735_Object_t *pObj = (ST7735_Object_t *)Handle;
 222              		.loc 1 1041 3 is_stmt 1 view .LVU42
1042:Drivers/BSP/ST7735/st7735.c **** 
1043:Drivers/BSP/ST7735/st7735.c ****   return pObj->IO.ReadReg(Reg, pData);
 223              		.loc 1 1043 3 view .LVU43
 224              		.loc 1 1043 18 is_stmt 0 view .LVU44
ARM GAS  /var/folders/mq/wg13gp494590nh4zyt09lxf00000gn/T//ccZMG5bD.s 			page 23


 225 0006 1B69     		ldr	r3, [r3, #16]
 226              	.LVL14:
 227              		.loc 1 1043 10 view .LVU45
 228 0008 1146     		mov	r1, r2
 229              	.LVL15:
 230              		.loc 1 1043 10 view .LVU46
 231 000a 9847     		blx	r3
 232              	.LVL16:
1044:Drivers/BSP/ST7735/st7735.c **** }
 233              		.loc 1 1044 1 view .LVU47
 234 000c 08BD     		pop	{r3, pc}
 235              		.cfi_endproc
 236              	.LFE21:
 238              		.section	.text.ST7735_WriteRegWrap,"ax",%progbits
 239              		.align	1
 240              		.syntax unified
 241              		.thumb
 242              		.thumb_func
 244              	ST7735_WriteRegWrap:
 245              	.LVL17:
 246              	.LFB22:
1045:Drivers/BSP/ST7735/st7735.c **** 
1046:Drivers/BSP/ST7735/st7735.c **** /**
1047:Drivers/BSP/ST7735/st7735.c ****   * @brief  Wrap component WriteReg to Bus Write function
1048:Drivers/BSP/ST7735/st7735.c ****   * @param  handle  Component object handle
1049:Drivers/BSP/ST7735/st7735.c ****   * @param  Reg  The target register address to write
1050:Drivers/BSP/ST7735/st7735.c ****   * @param  pData  The target register value to be written
1051:Drivers/BSP/ST7735/st7735.c ****   * @param  Length  buffer size to be written
1052:Drivers/BSP/ST7735/st7735.c ****   * @retval Component error status
1053:Drivers/BSP/ST7735/st7735.c ****   */
1054:Drivers/BSP/ST7735/st7735.c **** static int32_t ST7735_WriteRegWrap(void *Handle, uint8_t Reg, uint8_t *pData, uint32_t Length)
1055:Drivers/BSP/ST7735/st7735.c **** {
 247              		.loc 1 1055 1 is_stmt 1 view -0
 248              		.cfi_startproc
 249              		@ args = 0, pretend = 0, frame = 0
 250              		@ frame_needed = 0, uses_anonymous_args = 0
 251              		.loc 1 1055 1 is_stmt 0 view .LVU49
 252 0000 10B5     		push	{r4, lr}
 253              	.LCFI1:
 254              		.cfi_def_cfa_offset 8
 255              		.cfi_offset 4, -8
 256              		.cfi_offset 14, -4
 257 0002 0446     		mov	r4, r0
 258 0004 0846     		mov	r0, r1
 259              	.LVL18:
 260              		.loc 1 1055 1 view .LVU50
 261 0006 1146     		mov	r1, r2
 262              	.LVL19:
1056:Drivers/BSP/ST7735/st7735.c ****   ST7735_Object_t *pObj = (ST7735_Object_t *)Handle;
 263              		.loc 1 1056 3 is_stmt 1 view .LVU51
1057:Drivers/BSP/ST7735/st7735.c **** 
1058:Drivers/BSP/ST7735/st7735.c ****   return pObj->IO.WriteReg(Reg, pData, Length);
 264              		.loc 1 1058 3 view .LVU52
 265              		.loc 1 1058 18 is_stmt 0 view .LVU53
 266 0008 E468     		ldr	r4, [r4, #12]
 267              	.LVL20:
 268              		.loc 1 1058 10 view .LVU54
ARM GAS  /var/folders/mq/wg13gp494590nh4zyt09lxf00000gn/T//ccZMG5bD.s 			page 24


 269 000a 1A46     		mov	r2, r3
 270              	.LVL21:
 271              		.loc 1 1058 10 view .LVU55
 272 000c A047     		blx	r4
 273              	.LVL22:
1059:Drivers/BSP/ST7735/st7735.c **** }
 274              		.loc 1 1059 1 view .LVU56
 275 000e 10BD     		pop	{r4, pc}
 276              		.cfi_endproc
 277              	.LFE22:
 279              		.section	.text.ST7735_SendDataWrap,"ax",%progbits
 280              		.align	1
 281              		.syntax unified
 282              		.thumb
 283              		.thumb_func
 285              	ST7735_SendDataWrap:
 286              	.LVL23:
 287              	.LFB23:
1060:Drivers/BSP/ST7735/st7735.c **** 
1061:Drivers/BSP/ST7735/st7735.c **** 
1062:Drivers/BSP/ST7735/st7735.c **** /**
1063:Drivers/BSP/ST7735/st7735.c ****   * @brief  Wrap component SendData to Bus Write function
1064:Drivers/BSP/ST7735/st7735.c ****   * @param  handle  Component object handle
1065:Drivers/BSP/ST7735/st7735.c ****   * @param  pData  The target register value to be written
1066:Drivers/BSP/ST7735/st7735.c ****   * @retval Component error status
1067:Drivers/BSP/ST7735/st7735.c ****   */
1068:Drivers/BSP/ST7735/st7735.c **** static int32_t ST7735_SendDataWrap(void *Handle, uint8_t *pData, uint32_t Length)
1069:Drivers/BSP/ST7735/st7735.c **** {
 288              		.loc 1 1069 1 is_stmt 1 view -0
 289              		.cfi_startproc
 290              		@ args = 0, pretend = 0, frame = 0
 291              		@ frame_needed = 0, uses_anonymous_args = 0
 292              		.loc 1 1069 1 is_stmt 0 view .LVU58
 293 0000 08B5     		push	{r3, lr}
 294              	.LCFI2:
 295              		.cfi_def_cfa_offset 8
 296              		.cfi_offset 3, -8
 297              		.cfi_offset 14, -4
 298 0002 0346     		mov	r3, r0
 299 0004 0846     		mov	r0, r1
 300              	.LVL24:
1070:Drivers/BSP/ST7735/st7735.c ****   ST7735_Object_t *pObj = (ST7735_Object_t *)Handle;
 301              		.loc 1 1070 3 is_stmt 1 view .LVU59
1071:Drivers/BSP/ST7735/st7735.c **** 
1072:Drivers/BSP/ST7735/st7735.c ****   return pObj->IO.SendData(pData, Length);
 302              		.loc 1 1072 3 view .LVU60
 303              		.loc 1 1072 18 is_stmt 0 view .LVU61
 304 0006 5B69     		ldr	r3, [r3, #20]
 305              	.LVL25:
 306              		.loc 1 1072 10 view .LVU62
 307 0008 1146     		mov	r1, r2
 308              	.LVL26:
 309              		.loc 1 1072 10 view .LVU63
 310 000a 9847     		blx	r3
 311              	.LVL27:
1073:Drivers/BSP/ST7735/st7735.c **** }
 312              		.loc 1 1073 1 view .LVU64
ARM GAS  /var/folders/mq/wg13gp494590nh4zyt09lxf00000gn/T//ccZMG5bD.s 			page 25


 313 000c 08BD     		pop	{r3, pc}
 314              		.cfi_endproc
 315              	.LFE23:
 317              		.section	.text.ST7735_RecvDataWrap,"ax",%progbits
 318              		.align	1
 319              		.syntax unified
 320              		.thumb
 321              		.thumb_func
 323              	ST7735_RecvDataWrap:
 324              	.LVL28:
 325              	.LFB24:
1074:Drivers/BSP/ST7735/st7735.c **** 
1075:Drivers/BSP/ST7735/st7735.c **** /**
1076:Drivers/BSP/ST7735/st7735.c ****   * @brief  Wrap component SendData to Bus Write function
1077:Drivers/BSP/ST7735/st7735.c ****   * @param  handle  Component object handle
1078:Drivers/BSP/ST7735/st7735.c ****   * @param  pData  The target register value to be written
1079:Drivers/BSP/ST7735/st7735.c ****   * @retval Component error status
1080:Drivers/BSP/ST7735/st7735.c ****   */
1081:Drivers/BSP/ST7735/st7735.c **** static int32_t ST7735_RecvDataWrap(void *Handle, uint8_t *pData, uint32_t Length)
1082:Drivers/BSP/ST7735/st7735.c **** {
 326              		.loc 1 1082 1 is_stmt 1 view -0
 327              		.cfi_startproc
 328              		@ args = 0, pretend = 0, frame = 0
 329              		@ frame_needed = 0, uses_anonymous_args = 0
 330              		.loc 1 1082 1 is_stmt 0 view .LVU66
 331 0000 08B5     		push	{r3, lr}
 332              	.LCFI3:
 333              		.cfi_def_cfa_offset 8
 334              		.cfi_offset 3, -8
 335              		.cfi_offset 14, -4
 336 0002 0346     		mov	r3, r0
 337 0004 0846     		mov	r0, r1
 338              	.LVL29:
1083:Drivers/BSP/ST7735/st7735.c ****   ST7735_Object_t *pObj = (ST7735_Object_t *)Handle;
 339              		.loc 1 1083 3 is_stmt 1 view .LVU67
1084:Drivers/BSP/ST7735/st7735.c **** 
1085:Drivers/BSP/ST7735/st7735.c ****   return pObj->IO.RecvData(pData, Length);
 340              		.loc 1 1085 3 view .LVU68
 341              		.loc 1 1085 18 is_stmt 0 view .LVU69
 342 0006 9B69     		ldr	r3, [r3, #24]
 343              	.LVL30:
 344              		.loc 1 1085 10 view .LVU70
 345 0008 1146     		mov	r1, r2
 346              	.LVL31:
 347              		.loc 1 1085 10 view .LVU71
 348 000a 9847     		blx	r3
 349              	.LVL32:
1086:Drivers/BSP/ST7735/st7735.c **** }
 350              		.loc 1 1086 1 view .LVU72
 351 000c 08BD     		pop	{r3, pc}
 352              		.cfi_endproc
 353              	.LFE24:
 355              		.section	.text.ST7735_IO_Delay,"ax",%progbits
 356              		.align	1
 357              		.syntax unified
 358              		.thumb
 359              		.thumb_func
ARM GAS  /var/folders/mq/wg13gp494590nh4zyt09lxf00000gn/T//ccZMG5bD.s 			page 26


 361              	ST7735_IO_Delay:
 362              	.LVL33:
 363              	.LFB25:
1087:Drivers/BSP/ST7735/st7735.c **** 
1088:Drivers/BSP/ST7735/st7735.c **** /**
1089:Drivers/BSP/ST7735/st7735.c ****   * @brief  ST7735 delay
1090:Drivers/BSP/ST7735/st7735.c ****   * @param  Delay  Delay in ms
1091:Drivers/BSP/ST7735/st7735.c ****   * @retval Component error status
1092:Drivers/BSP/ST7735/st7735.c ****   */
1093:Drivers/BSP/ST7735/st7735.c **** static int32_t ST7735_IO_Delay(ST7735_Object_t *pObj, uint32_t Delay)
1094:Drivers/BSP/ST7735/st7735.c **** {
 364              		.loc 1 1094 1 is_stmt 1 view -0
 365              		.cfi_startproc
 366              		@ args = 0, pretend = 0, frame = 0
 367              		@ frame_needed = 0, uses_anonymous_args = 0
 368              		.loc 1 1094 1 is_stmt 0 view .LVU74
 369 0000 70B5     		push	{r4, r5, r6, lr}
 370              	.LCFI4:
 371              		.cfi_def_cfa_offset 16
 372              		.cfi_offset 4, -16
 373              		.cfi_offset 5, -12
 374              		.cfi_offset 6, -8
 375              		.cfi_offset 14, -4
 376 0002 0446     		mov	r4, r0
 377 0004 0E46     		mov	r6, r1
1095:Drivers/BSP/ST7735/st7735.c ****   uint32_t tickstart;
 378              		.loc 1 1095 3 is_stmt 1 view .LVU75
1096:Drivers/BSP/ST7735/st7735.c ****   tickstart = pObj->IO.GetTick();
 379              		.loc 1 1096 3 view .LVU76
 380              		.loc 1 1096 23 is_stmt 0 view .LVU77
 381 0006 C369     		ldr	r3, [r0, #28]
 382              		.loc 1 1096 15 view .LVU78
 383 0008 9847     		blx	r3
 384              	.LVL34:
 385              		.loc 1 1096 15 view .LVU79
 386 000a 0546     		mov	r5, r0
 387              	.LVL35:
1097:Drivers/BSP/ST7735/st7735.c ****   while((pObj->IO.GetTick() - tickstart) < Delay)
 388              		.loc 1 1097 3 is_stmt 1 view .LVU80
 389              	.L22:
1098:Drivers/BSP/ST7735/st7735.c ****   {
1099:Drivers/BSP/ST7735/st7735.c ****   }
 390              		.loc 1 1099 3 view .LVU81
1097:Drivers/BSP/ST7735/st7735.c ****   while((pObj->IO.GetTick() - tickstart) < Delay)
 391              		.loc 1 1097 42 discriminator 1 view .LVU82
1097:Drivers/BSP/ST7735/st7735.c ****   while((pObj->IO.GetTick() - tickstart) < Delay)
 392              		.loc 1 1097 18 is_stmt 0 discriminator 1 view .LVU83
 393 000c E369     		ldr	r3, [r4, #28]
1097:Drivers/BSP/ST7735/st7735.c ****   while((pObj->IO.GetTick() - tickstart) < Delay)
 394              		.loc 1 1097 10 discriminator 1 view .LVU84
 395 000e 9847     		blx	r3
 396              	.LVL36:
1097:Drivers/BSP/ST7735/st7735.c ****   while((pObj->IO.GetTick() - tickstart) < Delay)
 397              		.loc 1 1097 29 discriminator 1 view .LVU85
 398 0010 401B     		subs	r0, r0, r5
1097:Drivers/BSP/ST7735/st7735.c ****   while((pObj->IO.GetTick() - tickstart) < Delay)
 399              		.loc 1 1097 42 discriminator 1 view .LVU86
ARM GAS  /var/folders/mq/wg13gp494590nh4zyt09lxf00000gn/T//ccZMG5bD.s 			page 27


 400 0012 B042     		cmp	r0, r6
 401 0014 FAD3     		bcc	.L22
1100:Drivers/BSP/ST7735/st7735.c ****   return ST7735_OK;
 402              		.loc 1 1100 3 is_stmt 1 view .LVU87
1101:Drivers/BSP/ST7735/st7735.c **** }
 403              		.loc 1 1101 1 is_stmt 0 view .LVU88
 404 0016 0020     		movs	r0, #0
 405 0018 70BD     		pop	{r4, r5, r6, pc}
 406              		.loc 1 1101 1 view .LVU89
 407              		.cfi_endproc
 408              	.LFE25:
 410              		.section	.text.ST7735_DisplayOn,"ax",%progbits
 411              		.align	1
 412              		.global	ST7735_DisplayOn
 413              		.syntax unified
 414              		.thumb
 415              		.thumb_func
 417              	ST7735_DisplayOn:
 418              	.LVL37:
 419              	.LFB4:
 387:Drivers/BSP/ST7735/st7735.c ****   int32_t ret;
 420              		.loc 1 387 1 is_stmt 1 view -0
 421              		.cfi_startproc
 422              		@ args = 0, pretend = 0, frame = 8
 423              		@ frame_needed = 0, uses_anonymous_args = 0
 387:Drivers/BSP/ST7735/st7735.c ****   int32_t ret;
 424              		.loc 1 387 1 is_stmt 0 view .LVU91
 425 0000 F0B5     		push	{r4, r5, r6, r7, lr}
 426              	.LCFI5:
 427              		.cfi_def_cfa_offset 20
 428              		.cfi_offset 4, -20
 429              		.cfi_offset 5, -16
 430              		.cfi_offset 6, -12
 431              		.cfi_offset 7, -8
 432              		.cfi_offset 14, -4
 433 0002 83B0     		sub	sp, sp, #12
 434              	.LCFI6:
 435              		.cfi_def_cfa_offset 32
 436 0004 0546     		mov	r5, r0
 388:Drivers/BSP/ST7735/st7735.c ****   uint8_t tmp = 0;
 437              		.loc 1 388 3 is_stmt 1 view .LVU92
 389:Drivers/BSP/ST7735/st7735.c **** 
 438              		.loc 1 389 3 view .LVU93
 389:Drivers/BSP/ST7735/st7735.c **** 
 439              		.loc 1 389 11 is_stmt 0 view .LVU94
 440 0006 0027     		movs	r7, #0
 441 0008 8DF80770 		strb	r7, [sp, #7]
 391:Drivers/BSP/ST7735/st7735.c ****   (void)ST7735_IO_Delay(pObj, 10);
 442              		.loc 1 391 3 is_stmt 1 view .LVU95
 391:Drivers/BSP/ST7735/st7735.c ****   (void)ST7735_IO_Delay(pObj, 10);
 443              		.loc 1 391 9 is_stmt 0 view .LVU96
 444 000c 00F12006 		add	r6, r0, #32
 445 0010 3B46     		mov	r3, r7
 446 0012 0DF10702 		add	r2, sp, #7
 447 0016 1321     		movs	r1, #19
 448 0018 3046     		mov	r0, r6
 449              	.LVL38:
ARM GAS  /var/folders/mq/wg13gp494590nh4zyt09lxf00000gn/T//ccZMG5bD.s 			page 28


 391:Drivers/BSP/ST7735/st7735.c ****   (void)ST7735_IO_Delay(pObj, 10);
 450              		.loc 1 391 9 view .LVU97
 451 001a FFF7FEFF 		bl	st7735_write_reg
 452              	.LVL39:
 453 001e 0446     		mov	r4, r0
 454              	.LVL40:
 392:Drivers/BSP/ST7735/st7735.c ****   ret += st7735_write_reg(&pObj->Ctx, ST7735_DISPLAY_ON, &tmp, 0);
 455              		.loc 1 392 3 is_stmt 1 view .LVU98
 392:Drivers/BSP/ST7735/st7735.c ****   ret += st7735_write_reg(&pObj->Ctx, ST7735_DISPLAY_ON, &tmp, 0);
 456              		.loc 1 392 9 is_stmt 0 view .LVU99
 457 0020 0A21     		movs	r1, #10
 458 0022 2846     		mov	r0, r5
 459              	.LVL41:
 392:Drivers/BSP/ST7735/st7735.c ****   ret += st7735_write_reg(&pObj->Ctx, ST7735_DISPLAY_ON, &tmp, 0);
 460              		.loc 1 392 9 view .LVU100
 461 0024 FFF7FEFF 		bl	ST7735_IO_Delay
 462              	.LVL42:
 393:Drivers/BSP/ST7735/st7735.c ****   (void)ST7735_IO_Delay(pObj, 10);
 463              		.loc 1 393 3 is_stmt 1 view .LVU101
 393:Drivers/BSP/ST7735/st7735.c ****   (void)ST7735_IO_Delay(pObj, 10);
 464              		.loc 1 393 10 is_stmt 0 view .LVU102
 465 0028 3B46     		mov	r3, r7
 466 002a 0DF10702 		add	r2, sp, #7
 467 002e 2921     		movs	r1, #41
 468 0030 3046     		mov	r0, r6
 469 0032 FFF7FEFF 		bl	st7735_write_reg
 470              	.LVL43:
 393:Drivers/BSP/ST7735/st7735.c ****   (void)ST7735_IO_Delay(pObj, 10);
 471              		.loc 1 393 7 discriminator 1 view .LVU103
 472 0036 0444     		add	r4, r4, r0
 473              	.LVL44:
 394:Drivers/BSP/ST7735/st7735.c ****   ret += st7735_write_reg(&pObj->Ctx, ST7735_MADCTL, &tmp, 0);
 474              		.loc 1 394 3 is_stmt 1 view .LVU104
 394:Drivers/BSP/ST7735/st7735.c ****   ret += st7735_write_reg(&pObj->Ctx, ST7735_MADCTL, &tmp, 0);
 475              		.loc 1 394 9 is_stmt 0 view .LVU105
 476 0038 0A21     		movs	r1, #10
 477 003a 2846     		mov	r0, r5
 478 003c FFF7FEFF 		bl	ST7735_IO_Delay
 479              	.LVL45:
 395:Drivers/BSP/ST7735/st7735.c **** 	tmp = ST7735Ctx.Panel == HannStar_Panel ? 
 480              		.loc 1 395 3 is_stmt 1 view .LVU106
 395:Drivers/BSP/ST7735/st7735.c **** 	tmp = ST7735Ctx.Panel == HannStar_Panel ? 
 481              		.loc 1 395 10 is_stmt 0 view .LVU107
 482 0040 3B46     		mov	r3, r7
 483 0042 0DF10702 		add	r2, sp, #7
 484 0046 3621     		movs	r1, #54
 485 0048 3046     		mov	r0, r6
 486 004a FFF7FEFF 		bl	st7735_write_reg
 487              	.LVL46:
 395:Drivers/BSP/ST7735/st7735.c **** 	tmp = ST7735Ctx.Panel == HannStar_Panel ? 
 488              		.loc 1 395 7 discriminator 1 view .LVU108
 489 004e 0444     		add	r4, r4, r0
 490              	.LVL47:
 396:Drivers/BSP/ST7735/st7735.c **** 			(uint8_t)OrientationTab[ST7735Ctx.Orientation][1] | LCD_BGR :
 491              		.loc 1 396 2 is_stmt 1 view .LVU109
 396:Drivers/BSP/ST7735/st7735.c **** 			(uint8_t)OrientationTab[ST7735Ctx.Orientation][1] | LCD_BGR :
 492              		.loc 1 396 17 is_stmt 0 view .LVU110
ARM GAS  /var/folders/mq/wg13gp494590nh4zyt09lxf00000gn/T//ccZMG5bD.s 			page 29


 493 0050 104B     		ldr	r3, .L31
 494 0052 1B7B     		ldrb	r3, [r3, #12]	@ zero_extendqisi2
 396:Drivers/BSP/ST7735/st7735.c **** 			(uint8_t)OrientationTab[ST7735Ctx.Orientation][1] | LCD_BGR :
 495              		.loc 1 396 6 view .LVU111
 496 0054 9BB9     		cbnz	r3, .L25
 397:Drivers/BSP/ST7735/st7735.c **** 			(uint8_t)OrientationTab[ST7735Ctx.Orientation][1] | LCD_RGB;
 497              		.loc 1 397 37 view .LVU112
 498 0056 0F4B     		ldr	r3, .L31
 499 0058 9A68     		ldr	r2, [r3, #8]
 397:Drivers/BSP/ST7735/st7735.c **** 			(uint8_t)OrientationTab[ST7735Ctx.Orientation][1] | LCD_RGB;
 500              		.loc 1 397 50 view .LVU113
 501 005a 0F4B     		ldr	r3, .L31+4
 502 005c 03EBC203 		add	r3, r3, r2, lsl #3
 397:Drivers/BSP/ST7735/st7735.c **** 			(uint8_t)OrientationTab[ST7735Ctx.Orientation][1] | LCD_RGB;
 503              		.loc 1 397 4 view .LVU114
 504 0060 1B79     		ldrb	r3, [r3, #4]	@ zero_extendqisi2
 396:Drivers/BSP/ST7735/st7735.c **** 			(uint8_t)OrientationTab[ST7735Ctx.Orientation][1] | LCD_BGR :
 505              		.loc 1 396 6 discriminator 1 view .LVU115
 506 0062 43F00803 		orr	r3, r3, #8
 507              	.L26:
 396:Drivers/BSP/ST7735/st7735.c **** 			(uint8_t)OrientationTab[ST7735Ctx.Orientation][1] | LCD_BGR :
 508              		.loc 1 396 6 discriminator 4 view .LVU116
 509 0066 8DF80730 		strb	r3, [sp, #7]
 399:Drivers/BSP/ST7735/st7735.c ****   if(ret != ST7735_OK)
 510              		.loc 1 399 3 is_stmt 1 view .LVU117
 399:Drivers/BSP/ST7735/st7735.c ****   if(ret != ST7735_OK)
 511              		.loc 1 399 10 is_stmt 0 view .LVU118
 512 006a 0122     		movs	r2, #1
 513 006c 0DF10701 		add	r1, sp, #7
 514 0070 3046     		mov	r0, r6
 515 0072 FFF7FEFF 		bl	st7735_send_data
 516              	.LVL48:
 400:Drivers/BSP/ST7735/st7735.c ****   {
 517              		.loc 1 400 3 is_stmt 1 view .LVU119
 400:Drivers/BSP/ST7735/st7735.c ****   {
 518              		.loc 1 400 5 is_stmt 0 view .LVU120
 519 0076 2018     		adds	r0, r4, r0
 520              	.LVL49:
 400:Drivers/BSP/ST7735/st7735.c ****   {
 521              		.loc 1 400 5 view .LVU121
 522 0078 08D1     		bne	.L30
 523              	.LVL50:
 524              	.L24:
 406:Drivers/BSP/ST7735/st7735.c **** 
 525              		.loc 1 406 1 view .LVU122
 526 007a 03B0     		add	sp, sp, #12
 527              	.LCFI7:
 528              		.cfi_remember_state
 529              		.cfi_def_cfa_offset 20
 530              		@ sp needed
 531 007c F0BD     		pop	{r4, r5, r6, r7, pc}
 532              	.LVL51:
 533              	.L25:
 534              	.LCFI8:
 535              		.cfi_restore_state
 398:Drivers/BSP/ST7735/st7735.c ****   ret += st7735_send_data(&pObj->Ctx, &tmp, 1);
 536              		.loc 1 398 37 view .LVU123
ARM GAS  /var/folders/mq/wg13gp494590nh4zyt09lxf00000gn/T//ccZMG5bD.s 			page 30


 537 007e 054B     		ldr	r3, .L31
 538 0080 9A68     		ldr	r2, [r3, #8]
 398:Drivers/BSP/ST7735/st7735.c ****   ret += st7735_send_data(&pObj->Ctx, &tmp, 1);
 539              		.loc 1 398 50 view .LVU124
 540 0082 054B     		ldr	r3, .L31+4
 541 0084 03EBC203 		add	r3, r3, r2, lsl #3
 396:Drivers/BSP/ST7735/st7735.c **** 			(uint8_t)OrientationTab[ST7735Ctx.Orientation][1] | LCD_BGR :
 542              		.loc 1 396 6 discriminator 2 view .LVU125
 543 0088 1B79     		ldrb	r3, [r3, #4]	@ zero_extendqisi2
 544 008a ECE7     		b	.L26
 545              	.LVL52:
 546              	.L30:
 402:Drivers/BSP/ST7735/st7735.c ****   }
 547              		.loc 1 402 9 view .LVU126
 548 008c 4FF0FF30 		mov	r0, #-1
 549              	.LVL53:
 405:Drivers/BSP/ST7735/st7735.c **** }
 550              		.loc 1 405 3 is_stmt 1 view .LVU127
 405:Drivers/BSP/ST7735/st7735.c **** }
 551              		.loc 1 405 10 is_stmt 0 view .LVU128
 552 0090 F3E7     		b	.L24
 553              	.L32:
 554 0092 00BF     		.align	2
 555              	.L31:
 556 0094 00000000 		.word	ST7735Ctx
 557 0098 00000000 		.word	OrientationTab
 558              		.cfi_endproc
 559              	.LFE4:
 561              		.section	.text.ST7735_DisplayOff,"ax",%progbits
 562              		.align	1
 563              		.global	ST7735_DisplayOff
 564              		.syntax unified
 565              		.thumb
 566              		.thumb_func
 568              	ST7735_DisplayOff:
 569              	.LVL54:
 570              	.LFB5:
 414:Drivers/BSP/ST7735/st7735.c ****   int32_t ret;
 571              		.loc 1 414 1 is_stmt 1 view -0
 572              		.cfi_startproc
 573              		@ args = 0, pretend = 0, frame = 8
 574              		@ frame_needed = 0, uses_anonymous_args = 0
 414:Drivers/BSP/ST7735/st7735.c ****   int32_t ret;
 575              		.loc 1 414 1 is_stmt 0 view .LVU130
 576 0000 F0B5     		push	{r4, r5, r6, r7, lr}
 577              	.LCFI9:
 578              		.cfi_def_cfa_offset 20
 579              		.cfi_offset 4, -20
 580              		.cfi_offset 5, -16
 581              		.cfi_offset 6, -12
 582              		.cfi_offset 7, -8
 583              		.cfi_offset 14, -4
 584 0002 83B0     		sub	sp, sp, #12
 585              	.LCFI10:
 586              		.cfi_def_cfa_offset 32
 587 0004 0546     		mov	r5, r0
 415:Drivers/BSP/ST7735/st7735.c ****   uint8_t tmp = 0;
ARM GAS  /var/folders/mq/wg13gp494590nh4zyt09lxf00000gn/T//ccZMG5bD.s 			page 31


 588              		.loc 1 415 3 is_stmt 1 view .LVU131
 416:Drivers/BSP/ST7735/st7735.c **** 
 589              		.loc 1 416 3 view .LVU132
 416:Drivers/BSP/ST7735/st7735.c **** 
 590              		.loc 1 416 11 is_stmt 0 view .LVU133
 591 0006 0027     		movs	r7, #0
 592 0008 8DF80770 		strb	r7, [sp, #7]
 418:Drivers/BSP/ST7735/st7735.c ****   (void)ST7735_IO_Delay(pObj, 10);
 593              		.loc 1 418 3 is_stmt 1 view .LVU134
 418:Drivers/BSP/ST7735/st7735.c ****   (void)ST7735_IO_Delay(pObj, 10);
 594              		.loc 1 418 9 is_stmt 0 view .LVU135
 595 000c 00F12006 		add	r6, r0, #32
 596 0010 3B46     		mov	r3, r7
 597 0012 0DF10702 		add	r2, sp, #7
 598 0016 1321     		movs	r1, #19
 599 0018 3046     		mov	r0, r6
 600              	.LVL55:
 418:Drivers/BSP/ST7735/st7735.c ****   (void)ST7735_IO_Delay(pObj, 10);
 601              		.loc 1 418 9 view .LVU136
 602 001a FFF7FEFF 		bl	st7735_write_reg
 603              	.LVL56:
 604 001e 0446     		mov	r4, r0
 605              	.LVL57:
 419:Drivers/BSP/ST7735/st7735.c ****   ret += st7735_write_reg(&pObj->Ctx, ST7735_DISPLAY_OFF, &tmp, 0);
 606              		.loc 1 419 3 is_stmt 1 view .LVU137
 419:Drivers/BSP/ST7735/st7735.c ****   ret += st7735_write_reg(&pObj->Ctx, ST7735_DISPLAY_OFF, &tmp, 0);
 607              		.loc 1 419 9 is_stmt 0 view .LVU138
 608 0020 0A21     		movs	r1, #10
 609 0022 2846     		mov	r0, r5
 610              	.LVL58:
 419:Drivers/BSP/ST7735/st7735.c ****   ret += st7735_write_reg(&pObj->Ctx, ST7735_DISPLAY_OFF, &tmp, 0);
 611              		.loc 1 419 9 view .LVU139
 612 0024 FFF7FEFF 		bl	ST7735_IO_Delay
 613              	.LVL59:
 420:Drivers/BSP/ST7735/st7735.c ****   (void)ST7735_IO_Delay(pObj, 10);
 614              		.loc 1 420 3 is_stmt 1 view .LVU140
 420:Drivers/BSP/ST7735/st7735.c ****   (void)ST7735_IO_Delay(pObj, 10);
 615              		.loc 1 420 10 is_stmt 0 view .LVU141
 616 0028 3B46     		mov	r3, r7
 617 002a 0DF10702 		add	r2, sp, #7
 618 002e 2821     		movs	r1, #40
 619 0030 3046     		mov	r0, r6
 620 0032 FFF7FEFF 		bl	st7735_write_reg
 621              	.LVL60:
 420:Drivers/BSP/ST7735/st7735.c ****   (void)ST7735_IO_Delay(pObj, 10);
 622              		.loc 1 420 7 discriminator 1 view .LVU142
 623 0036 0444     		add	r4, r4, r0
 624              	.LVL61:
 421:Drivers/BSP/ST7735/st7735.c ****   ret += st7735_write_reg(&pObj->Ctx, ST7735_MADCTL, &tmp, 0);
 625              		.loc 1 421 3 is_stmt 1 view .LVU143
 421:Drivers/BSP/ST7735/st7735.c ****   ret += st7735_write_reg(&pObj->Ctx, ST7735_MADCTL, &tmp, 0);
 626              		.loc 1 421 9 is_stmt 0 view .LVU144
 627 0038 0A21     		movs	r1, #10
 628 003a 2846     		mov	r0, r5
 629 003c FFF7FEFF 		bl	ST7735_IO_Delay
 630              	.LVL62:
 422:Drivers/BSP/ST7735/st7735.c **** 	tmp = ST7735Ctx.Panel == HannStar_Panel ? 
ARM GAS  /var/folders/mq/wg13gp494590nh4zyt09lxf00000gn/T//ccZMG5bD.s 			page 32


 631              		.loc 1 422 3 is_stmt 1 view .LVU145
 422:Drivers/BSP/ST7735/st7735.c **** 	tmp = ST7735Ctx.Panel == HannStar_Panel ? 
 632              		.loc 1 422 10 is_stmt 0 view .LVU146
 633 0040 3B46     		mov	r3, r7
 634 0042 0DF10702 		add	r2, sp, #7
 635 0046 3621     		movs	r1, #54
 636 0048 3046     		mov	r0, r6
 637 004a FFF7FEFF 		bl	st7735_write_reg
 638              	.LVL63:
 422:Drivers/BSP/ST7735/st7735.c **** 	tmp = ST7735Ctx.Panel == HannStar_Panel ? 
 639              		.loc 1 422 7 discriminator 1 view .LVU147
 640 004e 0444     		add	r4, r4, r0
 641              	.LVL64:
 423:Drivers/BSP/ST7735/st7735.c **** 		(uint8_t)OrientationTab[ST7735Ctx.Orientation][1] | LCD_BGR :
 642              		.loc 1 423 2 is_stmt 1 view .LVU148
 423:Drivers/BSP/ST7735/st7735.c **** 		(uint8_t)OrientationTab[ST7735Ctx.Orientation][1] | LCD_BGR :
 643              		.loc 1 423 17 is_stmt 0 view .LVU149
 644 0050 104B     		ldr	r3, .L40
 645 0052 1B7B     		ldrb	r3, [r3, #12]	@ zero_extendqisi2
 423:Drivers/BSP/ST7735/st7735.c **** 		(uint8_t)OrientationTab[ST7735Ctx.Orientation][1] | LCD_BGR :
 646              		.loc 1 423 6 view .LVU150
 647 0054 9BB9     		cbnz	r3, .L34
 424:Drivers/BSP/ST7735/st7735.c **** 		(uint8_t)OrientationTab[ST7735Ctx.Orientation][1] | LCD_RGB;
 648              		.loc 1 424 36 view .LVU151
 649 0056 0F4B     		ldr	r3, .L40
 650 0058 9A68     		ldr	r2, [r3, #8]
 424:Drivers/BSP/ST7735/st7735.c **** 		(uint8_t)OrientationTab[ST7735Ctx.Orientation][1] | LCD_RGB;
 651              		.loc 1 424 49 view .LVU152
 652 005a 0F4B     		ldr	r3, .L40+4
 653 005c 03EBC203 		add	r3, r3, r2, lsl #3
 424:Drivers/BSP/ST7735/st7735.c **** 		(uint8_t)OrientationTab[ST7735Ctx.Orientation][1] | LCD_RGB;
 654              		.loc 1 424 3 view .LVU153
 655 0060 1B79     		ldrb	r3, [r3, #4]	@ zero_extendqisi2
 423:Drivers/BSP/ST7735/st7735.c **** 		(uint8_t)OrientationTab[ST7735Ctx.Orientation][1] | LCD_BGR :
 656              		.loc 1 423 6 discriminator 1 view .LVU154
 657 0062 43F00803 		orr	r3, r3, #8
 658              	.L35:
 423:Drivers/BSP/ST7735/st7735.c **** 		(uint8_t)OrientationTab[ST7735Ctx.Orientation][1] | LCD_BGR :
 659              		.loc 1 423 6 discriminator 4 view .LVU155
 660 0066 8DF80730 		strb	r3, [sp, #7]
 426:Drivers/BSP/ST7735/st7735.c ****   if(ret != ST7735_OK)
 661              		.loc 1 426 3 is_stmt 1 view .LVU156
 426:Drivers/BSP/ST7735/st7735.c ****   if(ret != ST7735_OK)
 662              		.loc 1 426 10 is_stmt 0 view .LVU157
 663 006a 0122     		movs	r2, #1
 664 006c 0DF10701 		add	r1, sp, #7
 665 0070 3046     		mov	r0, r6
 666 0072 FFF7FEFF 		bl	st7735_send_data
 667              	.LVL65:
 427:Drivers/BSP/ST7735/st7735.c ****   {
 668              		.loc 1 427 3 is_stmt 1 view .LVU158
 427:Drivers/BSP/ST7735/st7735.c ****   {
 669              		.loc 1 427 5 is_stmt 0 view .LVU159
 670 0076 2018     		adds	r0, r4, r0
 671              	.LVL66:
 427:Drivers/BSP/ST7735/st7735.c ****   {
 672              		.loc 1 427 5 view .LVU160
ARM GAS  /var/folders/mq/wg13gp494590nh4zyt09lxf00000gn/T//ccZMG5bD.s 			page 33


 673 0078 08D1     		bne	.L39
 674              	.LVL67:
 675              	.L33:
 433:Drivers/BSP/ST7735/st7735.c **** 
 676              		.loc 1 433 1 view .LVU161
 677 007a 03B0     		add	sp, sp, #12
 678              	.LCFI11:
 679              		.cfi_remember_state
 680              		.cfi_def_cfa_offset 20
 681              		@ sp needed
 682 007c F0BD     		pop	{r4, r5, r6, r7, pc}
 683              	.LVL68:
 684              	.L34:
 685              	.LCFI12:
 686              		.cfi_restore_state
 425:Drivers/BSP/ST7735/st7735.c ****   ret += st7735_send_data(&pObj->Ctx, &tmp, 1);
 687              		.loc 1 425 36 view .LVU162
 688 007e 054B     		ldr	r3, .L40
 689 0080 9A68     		ldr	r2, [r3, #8]
 425:Drivers/BSP/ST7735/st7735.c ****   ret += st7735_send_data(&pObj->Ctx, &tmp, 1);
 690              		.loc 1 425 49 view .LVU163
 691 0082 054B     		ldr	r3, .L40+4
 692 0084 03EBC203 		add	r3, r3, r2, lsl #3
 423:Drivers/BSP/ST7735/st7735.c **** 		(uint8_t)OrientationTab[ST7735Ctx.Orientation][1] | LCD_BGR :
 693              		.loc 1 423 6 discriminator 2 view .LVU164
 694 0088 1B79     		ldrb	r3, [r3, #4]	@ zero_extendqisi2
 695 008a ECE7     		b	.L35
 696              	.LVL69:
 697              	.L39:
 429:Drivers/BSP/ST7735/st7735.c ****   }
 698              		.loc 1 429 9 view .LVU165
 699 008c 4FF0FF30 		mov	r0, #-1
 700              	.LVL70:
 432:Drivers/BSP/ST7735/st7735.c **** }
 701              		.loc 1 432 3 is_stmt 1 view .LVU166
 432:Drivers/BSP/ST7735/st7735.c **** }
 702              		.loc 1 432 10 is_stmt 0 view .LVU167
 703 0090 F3E7     		b	.L33
 704              	.L41:
 705 0092 00BF     		.align	2
 706              	.L40:
 707 0094 00000000 		.word	ST7735Ctx
 708 0098 00000000 		.word	OrientationTab
 709              		.cfi_endproc
 710              	.LFE5:
 712              		.section	.text.ST7735_SetDisplayWindow,"ax",%progbits
 713              		.align	1
 714              		.syntax unified
 715              		.thumb
 716              		.thumb_func
 718              	ST7735_SetDisplayWindow:
 719              	.LVL71:
 720              	.LFB20:
 963:Drivers/BSP/ST7735/st7735.c ****   int32_t ret;
 721              		.loc 1 963 1 is_stmt 1 view -0
 722              		.cfi_startproc
 723              		@ args = 4, pretend = 0, frame = 8
ARM GAS  /var/folders/mq/wg13gp494590nh4zyt09lxf00000gn/T//ccZMG5bD.s 			page 34


 724              		@ frame_needed = 0, uses_anonymous_args = 0
 963:Drivers/BSP/ST7735/st7735.c ****   int32_t ret;
 725              		.loc 1 963 1 is_stmt 0 view .LVU169
 726 0000 2DE9F047 		push	{r4, r5, r6, r7, r8, r9, r10, lr}
 727              	.LCFI13:
 728              		.cfi_def_cfa_offset 32
 729              		.cfi_offset 4, -32
 730              		.cfi_offset 5, -28
 731              		.cfi_offset 6, -24
 732              		.cfi_offset 7, -20
 733              		.cfi_offset 8, -16
 734              		.cfi_offset 9, -12
 735              		.cfi_offset 10, -8
 736              		.cfi_offset 14, -4
 737 0004 82B0     		sub	sp, sp, #8
 738              	.LCFI14:
 739              		.cfi_def_cfa_offset 40
 740 0006 0C46     		mov	r4, r1
 741 0008 1646     		mov	r6, r2
 742 000a 9846     		mov	r8, r3
 743 000c DDF82890 		ldr	r9, [sp, #40]
 964:Drivers/BSP/ST7735/st7735.c ****   uint8_t tmp;
 744              		.loc 1 964 3 is_stmt 1 view .LVU170
 965:Drivers/BSP/ST7735/st7735.c **** 
 745              		.loc 1 965 3 view .LVU171
 968:Drivers/BSP/ST7735/st7735.c **** 		if (ST7735Ctx.Type == ST7735_0_9_inch_screen) {		//0.96 ST7735
 746              		.loc 1 968 2 view .LVU172
 968:Drivers/BSP/ST7735/st7735.c **** 		if (ST7735Ctx.Type == ST7735_0_9_inch_screen) {		//0.96 ST7735
 747              		.loc 1 968 14 is_stmt 0 view .LVU173
 748 0010 544B     		ldr	r3, .L57
 749              	.LVL72:
 968:Drivers/BSP/ST7735/st7735.c **** 		if (ST7735Ctx.Type == ST7735_0_9_inch_screen) {		//0.96 ST7735
 750              		.loc 1 968 14 view .LVU174
 751 0012 9B68     		ldr	r3, [r3, #8]
 968:Drivers/BSP/ST7735/st7735.c **** 		if (ST7735Ctx.Type == ST7735_0_9_inch_screen) {		//0.96 ST7735
 752              		.loc 1 968 4 view .LVU175
 753 0014 012B     		cmp	r3, #1
 754 0016 7CD9     		bls	.L52
 985:Drivers/BSP/ST7735/st7735.c **** 			if (ST7735Ctx.Panel == HannStar_Panel) {		//0.96 ST7735
 755              		.loc 1 985 3 is_stmt 1 view .LVU176
 985:Drivers/BSP/ST7735/st7735.c **** 			if (ST7735Ctx.Panel == HannStar_Panel) {		//0.96 ST7735
 756              		.loc 1 985 16 is_stmt 0 view .LVU177
 757 0018 524B     		ldr	r3, .L57
 758 001a 5B7B     		ldrb	r3, [r3, #13]	@ zero_extendqisi2
 985:Drivers/BSP/ST7735/st7735.c **** 			if (ST7735Ctx.Panel == HannStar_Panel) {		//0.96 ST7735
 759              		.loc 1 985 6 view .LVU178
 760 001c 012B     		cmp	r3, #1
 761 001e 00F08D80 		beq	.L53
 994:Drivers/BSP/ST7735/st7735.c ****       if (ST7735Ctx.Panel == BOE_Panel) {
 762              		.loc 1 994 10 is_stmt 1 view .LVU179
 994:Drivers/BSP/ST7735/st7735.c ****       if (ST7735Ctx.Panel == BOE_Panel) {
 763              		.loc 1 994 12 is_stmt 0 view .LVU180
 764 0022 022B     		cmp	r3, #2
 765 0024 00F09380 		beq	.L54
 766              	.LVL73:
 767              	.L46:
1003:Drivers/BSP/ST7735/st7735.c ****   tmp = (uint8_t)(Xpos >> 8U);
ARM GAS  /var/folders/mq/wg13gp494590nh4zyt09lxf00000gn/T//ccZMG5bD.s 			page 35


 768              		.loc 1 1003 3 is_stmt 1 view .LVU181
1003:Drivers/BSP/ST7735/st7735.c ****   tmp = (uint8_t)(Xpos >> 8U);
 769              		.loc 1 1003 9 is_stmt 0 view .LVU182
 770 0028 00F12005 		add	r5, r0, #32
 771 002c 0023     		movs	r3, #0
 772 002e 0DF10702 		add	r2, sp, #7
 773 0032 2A21     		movs	r1, #42
 774 0034 2846     		mov	r0, r5
 775              	.LVL74:
1003:Drivers/BSP/ST7735/st7735.c ****   tmp = (uint8_t)(Xpos >> 8U);
 776              		.loc 1 1003 9 view .LVU183
 777 0036 FFF7FEFF 		bl	st7735_write_reg
 778              	.LVL75:
1003:Drivers/BSP/ST7735/st7735.c ****   tmp = (uint8_t)(Xpos >> 8U);
 779              		.loc 1 1003 9 view .LVU184
 780 003a 8246     		mov	r10, r0
 781              	.LVL76:
1004:Drivers/BSP/ST7735/st7735.c ****   ret += st7735_send_data(&pObj->Ctx, &tmp, 1);
 782              		.loc 1 1004 3 is_stmt 1 view .LVU185
1004:Drivers/BSP/ST7735/st7735.c ****   ret += st7735_send_data(&pObj->Ctx, &tmp, 1);
 783              		.loc 1 1004 9 is_stmt 0 view .LVU186
 784 003c C4F30723 		ubfx	r3, r4, #8, #8
1004:Drivers/BSP/ST7735/st7735.c ****   ret += st7735_send_data(&pObj->Ctx, &tmp, 1);
 785              		.loc 1 1004 7 view .LVU187
 786 0040 8DF80730 		strb	r3, [sp, #7]
1005:Drivers/BSP/ST7735/st7735.c ****   tmp = (uint8_t)(Xpos & 0xFFU);
 787              		.loc 1 1005 3 is_stmt 1 view .LVU188
1005:Drivers/BSP/ST7735/st7735.c ****   tmp = (uint8_t)(Xpos & 0xFFU);
 788              		.loc 1 1005 10 is_stmt 0 view .LVU189
 789 0044 0122     		movs	r2, #1
 790 0046 0DF10701 		add	r1, sp, #7
 791 004a 2846     		mov	r0, r5
 792              	.LVL77:
1005:Drivers/BSP/ST7735/st7735.c ****   tmp = (uint8_t)(Xpos & 0xFFU);
 793              		.loc 1 1005 10 view .LVU190
 794 004c FFF7FEFF 		bl	st7735_send_data
 795              	.LVL78:
1005:Drivers/BSP/ST7735/st7735.c ****   tmp = (uint8_t)(Xpos & 0xFFU);
 796              		.loc 1 1005 7 discriminator 1 view .LVU191
 797 0050 8244     		add	r10, r10, r0
 798              	.LVL79:
1006:Drivers/BSP/ST7735/st7735.c ****   ret += st7735_send_data(&pObj->Ctx, &tmp, 1);
 799              		.loc 1 1006 3 is_stmt 1 view .LVU192
1006:Drivers/BSP/ST7735/st7735.c ****   ret += st7735_send_data(&pObj->Ctx, &tmp, 1);
 800              		.loc 1 1006 9 is_stmt 0 view .LVU193
 801 0052 E7B2     		uxtb	r7, r4
1006:Drivers/BSP/ST7735/st7735.c ****   ret += st7735_send_data(&pObj->Ctx, &tmp, 1);
 802              		.loc 1 1006 7 view .LVU194
 803 0054 8DF80770 		strb	r7, [sp, #7]
1007:Drivers/BSP/ST7735/st7735.c ****   tmp = (uint8_t)((Xpos + Width - 1U) >> 8U);
 804              		.loc 1 1007 3 is_stmt 1 view .LVU195
1007:Drivers/BSP/ST7735/st7735.c ****   tmp = (uint8_t)((Xpos + Width - 1U) >> 8U);
 805              		.loc 1 1007 10 is_stmt 0 view .LVU196
 806 0058 0122     		movs	r2, #1
 807 005a 0DF10701 		add	r1, sp, #7
 808 005e 2846     		mov	r0, r5
 809 0060 FFF7FEFF 		bl	st7735_send_data
ARM GAS  /var/folders/mq/wg13gp494590nh4zyt09lxf00000gn/T//ccZMG5bD.s 			page 36


 810              	.LVL80:
1007:Drivers/BSP/ST7735/st7735.c ****   tmp = (uint8_t)((Xpos + Width - 1U) >> 8U);
 811              		.loc 1 1007 7 discriminator 1 view .LVU197
 812 0064 8244     		add	r10, r10, r0
 813              	.LVL81:
1008:Drivers/BSP/ST7735/st7735.c ****   ret += st7735_send_data(&pObj->Ctx, &tmp, 1);
 814              		.loc 1 1008 3 is_stmt 1 view .LVU198
1008:Drivers/BSP/ST7735/st7735.c ****   ret += st7735_send_data(&pObj->Ctx, &tmp, 1);
 815              		.loc 1 1008 25 is_stmt 0 view .LVU199
 816 0066 04EB0801 		add	r1, r4, r8
1008:Drivers/BSP/ST7735/st7735.c ****   ret += st7735_send_data(&pObj->Ctx, &tmp, 1);
 817              		.loc 1 1008 33 view .LVU200
 818 006a 0139     		subs	r1, r1, #1
1008:Drivers/BSP/ST7735/st7735.c ****   ret += st7735_send_data(&pObj->Ctx, &tmp, 1);
 819              		.loc 1 1008 9 view .LVU201
 820 006c C1F30721 		ubfx	r1, r1, #8, #8
1008:Drivers/BSP/ST7735/st7735.c ****   ret += st7735_send_data(&pObj->Ctx, &tmp, 1);
 821              		.loc 1 1008 7 view .LVU202
 822 0070 8DF80710 		strb	r1, [sp, #7]
1009:Drivers/BSP/ST7735/st7735.c ****   tmp = (uint8_t)((Xpos + Width - 1U) & 0xFFU);
 823              		.loc 1 1009 3 is_stmt 1 view .LVU203
1009:Drivers/BSP/ST7735/st7735.c ****   tmp = (uint8_t)((Xpos + Width - 1U) & 0xFFU);
 824              		.loc 1 1009 10 is_stmt 0 view .LVU204
 825 0074 0122     		movs	r2, #1
 826 0076 0DF10701 		add	r1, sp, #7
 827 007a 2846     		mov	r0, r5
 828 007c FFF7FEFF 		bl	st7735_send_data
 829              	.LVL82:
1009:Drivers/BSP/ST7735/st7735.c ****   tmp = (uint8_t)((Xpos + Width - 1U) & 0xFFU);
 830              		.loc 1 1009 7 discriminator 1 view .LVU205
 831 0080 0AEB0004 		add	r4, r10, r0
 832              	.LVL83:
1010:Drivers/BSP/ST7735/st7735.c ****   ret += st7735_send_data(&pObj->Ctx, &tmp, 1);
 833              		.loc 1 1010 3 is_stmt 1 view .LVU206
1010:Drivers/BSP/ST7735/st7735.c ****   ret += st7735_send_data(&pObj->Ctx, &tmp, 1);
 834              		.loc 1 1010 25 is_stmt 0 view .LVU207
 835 0084 4744     		add	r7, r7, r8
 836 0086 FFB2     		uxtb	r7, r7
1010:Drivers/BSP/ST7735/st7735.c ****   ret += st7735_send_data(&pObj->Ctx, &tmp, 1);
 837              		.loc 1 1010 9 view .LVU208
 838 0088 013F     		subs	r7, r7, #1
1010:Drivers/BSP/ST7735/st7735.c ****   ret += st7735_send_data(&pObj->Ctx, &tmp, 1);
 839              		.loc 1 1010 7 view .LVU209
 840 008a 8DF80770 		strb	r7, [sp, #7]
1011:Drivers/BSP/ST7735/st7735.c **** 
 841              		.loc 1 1011 3 is_stmt 1 view .LVU210
1011:Drivers/BSP/ST7735/st7735.c **** 
 842              		.loc 1 1011 10 is_stmt 0 view .LVU211
 843 008e 0122     		movs	r2, #1
 844 0090 0DF10701 		add	r1, sp, #7
 845 0094 2846     		mov	r0, r5
 846 0096 FFF7FEFF 		bl	st7735_send_data
 847              	.LVL84:
1011:Drivers/BSP/ST7735/st7735.c **** 
 848              		.loc 1 1011 7 discriminator 1 view .LVU212
 849 009a 0444     		add	r4, r4, r0
 850              	.LVL85:
ARM GAS  /var/folders/mq/wg13gp494590nh4zyt09lxf00000gn/T//ccZMG5bD.s 			page 37


1014:Drivers/BSP/ST7735/st7735.c ****   tmp = (uint8_t)(Ypos >> 8U);
 851              		.loc 1 1014 3 is_stmt 1 view .LVU213
1014:Drivers/BSP/ST7735/st7735.c ****   tmp = (uint8_t)(Ypos >> 8U);
 852              		.loc 1 1014 10 is_stmt 0 view .LVU214
 853 009c 0023     		movs	r3, #0
 854 009e 0DF10702 		add	r2, sp, #7
 855 00a2 2B21     		movs	r1, #43
 856 00a4 2846     		mov	r0, r5
 857 00a6 FFF7FEFF 		bl	st7735_write_reg
 858              	.LVL86:
1014:Drivers/BSP/ST7735/st7735.c ****   tmp = (uint8_t)(Ypos >> 8U);
 859              		.loc 1 1014 7 discriminator 1 view .LVU215
 860 00aa 0444     		add	r4, r4, r0
 861              	.LVL87:
1015:Drivers/BSP/ST7735/st7735.c ****   ret += st7735_send_data(&pObj->Ctx, &tmp, 1);
 862              		.loc 1 1015 3 is_stmt 1 view .LVU216
1015:Drivers/BSP/ST7735/st7735.c ****   ret += st7735_send_data(&pObj->Ctx, &tmp, 1);
 863              		.loc 1 1015 9 is_stmt 0 view .LVU217
 864 00ac C6F30723 		ubfx	r3, r6, #8, #8
1015:Drivers/BSP/ST7735/st7735.c ****   ret += st7735_send_data(&pObj->Ctx, &tmp, 1);
 865              		.loc 1 1015 7 view .LVU218
 866 00b0 8DF80730 		strb	r3, [sp, #7]
1016:Drivers/BSP/ST7735/st7735.c ****   tmp = (uint8_t)(Ypos & 0xFFU);
 867              		.loc 1 1016 3 is_stmt 1 view .LVU219
1016:Drivers/BSP/ST7735/st7735.c ****   tmp = (uint8_t)(Ypos & 0xFFU);
 868              		.loc 1 1016 10 is_stmt 0 view .LVU220
 869 00b4 0122     		movs	r2, #1
 870 00b6 0DF10701 		add	r1, sp, #7
 871 00ba 2846     		mov	r0, r5
 872 00bc FFF7FEFF 		bl	st7735_send_data
 873              	.LVL88:
1016:Drivers/BSP/ST7735/st7735.c ****   tmp = (uint8_t)(Ypos & 0xFFU);
 874              		.loc 1 1016 7 discriminator 1 view .LVU221
 875 00c0 0444     		add	r4, r4, r0
 876              	.LVL89:
1017:Drivers/BSP/ST7735/st7735.c ****   ret += st7735_send_data(&pObj->Ctx, &tmp, 1);
 877              		.loc 1 1017 3 is_stmt 1 view .LVU222
1017:Drivers/BSP/ST7735/st7735.c ****   ret += st7735_send_data(&pObj->Ctx, &tmp, 1);
 878              		.loc 1 1017 9 is_stmt 0 view .LVU223
 879 00c2 F7B2     		uxtb	r7, r6
1017:Drivers/BSP/ST7735/st7735.c ****   ret += st7735_send_data(&pObj->Ctx, &tmp, 1);
 880              		.loc 1 1017 7 view .LVU224
 881 00c4 8DF80770 		strb	r7, [sp, #7]
1018:Drivers/BSP/ST7735/st7735.c ****   tmp = (uint8_t)((Ypos + Height - 1U) >> 8U);
 882              		.loc 1 1018 3 is_stmt 1 view .LVU225
1018:Drivers/BSP/ST7735/st7735.c ****   tmp = (uint8_t)((Ypos + Height - 1U) >> 8U);
 883              		.loc 1 1018 10 is_stmt 0 view .LVU226
 884 00c8 0122     		movs	r2, #1
 885 00ca 0DF10701 		add	r1, sp, #7
 886 00ce 2846     		mov	r0, r5
 887 00d0 FFF7FEFF 		bl	st7735_send_data
 888              	.LVL90:
1018:Drivers/BSP/ST7735/st7735.c ****   tmp = (uint8_t)((Ypos + Height - 1U) >> 8U);
 889              		.loc 1 1018 7 discriminator 1 view .LVU227
 890 00d4 0444     		add	r4, r4, r0
 891              	.LVL91:
1019:Drivers/BSP/ST7735/st7735.c ****   ret += st7735_send_data(&pObj->Ctx, &tmp, 1);
ARM GAS  /var/folders/mq/wg13gp494590nh4zyt09lxf00000gn/T//ccZMG5bD.s 			page 38


 892              		.loc 1 1019 3 is_stmt 1 view .LVU228
1019:Drivers/BSP/ST7735/st7735.c ****   ret += st7735_send_data(&pObj->Ctx, &tmp, 1);
 893              		.loc 1 1019 25 is_stmt 0 view .LVU229
 894 00d6 4E44     		add	r6, r6, r9
 895              	.LVL92:
1019:Drivers/BSP/ST7735/st7735.c ****   ret += st7735_send_data(&pObj->Ctx, &tmp, 1);
 896              		.loc 1 1019 34 view .LVU230
 897 00d8 013E     		subs	r6, r6, #1
1019:Drivers/BSP/ST7735/st7735.c ****   ret += st7735_send_data(&pObj->Ctx, &tmp, 1);
 898              		.loc 1 1019 9 view .LVU231
 899 00da C6F30726 		ubfx	r6, r6, #8, #8
1019:Drivers/BSP/ST7735/st7735.c ****   ret += st7735_send_data(&pObj->Ctx, &tmp, 1);
 900              		.loc 1 1019 7 view .LVU232
 901 00de 8DF80760 		strb	r6, [sp, #7]
1020:Drivers/BSP/ST7735/st7735.c ****   tmp = (uint8_t)((Ypos + Height - 1U) & 0xFFU);
 902              		.loc 1 1020 3 is_stmt 1 view .LVU233
1020:Drivers/BSP/ST7735/st7735.c ****   tmp = (uint8_t)((Ypos + Height - 1U) & 0xFFU);
 903              		.loc 1 1020 10 is_stmt 0 view .LVU234
 904 00e2 0122     		movs	r2, #1
 905 00e4 0DF10701 		add	r1, sp, #7
 906 00e8 2846     		mov	r0, r5
 907 00ea FFF7FEFF 		bl	st7735_send_data
 908              	.LVL93:
1020:Drivers/BSP/ST7735/st7735.c ****   tmp = (uint8_t)((Ypos + Height - 1U) & 0xFFU);
 909              		.loc 1 1020 7 discriminator 1 view .LVU235
 910 00ee 0444     		add	r4, r4, r0
 911              	.LVL94:
1021:Drivers/BSP/ST7735/st7735.c ****   ret += st7735_send_data(&pObj->Ctx, &tmp, 1);
 912              		.loc 1 1021 3 is_stmt 1 view .LVU236
1021:Drivers/BSP/ST7735/st7735.c ****   ret += st7735_send_data(&pObj->Ctx, &tmp, 1);
 913              		.loc 1 1021 25 is_stmt 0 view .LVU237
 914 00f0 07EB0903 		add	r3, r7, r9
 915 00f4 DBB2     		uxtb	r3, r3
1021:Drivers/BSP/ST7735/st7735.c ****   ret += st7735_send_data(&pObj->Ctx, &tmp, 1);
 916              		.loc 1 1021 9 view .LVU238
 917 00f6 013B     		subs	r3, r3, #1
1021:Drivers/BSP/ST7735/st7735.c ****   ret += st7735_send_data(&pObj->Ctx, &tmp, 1);
 918              		.loc 1 1021 7 view .LVU239
 919 00f8 8DF80730 		strb	r3, [sp, #7]
1022:Drivers/BSP/ST7735/st7735.c **** 
 920              		.loc 1 1022 3 is_stmt 1 view .LVU240
1022:Drivers/BSP/ST7735/st7735.c **** 
 921              		.loc 1 1022 10 is_stmt 0 view .LVU241
 922 00fc 0122     		movs	r2, #1
 923 00fe 0DF10701 		add	r1, sp, #7
 924 0102 2846     		mov	r0, r5
 925 0104 FFF7FEFF 		bl	st7735_send_data
 926              	.LVL95:
1024:Drivers/BSP/ST7735/st7735.c ****   {
 927              		.loc 1 1024 3 is_stmt 1 view .LVU242
1024:Drivers/BSP/ST7735/st7735.c ****   {
 928              		.loc 1 1024 5 is_stmt 0 view .LVU243
 929 0108 2018     		adds	r0, r4, r0
 930              	.LVL96:
1024:Drivers/BSP/ST7735/st7735.c ****   {
 931              		.loc 1 1024 5 view .LVU244
 932 010a 28D1     		bne	.L55
ARM GAS  /var/folders/mq/wg13gp494590nh4zyt09lxf00000gn/T//ccZMG5bD.s 			page 39


 933              	.LVL97:
 934              	.L42:
1030:Drivers/BSP/ST7735/st7735.c **** 
 935              		.loc 1 1030 1 view .LVU245
 936 010c 02B0     		add	sp, sp, #8
 937              	.LCFI15:
 938              		.cfi_remember_state
 939              		.cfi_def_cfa_offset 32
 940              		@ sp needed
 941 010e BDE8F087 		pop	{r4, r5, r6, r7, r8, r9, r10, pc}
 942              	.LVL98:
 943              	.L52:
 944              	.LCFI16:
 945              		.cfi_restore_state
 969:Drivers/BSP/ST7735/st7735.c **** 			if (ST7735Ctx.Panel == HannStar_Panel) {
 946              		.loc 1 969 3 is_stmt 1 view .LVU246
 969:Drivers/BSP/ST7735/st7735.c **** 			if (ST7735Ctx.Panel == HannStar_Panel) {
 947              		.loc 1 969 16 is_stmt 0 view .LVU247
 948 0112 144B     		ldr	r3, .L57
 949 0114 5B7B     		ldrb	r3, [r3, #13]	@ zero_extendqisi2
 969:Drivers/BSP/ST7735/st7735.c **** 			if (ST7735Ctx.Panel == HannStar_Panel) {
 950              		.loc 1 969 6 view .LVU248
 951 0116 012B     		cmp	r3, #1
 952 0118 08D0     		beq	.L56
 978:Drivers/BSP/ST7735/st7735.c ****       if (ST7735Ctx.Panel == BOE_Panel) {
 953              		.loc 1 978 10 is_stmt 1 view .LVU249
 978:Drivers/BSP/ST7735/st7735.c ****       if (ST7735Ctx.Panel == BOE_Panel) {
 954              		.loc 1 978 12 is_stmt 0 view .LVU250
 955 011a 022B     		cmp	r3, #2
 956 011c 84D1     		bne	.L46
 979:Drivers/BSP/ST7735/st7735.c **** 				Xpos += 2;
 957              		.loc 1 979 7 is_stmt 1 view .LVU251
 979:Drivers/BSP/ST7735/st7735.c **** 				Xpos += 2;
 958              		.loc 1 979 20 is_stmt 0 view .LVU252
 959 011e 114B     		ldr	r3, .L57
 960 0120 1B7B     		ldrb	r3, [r3, #12]	@ zero_extendqisi2
 979:Drivers/BSP/ST7735/st7735.c **** 				Xpos += 2;
 961              		.loc 1 979 10 view .LVU253
 962 0122 012B     		cmp	r3, #1
 963 0124 80D1     		bne	.L46
 980:Drivers/BSP/ST7735/st7735.c **** 				Ypos += 1;
 964              		.loc 1 980 5 is_stmt 1 view .LVU254
 980:Drivers/BSP/ST7735/st7735.c **** 				Ypos += 1;
 965              		.loc 1 980 10 is_stmt 0 view .LVU255
 966 0126 0234     		adds	r4, r4, #2
 967              	.LVL99:
 981:Drivers/BSP/ST7735/st7735.c **** 			}
 968              		.loc 1 981 5 is_stmt 1 view .LVU256
 981:Drivers/BSP/ST7735/st7735.c **** 			}
 969              		.loc 1 981 10 is_stmt 0 view .LVU257
 970 0128 0136     		adds	r6, r6, #1
 971              	.LVL100:
 981:Drivers/BSP/ST7735/st7735.c **** 			}
 972              		.loc 1 981 10 view .LVU258
 973 012a 7DE7     		b	.L46
 974              	.LVL101:
 975              	.L56:
ARM GAS  /var/folders/mq/wg13gp494590nh4zyt09lxf00000gn/T//ccZMG5bD.s 			page 40


 970:Drivers/BSP/ST7735/st7735.c **** 				Xpos += 26;
 976              		.loc 1 970 4 is_stmt 1 view .LVU259
 970:Drivers/BSP/ST7735/st7735.c **** 				Xpos += 26;
 977              		.loc 1 970 17 is_stmt 0 view .LVU260
 978 012c 0D4B     		ldr	r3, .L57
 979 012e 1B7B     		ldrb	r3, [r3, #12]	@ zero_extendqisi2
 970:Drivers/BSP/ST7735/st7735.c **** 				Xpos += 26;
 980              		.loc 1 970 7 view .LVU261
 981 0130 13B9     		cbnz	r3, .L45
 971:Drivers/BSP/ST7735/st7735.c **** 				Ypos += 1;
 982              		.loc 1 971 5 is_stmt 1 view .LVU262
 971:Drivers/BSP/ST7735/st7735.c **** 				Ypos += 1;
 983              		.loc 1 971 10 is_stmt 0 view .LVU263
 984 0132 1A34     		adds	r4, r4, #26
 985              	.LVL102:
 972:Drivers/BSP/ST7735/st7735.c **** 			} else {		//BOE Panel
 986              		.loc 1 972 5 is_stmt 1 view .LVU264
 972:Drivers/BSP/ST7735/st7735.c **** 			} else {		//BOE Panel
 987              		.loc 1 972 10 is_stmt 0 view .LVU265
 988 0134 0136     		adds	r6, r6, #1
 989              	.LVL103:
 972:Drivers/BSP/ST7735/st7735.c **** 			} else {		//BOE Panel
 990              		.loc 1 972 10 view .LVU266
 991 0136 77E7     		b	.L46
 992              	.LVL104:
 993              	.L45:
 974:Drivers/BSP/ST7735/st7735.c **** 				Ypos += 0;
 994              		.loc 1 974 5 is_stmt 1 view .LVU267
 974:Drivers/BSP/ST7735/st7735.c **** 				Ypos += 0;
 995              		.loc 1 974 10 is_stmt 0 view .LVU268
 996 0138 1834     		adds	r4, r4, #24
 997              	.LVL105:
 975:Drivers/BSP/ST7735/st7735.c **** 			}
 998              		.loc 1 975 5 is_stmt 1 view .LVU269
 975:Drivers/BSP/ST7735/st7735.c **** 			}
 999              		.loc 1 975 5 is_stmt 0 view .LVU270
 1000 013a 75E7     		b	.L46
 1001              	.LVL106:
 1002              	.L53:
 986:Drivers/BSP/ST7735/st7735.c **** 				Xpos += 1;
 1003              		.loc 1 986 4 is_stmt 1 view .LVU271
 986:Drivers/BSP/ST7735/st7735.c **** 				Xpos += 1;
 1004              		.loc 1 986 17 is_stmt 0 view .LVU272
 1005 013c 094B     		ldr	r3, .L57
 1006 013e 1B7B     		ldrb	r3, [r3, #12]	@ zero_extendqisi2
 986:Drivers/BSP/ST7735/st7735.c **** 				Xpos += 1;
 1007              		.loc 1 986 7 view .LVU273
 1008 0140 13B9     		cbnz	r3, .L48
 987:Drivers/BSP/ST7735/st7735.c **** 				Ypos += 26;
 1009              		.loc 1 987 5 is_stmt 1 view .LVU274
 987:Drivers/BSP/ST7735/st7735.c **** 				Ypos += 26;
 1010              		.loc 1 987 10 is_stmt 0 view .LVU275
 1011 0142 0134     		adds	r4, r4, #1
 1012              	.LVL107:
 988:Drivers/BSP/ST7735/st7735.c **** 			} else {		//BOE Panel
 1013              		.loc 1 988 5 is_stmt 1 view .LVU276
 988:Drivers/BSP/ST7735/st7735.c **** 			} else {		//BOE Panel
ARM GAS  /var/folders/mq/wg13gp494590nh4zyt09lxf00000gn/T//ccZMG5bD.s 			page 41


 1014              		.loc 1 988 10 is_stmt 0 view .LVU277
 1015 0144 1A36     		adds	r6, r6, #26
 1016              	.LVL108:
 988:Drivers/BSP/ST7735/st7735.c **** 			} else {		//BOE Panel
 1017              		.loc 1 988 10 view .LVU278
 1018 0146 6FE7     		b	.L46
 1019              	.LVL109:
 1020              	.L48:
 990:Drivers/BSP/ST7735/st7735.c **** 				Ypos += 24;
 1021              		.loc 1 990 5 is_stmt 1 view .LVU279
 990:Drivers/BSP/ST7735/st7735.c **** 				Ypos += 24;
 1022              		.loc 1 990 10 is_stmt 0 view .LVU280
 1023 0148 0134     		adds	r4, r4, #1
 1024              	.LVL110:
 991:Drivers/BSP/ST7735/st7735.c **** 			}
 1025              		.loc 1 991 5 is_stmt 1 view .LVU281
 991:Drivers/BSP/ST7735/st7735.c **** 			}
 1026              		.loc 1 991 10 is_stmt 0 view .LVU282
 1027 014a 1836     		adds	r6, r6, #24
 1028              	.LVL111:
 991:Drivers/BSP/ST7735/st7735.c **** 			}
 1029              		.loc 1 991 10 view .LVU283
 1030 014c 6CE7     		b	.L46
 1031              	.LVL112:
 1032              	.L54:
 995:Drivers/BSP/ST7735/st7735.c **** 				Xpos += 1;
 1033              		.loc 1 995 7 is_stmt 1 view .LVU284
 995:Drivers/BSP/ST7735/st7735.c **** 				Xpos += 1;
 1034              		.loc 1 995 20 is_stmt 0 view .LVU285
 1035 014e 054B     		ldr	r3, .L57
 1036 0150 1B7B     		ldrb	r3, [r3, #12]	@ zero_extendqisi2
 995:Drivers/BSP/ST7735/st7735.c **** 				Xpos += 1;
 1037              		.loc 1 995 10 view .LVU286
 1038 0152 012B     		cmp	r3, #1
 1039 0154 7FF468AF 		bne	.L46
 996:Drivers/BSP/ST7735/st7735.c **** 				Ypos += 2;
 1040              		.loc 1 996 5 is_stmt 1 view .LVU287
 996:Drivers/BSP/ST7735/st7735.c **** 				Ypos += 2;
 1041              		.loc 1 996 10 is_stmt 0 view .LVU288
 1042 0158 0134     		adds	r4, r4, #1
 1043              	.LVL113:
 997:Drivers/BSP/ST7735/st7735.c **** 			}
 1044              		.loc 1 997 5 is_stmt 1 view .LVU289
 997:Drivers/BSP/ST7735/st7735.c **** 			}
 1045              		.loc 1 997 10 is_stmt 0 view .LVU290
 1046 015a 0236     		adds	r6, r6, #2
 1047              	.LVL114:
 997:Drivers/BSP/ST7735/st7735.c **** 			}
 1048              		.loc 1 997 10 view .LVU291
 1049 015c 64E7     		b	.L46
 1050              	.LVL115:
 1051              	.L55:
1026:Drivers/BSP/ST7735/st7735.c ****   }
 1052              		.loc 1 1026 9 view .LVU292
 1053 015e 4FF0FF30 		mov	r0, #-1
 1054              	.LVL116:
1029:Drivers/BSP/ST7735/st7735.c **** }
ARM GAS  /var/folders/mq/wg13gp494590nh4zyt09lxf00000gn/T//ccZMG5bD.s 			page 42


 1055              		.loc 1 1029 3 is_stmt 1 view .LVU293
1029:Drivers/BSP/ST7735/st7735.c **** }
 1056              		.loc 1 1029 10 is_stmt 0 view .LVU294
 1057 0162 D3E7     		b	.L42
 1058              	.L58:
 1059              		.align	2
 1060              	.L57:
 1061 0164 00000000 		.word	ST7735Ctx
 1062              		.cfi_endproc
 1063              	.LFE20:
 1065              		.section	.text.ST7735_SetOrientation,"ax",%progbits
 1066              		.align	1
 1067              		.global	ST7735_SetOrientation
 1068              		.syntax unified
 1069              		.thumb
 1070              		.thumb_func
 1072              	ST7735_SetOrientation:
 1073              	.LVL117:
 1074              	.LFB8:
 473:Drivers/BSP/ST7735/st7735.c ****   int32_t ret;
 1075              		.loc 1 473 1 is_stmt 1 view -0
 1076              		.cfi_startproc
 1077              		@ args = 0, pretend = 0, frame = 8
 1078              		@ frame_needed = 0, uses_anonymous_args = 0
 473:Drivers/BSP/ST7735/st7735.c ****   int32_t ret;
 1079              		.loc 1 473 1 is_stmt 0 view .LVU296
 1080 0000 70B5     		push	{r4, r5, r6, lr}
 1081              	.LCFI17:
 1082              		.cfi_def_cfa_offset 16
 1083              		.cfi_offset 4, -16
 1084              		.cfi_offset 5, -12
 1085              		.cfi_offset 6, -8
 1086              		.cfi_offset 14, -4
 1087 0002 84B0     		sub	sp, sp, #16
 1088              	.LCFI18:
 1089              		.cfi_def_cfa_offset 32
 1090 0004 0646     		mov	r6, r0
 474:Drivers/BSP/ST7735/st7735.c ****   uint8_t tmp;
 1091              		.loc 1 474 3 is_stmt 1 view .LVU297
 475:Drivers/BSP/ST7735/st7735.c **** 
 1092              		.loc 1 475 3 view .LVU298
 477:Drivers/BSP/ST7735/st7735.c ****   {
 1093              		.loc 1 477 3 view .LVU299
 477:Drivers/BSP/ST7735/st7735.c ****   {
 1094              		.loc 1 477 14 is_stmt 0 view .LVU300
 1095 0006 8B68     		ldr	r3, [r1, #8]
 477:Drivers/BSP/ST7735/st7735.c ****   {
 1096              		.loc 1 477 5 view .LVU301
 1097 0008 012B     		cmp	r3, #1
 1098 000a 0CD9     		bls	.L69
 489:Drivers/BSP/ST7735/st7735.c **** 			ST7735Ctx.Width  = ST7735_0_9_HEIGHT;
 1099              		.loc 1 489 3 is_stmt 1 view .LVU302
 489:Drivers/BSP/ST7735/st7735.c **** 			ST7735Ctx.Width  = ST7735_0_9_HEIGHT;
 1100              		.loc 1 489 14 is_stmt 0 view .LVU303
 1101 000c 4A7B     		ldrb	r2, [r1, #13]	@ zero_extendqisi2
 489:Drivers/BSP/ST7735/st7735.c **** 			ST7735Ctx.Width  = ST7735_0_9_HEIGHT;
 1102              		.loc 1 489 6 view .LVU304
ARM GAS  /var/folders/mq/wg13gp494590nh4zyt09lxf00000gn/T//ccZMG5bD.s 			page 43


 1103 000e 012A     		cmp	r2, #1
 1104 0010 1CD0     		beq	.L70
 492:Drivers/BSP/ST7735/st7735.c **** 			ST7735Ctx.Width  = ST7735_1_8_HEIGHT;
 1105              		.loc 1 492 10 is_stmt 1 view .LVU305
 492:Drivers/BSP/ST7735/st7735.c **** 			ST7735Ctx.Width  = ST7735_1_8_HEIGHT;
 1106              		.loc 1 492 13 is_stmt 0 view .LVU306
 1107 0012 022A     		cmp	r2, #2
 1108 0014 18BF     		it	ne
 1109 0016 002A     		cmpne	r2, #0
 1110 0018 1DD1     		bne	.L62
 493:Drivers/BSP/ST7735/st7735.c **** 			ST7735Ctx.Height = ST7735_1_8_WIDTH;
 1111              		.loc 1 493 4 is_stmt 1 view .LVU307
 493:Drivers/BSP/ST7735/st7735.c **** 			ST7735Ctx.Height = ST7735_1_8_WIDTH;
 1112              		.loc 1 493 21 is_stmt 0 view .LVU308
 1113 001a 274A     		ldr	r2, .L73
 1114 001c A020     		movs	r0, #160
 1115              	.LVL118:
 493:Drivers/BSP/ST7735/st7735.c **** 			ST7735Ctx.Height = ST7735_1_8_WIDTH;
 1116              		.loc 1 493 21 view .LVU309
 1117 001e 1060     		str	r0, [r2]
 494:Drivers/BSP/ST7735/st7735.c **** 		}
 1118              		.loc 1 494 4 is_stmt 1 view .LVU310
 494:Drivers/BSP/ST7735/st7735.c **** 		}
 1119              		.loc 1 494 21 is_stmt 0 view .LVU311
 1120 0020 8020     		movs	r0, #128
 1121 0022 5060     		str	r0, [r2, #4]
 1122 0024 17E0     		b	.L62
 1123              	.LVL119:
 1124              	.L69:
 479:Drivers/BSP/ST7735/st7735.c **** 			ST7735Ctx.Width  = ST7735_0_9_WIDTH;
 1125              		.loc 1 479 3 is_stmt 1 view .LVU312
 479:Drivers/BSP/ST7735/st7735.c **** 			ST7735Ctx.Width  = ST7735_0_9_WIDTH;
 1126              		.loc 1 479 14 is_stmt 0 view .LVU313
 1127 0026 4A7B     		ldrb	r2, [r1, #13]	@ zero_extendqisi2
 479:Drivers/BSP/ST7735/st7735.c **** 			ST7735Ctx.Width  = ST7735_0_9_WIDTH;
 1128              		.loc 1 479 6 view .LVU314
 1129 0028 012A     		cmp	r2, #1
 1130 002a 09D0     		beq	.L71
 482:Drivers/BSP/ST7735/st7735.c **** 			ST7735Ctx.Width  = ST7735_1_8_WIDTH;
 1131              		.loc 1 482 10 is_stmt 1 view .LVU315
 482:Drivers/BSP/ST7735/st7735.c **** 			ST7735Ctx.Width  = ST7735_1_8_WIDTH;
 1132              		.loc 1 482 13 is_stmt 0 view .LVU316
 1133 002c 022A     		cmp	r2, #2
 1134 002e 18BF     		it	ne
 1135 0030 002A     		cmpne	r2, #0
 1136 0032 10D1     		bne	.L62
 483:Drivers/BSP/ST7735/st7735.c **** 			ST7735Ctx.Height = ST7735_1_8_HEIGHT;
 1137              		.loc 1 483 4 is_stmt 1 view .LVU317
 483:Drivers/BSP/ST7735/st7735.c **** 			ST7735Ctx.Height = ST7735_1_8_HEIGHT;
 1138              		.loc 1 483 21 is_stmt 0 view .LVU318
 1139 0034 204A     		ldr	r2, .L73
 1140 0036 8020     		movs	r0, #128
 1141              	.LVL120:
 483:Drivers/BSP/ST7735/st7735.c **** 			ST7735Ctx.Height = ST7735_1_8_HEIGHT;
 1142              		.loc 1 483 21 view .LVU319
 1143 0038 1060     		str	r0, [r2]
 484:Drivers/BSP/ST7735/st7735.c **** 		}
ARM GAS  /var/folders/mq/wg13gp494590nh4zyt09lxf00000gn/T//ccZMG5bD.s 			page 44


 1144              		.loc 1 484 4 is_stmt 1 view .LVU320
 484:Drivers/BSP/ST7735/st7735.c **** 		}
 1145              		.loc 1 484 21 is_stmt 0 view .LVU321
 1146 003a A020     		movs	r0, #160
 1147 003c 5060     		str	r0, [r2, #4]
 1148 003e 0AE0     		b	.L62
 1149              	.LVL121:
 1150              	.L71:
 480:Drivers/BSP/ST7735/st7735.c **** 			ST7735Ctx.Height = ST7735_0_9_HEIGHT;
 1151              		.loc 1 480 4 is_stmt 1 view .LVU322
 480:Drivers/BSP/ST7735/st7735.c **** 			ST7735Ctx.Height = ST7735_0_9_HEIGHT;
 1152              		.loc 1 480 21 is_stmt 0 view .LVU323
 1153 0040 1D4A     		ldr	r2, .L73
 1154 0042 5020     		movs	r0, #80
 1155              	.LVL122:
 480:Drivers/BSP/ST7735/st7735.c **** 			ST7735Ctx.Height = ST7735_0_9_HEIGHT;
 1156              		.loc 1 480 21 view .LVU324
 1157 0044 1060     		str	r0, [r2]
 481:Drivers/BSP/ST7735/st7735.c **** 		} else if (pDriver->Type == ST7735_1_8_inch_screen || pDriver->Type == ST7735_1_8a_inch_screen){
 1158              		.loc 1 481 4 is_stmt 1 view .LVU325
 481:Drivers/BSP/ST7735/st7735.c **** 		} else if (pDriver->Type == ST7735_1_8_inch_screen || pDriver->Type == ST7735_1_8a_inch_screen){
 1159              		.loc 1 481 21 is_stmt 0 view .LVU326
 1160 0046 A020     		movs	r0, #160
 1161 0048 5060     		str	r0, [r2, #4]
 1162 004a 04E0     		b	.L62
 1163              	.LVL123:
 1164              	.L70:
 490:Drivers/BSP/ST7735/st7735.c **** 			ST7735Ctx.Height = ST7735_0_9_WIDTH;
 1165              		.loc 1 490 4 is_stmt 1 view .LVU327
 490:Drivers/BSP/ST7735/st7735.c **** 			ST7735Ctx.Height = ST7735_0_9_WIDTH;
 1166              		.loc 1 490 21 is_stmt 0 view .LVU328
 1167 004c 1A4A     		ldr	r2, .L73
 1168 004e A020     		movs	r0, #160
 1169              	.LVL124:
 490:Drivers/BSP/ST7735/st7735.c **** 			ST7735Ctx.Height = ST7735_0_9_WIDTH;
 1170              		.loc 1 490 21 view .LVU329
 1171 0050 1060     		str	r0, [r2]
 491:Drivers/BSP/ST7735/st7735.c **** 		} else if (pDriver->Type == ST7735_1_8_inch_screen || pDriver->Type == ST7735_1_8a_inch_screen){
 1172              		.loc 1 491 4 is_stmt 1 view .LVU330
 491:Drivers/BSP/ST7735/st7735.c **** 		} else if (pDriver->Type == ST7735_1_8_inch_screen || pDriver->Type == ST7735_1_8a_inch_screen){
 1173              		.loc 1 491 21 is_stmt 0 view .LVU331
 1174 0052 5020     		movs	r0, #80
 1175 0054 5060     		str	r0, [r2, #4]
 1176              	.L62:
 498:Drivers/BSP/ST7735/st7735.c **** 	ST7735Ctx.Panel = pDriver->Panel;
 1177              		.loc 1 498 2 is_stmt 1 view .LVU332
 498:Drivers/BSP/ST7735/st7735.c **** 	ST7735Ctx.Panel = pDriver->Panel;
 1178              		.loc 1 498 24 is_stmt 0 view .LVU333
 1179 0056 184D     		ldr	r5, .L73
 1180 0058 AB60     		str	r3, [r5, #8]
 499:Drivers/BSP/ST7735/st7735.c **** 	ST7735Ctx.Type = pDriver->Type;
 1181              		.loc 1 499 2 is_stmt 1 view .LVU334
 499:Drivers/BSP/ST7735/st7735.c **** 	ST7735Ctx.Type = pDriver->Type;
 1182              		.loc 1 499 27 is_stmt 0 view .LVU335
 1183 005a 0B7B     		ldrb	r3, [r1, #12]	@ zero_extendqisi2
 499:Drivers/BSP/ST7735/st7735.c **** 	ST7735Ctx.Type = pDriver->Type;
 1184              		.loc 1 499 18 view .LVU336
ARM GAS  /var/folders/mq/wg13gp494590nh4zyt09lxf00000gn/T//ccZMG5bD.s 			page 45


 1185 005c 2B73     		strb	r3, [r5, #12]
 500:Drivers/BSP/ST7735/st7735.c **** 	
 1186              		.loc 1 500 2 is_stmt 1 view .LVU337
 500:Drivers/BSP/ST7735/st7735.c **** 	
 1187              		.loc 1 500 26 is_stmt 0 view .LVU338
 1188 005e 4B7B     		ldrb	r3, [r1, #13]	@ zero_extendqisi2
 500:Drivers/BSP/ST7735/st7735.c **** 	
 1189              		.loc 1 500 17 view .LVU339
 1190 0060 6B73     		strb	r3, [r5, #13]
 502:Drivers/BSP/ST7735/st7735.c **** 
 1191              		.loc 1 502 3 is_stmt 1 view .LVU340
 502:Drivers/BSP/ST7735/st7735.c **** 
 1192              		.loc 1 502 9 is_stmt 0 view .LVU341
 1193 0062 6B68     		ldr	r3, [r5, #4]
 1194 0064 0093     		str	r3, [sp]
 1195 0066 2B68     		ldr	r3, [r5]
 1196 0068 0022     		movs	r2, #0
 1197 006a 1146     		mov	r1, r2
 1198              	.LVL125:
 502:Drivers/BSP/ST7735/st7735.c **** 
 1199              		.loc 1 502 9 view .LVU342
 1200 006c 3046     		mov	r0, r6
 1201 006e FFF7FEFF 		bl	ST7735_SetDisplayWindow
 1202              	.LVL126:
 1203 0072 0446     		mov	r4, r0
 1204              	.LVL127:
 504:Drivers/BSP/ST7735/st7735.c **** 			(uint8_t)OrientationTab[ST7735Ctx.Orientation][1] | LCD_BGR :
 1205              		.loc 1 504 2 is_stmt 1 view .LVU343
 504:Drivers/BSP/ST7735/st7735.c **** 			(uint8_t)OrientationTab[ST7735Ctx.Orientation][1] | LCD_BGR :
 1206              		.loc 1 504 17 is_stmt 0 view .LVU344
 1207 0074 2B7B     		ldrb	r3, [r5, #12]	@ zero_extendqisi2
 504:Drivers/BSP/ST7735/st7735.c **** 			(uint8_t)OrientationTab[ST7735Ctx.Orientation][1] | LCD_BGR :
 1208              		.loc 1 504 6 view .LVU345
 1209 0076 A3B9     		cbnz	r3, .L64
 505:Drivers/BSP/ST7735/st7735.c **** 			(uint8_t)OrientationTab[ST7735Ctx.Orientation][1] | LCD_RGB;
 1210              		.loc 1 505 37 view .LVU346
 1211 0078 AA68     		ldr	r2, [r5, #8]
 505:Drivers/BSP/ST7735/st7735.c **** 			(uint8_t)OrientationTab[ST7735Ctx.Orientation][1] | LCD_RGB;
 1212              		.loc 1 505 50 view .LVU347
 1213 007a 104B     		ldr	r3, .L73+4
 1214 007c 03EBC203 		add	r3, r3, r2, lsl #3
 505:Drivers/BSP/ST7735/st7735.c **** 			(uint8_t)OrientationTab[ST7735Ctx.Orientation][1] | LCD_RGB;
 1215              		.loc 1 505 4 view .LVU348
 1216 0080 1B79     		ldrb	r3, [r3, #4]	@ zero_extendqisi2
 504:Drivers/BSP/ST7735/st7735.c **** 			(uint8_t)OrientationTab[ST7735Ctx.Orientation][1] | LCD_BGR :
 1217              		.loc 1 504 6 discriminator 1 view .LVU349
 1218 0082 43F00803 		orr	r3, r3, #8
 1219              	.L65:
 504:Drivers/BSP/ST7735/st7735.c **** 			(uint8_t)OrientationTab[ST7735Ctx.Orientation][1] | LCD_BGR :
 1220              		.loc 1 504 6 discriminator 4 view .LVU350
 1221 0086 8DF80F30 		strb	r3, [sp, #15]
 507:Drivers/BSP/ST7735/st7735.c **** 
 1222              		.loc 1 507 3 is_stmt 1 view .LVU351
 507:Drivers/BSP/ST7735/st7735.c **** 
 1223              		.loc 1 507 10 is_stmt 0 view .LVU352
 1224 008a 0123     		movs	r3, #1
 1225 008c 0DF10F02 		add	r2, sp, #15
ARM GAS  /var/folders/mq/wg13gp494590nh4zyt09lxf00000gn/T//ccZMG5bD.s 			page 46


 1226 0090 3621     		movs	r1, #54
 1227 0092 06F12000 		add	r0, r6, #32
 1228              	.LVL128:
 507:Drivers/BSP/ST7735/st7735.c **** 
 1229              		.loc 1 507 10 view .LVU353
 1230 0096 FFF7FEFF 		bl	st7735_write_reg
 1231              	.LVL129:
 511:Drivers/BSP/ST7735/st7735.c ****   {
 1232              		.loc 1 511 3 is_stmt 1 view .LVU354
 511:Drivers/BSP/ST7735/st7735.c ****   {
 1233              		.loc 1 511 5 is_stmt 0 view .LVU355
 1234 009a 2018     		adds	r0, r4, r0
 1235              	.LVL130:
 511:Drivers/BSP/ST7735/st7735.c ****   {
 1236              		.loc 1 511 5 view .LVU356
 1237 009c 08D1     		bne	.L72
 1238              	.LVL131:
 1239              	.L59:
 517:Drivers/BSP/ST7735/st7735.c **** 
 1240              		.loc 1 517 1 view .LVU357
 1241 009e 04B0     		add	sp, sp, #16
 1242              	.LCFI19:
 1243              		.cfi_remember_state
 1244              		.cfi_def_cfa_offset 16
 1245              		@ sp needed
 1246 00a0 70BD     		pop	{r4, r5, r6, pc}
 1247              	.LVL132:
 1248              	.L64:
 1249              	.LCFI20:
 1250              		.cfi_restore_state
 506:Drivers/BSP/ST7735/st7735.c ****   ret += st7735_write_reg(&pObj->Ctx, ST7735_MADCTL, &tmp, 1);
 1251              		.loc 1 506 37 view .LVU358
 1252 00a2 054B     		ldr	r3, .L73
 1253 00a4 9A68     		ldr	r2, [r3, #8]
 506:Drivers/BSP/ST7735/st7735.c ****   ret += st7735_write_reg(&pObj->Ctx, ST7735_MADCTL, &tmp, 1);
 1254              		.loc 1 506 50 view .LVU359
 1255 00a6 054B     		ldr	r3, .L73+4
 1256 00a8 03EBC203 		add	r3, r3, r2, lsl #3
 504:Drivers/BSP/ST7735/st7735.c **** 			(uint8_t)OrientationTab[ST7735Ctx.Orientation][1] | LCD_BGR :
 1257              		.loc 1 504 6 discriminator 2 view .LVU360
 1258 00ac 1B79     		ldrb	r3, [r3, #4]	@ zero_extendqisi2
 1259 00ae EAE7     		b	.L65
 1260              	.L72:
 513:Drivers/BSP/ST7735/st7735.c ****   }
 1261              		.loc 1 513 9 view .LVU361
 1262 00b0 4FF0FF30 		mov	r0, #-1
 1263              	.LVL133:
 516:Drivers/BSP/ST7735/st7735.c **** }
 1264              		.loc 1 516 3 is_stmt 1 view .LVU362
 516:Drivers/BSP/ST7735/st7735.c **** }
 1265              		.loc 1 516 10 is_stmt 0 view .LVU363
 1266 00b4 F3E7     		b	.L59
 1267              	.L74:
 1268 00b6 00BF     		.align	2
 1269              	.L73:
 1270 00b8 00000000 		.word	ST7735Ctx
 1271 00bc 00000000 		.word	OrientationTab
ARM GAS  /var/folders/mq/wg13gp494590nh4zyt09lxf00000gn/T//ccZMG5bD.s 			page 47


 1272              		.cfi_endproc
 1273              	.LFE8:
 1275              		.section	.text.ST7735_Init,"ax",%progbits
 1276              		.align	1
 1277              		.global	ST7735_Init
 1278              		.syntax unified
 1279              		.thumb
 1280              		.thumb_func
 1282              	ST7735_Init:
 1283              	.LVL134:
 1284              	.LFB1:
 147:Drivers/BSP/ST7735/st7735.c ****   uint8_t tmp;
 1285              		.loc 1 147 1 is_stmt 1 view -0
 1286              		.cfi_startproc
 1287              		@ args = 0, pretend = 0, frame = 16
 1288              		@ frame_needed = 0, uses_anonymous_args = 0
 147:Drivers/BSP/ST7735/st7735.c ****   uint8_t tmp;
 1289              		.loc 1 147 1 is_stmt 0 view .LVU365
 1290 0000 2DE9F04F 		push	{r4, r5, r6, r7, r8, r9, r10, fp, lr}
 1291              	.LCFI21:
 1292              		.cfi_def_cfa_offset 36
 1293              		.cfi_offset 4, -36
 1294              		.cfi_offset 5, -32
 1295              		.cfi_offset 6, -28
 1296              		.cfi_offset 7, -24
 1297              		.cfi_offset 8, -20
 1298              		.cfi_offset 9, -16
 1299              		.cfi_offset 10, -12
 1300              		.cfi_offset 11, -8
 1301              		.cfi_offset 14, -4
 1302 0004 85B0     		sub	sp, sp, #20
 1303              	.LCFI22:
 1304              		.cfi_def_cfa_offset 56
 1305 0006 0191     		str	r1, [sp, #4]
 1306 0008 0092     		str	r2, [sp]
 148:Drivers/BSP/ST7735/st7735.c ****   int32_t ret;
 1307              		.loc 1 148 3 is_stmt 1 view .LVU366
 149:Drivers/BSP/ST7735/st7735.c **** 
 1308              		.loc 1 149 3 view .LVU367
 151:Drivers/BSP/ST7735/st7735.c ****   {
 1309              		.loc 1 151 3 view .LVU368
 151:Drivers/BSP/ST7735/st7735.c ****   {
 1310              		.loc 1 151 5 is_stmt 0 view .LVU369
 1311 000a 0028     		cmp	r0, #0
 1312 000c 00F0B382 		beq	.L79
 1313 0010 9346     		mov	fp, r2
 1314 0012 0746     		mov	r7, r0
 158:Drivers/BSP/ST7735/st7735.c ****     ret = st7735_write_reg(&pObj->Ctx, ST7735_SW_RESET, &tmp, 0);
 1315              		.loc 1 158 5 is_stmt 1 view .LVU370
 158:Drivers/BSP/ST7735/st7735.c ****     ret = st7735_write_reg(&pObj->Ctx, ST7735_SW_RESET, &tmp, 0);
 1316              		.loc 1 158 9 is_stmt 0 view .LVU371
 1317 0014 4FF00008 		mov	r8, #0
 1318 0018 8DF80F80 		strb	r8, [sp, #15]
 159:Drivers/BSP/ST7735/st7735.c **** 		(void)ST7735_IO_Delay(pObj, 120);
 1319              		.loc 1 159 5 is_stmt 1 view .LVU372
 159:Drivers/BSP/ST7735/st7735.c **** 		(void)ST7735_IO_Delay(pObj, 120);
 1320              		.loc 1 159 11 is_stmt 0 view .LVU373
ARM GAS  /var/folders/mq/wg13gp494590nh4zyt09lxf00000gn/T//ccZMG5bD.s 			page 48


 1321 001c 00F12004 		add	r4, r0, #32
 1322 0020 4346     		mov	r3, r8
 1323 0022 0DF10F02 		add	r2, sp, #15
 1324              	.LVL135:
 159:Drivers/BSP/ST7735/st7735.c **** 		(void)ST7735_IO_Delay(pObj, 120);
 1325              		.loc 1 159 11 view .LVU374
 1326 0026 0121     		movs	r1, #1
 1327              	.LVL136:
 159:Drivers/BSP/ST7735/st7735.c **** 		(void)ST7735_IO_Delay(pObj, 120);
 1328              		.loc 1 159 11 view .LVU375
 1329 0028 2046     		mov	r0, r4
 1330              	.LVL137:
 159:Drivers/BSP/ST7735/st7735.c **** 		(void)ST7735_IO_Delay(pObj, 120);
 1331              		.loc 1 159 11 view .LVU376
 1332 002a FFF7FEFF 		bl	st7735_write_reg
 1333              	.LVL138:
 160:Drivers/BSP/ST7735/st7735.c **** 		
 1334              		.loc 1 160 3 is_stmt 1 view .LVU377
 160:Drivers/BSP/ST7735/st7735.c **** 		
 1335              		.loc 1 160 9 is_stmt 0 view .LVU378
 1336 002e 7821     		movs	r1, #120
 1337 0030 3846     		mov	r0, r7
 1338 0032 FFF7FEFF 		bl	ST7735_IO_Delay
 1339              	.LVL139:
 162:Drivers/BSP/ST7735/st7735.c ****     ret = st7735_write_reg(&pObj->Ctx, ST7735_SW_RESET, &tmp, 0);
 1340              		.loc 1 162 3 is_stmt 1 view .LVU379
 162:Drivers/BSP/ST7735/st7735.c ****     ret = st7735_write_reg(&pObj->Ctx, ST7735_SW_RESET, &tmp, 0);
 1341              		.loc 1 162 7 is_stmt 0 view .LVU380
 1342 0036 8DF80F80 		strb	r8, [sp, #15]
 163:Drivers/BSP/ST7735/st7735.c **** 		(void)ST7735_IO_Delay(pObj, 120);
 1343              		.loc 1 163 5 is_stmt 1 view .LVU381
 163:Drivers/BSP/ST7735/st7735.c **** 		(void)ST7735_IO_Delay(pObj, 120);
 1344              		.loc 1 163 11 is_stmt 0 view .LVU382
 1345 003a 4346     		mov	r3, r8
 1346 003c 0DF10F02 		add	r2, sp, #15
 1347 0040 0121     		movs	r1, #1
 1348 0042 2046     		mov	r0, r4
 1349 0044 FFF7FEFF 		bl	st7735_write_reg
 1350              	.LVL140:
 1351 0048 0546     		mov	r5, r0
 1352              	.LVL141:
 164:Drivers/BSP/ST7735/st7735.c **** 		
 1353              		.loc 1 164 3 is_stmt 1 view .LVU383
 164:Drivers/BSP/ST7735/st7735.c **** 		
 1354              		.loc 1 164 9 is_stmt 0 view .LVU384
 1355 004a 7821     		movs	r1, #120
 1356 004c 3846     		mov	r0, r7
 1357              	.LVL142:
 164:Drivers/BSP/ST7735/st7735.c **** 		
 1358              		.loc 1 164 9 view .LVU385
 1359 004e FFF7FEFF 		bl	ST7735_IO_Delay
 1360              	.LVL143:
 167:Drivers/BSP/ST7735/st7735.c ****     ret += st7735_write_reg(&pObj->Ctx, ST7735_SLEEP_OUT, &tmp, 1);
 1361              		.loc 1 167 5 is_stmt 1 view .LVU386
 167:Drivers/BSP/ST7735/st7735.c ****     ret += st7735_write_reg(&pObj->Ctx, ST7735_SLEEP_OUT, &tmp, 1);
 1362              		.loc 1 167 9 is_stmt 0 view .LVU387
 1363 0052 8DF80F80 		strb	r8, [sp, #15]
ARM GAS  /var/folders/mq/wg13gp494590nh4zyt09lxf00000gn/T//ccZMG5bD.s 			page 49


 168:Drivers/BSP/ST7735/st7735.c ****     
 1364              		.loc 1 168 5 is_stmt 1 view .LVU388
 168:Drivers/BSP/ST7735/st7735.c ****     
 1365              		.loc 1 168 12 is_stmt 0 view .LVU389
 1366 0056 0123     		movs	r3, #1
 1367 0058 0DF10F02 		add	r2, sp, #15
 1368 005c 1121     		movs	r1, #17
 1369 005e 2046     		mov	r0, r4
 1370 0060 FFF7FEFF 		bl	st7735_write_reg
 1371              	.LVL144:
 168:Drivers/BSP/ST7735/st7735.c ****     
 1372              		.loc 1 168 9 discriminator 1 view .LVU390
 1373 0064 0544     		add	r5, r5, r0
 1374              	.LVL145:
 171:Drivers/BSP/ST7735/st7735.c ****     tmp = 0x01U;
 1375              		.loc 1 171 5 is_stmt 1 view .LVU391
 171:Drivers/BSP/ST7735/st7735.c ****     tmp = 0x01U;
 1376              		.loc 1 171 12 is_stmt 0 view .LVU392
 1377 0066 4346     		mov	r3, r8
 1378 0068 0DF10F02 		add	r2, sp, #15
 1379 006c B121     		movs	r1, #177
 1380 006e 2046     		mov	r0, r4
 1381 0070 FFF7FEFF 		bl	st7735_write_reg
 1382              	.LVL146:
 171:Drivers/BSP/ST7735/st7735.c ****     tmp = 0x01U;
 1383              		.loc 1 171 9 discriminator 1 view .LVU393
 1384 0074 0544     		add	r5, r5, r0
 1385              	.LVL147:
 172:Drivers/BSP/ST7735/st7735.c ****     ret += st7735_send_data(&pObj->Ctx, &tmp, 1);
 1386              		.loc 1 172 5 is_stmt 1 view .LVU394
 172:Drivers/BSP/ST7735/st7735.c ****     ret += st7735_send_data(&pObj->Ctx, &tmp, 1);
 1387              		.loc 1 172 9 is_stmt 0 view .LVU395
 1388 0076 0126     		movs	r6, #1
 1389 0078 8DF80F60 		strb	r6, [sp, #15]
 173:Drivers/BSP/ST7735/st7735.c ****     tmp = 0x2CU;
 1390              		.loc 1 173 5 is_stmt 1 view .LVU396
 173:Drivers/BSP/ST7735/st7735.c ****     tmp = 0x2CU;
 1391              		.loc 1 173 12 is_stmt 0 view .LVU397
 1392 007c 3246     		mov	r2, r6
 1393 007e 0DF10F01 		add	r1, sp, #15
 1394 0082 2046     		mov	r0, r4
 1395 0084 FFF7FEFF 		bl	st7735_send_data
 1396              	.LVL148:
 173:Drivers/BSP/ST7735/st7735.c ****     tmp = 0x2CU;
 1397              		.loc 1 173 9 discriminator 1 view .LVU398
 1398 0088 0544     		add	r5, r5, r0
 1399              	.LVL149:
 174:Drivers/BSP/ST7735/st7735.c ****     ret += st7735_send_data(&pObj->Ctx, &tmp, 1);
 1400              		.loc 1 174 5 is_stmt 1 view .LVU399
 174:Drivers/BSP/ST7735/st7735.c ****     ret += st7735_send_data(&pObj->Ctx, &tmp, 1);
 1401              		.loc 1 174 9 is_stmt 0 view .LVU400
 1402 008a 4FF02C0A 		mov	r10, #44
 1403 008e 8DF80FA0 		strb	r10, [sp, #15]
 175:Drivers/BSP/ST7735/st7735.c ****     tmp = 0x2DU;
 1404              		.loc 1 175 5 is_stmt 1 view .LVU401
 175:Drivers/BSP/ST7735/st7735.c ****     tmp = 0x2DU;
 1405              		.loc 1 175 12 is_stmt 0 view .LVU402
ARM GAS  /var/folders/mq/wg13gp494590nh4zyt09lxf00000gn/T//ccZMG5bD.s 			page 50


 1406 0092 3246     		mov	r2, r6
 1407 0094 0DF10F01 		add	r1, sp, #15
 1408 0098 2046     		mov	r0, r4
 1409 009a FFF7FEFF 		bl	st7735_send_data
 1410              	.LVL150:
 175:Drivers/BSP/ST7735/st7735.c ****     tmp = 0x2DU;
 1411              		.loc 1 175 9 discriminator 1 view .LVU403
 1412 009e 0544     		add	r5, r5, r0
 1413              	.LVL151:
 176:Drivers/BSP/ST7735/st7735.c ****     ret += st7735_send_data(&pObj->Ctx, &tmp, 1);
 1414              		.loc 1 176 5 is_stmt 1 view .LVU404
 176:Drivers/BSP/ST7735/st7735.c ****     ret += st7735_send_data(&pObj->Ctx, &tmp, 1);
 1415              		.loc 1 176 9 is_stmt 0 view .LVU405
 1416 00a0 4FF02D09 		mov	r9, #45
 1417 00a4 8DF80F90 		strb	r9, [sp, #15]
 177:Drivers/BSP/ST7735/st7735.c **** 
 1418              		.loc 1 177 5 is_stmt 1 view .LVU406
 177:Drivers/BSP/ST7735/st7735.c **** 
 1419              		.loc 1 177 12 is_stmt 0 view .LVU407
 1420 00a8 3246     		mov	r2, r6
 1421 00aa 0DF10F01 		add	r1, sp, #15
 1422 00ae 2046     		mov	r0, r4
 1423 00b0 FFF7FEFF 		bl	st7735_send_data
 1424              	.LVL152:
 177:Drivers/BSP/ST7735/st7735.c **** 
 1425              		.loc 1 177 9 discriminator 1 view .LVU408
 1426 00b4 0544     		add	r5, r5, r0
 1427              	.LVL153:
 180:Drivers/BSP/ST7735/st7735.c ****     ret += st7735_write_reg(&pObj->Ctx, ST7735_FRAME_RATE_CTRL2, &tmp, 1);
 1428              		.loc 1 180 5 is_stmt 1 view .LVU409
 180:Drivers/BSP/ST7735/st7735.c ****     ret += st7735_write_reg(&pObj->Ctx, ST7735_FRAME_RATE_CTRL2, &tmp, 1);
 1429              		.loc 1 180 9 is_stmt 0 view .LVU410
 1430 00b6 8DF80F60 		strb	r6, [sp, #15]
 181:Drivers/BSP/ST7735/st7735.c ****     tmp = 0x2CU;
 1431              		.loc 1 181 5 is_stmt 1 view .LVU411
 181:Drivers/BSP/ST7735/st7735.c ****     tmp = 0x2CU;
 1432              		.loc 1 181 12 is_stmt 0 view .LVU412
 1433 00ba 3346     		mov	r3, r6
 1434 00bc 0DF10F02 		add	r2, sp, #15
 1435 00c0 B221     		movs	r1, #178
 1436 00c2 2046     		mov	r0, r4
 1437 00c4 FFF7FEFF 		bl	st7735_write_reg
 1438              	.LVL154:
 181:Drivers/BSP/ST7735/st7735.c ****     tmp = 0x2CU;
 1439              		.loc 1 181 9 discriminator 1 view .LVU413
 1440 00c8 0544     		add	r5, r5, r0
 1441              	.LVL155:
 182:Drivers/BSP/ST7735/st7735.c ****     ret += st7735_send_data(&pObj->Ctx, &tmp, 1);
 1442              		.loc 1 182 5 is_stmt 1 view .LVU414
 182:Drivers/BSP/ST7735/st7735.c ****     ret += st7735_send_data(&pObj->Ctx, &tmp, 1);
 1443              		.loc 1 182 9 is_stmt 0 view .LVU415
 1444 00ca 8DF80FA0 		strb	r10, [sp, #15]
 183:Drivers/BSP/ST7735/st7735.c ****     tmp = 0x2DU;
 1445              		.loc 1 183 5 is_stmt 1 view .LVU416
 183:Drivers/BSP/ST7735/st7735.c ****     tmp = 0x2DU;
 1446              		.loc 1 183 12 is_stmt 0 view .LVU417
 1447 00ce 3246     		mov	r2, r6
ARM GAS  /var/folders/mq/wg13gp494590nh4zyt09lxf00000gn/T//ccZMG5bD.s 			page 51


 1448 00d0 0DF10F01 		add	r1, sp, #15
 1449 00d4 2046     		mov	r0, r4
 1450 00d6 FFF7FEFF 		bl	st7735_send_data
 1451              	.LVL156:
 183:Drivers/BSP/ST7735/st7735.c ****     tmp = 0x2DU;
 1452              		.loc 1 183 9 discriminator 1 view .LVU418
 1453 00da 0544     		add	r5, r5, r0
 1454              	.LVL157:
 184:Drivers/BSP/ST7735/st7735.c ****     ret += st7735_send_data(&pObj->Ctx, &tmp, 1);
 1455              		.loc 1 184 5 is_stmt 1 view .LVU419
 184:Drivers/BSP/ST7735/st7735.c ****     ret += st7735_send_data(&pObj->Ctx, &tmp, 1);
 1456              		.loc 1 184 9 is_stmt 0 view .LVU420
 1457 00dc 8DF80F90 		strb	r9, [sp, #15]
 185:Drivers/BSP/ST7735/st7735.c **** 
 1458              		.loc 1 185 5 is_stmt 1 view .LVU421
 185:Drivers/BSP/ST7735/st7735.c **** 
 1459              		.loc 1 185 12 is_stmt 0 view .LVU422
 1460 00e0 3246     		mov	r2, r6
 1461 00e2 0DF10F01 		add	r1, sp, #15
 1462 00e6 2046     		mov	r0, r4
 1463 00e8 FFF7FEFF 		bl	st7735_send_data
 1464              	.LVL158:
 185:Drivers/BSP/ST7735/st7735.c **** 
 1465              		.loc 1 185 9 discriminator 1 view .LVU423
 1466 00ec 0544     		add	r5, r5, r0
 1467              	.LVL159:
 188:Drivers/BSP/ST7735/st7735.c ****     ret += st7735_write_reg(&pObj->Ctx, ST7735_FRAME_RATE_CTRL3, &tmp, 1);
 1468              		.loc 1 188 5 is_stmt 1 view .LVU424
 188:Drivers/BSP/ST7735/st7735.c ****     ret += st7735_write_reg(&pObj->Ctx, ST7735_FRAME_RATE_CTRL3, &tmp, 1);
 1469              		.loc 1 188 9 is_stmt 0 view .LVU425
 1470 00ee 8DF80F60 		strb	r6, [sp, #15]
 189:Drivers/BSP/ST7735/st7735.c ****     tmp = 0x2CU;
 1471              		.loc 1 189 5 is_stmt 1 view .LVU426
 189:Drivers/BSP/ST7735/st7735.c ****     tmp = 0x2CU;
 1472              		.loc 1 189 12 is_stmt 0 view .LVU427
 1473 00f2 3346     		mov	r3, r6
 1474 00f4 0DF10F02 		add	r2, sp, #15
 1475 00f8 B321     		movs	r1, #179
 1476 00fa 2046     		mov	r0, r4
 1477 00fc FFF7FEFF 		bl	st7735_write_reg
 1478              	.LVL160:
 189:Drivers/BSP/ST7735/st7735.c ****     tmp = 0x2CU;
 1479              		.loc 1 189 9 discriminator 1 view .LVU428
 1480 0100 0544     		add	r5, r5, r0
 1481              	.LVL161:
 190:Drivers/BSP/ST7735/st7735.c ****     ret += st7735_send_data(&pObj->Ctx, &tmp, 1);
 1482              		.loc 1 190 5 is_stmt 1 view .LVU429
 190:Drivers/BSP/ST7735/st7735.c ****     ret += st7735_send_data(&pObj->Ctx, &tmp, 1);
 1483              		.loc 1 190 9 is_stmt 0 view .LVU430
 1484 0102 8DF80FA0 		strb	r10, [sp, #15]
 191:Drivers/BSP/ST7735/st7735.c ****     tmp = 0x2DU;
 1485              		.loc 1 191 5 is_stmt 1 view .LVU431
 191:Drivers/BSP/ST7735/st7735.c ****     tmp = 0x2DU;
 1486              		.loc 1 191 12 is_stmt 0 view .LVU432
 1487 0106 3246     		mov	r2, r6
 1488 0108 0DF10F01 		add	r1, sp, #15
 1489 010c 2046     		mov	r0, r4
ARM GAS  /var/folders/mq/wg13gp494590nh4zyt09lxf00000gn/T//ccZMG5bD.s 			page 52


 1490 010e FFF7FEFF 		bl	st7735_send_data
 1491              	.LVL162:
 191:Drivers/BSP/ST7735/st7735.c ****     tmp = 0x2DU;
 1492              		.loc 1 191 9 discriminator 1 view .LVU433
 1493 0112 0544     		add	r5, r5, r0
 1494              	.LVL163:
 192:Drivers/BSP/ST7735/st7735.c ****     ret += st7735_send_data(&pObj->Ctx, &tmp, 1);
 1495              		.loc 1 192 5 is_stmt 1 view .LVU434
 192:Drivers/BSP/ST7735/st7735.c ****     ret += st7735_send_data(&pObj->Ctx, &tmp, 1);
 1496              		.loc 1 192 9 is_stmt 0 view .LVU435
 1497 0114 8DF80F90 		strb	r9, [sp, #15]
 193:Drivers/BSP/ST7735/st7735.c ****     tmp = 0x01U;
 1498              		.loc 1 193 5 is_stmt 1 view .LVU436
 193:Drivers/BSP/ST7735/st7735.c ****     tmp = 0x01U;
 1499              		.loc 1 193 12 is_stmt 0 view .LVU437
 1500 0118 3246     		mov	r2, r6
 1501 011a 0DF10F01 		add	r1, sp, #15
 1502 011e 2046     		mov	r0, r4
 1503 0120 FFF7FEFF 		bl	st7735_send_data
 1504              	.LVL164:
 193:Drivers/BSP/ST7735/st7735.c ****     tmp = 0x01U;
 1505              		.loc 1 193 9 discriminator 1 view .LVU438
 1506 0124 0544     		add	r5, r5, r0
 1507              	.LVL165:
 194:Drivers/BSP/ST7735/st7735.c ****     ret += st7735_send_data(&pObj->Ctx, &tmp, 1);
 1508              		.loc 1 194 5 is_stmt 1 view .LVU439
 194:Drivers/BSP/ST7735/st7735.c ****     ret += st7735_send_data(&pObj->Ctx, &tmp, 1);
 1509              		.loc 1 194 9 is_stmt 0 view .LVU440
 1510 0126 8DF80F60 		strb	r6, [sp, #15]
 195:Drivers/BSP/ST7735/st7735.c ****     tmp = 0x2CU;
 1511              		.loc 1 195 5 is_stmt 1 view .LVU441
 195:Drivers/BSP/ST7735/st7735.c ****     tmp = 0x2CU;
 1512              		.loc 1 195 12 is_stmt 0 view .LVU442
 1513 012a 3246     		mov	r2, r6
 1514 012c 0DF10F01 		add	r1, sp, #15
 1515 0130 2046     		mov	r0, r4
 1516 0132 FFF7FEFF 		bl	st7735_send_data
 1517              	.LVL166:
 195:Drivers/BSP/ST7735/st7735.c ****     tmp = 0x2CU;
 1518              		.loc 1 195 9 discriminator 1 view .LVU443
 1519 0136 0544     		add	r5, r5, r0
 1520              	.LVL167:
 196:Drivers/BSP/ST7735/st7735.c ****     ret += st7735_send_data(&pObj->Ctx, &tmp, 1);
 1521              		.loc 1 196 5 is_stmt 1 view .LVU444
 196:Drivers/BSP/ST7735/st7735.c ****     ret += st7735_send_data(&pObj->Ctx, &tmp, 1);
 1522              		.loc 1 196 9 is_stmt 0 view .LVU445
 1523 0138 8DF80FA0 		strb	r10, [sp, #15]
 197:Drivers/BSP/ST7735/st7735.c ****     tmp = 0x2DU;
 1524              		.loc 1 197 5 is_stmt 1 view .LVU446
 197:Drivers/BSP/ST7735/st7735.c ****     tmp = 0x2DU;
 1525              		.loc 1 197 12 is_stmt 0 view .LVU447
 1526 013c 3246     		mov	r2, r6
 1527 013e 0DF10F01 		add	r1, sp, #15
 1528 0142 2046     		mov	r0, r4
 1529 0144 FFF7FEFF 		bl	st7735_send_data
 1530              	.LVL168:
 197:Drivers/BSP/ST7735/st7735.c ****     tmp = 0x2DU;
ARM GAS  /var/folders/mq/wg13gp494590nh4zyt09lxf00000gn/T//ccZMG5bD.s 			page 53


 1531              		.loc 1 197 9 discriminator 1 view .LVU448
 1532 0148 0544     		add	r5, r5, r0
 1533              	.LVL169:
 198:Drivers/BSP/ST7735/st7735.c ****     ret += st7735_send_data(&pObj->Ctx, &tmp, 1);
 1534              		.loc 1 198 5 is_stmt 1 view .LVU449
 198:Drivers/BSP/ST7735/st7735.c ****     ret += st7735_send_data(&pObj->Ctx, &tmp, 1);
 1535              		.loc 1 198 9 is_stmt 0 view .LVU450
 1536 014a 8DF80F90 		strb	r9, [sp, #15]
 199:Drivers/BSP/ST7735/st7735.c **** 
 1537              		.loc 1 199 5 is_stmt 1 view .LVU451
 199:Drivers/BSP/ST7735/st7735.c **** 
 1538              		.loc 1 199 12 is_stmt 0 view .LVU452
 1539 014e 3246     		mov	r2, r6
 1540 0150 0DF10F01 		add	r1, sp, #15
 1541 0154 2046     		mov	r0, r4
 1542 0156 FFF7FEFF 		bl	st7735_send_data
 1543              	.LVL170:
 199:Drivers/BSP/ST7735/st7735.c **** 
 1544              		.loc 1 199 9 discriminator 1 view .LVU453
 1545 015a 0544     		add	r5, r5, r0
 1546              	.LVL171:
 202:Drivers/BSP/ST7735/st7735.c ****     ret += st7735_write_reg(&pObj->Ctx, ST7735_FRAME_INVERSION_CTRL, &tmp, 1);
 1547              		.loc 1 202 5 is_stmt 1 view .LVU454
 202:Drivers/BSP/ST7735/st7735.c ****     ret += st7735_write_reg(&pObj->Ctx, ST7735_FRAME_INVERSION_CTRL, &tmp, 1);
 1548              		.loc 1 202 9 is_stmt 0 view .LVU455
 1549 015c 0723     		movs	r3, #7
 1550 015e 8DF80F30 		strb	r3, [sp, #15]
 203:Drivers/BSP/ST7735/st7735.c **** 
 1551              		.loc 1 203 5 is_stmt 1 view .LVU456
 203:Drivers/BSP/ST7735/st7735.c **** 
 1552              		.loc 1 203 12 is_stmt 0 view .LVU457
 1553 0162 3346     		mov	r3, r6
 1554 0164 0DF10F02 		add	r2, sp, #15
 1555 0168 B421     		movs	r1, #180
 1556 016a 2046     		mov	r0, r4
 1557 016c FFF7FEFF 		bl	st7735_write_reg
 1558              	.LVL172:
 203:Drivers/BSP/ST7735/st7735.c **** 
 1559              		.loc 1 203 9 discriminator 1 view .LVU458
 1560 0170 0544     		add	r5, r5, r0
 1561              	.LVL173:
 206:Drivers/BSP/ST7735/st7735.c ****     ret += st7735_write_reg(&pObj->Ctx, ST7735_PWR_CTRL1, &tmp, 1);
 1562              		.loc 1 206 5 is_stmt 1 view .LVU459
 206:Drivers/BSP/ST7735/st7735.c ****     ret += st7735_write_reg(&pObj->Ctx, ST7735_PWR_CTRL1, &tmp, 1);
 1563              		.loc 1 206 9 is_stmt 0 view .LVU460
 1564 0172 A223     		movs	r3, #162
 1565 0174 8DF80F30 		strb	r3, [sp, #15]
 207:Drivers/BSP/ST7735/st7735.c ****     tmp = 0x02U;
 1566              		.loc 1 207 5 is_stmt 1 view .LVU461
 207:Drivers/BSP/ST7735/st7735.c ****     tmp = 0x02U;
 1567              		.loc 1 207 12 is_stmt 0 view .LVU462
 1568 0178 3346     		mov	r3, r6
 1569 017a 0DF10F02 		add	r2, sp, #15
 1570 017e C021     		movs	r1, #192
 1571 0180 2046     		mov	r0, r4
 1572 0182 FFF7FEFF 		bl	st7735_write_reg
 1573              	.LVL174:
ARM GAS  /var/folders/mq/wg13gp494590nh4zyt09lxf00000gn/T//ccZMG5bD.s 			page 54


 207:Drivers/BSP/ST7735/st7735.c ****     tmp = 0x02U;
 1574              		.loc 1 207 9 discriminator 1 view .LVU463
 1575 0186 0544     		add	r5, r5, r0
 1576              	.LVL175:
 208:Drivers/BSP/ST7735/st7735.c ****     ret += st7735_send_data(&pObj->Ctx, &tmp, 1);
 1577              		.loc 1 208 5 is_stmt 1 view .LVU464
 208:Drivers/BSP/ST7735/st7735.c ****     ret += st7735_send_data(&pObj->Ctx, &tmp, 1);
 1578              		.loc 1 208 9 is_stmt 0 view .LVU465
 1579 0188 0223     		movs	r3, #2
 1580 018a 8DF80F30 		strb	r3, [sp, #15]
 209:Drivers/BSP/ST7735/st7735.c ****     tmp = 0x84U;
 1581              		.loc 1 209 5 is_stmt 1 view .LVU466
 209:Drivers/BSP/ST7735/st7735.c ****     tmp = 0x84U;
 1582              		.loc 1 209 12 is_stmt 0 view .LVU467
 1583 018e 3246     		mov	r2, r6
 1584 0190 0DF10F01 		add	r1, sp, #15
 1585 0194 2046     		mov	r0, r4
 1586 0196 FFF7FEFF 		bl	st7735_send_data
 1587              	.LVL176:
 209:Drivers/BSP/ST7735/st7735.c ****     tmp = 0x84U;
 1588              		.loc 1 209 9 discriminator 1 view .LVU468
 1589 019a 0544     		add	r5, r5, r0
 1590              	.LVL177:
 210:Drivers/BSP/ST7735/st7735.c ****     ret += st7735_send_data(&pObj->Ctx, &tmp, 1);
 1591              		.loc 1 210 5 is_stmt 1 view .LVU469
 210:Drivers/BSP/ST7735/st7735.c ****     ret += st7735_send_data(&pObj->Ctx, &tmp, 1);
 1592              		.loc 1 210 9 is_stmt 0 view .LVU470
 1593 019c 8423     		movs	r3, #132
 1594 019e 8DF80F30 		strb	r3, [sp, #15]
 211:Drivers/BSP/ST7735/st7735.c **** 
 1595              		.loc 1 211 5 is_stmt 1 view .LVU471
 211:Drivers/BSP/ST7735/st7735.c **** 
 1596              		.loc 1 211 12 is_stmt 0 view .LVU472
 1597 01a2 3246     		mov	r2, r6
 1598 01a4 0DF10F01 		add	r1, sp, #15
 1599 01a8 2046     		mov	r0, r4
 1600 01aa FFF7FEFF 		bl	st7735_send_data
 1601              	.LVL178:
 211:Drivers/BSP/ST7735/st7735.c **** 
 1602              		.loc 1 211 9 discriminator 1 view .LVU473
 1603 01ae 0544     		add	r5, r5, r0
 1604              	.LVL179:
 214:Drivers/BSP/ST7735/st7735.c ****     ret += st7735_write_reg(&pObj->Ctx, ST7735_PWR_CTRL2, &tmp, 1);
 1605              		.loc 1 214 5 is_stmt 1 view .LVU474
 214:Drivers/BSP/ST7735/st7735.c ****     ret += st7735_write_reg(&pObj->Ctx, ST7735_PWR_CTRL2, &tmp, 1);
 1606              		.loc 1 214 9 is_stmt 0 view .LVU475
 1607 01b0 4FF0C509 		mov	r9, #197
 1608 01b4 8DF80F90 		strb	r9, [sp, #15]
 215:Drivers/BSP/ST7735/st7735.c **** 
 1609              		.loc 1 215 5 is_stmt 1 view .LVU476
 215:Drivers/BSP/ST7735/st7735.c **** 
 1610              		.loc 1 215 12 is_stmt 0 view .LVU477
 1611 01b8 3346     		mov	r3, r6
 1612 01ba 0DF10F02 		add	r2, sp, #15
 1613 01be C121     		movs	r1, #193
 1614 01c0 2046     		mov	r0, r4
 1615 01c2 FFF7FEFF 		bl	st7735_write_reg
ARM GAS  /var/folders/mq/wg13gp494590nh4zyt09lxf00000gn/T//ccZMG5bD.s 			page 55


 1616              	.LVL180:
 215:Drivers/BSP/ST7735/st7735.c **** 
 1617              		.loc 1 215 9 discriminator 1 view .LVU478
 1618 01c6 0544     		add	r5, r5, r0
 1619              	.LVL181:
 218:Drivers/BSP/ST7735/st7735.c ****     ret += st7735_write_reg(&pObj->Ctx, ST7735_PWR_CTRL3, &tmp, 1);
 1620              		.loc 1 218 5 is_stmt 1 view .LVU479
 218:Drivers/BSP/ST7735/st7735.c ****     ret += st7735_write_reg(&pObj->Ctx, ST7735_PWR_CTRL3, &tmp, 1);
 1621              		.loc 1 218 9 is_stmt 0 view .LVU480
 1622 01c8 0A23     		movs	r3, #10
 1623 01ca 8DF80F30 		strb	r3, [sp, #15]
 219:Drivers/BSP/ST7735/st7735.c ****     tmp = 0x00U;
 1624              		.loc 1 219 5 is_stmt 1 view .LVU481
 219:Drivers/BSP/ST7735/st7735.c ****     tmp = 0x00U;
 1625              		.loc 1 219 12 is_stmt 0 view .LVU482
 1626 01ce 3346     		mov	r3, r6
 1627 01d0 0DF10F02 		add	r2, sp, #15
 1628 01d4 C221     		movs	r1, #194
 1629 01d6 2046     		mov	r0, r4
 1630 01d8 FFF7FEFF 		bl	st7735_write_reg
 1631              	.LVL182:
 219:Drivers/BSP/ST7735/st7735.c ****     tmp = 0x00U;
 1632              		.loc 1 219 9 discriminator 1 view .LVU483
 1633 01dc 0544     		add	r5, r5, r0
 1634              	.LVL183:
 220:Drivers/BSP/ST7735/st7735.c ****     ret += st7735_send_data(&pObj->Ctx, &tmp, 1);
 1635              		.loc 1 220 5 is_stmt 1 view .LVU484
 220:Drivers/BSP/ST7735/st7735.c ****     ret += st7735_send_data(&pObj->Ctx, &tmp, 1);
 1636              		.loc 1 220 9 is_stmt 0 view .LVU485
 1637 01de 8DF80F80 		strb	r8, [sp, #15]
 221:Drivers/BSP/ST7735/st7735.c **** 
 1638              		.loc 1 221 5 is_stmt 1 view .LVU486
 221:Drivers/BSP/ST7735/st7735.c **** 
 1639              		.loc 1 221 12 is_stmt 0 view .LVU487
 1640 01e2 3246     		mov	r2, r6
 1641 01e4 0DF10F01 		add	r1, sp, #15
 1642 01e8 2046     		mov	r0, r4
 1643 01ea FFF7FEFF 		bl	st7735_send_data
 1644              	.LVL184:
 221:Drivers/BSP/ST7735/st7735.c **** 
 1645              		.loc 1 221 9 discriminator 1 view .LVU488
 1646 01ee 0544     		add	r5, r5, r0
 1647              	.LVL185:
 224:Drivers/BSP/ST7735/st7735.c ****     ret += st7735_write_reg(&pObj->Ctx, ST7735_PWR_CTRL4, &tmp, 1);
 1648              		.loc 1 224 5 is_stmt 1 view .LVU489
 224:Drivers/BSP/ST7735/st7735.c ****     ret += st7735_write_reg(&pObj->Ctx, ST7735_PWR_CTRL4, &tmp, 1);
 1649              		.loc 1 224 9 is_stmt 0 view .LVU490
 1650 01f0 4FF08A08 		mov	r8, #138
 1651 01f4 8DF80F80 		strb	r8, [sp, #15]
 225:Drivers/BSP/ST7735/st7735.c ****     tmp = 0x2AU;
 1652              		.loc 1 225 5 is_stmt 1 view .LVU491
 225:Drivers/BSP/ST7735/st7735.c ****     tmp = 0x2AU;
 1653              		.loc 1 225 12 is_stmt 0 view .LVU492
 1654 01f8 3346     		mov	r3, r6
 1655 01fa 0DF10F02 		add	r2, sp, #15
 1656 01fe C321     		movs	r1, #195
 1657 0200 2046     		mov	r0, r4
ARM GAS  /var/folders/mq/wg13gp494590nh4zyt09lxf00000gn/T//ccZMG5bD.s 			page 56


 1658 0202 FFF7FEFF 		bl	st7735_write_reg
 1659              	.LVL186:
 225:Drivers/BSP/ST7735/st7735.c ****     tmp = 0x2AU;
 1660              		.loc 1 225 9 discriminator 1 view .LVU493
 1661 0206 0544     		add	r5, r5, r0
 1662              	.LVL187:
 226:Drivers/BSP/ST7735/st7735.c ****     ret += st7735_send_data(&pObj->Ctx, &tmp, 1);
 1663              		.loc 1 226 5 is_stmt 1 view .LVU494
 226:Drivers/BSP/ST7735/st7735.c ****     ret += st7735_send_data(&pObj->Ctx, &tmp, 1);
 1664              		.loc 1 226 9 is_stmt 0 view .LVU495
 1665 0208 2A23     		movs	r3, #42
 1666 020a 8DF80F30 		strb	r3, [sp, #15]
 227:Drivers/BSP/ST7735/st7735.c **** 
 1667              		.loc 1 227 5 is_stmt 1 view .LVU496
 227:Drivers/BSP/ST7735/st7735.c **** 
 1668              		.loc 1 227 12 is_stmt 0 view .LVU497
 1669 020e 3246     		mov	r2, r6
 1670 0210 0DF10F01 		add	r1, sp, #15
 1671 0214 2046     		mov	r0, r4
 1672 0216 FFF7FEFF 		bl	st7735_send_data
 1673              	.LVL188:
 227:Drivers/BSP/ST7735/st7735.c **** 
 1674              		.loc 1 227 9 discriminator 1 view .LVU498
 1675 021a 0544     		add	r5, r5, r0
 1676              	.LVL189:
 230:Drivers/BSP/ST7735/st7735.c ****     ret += st7735_write_reg(&pObj->Ctx, ST7735_PWR_CTRL5, &tmp, 1);
 1677              		.loc 1 230 5 is_stmt 1 view .LVU499
 230:Drivers/BSP/ST7735/st7735.c ****     ret += st7735_write_reg(&pObj->Ctx, ST7735_PWR_CTRL5, &tmp, 1);
 1678              		.loc 1 230 9 is_stmt 0 view .LVU500
 1679 021c 8DF80F80 		strb	r8, [sp, #15]
 231:Drivers/BSP/ST7735/st7735.c ****     tmp = 0xEEU;
 1680              		.loc 1 231 5 is_stmt 1 view .LVU501
 231:Drivers/BSP/ST7735/st7735.c ****     tmp = 0xEEU;
 1681              		.loc 1 231 12 is_stmt 0 view .LVU502
 1682 0220 3346     		mov	r3, r6
 1683 0222 0DF10F02 		add	r2, sp, #15
 1684 0226 C421     		movs	r1, #196
 1685 0228 2046     		mov	r0, r4
 1686 022a FFF7FEFF 		bl	st7735_write_reg
 1687              	.LVL190:
 231:Drivers/BSP/ST7735/st7735.c ****     tmp = 0xEEU;
 1688              		.loc 1 231 9 discriminator 1 view .LVU503
 1689 022e 0544     		add	r5, r5, r0
 1690              	.LVL191:
 232:Drivers/BSP/ST7735/st7735.c ****     ret += st7735_send_data(&pObj->Ctx, &tmp, 1);
 1691              		.loc 1 232 5 is_stmt 1 view .LVU504
 232:Drivers/BSP/ST7735/st7735.c ****     ret += st7735_send_data(&pObj->Ctx, &tmp, 1);
 1692              		.loc 1 232 9 is_stmt 0 view .LVU505
 1693 0230 EE23     		movs	r3, #238
 1694 0232 8DF80F30 		strb	r3, [sp, #15]
 233:Drivers/BSP/ST7735/st7735.c **** 
 1695              		.loc 1 233 5 is_stmt 1 view .LVU506
 233:Drivers/BSP/ST7735/st7735.c **** 
 1696              		.loc 1 233 12 is_stmt 0 view .LVU507
 1697 0236 3246     		mov	r2, r6
 1698 0238 0DF10F01 		add	r1, sp, #15
 1699 023c 2046     		mov	r0, r4
ARM GAS  /var/folders/mq/wg13gp494590nh4zyt09lxf00000gn/T//ccZMG5bD.s 			page 57


 1700 023e FFF7FEFF 		bl	st7735_send_data
 1701              	.LVL192:
 233:Drivers/BSP/ST7735/st7735.c **** 
 1702              		.loc 1 233 9 discriminator 1 view .LVU508
 1703 0242 0544     		add	r5, r5, r0
 1704              	.LVL193:
 236:Drivers/BSP/ST7735/st7735.c ****     ret += st7735_write_reg(&pObj->Ctx, ST7735_VCOMH_VCOML_CTRL1, &tmp, 1);
 1705              		.loc 1 236 5 is_stmt 1 view .LVU509
 236:Drivers/BSP/ST7735/st7735.c ****     ret += st7735_write_reg(&pObj->Ctx, ST7735_VCOMH_VCOML_CTRL1, &tmp, 1);
 1706              		.loc 1 236 9 is_stmt 0 view .LVU510
 1707 0244 0E23     		movs	r3, #14
 1708 0246 8DF80F30 		strb	r3, [sp, #15]
 237:Drivers/BSP/ST7735/st7735.c **** 
 1709              		.loc 1 237 5 is_stmt 1 view .LVU511
 237:Drivers/BSP/ST7735/st7735.c **** 
 1710              		.loc 1 237 12 is_stmt 0 view .LVU512
 1711 024a 3346     		mov	r3, r6
 1712 024c 0DF10F02 		add	r2, sp, #15
 1713 0250 4946     		mov	r1, r9
 1714 0252 2046     		mov	r0, r4
 1715 0254 FFF7FEFF 		bl	st7735_write_reg
 1716              	.LVL194:
 237:Drivers/BSP/ST7735/st7735.c **** 
 1717              		.loc 1 237 9 discriminator 1 view .LVU513
 1718 0258 0544     		add	r5, r5, r0
 1719              	.LVL195:
 240:Drivers/BSP/ST7735/st7735.c **** 			ret += st7735_write_reg(&pObj->Ctx, ST7735_DISPLAY_INVERSION_ON, &tmp, 0);
 1720              		.loc 1 240 3 is_stmt 1 view .LVU514
 240:Drivers/BSP/ST7735/st7735.c **** 			ret += st7735_write_reg(&pObj->Ctx, ST7735_DISPLAY_INVERSION_ON, &tmp, 0);
 1721              		.loc 1 240 14 is_stmt 0 view .LVU515
 1722 025a 9BF80C30 		ldrb	r3, [fp, #12]	@ zero_extendqisi2
 240:Drivers/BSP/ST7735/st7735.c **** 			ret += st7735_write_reg(&pObj->Ctx, ST7735_DISPLAY_INVERSION_ON, &tmp, 0);
 1723              		.loc 1 240 6 view .LVU516
 1724 025e 002B     		cmp	r3, #0
 1725 0260 40F08081 		bne	.L77
 241:Drivers/BSP/ST7735/st7735.c **** 		} else {
 1726              		.loc 1 241 4 is_stmt 1 view .LVU517
 241:Drivers/BSP/ST7735/st7735.c **** 		} else {
 1727              		.loc 1 241 11 is_stmt 0 view .LVU518
 1728 0264 0DF10F02 		add	r2, sp, #15
 1729 0268 2121     		movs	r1, #33
 1730 026a 2046     		mov	r0, r4
 1731 026c FFF7FEFF 		bl	st7735_write_reg
 1732              	.LVL196:
 241:Drivers/BSP/ST7735/st7735.c **** 		} else {
 1733              		.loc 1 241 8 discriminator 1 view .LVU519
 1734 0270 0544     		add	r5, r5, r0
 1735              	.LVL197:
 1736              	.L78:
 246:Drivers/BSP/ST7735/st7735.c **** 
 1737              		.loc 1 246 5 is_stmt 1 view .LVU520
 246:Drivers/BSP/ST7735/st7735.c **** 
 1738              		.loc 1 246 12 is_stmt 0 view .LVU521
 1739 0272 0123     		movs	r3, #1
 1740 0274 01AA     		add	r2, sp, #4
 1741 0276 3A21     		movs	r1, #58
 1742 0278 2046     		mov	r0, r4
ARM GAS  /var/folders/mq/wg13gp494590nh4zyt09lxf00000gn/T//ccZMG5bD.s 			page 58


 1743 027a FFF7FEFF 		bl	st7735_write_reg
 1744              	.LVL198:
 246:Drivers/BSP/ST7735/st7735.c **** 
 1745              		.loc 1 246 9 discriminator 1 view .LVU522
 1746 027e 0544     		add	r5, r5, r0
 1747              	.LVL199:
 249:Drivers/BSP/ST7735/st7735.c ****     ret += st7735_write_reg(&pObj->Ctx, ST7735_PV_GAMMA_CTRL, &tmp, 1);
 1748              		.loc 1 249 5 is_stmt 1 view .LVU523
 249:Drivers/BSP/ST7735/st7735.c ****     ret += st7735_write_reg(&pObj->Ctx, ST7735_PV_GAMMA_CTRL, &tmp, 1);
 1749              		.loc 1 249 9 is_stmt 0 view .LVU524
 1750 0280 4FF00203 		mov	r3, #2
 1751 0284 8DF80F30 		strb	r3, [sp, #15]
 250:Drivers/BSP/ST7735/st7735.c ****     tmp = 0x1CU;
 1752              		.loc 1 250 5 is_stmt 1 view .LVU525
 250:Drivers/BSP/ST7735/st7735.c ****     tmp = 0x1CU;
 1753              		.loc 1 250 12 is_stmt 0 view .LVU526
 1754 0288 0123     		movs	r3, #1
 1755 028a 0DF10F02 		add	r2, sp, #15
 1756 028e E021     		movs	r1, #224
 1757 0290 2046     		mov	r0, r4
 1758 0292 FFF7FEFF 		bl	st7735_write_reg
 1759              	.LVL200:
 250:Drivers/BSP/ST7735/st7735.c ****     tmp = 0x1CU;
 1760              		.loc 1 250 9 discriminator 1 view .LVU527
 1761 0296 0544     		add	r5, r5, r0
 1762              	.LVL201:
 251:Drivers/BSP/ST7735/st7735.c ****     ret += st7735_send_data(&pObj->Ctx, &tmp, 1);
 1763              		.loc 1 251 5 is_stmt 1 view .LVU528
 251:Drivers/BSP/ST7735/st7735.c ****     ret += st7735_send_data(&pObj->Ctx, &tmp, 1);
 1764              		.loc 1 251 9 is_stmt 0 view .LVU529
 1765 0298 1C23     		movs	r3, #28
 1766 029a 8DF80F30 		strb	r3, [sp, #15]
 252:Drivers/BSP/ST7735/st7735.c ****     tmp = 0x07U;
 1767              		.loc 1 252 5 is_stmt 1 view .LVU530
 252:Drivers/BSP/ST7735/st7735.c ****     tmp = 0x07U;
 1768              		.loc 1 252 12 is_stmt 0 view .LVU531
 1769 029e 0122     		movs	r2, #1
 1770 02a0 0DF10F01 		add	r1, sp, #15
 1771 02a4 2046     		mov	r0, r4
 1772 02a6 FFF7FEFF 		bl	st7735_send_data
 1773              	.LVL202:
 252:Drivers/BSP/ST7735/st7735.c ****     tmp = 0x07U;
 1774              		.loc 1 252 9 discriminator 1 view .LVU532
 1775 02aa 0544     		add	r5, r5, r0
 1776              	.LVL203:
 253:Drivers/BSP/ST7735/st7735.c ****     ret += st7735_send_data(&pObj->Ctx, &tmp, 1);
 1777              		.loc 1 253 5 is_stmt 1 view .LVU533
 253:Drivers/BSP/ST7735/st7735.c ****     ret += st7735_send_data(&pObj->Ctx, &tmp, 1);
 1778              		.loc 1 253 9 is_stmt 0 view .LVU534
 1779 02ac 4FF0070A 		mov	r10, #7
 1780 02b0 8DF80FA0 		strb	r10, [sp, #15]
 254:Drivers/BSP/ST7735/st7735.c ****     tmp = 0x12U;
 1781              		.loc 1 254 5 is_stmt 1 view .LVU535
 254:Drivers/BSP/ST7735/st7735.c ****     tmp = 0x12U;
 1782              		.loc 1 254 12 is_stmt 0 view .LVU536
 1783 02b4 0122     		movs	r2, #1
 1784 02b6 0DF10F01 		add	r1, sp, #15
ARM GAS  /var/folders/mq/wg13gp494590nh4zyt09lxf00000gn/T//ccZMG5bD.s 			page 59


 1785 02ba 2046     		mov	r0, r4
 1786 02bc FFF7FEFF 		bl	st7735_send_data
 1787              	.LVL204:
 254:Drivers/BSP/ST7735/st7735.c ****     tmp = 0x12U;
 1788              		.loc 1 254 9 discriminator 1 view .LVU537
 1789 02c0 0544     		add	r5, r5, r0
 1790              	.LVL205:
 255:Drivers/BSP/ST7735/st7735.c ****     ret += st7735_send_data(&pObj->Ctx, &tmp, 1);
 1791              		.loc 1 255 5 is_stmt 1 view .LVU538
 255:Drivers/BSP/ST7735/st7735.c ****     ret += st7735_send_data(&pObj->Ctx, &tmp, 1);
 1792              		.loc 1 255 9 is_stmt 0 view .LVU539
 1793 02c2 1223     		movs	r3, #18
 1794 02c4 8DF80F30 		strb	r3, [sp, #15]
 256:Drivers/BSP/ST7735/st7735.c ****     tmp = 0x37U;
 1795              		.loc 1 256 5 is_stmt 1 view .LVU540
 256:Drivers/BSP/ST7735/st7735.c ****     tmp = 0x37U;
 1796              		.loc 1 256 12 is_stmt 0 view .LVU541
 1797 02c8 0122     		movs	r2, #1
 1798 02ca 0DF10F01 		add	r1, sp, #15
 1799 02ce 2046     		mov	r0, r4
 1800 02d0 FFF7FEFF 		bl	st7735_send_data
 1801              	.LVL206:
 256:Drivers/BSP/ST7735/st7735.c ****     tmp = 0x37U;
 1802              		.loc 1 256 9 discriminator 1 view .LVU542
 1803 02d4 0544     		add	r5, r5, r0
 1804              	.LVL207:
 257:Drivers/BSP/ST7735/st7735.c ****     ret += st7735_send_data(&pObj->Ctx, &tmp, 1);
 1805              		.loc 1 257 5 is_stmt 1 view .LVU543
 257:Drivers/BSP/ST7735/st7735.c ****     ret += st7735_send_data(&pObj->Ctx, &tmp, 1);
 1806              		.loc 1 257 9 is_stmt 0 view .LVU544
 1807 02d6 4FF03702 		mov	r2, #55
 1808 02da 8DF80F20 		strb	r2, [sp, #15]
 258:Drivers/BSP/ST7735/st7735.c ****     tmp = 0x32U;
 1809              		.loc 1 258 5 is_stmt 1 view .LVU545
 258:Drivers/BSP/ST7735/st7735.c ****     tmp = 0x32U;
 1810              		.loc 1 258 12 is_stmt 0 view .LVU546
 1811 02de 0122     		movs	r2, #1
 1812 02e0 0DF10F01 		add	r1, sp, #15
 1813 02e4 2046     		mov	r0, r4
 1814 02e6 FFF7FEFF 		bl	st7735_send_data
 1815              	.LVL208:
 258:Drivers/BSP/ST7735/st7735.c ****     tmp = 0x32U;
 1816              		.loc 1 258 9 discriminator 1 view .LVU547
 1817 02ea 0544     		add	r5, r5, r0
 1818              	.LVL209:
 259:Drivers/BSP/ST7735/st7735.c ****     ret += st7735_send_data(&pObj->Ctx, &tmp, 1);
 1819              		.loc 1 259 5 is_stmt 1 view .LVU548
 259:Drivers/BSP/ST7735/st7735.c ****     ret += st7735_send_data(&pObj->Ctx, &tmp, 1);
 1820              		.loc 1 259 9 is_stmt 0 view .LVU549
 1821 02ec 3223     		movs	r3, #50
 1822 02ee 8DF80F30 		strb	r3, [sp, #15]
 260:Drivers/BSP/ST7735/st7735.c ****     tmp = 0x29U;
 1823              		.loc 1 260 5 is_stmt 1 view .LVU550
 260:Drivers/BSP/ST7735/st7735.c ****     tmp = 0x29U;
 1824              		.loc 1 260 12 is_stmt 0 view .LVU551
 1825 02f2 0122     		movs	r2, #1
 1826 02f4 0DF10F01 		add	r1, sp, #15
ARM GAS  /var/folders/mq/wg13gp494590nh4zyt09lxf00000gn/T//ccZMG5bD.s 			page 60


 1827 02f8 2046     		mov	r0, r4
 1828 02fa FFF7FEFF 		bl	st7735_send_data
 1829              	.LVL210:
 260:Drivers/BSP/ST7735/st7735.c ****     tmp = 0x29U;
 1830              		.loc 1 260 9 discriminator 1 view .LVU552
 1831 02fe 0544     		add	r5, r5, r0
 1832              	.LVL211:
 261:Drivers/BSP/ST7735/st7735.c ****     ret += st7735_send_data(&pObj->Ctx, &tmp, 1);
 1833              		.loc 1 261 5 is_stmt 1 view .LVU553
 261:Drivers/BSP/ST7735/st7735.c ****     ret += st7735_send_data(&pObj->Ctx, &tmp, 1);
 1834              		.loc 1 261 9 is_stmt 0 view .LVU554
 1835 0300 4FF02908 		mov	r8, #41
 1836 0304 8DF80F80 		strb	r8, [sp, #15]
 262:Drivers/BSP/ST7735/st7735.c ****     tmp = 0x2DU;
 1837              		.loc 1 262 5 is_stmt 1 view .LVU555
 262:Drivers/BSP/ST7735/st7735.c ****     tmp = 0x2DU;
 1838              		.loc 1 262 12 is_stmt 0 view .LVU556
 1839 0308 0122     		movs	r2, #1
 1840 030a 0DF10F01 		add	r1, sp, #15
 1841 030e 2046     		mov	r0, r4
 1842 0310 FFF7FEFF 		bl	st7735_send_data
 1843              	.LVL212:
 262:Drivers/BSP/ST7735/st7735.c ****     tmp = 0x2DU;
 1844              		.loc 1 262 9 discriminator 1 view .LVU557
 1845 0314 0544     		add	r5, r5, r0
 1846              	.LVL213:
 263:Drivers/BSP/ST7735/st7735.c ****     ret += st7735_send_data(&pObj->Ctx, &tmp, 1);
 1847              		.loc 1 263 5 is_stmt 1 view .LVU558
 263:Drivers/BSP/ST7735/st7735.c ****     ret += st7735_send_data(&pObj->Ctx, &tmp, 1);
 1848              		.loc 1 263 9 is_stmt 0 view .LVU559
 1849 0316 4FF02D01 		mov	r1, #45
 1850 031a 8DF80F10 		strb	r1, [sp, #15]
 264:Drivers/BSP/ST7735/st7735.c ****     tmp = 0x29U;
 1851              		.loc 1 264 5 is_stmt 1 view .LVU560
 264:Drivers/BSP/ST7735/st7735.c ****     tmp = 0x29U;
 1852              		.loc 1 264 12 is_stmt 0 view .LVU561
 1853 031e 0122     		movs	r2, #1
 1854 0320 0DF10F00 		add	r0, sp, #15
 1855 0324 0146     		mov	r1, r0
 1856 0326 2046     		mov	r0, r4
 1857 0328 FFF7FEFF 		bl	st7735_send_data
 1858              	.LVL214:
 264:Drivers/BSP/ST7735/st7735.c ****     tmp = 0x29U;
 1859              		.loc 1 264 9 discriminator 1 view .LVU562
 1860 032c 0544     		add	r5, r5, r0
 1861              	.LVL215:
 265:Drivers/BSP/ST7735/st7735.c ****     ret += st7735_send_data(&pObj->Ctx, &tmp, 1);
 1862              		.loc 1 265 5 is_stmt 1 view .LVU563
 265:Drivers/BSP/ST7735/st7735.c ****     ret += st7735_send_data(&pObj->Ctx, &tmp, 1);
 1863              		.loc 1 265 9 is_stmt 0 view .LVU564
 1864 032e 8DF80F80 		strb	r8, [sp, #15]
 266:Drivers/BSP/ST7735/st7735.c ****     tmp = 0x25U;
 1865              		.loc 1 266 5 is_stmt 1 view .LVU565
 266:Drivers/BSP/ST7735/st7735.c ****     tmp = 0x25U;
 1866              		.loc 1 266 12 is_stmt 0 view .LVU566
 1867 0332 0122     		movs	r2, #1
 1868 0334 0DF10F00 		add	r0, sp, #15
ARM GAS  /var/folders/mq/wg13gp494590nh4zyt09lxf00000gn/T//ccZMG5bD.s 			page 61


 1869 0338 0146     		mov	r1, r0
 1870 033a 2046     		mov	r0, r4
 1871 033c FFF7FEFF 		bl	st7735_send_data
 1872              	.LVL216:
 266:Drivers/BSP/ST7735/st7735.c ****     tmp = 0x25U;
 1873              		.loc 1 266 9 discriminator 1 view .LVU567
 1874 0340 2E18     		adds	r6, r5, r0
 1875              	.LVL217:
 267:Drivers/BSP/ST7735/st7735.c ****     ret += st7735_send_data(&pObj->Ctx, &tmp, 1);
 1876              		.loc 1 267 5 is_stmt 1 view .LVU568
 267:Drivers/BSP/ST7735/st7735.c ****     ret += st7735_send_data(&pObj->Ctx, &tmp, 1);
 1877              		.loc 1 267 9 is_stmt 0 view .LVU569
 1878 0342 2523     		movs	r3, #37
 1879 0344 8DF80F30 		strb	r3, [sp, #15]
 268:Drivers/BSP/ST7735/st7735.c ****     tmp = 0x2BU;
 1880              		.loc 1 268 5 is_stmt 1 view .LVU570
 268:Drivers/BSP/ST7735/st7735.c ****     tmp = 0x2BU;
 1881              		.loc 1 268 12 is_stmt 0 view .LVU571
 1882 0348 0122     		movs	r2, #1
 1883 034a 0DF10F00 		add	r0, sp, #15
 1884 034e 0146     		mov	r1, r0
 1885 0350 2046     		mov	r0, r4
 1886 0352 FFF7FEFF 		bl	st7735_send_data
 1887              	.LVL218:
 268:Drivers/BSP/ST7735/st7735.c ****     tmp = 0x2BU;
 1888              		.loc 1 268 9 discriminator 1 view .LVU572
 1889 0356 0644     		add	r6, r6, r0
 1890              	.LVL219:
 269:Drivers/BSP/ST7735/st7735.c ****     ret += st7735_send_data(&pObj->Ctx, &tmp, 1);
 1891              		.loc 1 269 5 is_stmt 1 view .LVU573
 269:Drivers/BSP/ST7735/st7735.c ****     ret += st7735_send_data(&pObj->Ctx, &tmp, 1);
 1892              		.loc 1 269 9 is_stmt 0 view .LVU574
 1893 0358 2B23     		movs	r3, #43
 1894 035a 8DF80F30 		strb	r3, [sp, #15]
 270:Drivers/BSP/ST7735/st7735.c ****     tmp = 0x39U;
 1895              		.loc 1 270 5 is_stmt 1 view .LVU575
 270:Drivers/BSP/ST7735/st7735.c ****     tmp = 0x39U;
 1896              		.loc 1 270 12 is_stmt 0 view .LVU576
 1897 035e 0122     		movs	r2, #1
 1898 0360 0DF10F00 		add	r0, sp, #15
 1899 0364 0146     		mov	r1, r0
 1900 0366 2046     		mov	r0, r4
 1901 0368 FFF7FEFF 		bl	st7735_send_data
 1902              	.LVL220:
 270:Drivers/BSP/ST7735/st7735.c ****     tmp = 0x39U;
 1903              		.loc 1 270 9 discriminator 1 view .LVU577
 1904 036c 0644     		add	r6, r6, r0
 1905              	.LVL221:
 271:Drivers/BSP/ST7735/st7735.c ****     ret += st7735_send_data(&pObj->Ctx, &tmp, 1);
 1906              		.loc 1 271 5 is_stmt 1 view .LVU578
 271:Drivers/BSP/ST7735/st7735.c ****     ret += st7735_send_data(&pObj->Ctx, &tmp, 1);
 1907              		.loc 1 271 9 is_stmt 0 view .LVU579
 1908 036e 3923     		movs	r3, #57
 1909 0370 8DF80F30 		strb	r3, [sp, #15]
 272:Drivers/BSP/ST7735/st7735.c ****     tmp = 0x00U;
 1910              		.loc 1 272 5 is_stmt 1 view .LVU580
 272:Drivers/BSP/ST7735/st7735.c ****     tmp = 0x00U;
ARM GAS  /var/folders/mq/wg13gp494590nh4zyt09lxf00000gn/T//ccZMG5bD.s 			page 62


 1911              		.loc 1 272 12 is_stmt 0 view .LVU581
 1912 0374 0122     		movs	r2, #1
 1913 0376 0DF10F00 		add	r0, sp, #15
 1914 037a 0146     		mov	r1, r0
 1915 037c 2046     		mov	r0, r4
 1916 037e FFF7FEFF 		bl	st7735_send_data
 1917              	.LVL222:
 272:Drivers/BSP/ST7735/st7735.c ****     tmp = 0x00U;
 1918              		.loc 1 272 9 discriminator 1 view .LVU582
 1919 0382 0644     		add	r6, r6, r0
 1920              	.LVL223:
 273:Drivers/BSP/ST7735/st7735.c ****     ret += st7735_send_data(&pObj->Ctx, &tmp, 1);
 1921              		.loc 1 273 5 is_stmt 1 view .LVU583
 273:Drivers/BSP/ST7735/st7735.c ****     ret += st7735_send_data(&pObj->Ctx, &tmp, 1);
 1922              		.loc 1 273 9 is_stmt 0 view .LVU584
 1923 0384 4FF00009 		mov	r9, #0
 1924 0388 8DF80F90 		strb	r9, [sp, #15]
 274:Drivers/BSP/ST7735/st7735.c ****     tmp = 0x01U;
 1925              		.loc 1 274 5 is_stmt 1 view .LVU585
 274:Drivers/BSP/ST7735/st7735.c ****     tmp = 0x01U;
 1926              		.loc 1 274 12 is_stmt 0 view .LVU586
 1927 038c 0122     		movs	r2, #1
 1928 038e 0DF10F00 		add	r0, sp, #15
 1929 0392 0146     		mov	r1, r0
 1930 0394 2046     		mov	r0, r4
 1931 0396 FFF7FEFF 		bl	st7735_send_data
 1932              	.LVL224:
 274:Drivers/BSP/ST7735/st7735.c ****     tmp = 0x01U;
 1933              		.loc 1 274 9 discriminator 1 view .LVU587
 1934 039a 0644     		add	r6, r6, r0
 1935              	.LVL225:
 275:Drivers/BSP/ST7735/st7735.c ****     ret += st7735_send_data(&pObj->Ctx, &tmp, 1);
 1936              		.loc 1 275 5 is_stmt 1 view .LVU588
 275:Drivers/BSP/ST7735/st7735.c ****     ret += st7735_send_data(&pObj->Ctx, &tmp, 1);
 1937              		.loc 1 275 9 is_stmt 0 view .LVU589
 1938 039c 0125     		movs	r5, #1
 1939 039e 8DF80F50 		strb	r5, [sp, #15]
 276:Drivers/BSP/ST7735/st7735.c ****     tmp = 0x03U;
 1940              		.loc 1 276 5 is_stmt 1 view .LVU590
 276:Drivers/BSP/ST7735/st7735.c ****     tmp = 0x03U;
 1941              		.loc 1 276 12 is_stmt 0 view .LVU591
 1942 03a2 2A46     		mov	r2, r5
 1943 03a4 0DF10F00 		add	r0, sp, #15
 1944 03a8 0146     		mov	r1, r0
 1945 03aa 2046     		mov	r0, r4
 1946 03ac FFF7FEFF 		bl	st7735_send_data
 1947              	.LVL226:
 276:Drivers/BSP/ST7735/st7735.c ****     tmp = 0x03U;
 1948              		.loc 1 276 9 discriminator 1 view .LVU592
 1949 03b0 0644     		add	r6, r6, r0
 1950              	.LVL227:
 277:Drivers/BSP/ST7735/st7735.c ****     ret += st7735_send_data(&pObj->Ctx, &tmp, 1);
 1951              		.loc 1 277 5 is_stmt 1 view .LVU593
 277:Drivers/BSP/ST7735/st7735.c ****     ret += st7735_send_data(&pObj->Ctx, &tmp, 1);
 1952              		.loc 1 277 9 is_stmt 0 view .LVU594
 1953 03b2 4FF0030B 		mov	fp, #3
 1954              	.LVL228:
ARM GAS  /var/folders/mq/wg13gp494590nh4zyt09lxf00000gn/T//ccZMG5bD.s 			page 63


 277:Drivers/BSP/ST7735/st7735.c ****     ret += st7735_send_data(&pObj->Ctx, &tmp, 1);
 1955              		.loc 1 277 9 view .LVU595
 1956 03b6 8DF80FB0 		strb	fp, [sp, #15]
 278:Drivers/BSP/ST7735/st7735.c ****     tmp = 0x10U;
 1957              		.loc 1 278 5 is_stmt 1 view .LVU596
 278:Drivers/BSP/ST7735/st7735.c ****     tmp = 0x10U;
 1958              		.loc 1 278 12 is_stmt 0 view .LVU597
 1959 03ba 2A46     		mov	r2, r5
 1960 03bc 0DF10F00 		add	r0, sp, #15
 1961 03c0 0146     		mov	r1, r0
 1962 03c2 2046     		mov	r0, r4
 1963 03c4 FFF7FEFF 		bl	st7735_send_data
 1964              	.LVL229:
 278:Drivers/BSP/ST7735/st7735.c ****     tmp = 0x10U;
 1965              		.loc 1 278 9 discriminator 1 view .LVU598
 1966 03c8 0644     		add	r6, r6, r0
 1967              	.LVL230:
 279:Drivers/BSP/ST7735/st7735.c ****     ret += st7735_send_data(&pObj->Ctx, &tmp, 1);
 1968              		.loc 1 279 5 is_stmt 1 view .LVU599
 279:Drivers/BSP/ST7735/st7735.c ****     ret += st7735_send_data(&pObj->Ctx, &tmp, 1);
 1969              		.loc 1 279 9 is_stmt 0 view .LVU600
 1970 03ca 4FF01000 		mov	r0, #16
 1971 03ce 8DF80F00 		strb	r0, [sp, #15]
 280:Drivers/BSP/ST7735/st7735.c **** 
 1972              		.loc 1 280 5 is_stmt 1 view .LVU601
 280:Drivers/BSP/ST7735/st7735.c **** 
 1973              		.loc 1 280 12 is_stmt 0 view .LVU602
 1974 03d2 2A46     		mov	r2, r5
 1975 03d4 0DF10F0C 		add	ip, sp, #15
 1976 03d8 6146     		mov	r1, ip
 1977 03da 2046     		mov	r0, r4
 1978 03dc FFF7FEFF 		bl	st7735_send_data
 1979              	.LVL231:
 280:Drivers/BSP/ST7735/st7735.c **** 
 1980              		.loc 1 280 9 discriminator 1 view .LVU603
 1981 03e0 0644     		add	r6, r6, r0
 1982              	.LVL232:
 283:Drivers/BSP/ST7735/st7735.c ****     ret += st7735_write_reg(&pObj->Ctx, ST7735_NV_GAMMA_CTRL, &tmp, 1);
 1983              		.loc 1 283 5 is_stmt 1 view .LVU604
 283:Drivers/BSP/ST7735/st7735.c ****     ret += st7735_write_reg(&pObj->Ctx, ST7735_NV_GAMMA_CTRL, &tmp, 1);
 1984              		.loc 1 283 9 is_stmt 0 view .LVU605
 1985 03e2 8DF80FB0 		strb	fp, [sp, #15]
 284:Drivers/BSP/ST7735/st7735.c ****     tmp = 0x1DU;
 1986              		.loc 1 284 5 is_stmt 1 view .LVU606
 284:Drivers/BSP/ST7735/st7735.c ****     tmp = 0x1DU;
 1987              		.loc 1 284 12 is_stmt 0 view .LVU607
 1988 03e6 2B46     		mov	r3, r5
 1989 03e8 0DF10F0C 		add	ip, sp, #15
 1990 03ec 6246     		mov	r2, ip
 1991 03ee E121     		movs	r1, #225
 1992 03f0 2046     		mov	r0, r4
 1993 03f2 FFF7FEFF 		bl	st7735_write_reg
 1994              	.LVL233:
 284:Drivers/BSP/ST7735/st7735.c ****     tmp = 0x1DU;
 1995              		.loc 1 284 9 discriminator 1 view .LVU608
 1996 03f6 0644     		add	r6, r6, r0
 1997              	.LVL234:
ARM GAS  /var/folders/mq/wg13gp494590nh4zyt09lxf00000gn/T//ccZMG5bD.s 			page 64


 285:Drivers/BSP/ST7735/st7735.c ****     ret += st7735_send_data(&pObj->Ctx, &tmp, 1);
 1998              		.loc 1 285 5 is_stmt 1 view .LVU609
 285:Drivers/BSP/ST7735/st7735.c ****     ret += st7735_send_data(&pObj->Ctx, &tmp, 1);
 1999              		.loc 1 285 9 is_stmt 0 view .LVU610
 2000 03f8 1D23     		movs	r3, #29
 2001 03fa 8DF80F30 		strb	r3, [sp, #15]
 286:Drivers/BSP/ST7735/st7735.c ****     tmp = 0x07U;
 2002              		.loc 1 286 5 is_stmt 1 view .LVU611
 286:Drivers/BSP/ST7735/st7735.c ****     tmp = 0x07U;
 2003              		.loc 1 286 12 is_stmt 0 view .LVU612
 2004 03fe 2A46     		mov	r2, r5
 2005 0400 0DF10F0C 		add	ip, sp, #15
 2006 0404 6146     		mov	r1, ip
 2007 0406 2046     		mov	r0, r4
 2008 0408 FFF7FEFF 		bl	st7735_send_data
 2009              	.LVL235:
 286:Drivers/BSP/ST7735/st7735.c ****     tmp = 0x07U;
 2010              		.loc 1 286 9 discriminator 1 view .LVU613
 2011 040c 0644     		add	r6, r6, r0
 2012              	.LVL236:
 287:Drivers/BSP/ST7735/st7735.c ****     ret += st7735_send_data(&pObj->Ctx, &tmp, 1);
 2013              		.loc 1 287 5 is_stmt 1 view .LVU614
 287:Drivers/BSP/ST7735/st7735.c ****     ret += st7735_send_data(&pObj->Ctx, &tmp, 1);
 2014              		.loc 1 287 9 is_stmt 0 view .LVU615
 2015 040e 8DF80FA0 		strb	r10, [sp, #15]
 288:Drivers/BSP/ST7735/st7735.c ****     tmp = 0x06U;
 2016              		.loc 1 288 5 is_stmt 1 view .LVU616
 288:Drivers/BSP/ST7735/st7735.c ****     tmp = 0x06U;
 2017              		.loc 1 288 12 is_stmt 0 view .LVU617
 2018 0412 2A46     		mov	r2, r5
 2019 0414 0DF10F0C 		add	ip, sp, #15
 2020 0418 6146     		mov	r1, ip
 2021 041a 2046     		mov	r0, r4
 2022 041c FFF7FEFF 		bl	st7735_send_data
 2023              	.LVL237:
 288:Drivers/BSP/ST7735/st7735.c ****     tmp = 0x06U;
 2024              		.loc 1 288 9 discriminator 1 view .LVU618
 2025 0420 0644     		add	r6, r6, r0
 2026              	.LVL238:
 289:Drivers/BSP/ST7735/st7735.c ****     ret += st7735_send_data(&pObj->Ctx, &tmp, 1);
 2027              		.loc 1 289 5 is_stmt 1 view .LVU619
 289:Drivers/BSP/ST7735/st7735.c ****     ret += st7735_send_data(&pObj->Ctx, &tmp, 1);
 2028              		.loc 1 289 9 is_stmt 0 view .LVU620
 2029 0422 0623     		movs	r3, #6
 2030 0424 8DF80F30 		strb	r3, [sp, #15]
 290:Drivers/BSP/ST7735/st7735.c ****     tmp = 0x2EU;
 2031              		.loc 1 290 5 is_stmt 1 view .LVU621
 290:Drivers/BSP/ST7735/st7735.c ****     tmp = 0x2EU;
 2032              		.loc 1 290 12 is_stmt 0 view .LVU622
 2033 0428 2A46     		mov	r2, r5
 2034 042a 0DF10F0C 		add	ip, sp, #15
 2035 042e 6146     		mov	r1, ip
 2036 0430 2046     		mov	r0, r4
 2037 0432 FFF7FEFF 		bl	st7735_send_data
 2038              	.LVL239:
 290:Drivers/BSP/ST7735/st7735.c ****     tmp = 0x2EU;
 2039              		.loc 1 290 9 discriminator 1 view .LVU623
ARM GAS  /var/folders/mq/wg13gp494590nh4zyt09lxf00000gn/T//ccZMG5bD.s 			page 65


 2040 0436 0644     		add	r6, r6, r0
 2041              	.LVL240:
 291:Drivers/BSP/ST7735/st7735.c ****     ret += st7735_send_data(&pObj->Ctx, &tmp, 1);
 2042              		.loc 1 291 5 is_stmt 1 view .LVU624
 291:Drivers/BSP/ST7735/st7735.c ****     ret += st7735_send_data(&pObj->Ctx, &tmp, 1);
 2043              		.loc 1 291 9 is_stmt 0 view .LVU625
 2044 0438 4FF02E0A 		mov	r10, #46
 2045 043c 8DF80FA0 		strb	r10, [sp, #15]
 292:Drivers/BSP/ST7735/st7735.c ****     tmp = 0x2CU;
 2046              		.loc 1 292 5 is_stmt 1 view .LVU626
 292:Drivers/BSP/ST7735/st7735.c ****     tmp = 0x2CU;
 2047              		.loc 1 292 12 is_stmt 0 view .LVU627
 2048 0440 2A46     		mov	r2, r5
 2049 0442 0DF10F0C 		add	ip, sp, #15
 2050 0446 6146     		mov	r1, ip
 2051 0448 2046     		mov	r0, r4
 2052 044a FFF7FEFF 		bl	st7735_send_data
 2053              	.LVL241:
 292:Drivers/BSP/ST7735/st7735.c ****     tmp = 0x2CU;
 2054              		.loc 1 292 9 discriminator 1 view .LVU628
 2055 044e 0644     		add	r6, r6, r0
 2056              	.LVL242:
 293:Drivers/BSP/ST7735/st7735.c ****     ret += st7735_send_data(&pObj->Ctx, &tmp, 1);
 2057              		.loc 1 293 5 is_stmt 1 view .LVU629
 293:Drivers/BSP/ST7735/st7735.c ****     ret += st7735_send_data(&pObj->Ctx, &tmp, 1);
 2058              		.loc 1 293 9 is_stmt 0 view .LVU630
 2059 0450 2C23     		movs	r3, #44
 2060 0452 8DF80F30 		strb	r3, [sp, #15]
 294:Drivers/BSP/ST7735/st7735.c ****     tmp = 0x29U;
 2061              		.loc 1 294 5 is_stmt 1 view .LVU631
 294:Drivers/BSP/ST7735/st7735.c ****     tmp = 0x29U;
 2062              		.loc 1 294 12 is_stmt 0 view .LVU632
 2063 0456 2A46     		mov	r2, r5
 2064 0458 0DF10F0C 		add	ip, sp, #15
 2065 045c 6146     		mov	r1, ip
 2066 045e 2046     		mov	r0, r4
 2067 0460 FFF7FEFF 		bl	st7735_send_data
 2068              	.LVL243:
 294:Drivers/BSP/ST7735/st7735.c ****     tmp = 0x29U;
 2069              		.loc 1 294 9 discriminator 1 view .LVU633
 2070 0464 0644     		add	r6, r6, r0
 2071              	.LVL244:
 295:Drivers/BSP/ST7735/st7735.c ****     ret += st7735_send_data(&pObj->Ctx, &tmp, 1);
 2072              		.loc 1 295 5 is_stmt 1 view .LVU634
 295:Drivers/BSP/ST7735/st7735.c ****     ret += st7735_send_data(&pObj->Ctx, &tmp, 1);
 2073              		.loc 1 295 9 is_stmt 0 view .LVU635
 2074 0466 8DF80F80 		strb	r8, [sp, #15]
 296:Drivers/BSP/ST7735/st7735.c ****     tmp = 0x2DU;
 2075              		.loc 1 296 5 is_stmt 1 view .LVU636
 296:Drivers/BSP/ST7735/st7735.c ****     tmp = 0x2DU;
 2076              		.loc 1 296 12 is_stmt 0 view .LVU637
 2077 046a 2A46     		mov	r2, r5
 2078 046c 0DF10F0C 		add	ip, sp, #15
 2079 0470 6146     		mov	r1, ip
 2080 0472 2046     		mov	r0, r4
 2081 0474 FFF7FEFF 		bl	st7735_send_data
 2082              	.LVL245:
ARM GAS  /var/folders/mq/wg13gp494590nh4zyt09lxf00000gn/T//ccZMG5bD.s 			page 66


 296:Drivers/BSP/ST7735/st7735.c ****     tmp = 0x2DU;
 2083              		.loc 1 296 9 discriminator 1 view .LVU638
 2084 0478 0644     		add	r6, r6, r0
 2085              	.LVL246:
 297:Drivers/BSP/ST7735/st7735.c ****     ret += st7735_send_data(&pObj->Ctx, &tmp, 1);
 2086              		.loc 1 297 5 is_stmt 1 view .LVU639
 297:Drivers/BSP/ST7735/st7735.c ****     ret += st7735_send_data(&pObj->Ctx, &tmp, 1);
 2087              		.loc 1 297 9 is_stmt 0 view .LVU640
 2088 047a 4FF02D01 		mov	r1, #45
 2089 047e 8DF80F10 		strb	r1, [sp, #15]
 298:Drivers/BSP/ST7735/st7735.c ****     tmp = 0x2EU;
 2090              		.loc 1 298 5 is_stmt 1 view .LVU641
 298:Drivers/BSP/ST7735/st7735.c ****     tmp = 0x2EU;
 2091              		.loc 1 298 12 is_stmt 0 view .LVU642
 2092 0482 2A46     		mov	r2, r5
 2093 0484 0DF10F01 		add	r1, sp, #15
 2094 0488 2046     		mov	r0, r4
 2095 048a FFF7FEFF 		bl	st7735_send_data
 2096              	.LVL247:
 298:Drivers/BSP/ST7735/st7735.c ****     tmp = 0x2EU;
 2097              		.loc 1 298 9 discriminator 1 view .LVU643
 2098 048e 0644     		add	r6, r6, r0
 2099              	.LVL248:
 299:Drivers/BSP/ST7735/st7735.c ****     ret += st7735_send_data(&pObj->Ctx, &tmp, 1);
 2100              		.loc 1 299 5 is_stmt 1 view .LVU644
 299:Drivers/BSP/ST7735/st7735.c ****     ret += st7735_send_data(&pObj->Ctx, &tmp, 1);
 2101              		.loc 1 299 9 is_stmt 0 view .LVU645
 2102 0490 8DF80FA0 		strb	r10, [sp, #15]
 300:Drivers/BSP/ST7735/st7735.c ****     tmp = 0x2EU;
 2103              		.loc 1 300 5 is_stmt 1 view .LVU646
 300:Drivers/BSP/ST7735/st7735.c ****     tmp = 0x2EU;
 2104              		.loc 1 300 12 is_stmt 0 view .LVU647
 2105 0494 2A46     		mov	r2, r5
 2106 0496 0DF10F01 		add	r1, sp, #15
 2107 049a 2046     		mov	r0, r4
 2108 049c FFF7FEFF 		bl	st7735_send_data
 2109              	.LVL249:
 300:Drivers/BSP/ST7735/st7735.c ****     tmp = 0x2EU;
 2110              		.loc 1 300 9 discriminator 1 view .LVU648
 2111 04a0 0644     		add	r6, r6, r0
 2112              	.LVL250:
 301:Drivers/BSP/ST7735/st7735.c ****     ret += st7735_send_data(&pObj->Ctx, &tmp, 1);
 2113              		.loc 1 301 5 is_stmt 1 view .LVU649
 301:Drivers/BSP/ST7735/st7735.c ****     ret += st7735_send_data(&pObj->Ctx, &tmp, 1);
 2114              		.loc 1 301 9 is_stmt 0 view .LVU650
 2115 04a2 8DF80FA0 		strb	r10, [sp, #15]
 302:Drivers/BSP/ST7735/st7735.c ****     tmp = 0x37U;
 2116              		.loc 1 302 5 is_stmt 1 view .LVU651
 302:Drivers/BSP/ST7735/st7735.c ****     tmp = 0x37U;
 2117              		.loc 1 302 12 is_stmt 0 view .LVU652
 2118 04a6 2A46     		mov	r2, r5
 2119 04a8 0DF10F01 		add	r1, sp, #15
 2120 04ac 2046     		mov	r0, r4
 2121 04ae FFF7FEFF 		bl	st7735_send_data
 2122              	.LVL251:
 302:Drivers/BSP/ST7735/st7735.c ****     tmp = 0x37U;
 2123              		.loc 1 302 9 discriminator 1 view .LVU653
ARM GAS  /var/folders/mq/wg13gp494590nh4zyt09lxf00000gn/T//ccZMG5bD.s 			page 67


 2124 04b2 0644     		add	r6, r6, r0
 2125              	.LVL252:
 303:Drivers/BSP/ST7735/st7735.c ****     ret += st7735_send_data(&pObj->Ctx, &tmp, 1);
 2126              		.loc 1 303 5 is_stmt 1 view .LVU654
 303:Drivers/BSP/ST7735/st7735.c ****     ret += st7735_send_data(&pObj->Ctx, &tmp, 1);
 2127              		.loc 1 303 9 is_stmt 0 view .LVU655
 2128 04b4 4FF03702 		mov	r2, #55
 2129 04b8 8DF80F20 		strb	r2, [sp, #15]
 304:Drivers/BSP/ST7735/st7735.c ****     tmp = 0x3FU;
 2130              		.loc 1 304 5 is_stmt 1 view .LVU656
 304:Drivers/BSP/ST7735/st7735.c ****     tmp = 0x3FU;
 2131              		.loc 1 304 12 is_stmt 0 view .LVU657
 2132 04bc 2A46     		mov	r2, r5
 2133 04be 0DF10F01 		add	r1, sp, #15
 2134 04c2 2046     		mov	r0, r4
 2135 04c4 FFF7FEFF 		bl	st7735_send_data
 2136              	.LVL253:
 304:Drivers/BSP/ST7735/st7735.c ****     tmp = 0x3FU;
 2137              		.loc 1 304 9 discriminator 1 view .LVU658
 2138 04c8 0644     		add	r6, r6, r0
 2139              	.LVL254:
 305:Drivers/BSP/ST7735/st7735.c ****     ret += st7735_send_data(&pObj->Ctx, &tmp, 1);
 2140              		.loc 1 305 5 is_stmt 1 view .LVU659
 305:Drivers/BSP/ST7735/st7735.c ****     ret += st7735_send_data(&pObj->Ctx, &tmp, 1);
 2141              		.loc 1 305 9 is_stmt 0 view .LVU660
 2142 04ca 3F23     		movs	r3, #63
 2143 04cc 8DF80F30 		strb	r3, [sp, #15]
 306:Drivers/BSP/ST7735/st7735.c ****     tmp = 0x00U;
 2144              		.loc 1 306 5 is_stmt 1 view .LVU661
 306:Drivers/BSP/ST7735/st7735.c ****     tmp = 0x00U;
 2145              		.loc 1 306 12 is_stmt 0 view .LVU662
 2146 04d0 2A46     		mov	r2, r5
 2147 04d2 0DF10F01 		add	r1, sp, #15
 2148 04d6 2046     		mov	r0, r4
 2149 04d8 FFF7FEFF 		bl	st7735_send_data
 2150              	.LVL255:
 306:Drivers/BSP/ST7735/st7735.c ****     tmp = 0x00U;
 2151              		.loc 1 306 9 discriminator 1 view .LVU663
 2152 04dc 0644     		add	r6, r6, r0
 2153              	.LVL256:
 307:Drivers/BSP/ST7735/st7735.c ****     ret += st7735_send_data(&pObj->Ctx, &tmp, 1);
 2154              		.loc 1 307 5 is_stmt 1 view .LVU664
 307:Drivers/BSP/ST7735/st7735.c ****     ret += st7735_send_data(&pObj->Ctx, &tmp, 1);
 2155              		.loc 1 307 9 is_stmt 0 view .LVU665
 2156 04de 8DF80F90 		strb	r9, [sp, #15]
 308:Drivers/BSP/ST7735/st7735.c ****     tmp = 0x00U;
 2157              		.loc 1 308 5 is_stmt 1 view .LVU666
 308:Drivers/BSP/ST7735/st7735.c ****     tmp = 0x00U;
 2158              		.loc 1 308 12 is_stmt 0 view .LVU667
 2159 04e2 2A46     		mov	r2, r5
 2160 04e4 0DF10F01 		add	r1, sp, #15
 2161 04e8 2046     		mov	r0, r4
 2162 04ea FFF7FEFF 		bl	st7735_send_data
 2163              	.LVL257:
 308:Drivers/BSP/ST7735/st7735.c ****     tmp = 0x00U;
 2164              		.loc 1 308 9 discriminator 1 view .LVU668
 2165 04ee 0644     		add	r6, r6, r0
ARM GAS  /var/folders/mq/wg13gp494590nh4zyt09lxf00000gn/T//ccZMG5bD.s 			page 68


 2166              	.LVL258:
 309:Drivers/BSP/ST7735/st7735.c ****     ret += st7735_send_data(&pObj->Ctx, &tmp, 1);
 2167              		.loc 1 309 5 is_stmt 1 view .LVU669
 309:Drivers/BSP/ST7735/st7735.c ****     ret += st7735_send_data(&pObj->Ctx, &tmp, 1);
 2168              		.loc 1 309 9 is_stmt 0 view .LVU670
 2169 04f0 8DF80F90 		strb	r9, [sp, #15]
 310:Drivers/BSP/ST7735/st7735.c ****     tmp = 0x02U;
 2170              		.loc 1 310 5 is_stmt 1 view .LVU671
 310:Drivers/BSP/ST7735/st7735.c ****     tmp = 0x02U;
 2171              		.loc 1 310 12 is_stmt 0 view .LVU672
 2172 04f4 2A46     		mov	r2, r5
 2173 04f6 0DF10F01 		add	r1, sp, #15
 2174 04fa 2046     		mov	r0, r4
 2175 04fc FFF7FEFF 		bl	st7735_send_data
 2176              	.LVL259:
 310:Drivers/BSP/ST7735/st7735.c ****     tmp = 0x02U;
 2177              		.loc 1 310 9 discriminator 1 view .LVU673
 2178 0500 0644     		add	r6, r6, r0
 2179              	.LVL260:
 311:Drivers/BSP/ST7735/st7735.c ****     ret += st7735_send_data(&pObj->Ctx, &tmp, 1);
 2180              		.loc 1 311 5 is_stmt 1 view .LVU674
 311:Drivers/BSP/ST7735/st7735.c ****     ret += st7735_send_data(&pObj->Ctx, &tmp, 1);
 2181              		.loc 1 311 9 is_stmt 0 view .LVU675
 2182 0502 4FF00203 		mov	r3, #2
 2183 0506 8DF80F30 		strb	r3, [sp, #15]
 312:Drivers/BSP/ST7735/st7735.c ****     tmp = 0x10U;
 2184              		.loc 1 312 5 is_stmt 1 view .LVU676
 312:Drivers/BSP/ST7735/st7735.c ****     tmp = 0x10U;
 2185              		.loc 1 312 12 is_stmt 0 view .LVU677
 2186 050a 2A46     		mov	r2, r5
 2187 050c 0DF10F01 		add	r1, sp, #15
 2188 0510 2046     		mov	r0, r4
 2189 0512 FFF7FEFF 		bl	st7735_send_data
 2190              	.LVL261:
 312:Drivers/BSP/ST7735/st7735.c ****     tmp = 0x10U;
 2191              		.loc 1 312 9 discriminator 1 view .LVU678
 2192 0516 0644     		add	r6, r6, r0
 2193              	.LVL262:
 313:Drivers/BSP/ST7735/st7735.c ****     ret += st7735_send_data(&pObj->Ctx, &tmp, 1);
 2194              		.loc 1 313 5 is_stmt 1 view .LVU679
 313:Drivers/BSP/ST7735/st7735.c ****     ret += st7735_send_data(&pObj->Ctx, &tmp, 1);
 2195              		.loc 1 313 9 is_stmt 0 view .LVU680
 2196 0518 4FF01000 		mov	r0, #16
 2197 051c 8DF80F00 		strb	r0, [sp, #15]
 314:Drivers/BSP/ST7735/st7735.c **** 
 2198              		.loc 1 314 5 is_stmt 1 view .LVU681
 314:Drivers/BSP/ST7735/st7735.c **** 
 2199              		.loc 1 314 12 is_stmt 0 view .LVU682
 2200 0520 2A46     		mov	r2, r5
 2201 0522 0DF10F01 		add	r1, sp, #15
 2202 0526 2046     		mov	r0, r4
 2203 0528 FFF7FEFF 		bl	st7735_send_data
 2204              	.LVL263:
 314:Drivers/BSP/ST7735/st7735.c **** 
 2205              		.loc 1 314 9 discriminator 1 view .LVU683
 2206 052c 0644     		add	r6, r6, r0
 2207              	.LVL264:
ARM GAS  /var/folders/mq/wg13gp494590nh4zyt09lxf00000gn/T//ccZMG5bD.s 			page 69


 317:Drivers/BSP/ST7735/st7735.c ****     ret += st7735_write_reg(&pObj->Ctx, ST7735_NORMAL_DISPLAY_OFF, &tmp, 1);
 2208              		.loc 1 317 5 is_stmt 1 view .LVU684
 317:Drivers/BSP/ST7735/st7735.c ****     ret += st7735_write_reg(&pObj->Ctx, ST7735_NORMAL_DISPLAY_OFF, &tmp, 1);
 2209              		.loc 1 317 10 is_stmt 0 view .LVU685
 2210 052e 8DF80F90 		strb	r9, [sp, #15]
 318:Drivers/BSP/ST7735/st7735.c **** 
 2211              		.loc 1 318 5 is_stmt 1 view .LVU686
 318:Drivers/BSP/ST7735/st7735.c **** 
 2212              		.loc 1 318 12 is_stmt 0 view .LVU687
 2213 0532 2B46     		mov	r3, r5
 2214 0534 0DF10F02 		add	r2, sp, #15
 2215 0538 1321     		movs	r1, #19
 2216 053a 2046     		mov	r0, r4
 2217 053c FFF7FEFF 		bl	st7735_write_reg
 2218              	.LVL265:
 318:Drivers/BSP/ST7735/st7735.c **** 
 2219              		.loc 1 318 9 discriminator 1 view .LVU688
 2220 0540 0644     		add	r6, r6, r0
 2221              	.LVL266:
 321:Drivers/BSP/ST7735/st7735.c **** 
 2222              		.loc 1 321 5 is_stmt 1 view .LVU689
 321:Drivers/BSP/ST7735/st7735.c **** 
 2223              		.loc 1 321 12 is_stmt 0 view .LVU690
 2224 0542 2B46     		mov	r3, r5
 2225 0544 0DF10F02 		add	r2, sp, #15
 2226 0548 4146     		mov	r1, r8
 2227 054a 2046     		mov	r0, r4
 2228 054c FFF7FEFF 		bl	st7735_write_reg
 2229              	.LVL267:
 321:Drivers/BSP/ST7735/st7735.c **** 
 2230              		.loc 1 321 9 discriminator 1 view .LVU691
 2231 0550 0644     		add	r6, r6, r0
 2232              	.LVL268:
 324:Drivers/BSP/ST7735/st7735.c ****   }
 2233              		.loc 1 324 5 is_stmt 1 view .LVU692
 324:Drivers/BSP/ST7735/st7735.c ****   }
 2234              		.loc 1 324 12 is_stmt 0 view .LVU693
 2235 0552 0099     		ldr	r1, [sp]
 2236 0554 3846     		mov	r0, r7
 2237 0556 FFF7FEFF 		bl	ST7735_SetOrientation
 2238              	.LVL269:
 327:Drivers/BSP/ST7735/st7735.c ****   {
 2239              		.loc 1 327 3 is_stmt 1 view .LVU694
 327:Drivers/BSP/ST7735/st7735.c ****   {
 2240              		.loc 1 327 5 is_stmt 0 view .LVU695
 2241 055a 3018     		adds	r0, r6, r0
 2242              	.LVL270:
 327:Drivers/BSP/ST7735/st7735.c ****   {
 2243              		.loc 1 327 5 view .LVU696
 2244 055c 0ED1     		bne	.L82
 2245              	.LVL271:
 2246              	.L75:
 333:Drivers/BSP/ST7735/st7735.c **** 
 2247              		.loc 1 333 1 view .LVU697
 2248 055e 05B0     		add	sp, sp, #20
 2249              	.LCFI23:
 2250              		.cfi_remember_state
ARM GAS  /var/folders/mq/wg13gp494590nh4zyt09lxf00000gn/T//ccZMG5bD.s 			page 70


 2251              		.cfi_def_cfa_offset 36
 2252              	.LVL272:
 333:Drivers/BSP/ST7735/st7735.c **** 
 2253              		.loc 1 333 1 view .LVU698
 2254              		@ sp needed
 2255 0560 BDE8F08F 		pop	{r4, r5, r6, r7, r8, r9, r10, fp, pc}
 2256              	.LVL273:
 2257              	.L77:
 2258              	.LCFI24:
 2259              		.cfi_restore_state
 243:Drivers/BSP/ST7735/st7735.c **** 		}
 2260              		.loc 1 243 4 is_stmt 1 view .LVU699
 243:Drivers/BSP/ST7735/st7735.c **** 		}
 2261              		.loc 1 243 11 is_stmt 0 view .LVU700
 2262 0564 0023     		movs	r3, #0
 2263 0566 0DF10F02 		add	r2, sp, #15
 2264 056a 2021     		movs	r1, #32
 2265 056c 2046     		mov	r0, r4
 2266 056e FFF7FEFF 		bl	st7735_write_reg
 2267              	.LVL274:
 243:Drivers/BSP/ST7735/st7735.c **** 		}
 2268              		.loc 1 243 8 discriminator 1 view .LVU701
 2269 0572 0544     		add	r5, r5, r0
 2270              	.LVL275:
 243:Drivers/BSP/ST7735/st7735.c **** 		}
 2271              		.loc 1 243 8 discriminator 1 view .LVU702
 2272 0574 7DE6     		b	.L78
 2273              	.LVL276:
 2274              	.L79:
 329:Drivers/BSP/ST7735/st7735.c ****   }
 2275              		.loc 1 329 9 view .LVU703
 2276 0576 4FF0FF30 		mov	r0, #-1
 2277              	.LVL277:
 329:Drivers/BSP/ST7735/st7735.c ****   }
 2278              		.loc 1 329 9 view .LVU704
 2279 057a F0E7     		b	.L75
 2280              	.LVL278:
 2281              	.L82:
 329:Drivers/BSP/ST7735/st7735.c ****   }
 2282              		.loc 1 329 9 view .LVU705
 2283 057c 4FF0FF30 		mov	r0, #-1
 2284              	.LVL279:
 332:Drivers/BSP/ST7735/st7735.c **** }
 2285              		.loc 1 332 3 is_stmt 1 view .LVU706
 332:Drivers/BSP/ST7735/st7735.c **** }
 2286              		.loc 1 332 10 is_stmt 0 view .LVU707
 2287 0580 EDE7     		b	.L75
 2288              		.cfi_endproc
 2289              	.LFE1:
 2291              		.section	.text.ST7735_SetCursor,"ax",%progbits
 2292              		.align	1
 2293              		.global	ST7735_SetCursor
 2294              		.syntax unified
 2295              		.thumb
 2296              		.thumb_func
 2298              	ST7735_SetCursor:
 2299              	.LVL280:
ARM GAS  /var/folders/mq/wg13gp494590nh4zyt09lxf00000gn/T//ccZMG5bD.s 			page 71


 2300              	.LFB10:
 542:Drivers/BSP/ST7735/st7735.c ****   int32_t ret;
 2301              		.loc 1 542 1 is_stmt 1 view -0
 2302              		.cfi_startproc
 2303              		@ args = 0, pretend = 0, frame = 8
 2304              		@ frame_needed = 0, uses_anonymous_args = 0
 542:Drivers/BSP/ST7735/st7735.c ****   int32_t ret;
 2305              		.loc 1 542 1 is_stmt 0 view .LVU709
 2306 0000 F0B5     		push	{r4, r5, r6, r7, lr}
 2307              	.LCFI25:
 2308              		.cfi_def_cfa_offset 20
 2309              		.cfi_offset 4, -20
 2310              		.cfi_offset 5, -16
 2311              		.cfi_offset 6, -12
 2312              		.cfi_offset 7, -8
 2313              		.cfi_offset 14, -4
 2314 0002 83B0     		sub	sp, sp, #12
 2315              	.LCFI26:
 2316              		.cfi_def_cfa_offset 32
 2317 0004 0F46     		mov	r7, r1
 2318 0006 1646     		mov	r6, r2
 543:Drivers/BSP/ST7735/st7735.c ****   uint8_t tmp;
 2319              		.loc 1 543 3 is_stmt 1 view .LVU710
 544:Drivers/BSP/ST7735/st7735.c **** 	
 2320              		.loc 1 544 3 view .LVU711
 547:Drivers/BSP/ST7735/st7735.c **** 		if (ST7735Ctx.Type == ST7735_0_9_inch_screen) {		//0.96 ST7735
 2321              		.loc 1 547 2 view .LVU712
 547:Drivers/BSP/ST7735/st7735.c **** 		if (ST7735Ctx.Type == ST7735_0_9_inch_screen) {		//0.96 ST7735
 2322              		.loc 1 547 14 is_stmt 0 view .LVU713
 2323 0008 3A4B     		ldr	r3, .L98
 2324 000a 9B68     		ldr	r3, [r3, #8]
 547:Drivers/BSP/ST7735/st7735.c **** 		if (ST7735Ctx.Type == ST7735_0_9_inch_screen) {		//0.96 ST7735
 2325              		.loc 1 547 4 view .LVU714
 2326 000c 012B     		cmp	r3, #1
 2327 000e 4AD9     		bls	.L93
 564:Drivers/BSP/ST7735/st7735.c **** 			if (ST7735Ctx.Panel == HannStar_Panel) {		//0.96 ST7735
 2328              		.loc 1 564 3 is_stmt 1 view .LVU715
 564:Drivers/BSP/ST7735/st7735.c **** 			if (ST7735Ctx.Panel == HannStar_Panel) {		//0.96 ST7735
 2329              		.loc 1 564 16 is_stmt 0 view .LVU716
 2330 0010 384B     		ldr	r3, .L98
 2331 0012 5B7B     		ldrb	r3, [r3, #13]	@ zero_extendqisi2
 564:Drivers/BSP/ST7735/st7735.c **** 			if (ST7735Ctx.Panel == HannStar_Panel) {		//0.96 ST7735
 2332              		.loc 1 564 6 view .LVU717
 2333 0014 012B     		cmp	r3, #1
 2334 0016 5BD0     		beq	.L94
 573:Drivers/BSP/ST7735/st7735.c ****       if (ST7735Ctx.Panel == BOE_Panel) {
 2335              		.loc 1 573 10 is_stmt 1 view .LVU718
 573:Drivers/BSP/ST7735/st7735.c ****       if (ST7735Ctx.Panel == BOE_Panel) {
 2336              		.loc 1 573 12 is_stmt 0 view .LVU719
 2337 0018 022B     		cmp	r3, #2
 2338 001a 61D0     		beq	.L95
 2339              	.LVL281:
 2340              	.L87:
 581:Drivers/BSP/ST7735/st7735.c ****   tmp = (uint8_t)(Xpos >> 8U);
 2341              		.loc 1 581 3 is_stmt 1 view .LVU720
 581:Drivers/BSP/ST7735/st7735.c ****   tmp = (uint8_t)(Xpos >> 8U);
 2342              		.loc 1 581 9 is_stmt 0 view .LVU721
ARM GAS  /var/folders/mq/wg13gp494590nh4zyt09lxf00000gn/T//ccZMG5bD.s 			page 72


 2343 001c 00F12005 		add	r5, r0, #32
 2344 0020 0023     		movs	r3, #0
 2345 0022 0DF10702 		add	r2, sp, #7
 2346 0026 2A21     		movs	r1, #42
 2347 0028 2846     		mov	r0, r5
 2348              	.LVL282:
 581:Drivers/BSP/ST7735/st7735.c ****   tmp = (uint8_t)(Xpos >> 8U);
 2349              		.loc 1 581 9 view .LVU722
 2350 002a FFF7FEFF 		bl	st7735_write_reg
 2351              	.LVL283:
 581:Drivers/BSP/ST7735/st7735.c ****   tmp = (uint8_t)(Xpos >> 8U);
 2352              		.loc 1 581 9 view .LVU723
 2353 002e 0446     		mov	r4, r0
 2354              	.LVL284:
 582:Drivers/BSP/ST7735/st7735.c ****   ret += st7735_send_data(&pObj->Ctx, &tmp, 1);
 2355              		.loc 1 582 3 is_stmt 1 view .LVU724
 582:Drivers/BSP/ST7735/st7735.c ****   ret += st7735_send_data(&pObj->Ctx, &tmp, 1);
 2356              		.loc 1 582 9 is_stmt 0 view .LVU725
 2357 0030 C7F30723 		ubfx	r3, r7, #8, #8
 582:Drivers/BSP/ST7735/st7735.c ****   ret += st7735_send_data(&pObj->Ctx, &tmp, 1);
 2358              		.loc 1 582 7 view .LVU726
 2359 0034 8DF80730 		strb	r3, [sp, #7]
 583:Drivers/BSP/ST7735/st7735.c ****   tmp = (uint8_t)(Xpos & 0xFFU);
 2360              		.loc 1 583 3 is_stmt 1 view .LVU727
 583:Drivers/BSP/ST7735/st7735.c ****   tmp = (uint8_t)(Xpos & 0xFFU);
 2361              		.loc 1 583 10 is_stmt 0 view .LVU728
 2362 0038 0122     		movs	r2, #1
 2363 003a 0DF10701 		add	r1, sp, #7
 2364 003e 2846     		mov	r0, r5
 2365              	.LVL285:
 583:Drivers/BSP/ST7735/st7735.c ****   tmp = (uint8_t)(Xpos & 0xFFU);
 2366              		.loc 1 583 10 view .LVU729
 2367 0040 FFF7FEFF 		bl	st7735_send_data
 2368              	.LVL286:
 583:Drivers/BSP/ST7735/st7735.c ****   tmp = (uint8_t)(Xpos & 0xFFU);
 2369              		.loc 1 583 7 discriminator 1 view .LVU730
 2370 0044 0444     		add	r4, r4, r0
 2371              	.LVL287:
 584:Drivers/BSP/ST7735/st7735.c ****   ret += st7735_send_data(&pObj->Ctx, &tmp, 1);
 2372              		.loc 1 584 3 is_stmt 1 view .LVU731
 584:Drivers/BSP/ST7735/st7735.c ****   ret += st7735_send_data(&pObj->Ctx, &tmp, 1);
 2373              		.loc 1 584 7 is_stmt 0 view .LVU732
 2374 0046 8DF80770 		strb	r7, [sp, #7]
 585:Drivers/BSP/ST7735/st7735.c **** 
 2375              		.loc 1 585 3 is_stmt 1 view .LVU733
 585:Drivers/BSP/ST7735/st7735.c **** 
 2376              		.loc 1 585 10 is_stmt 0 view .LVU734
 2377 004a 0122     		movs	r2, #1
 2378 004c 0DF10701 		add	r1, sp, #7
 2379 0050 2846     		mov	r0, r5
 2380 0052 FFF7FEFF 		bl	st7735_send_data
 2381              	.LVL288:
 585:Drivers/BSP/ST7735/st7735.c **** 
 2382              		.loc 1 585 7 discriminator 1 view .LVU735
 2383 0056 0444     		add	r4, r4, r0
 2384              	.LVL289:
 587:Drivers/BSP/ST7735/st7735.c ****   tmp = (uint8_t)(Ypos >> 8U);
ARM GAS  /var/folders/mq/wg13gp494590nh4zyt09lxf00000gn/T//ccZMG5bD.s 			page 73


 2385              		.loc 1 587 3 is_stmt 1 view .LVU736
 587:Drivers/BSP/ST7735/st7735.c ****   tmp = (uint8_t)(Ypos >> 8U);
 2386              		.loc 1 587 10 is_stmt 0 view .LVU737
 2387 0058 0023     		movs	r3, #0
 2388 005a 0DF10702 		add	r2, sp, #7
 2389 005e 2B21     		movs	r1, #43
 2390 0060 2846     		mov	r0, r5
 2391 0062 FFF7FEFF 		bl	st7735_write_reg
 2392              	.LVL290:
 587:Drivers/BSP/ST7735/st7735.c ****   tmp = (uint8_t)(Ypos >> 8U);
 2393              		.loc 1 587 7 discriminator 1 view .LVU738
 2394 0066 0444     		add	r4, r4, r0
 2395              	.LVL291:
 588:Drivers/BSP/ST7735/st7735.c ****   ret += st7735_send_data(&pObj->Ctx, &tmp, 1);
 2396              		.loc 1 588 3 is_stmt 1 view .LVU739
 588:Drivers/BSP/ST7735/st7735.c ****   ret += st7735_send_data(&pObj->Ctx, &tmp, 1);
 2397              		.loc 1 588 9 is_stmt 0 view .LVU740
 2398 0068 C6F30723 		ubfx	r3, r6, #8, #8
 588:Drivers/BSP/ST7735/st7735.c ****   ret += st7735_send_data(&pObj->Ctx, &tmp, 1);
 2399              		.loc 1 588 7 view .LVU741
 2400 006c 8DF80730 		strb	r3, [sp, #7]
 589:Drivers/BSP/ST7735/st7735.c ****   tmp = (uint8_t)(Ypos & 0xFFU);
 2401              		.loc 1 589 3 is_stmt 1 view .LVU742
 589:Drivers/BSP/ST7735/st7735.c ****   tmp = (uint8_t)(Ypos & 0xFFU);
 2402              		.loc 1 589 10 is_stmt 0 view .LVU743
 2403 0070 0122     		movs	r2, #1
 2404 0072 0DF10701 		add	r1, sp, #7
 2405 0076 2846     		mov	r0, r5
 2406 0078 FFF7FEFF 		bl	st7735_send_data
 2407              	.LVL292:
 589:Drivers/BSP/ST7735/st7735.c ****   tmp = (uint8_t)(Ypos & 0xFFU);
 2408              		.loc 1 589 7 discriminator 1 view .LVU744
 2409 007c 0444     		add	r4, r4, r0
 2410              	.LVL293:
 590:Drivers/BSP/ST7735/st7735.c ****   ret += st7735_send_data(&pObj->Ctx, &tmp, 1);
 2411              		.loc 1 590 3 is_stmt 1 view .LVU745
 590:Drivers/BSP/ST7735/st7735.c ****   ret += st7735_send_data(&pObj->Ctx, &tmp, 1);
 2412              		.loc 1 590 7 is_stmt 0 view .LVU746
 2413 007e 8DF80760 		strb	r6, [sp, #7]
 591:Drivers/BSP/ST7735/st7735.c ****   ret += st7735_write_reg(&pObj->Ctx, ST7735_WRITE_RAM, &tmp, 0);
 2414              		.loc 1 591 3 is_stmt 1 view .LVU747
 591:Drivers/BSP/ST7735/st7735.c ****   ret += st7735_write_reg(&pObj->Ctx, ST7735_WRITE_RAM, &tmp, 0);
 2415              		.loc 1 591 10 is_stmt 0 view .LVU748
 2416 0082 0122     		movs	r2, #1
 2417 0084 0DF10701 		add	r1, sp, #7
 2418 0088 2846     		mov	r0, r5
 2419 008a FFF7FEFF 		bl	st7735_send_data
 2420              	.LVL294:
 591:Drivers/BSP/ST7735/st7735.c ****   ret += st7735_write_reg(&pObj->Ctx, ST7735_WRITE_RAM, &tmp, 0);
 2421              		.loc 1 591 7 discriminator 1 view .LVU749
 2422 008e 0444     		add	r4, r4, r0
 2423              	.LVL295:
 592:Drivers/BSP/ST7735/st7735.c **** 
 2424              		.loc 1 592 3 is_stmt 1 view .LVU750
 592:Drivers/BSP/ST7735/st7735.c **** 
 2425              		.loc 1 592 10 is_stmt 0 view .LVU751
 2426 0090 0023     		movs	r3, #0
ARM GAS  /var/folders/mq/wg13gp494590nh4zyt09lxf00000gn/T//ccZMG5bD.s 			page 74


 2427 0092 0DF10702 		add	r2, sp, #7
 2428 0096 2C21     		movs	r1, #44
 2429 0098 2846     		mov	r0, r5
 2430 009a FFF7FEFF 		bl	st7735_write_reg
 2431              	.LVL296:
 594:Drivers/BSP/ST7735/st7735.c ****   {
 2432              		.loc 1 594 3 is_stmt 1 view .LVU752
 594:Drivers/BSP/ST7735/st7735.c ****   {
 2433              		.loc 1 594 5 is_stmt 0 view .LVU753
 2434 009e 2018     		adds	r0, r4, r0
 2435              	.LVL297:
 594:Drivers/BSP/ST7735/st7735.c ****   {
 2436              		.loc 1 594 5 view .LVU754
 2437 00a0 25D1     		bne	.L96
 2438              	.LVL298:
 2439              	.L83:
 600:Drivers/BSP/ST7735/st7735.c **** 
 2440              		.loc 1 600 1 view .LVU755
 2441 00a2 03B0     		add	sp, sp, #12
 2442              	.LCFI27:
 2443              		.cfi_remember_state
 2444              		.cfi_def_cfa_offset 20
 2445              		@ sp needed
 2446 00a4 F0BD     		pop	{r4, r5, r6, r7, pc}
 2447              	.LVL299:
 2448              	.L93:
 2449              	.LCFI28:
 2450              		.cfi_restore_state
 548:Drivers/BSP/ST7735/st7735.c **** 			if (ST7735Ctx.Panel == HannStar_Panel) {
 2451              		.loc 1 548 3 is_stmt 1 view .LVU756
 548:Drivers/BSP/ST7735/st7735.c **** 			if (ST7735Ctx.Panel == HannStar_Panel) {
 2452              		.loc 1 548 16 is_stmt 0 view .LVU757
 2453 00a6 134B     		ldr	r3, .L98
 2454 00a8 5B7B     		ldrb	r3, [r3, #13]	@ zero_extendqisi2
 548:Drivers/BSP/ST7735/st7735.c **** 			if (ST7735Ctx.Panel == HannStar_Panel) {
 2455              		.loc 1 548 6 view .LVU758
 2456 00aa 012B     		cmp	r3, #1
 2457 00ac 08D0     		beq	.L97
 557:Drivers/BSP/ST7735/st7735.c ****       if (ST7735Ctx.Panel == BOE_Panel) {
 2458              		.loc 1 557 10 is_stmt 1 view .LVU759
 557:Drivers/BSP/ST7735/st7735.c ****       if (ST7735Ctx.Panel == BOE_Panel) {
 2459              		.loc 1 557 12 is_stmt 0 view .LVU760
 2460 00ae 022B     		cmp	r3, #2
 2461 00b0 B4D1     		bne	.L87
 558:Drivers/BSP/ST7735/st7735.c **** 				Xpos += 2;
 2462              		.loc 1 558 7 is_stmt 1 view .LVU761
 558:Drivers/BSP/ST7735/st7735.c **** 				Xpos += 2;
 2463              		.loc 1 558 20 is_stmt 0 view .LVU762
 2464 00b2 104B     		ldr	r3, .L98
 2465 00b4 1B7B     		ldrb	r3, [r3, #12]	@ zero_extendqisi2
 558:Drivers/BSP/ST7735/st7735.c **** 				Xpos += 2;
 2466              		.loc 1 558 10 view .LVU763
 2467 00b6 012B     		cmp	r3, #1
 2468 00b8 B0D1     		bne	.L87
 559:Drivers/BSP/ST7735/st7735.c **** 				Ypos += 1;
 2469              		.loc 1 559 5 is_stmt 1 view .LVU764
 559:Drivers/BSP/ST7735/st7735.c **** 				Ypos += 1;
ARM GAS  /var/folders/mq/wg13gp494590nh4zyt09lxf00000gn/T//ccZMG5bD.s 			page 75


 2470              		.loc 1 559 10 is_stmt 0 view .LVU765
 2471 00ba 0237     		adds	r7, r7, #2
 2472              	.LVL300:
 560:Drivers/BSP/ST7735/st7735.c **** 			}
 2473              		.loc 1 560 5 is_stmt 1 view .LVU766
 560:Drivers/BSP/ST7735/st7735.c **** 			}
 2474              		.loc 1 560 10 is_stmt 0 view .LVU767
 2475 00bc 0136     		adds	r6, r6, #1
 2476              	.LVL301:
 560:Drivers/BSP/ST7735/st7735.c **** 			}
 2477              		.loc 1 560 10 view .LVU768
 2478 00be ADE7     		b	.L87
 2479              	.LVL302:
 2480              	.L97:
 549:Drivers/BSP/ST7735/st7735.c **** 				Xpos += 26;
 2481              		.loc 1 549 4 is_stmt 1 view .LVU769
 549:Drivers/BSP/ST7735/st7735.c **** 				Xpos += 26;
 2482              		.loc 1 549 17 is_stmt 0 view .LVU770
 2483 00c0 0C4B     		ldr	r3, .L98
 2484 00c2 1B7B     		ldrb	r3, [r3, #12]	@ zero_extendqisi2
 549:Drivers/BSP/ST7735/st7735.c **** 				Xpos += 26;
 2485              		.loc 1 549 7 view .LVU771
 2486 00c4 13B9     		cbnz	r3, .L86
 550:Drivers/BSP/ST7735/st7735.c **** 				Ypos += 1;
 2487              		.loc 1 550 5 is_stmt 1 view .LVU772
 550:Drivers/BSP/ST7735/st7735.c **** 				Ypos += 1;
 2488              		.loc 1 550 10 is_stmt 0 view .LVU773
 2489 00c6 1A37     		adds	r7, r7, #26
 2490              	.LVL303:
 551:Drivers/BSP/ST7735/st7735.c **** 			} else {		//BOE Panel
 2491              		.loc 1 551 5 is_stmt 1 view .LVU774
 551:Drivers/BSP/ST7735/st7735.c **** 			} else {		//BOE Panel
 2492              		.loc 1 551 10 is_stmt 0 view .LVU775
 2493 00c8 0136     		adds	r6, r6, #1
 2494              	.LVL304:
 551:Drivers/BSP/ST7735/st7735.c **** 			} else {		//BOE Panel
 2495              		.loc 1 551 10 view .LVU776
 2496 00ca A7E7     		b	.L87
 2497              	.LVL305:
 2498              	.L86:
 553:Drivers/BSP/ST7735/st7735.c **** 				Ypos += 0;
 2499              		.loc 1 553 5 is_stmt 1 view .LVU777
 553:Drivers/BSP/ST7735/st7735.c **** 				Ypos += 0;
 2500              		.loc 1 553 10 is_stmt 0 view .LVU778
 2501 00cc 1837     		adds	r7, r7, #24
 2502              	.LVL306:
 554:Drivers/BSP/ST7735/st7735.c **** 			}
 2503              		.loc 1 554 5 is_stmt 1 view .LVU779
 554:Drivers/BSP/ST7735/st7735.c **** 			}
 2504              		.loc 1 554 5 is_stmt 0 view .LVU780
 2505 00ce A5E7     		b	.L87
 2506              	.LVL307:
 2507              	.L94:
 565:Drivers/BSP/ST7735/st7735.c **** 				Xpos += 1;
 2508              		.loc 1 565 4 is_stmt 1 view .LVU781
 565:Drivers/BSP/ST7735/st7735.c **** 				Xpos += 1;
 2509              		.loc 1 565 17 is_stmt 0 view .LVU782
ARM GAS  /var/folders/mq/wg13gp494590nh4zyt09lxf00000gn/T//ccZMG5bD.s 			page 76


 2510 00d0 084B     		ldr	r3, .L98
 2511 00d2 1B7B     		ldrb	r3, [r3, #12]	@ zero_extendqisi2
 565:Drivers/BSP/ST7735/st7735.c **** 				Xpos += 1;
 2512              		.loc 1 565 7 view .LVU783
 2513 00d4 13B9     		cbnz	r3, .L89
 566:Drivers/BSP/ST7735/st7735.c **** 				Ypos += 26;
 2514              		.loc 1 566 5 is_stmt 1 view .LVU784
 566:Drivers/BSP/ST7735/st7735.c **** 				Ypos += 26;
 2515              		.loc 1 566 10 is_stmt 0 view .LVU785
 2516 00d6 0137     		adds	r7, r7, #1
 2517              	.LVL308:
 567:Drivers/BSP/ST7735/st7735.c **** 			} else {		//BOE Panel
 2518              		.loc 1 567 5 is_stmt 1 view .LVU786
 567:Drivers/BSP/ST7735/st7735.c **** 			} else {		//BOE Panel
 2519              		.loc 1 567 10 is_stmt 0 view .LVU787
 2520 00d8 1A36     		adds	r6, r6, #26
 2521              	.LVL309:
 567:Drivers/BSP/ST7735/st7735.c **** 			} else {		//BOE Panel
 2522              		.loc 1 567 10 view .LVU788
 2523 00da 9FE7     		b	.L87
 2524              	.LVL310:
 2525              	.L89:
 569:Drivers/BSP/ST7735/st7735.c **** 				Ypos += 24;
 2526              		.loc 1 569 5 is_stmt 1 view .LVU789
 570:Drivers/BSP/ST7735/st7735.c **** 			}
 2527              		.loc 1 570 5 view .LVU790
 570:Drivers/BSP/ST7735/st7735.c **** 			}
 2528              		.loc 1 570 10 is_stmt 0 view .LVU791
 2529 00dc 1836     		adds	r6, r6, #24
 2530              	.LVL311:
 570:Drivers/BSP/ST7735/st7735.c **** 			}
 2531              		.loc 1 570 10 view .LVU792
 2532 00de 9DE7     		b	.L87
 2533              	.LVL312:
 2534              	.L95:
 574:Drivers/BSP/ST7735/st7735.c **** 				Xpos += 1;
 2535              		.loc 1 574 7 is_stmt 1 view .LVU793
 574:Drivers/BSP/ST7735/st7735.c **** 				Xpos += 1;
 2536              		.loc 1 574 20 is_stmt 0 view .LVU794
 2537 00e0 044B     		ldr	r3, .L98
 2538 00e2 1B7B     		ldrb	r3, [r3, #12]	@ zero_extendqisi2
 574:Drivers/BSP/ST7735/st7735.c **** 				Xpos += 1;
 2539              		.loc 1 574 10 view .LVU795
 2540 00e4 012B     		cmp	r3, #1
 2541 00e6 99D1     		bne	.L87
 575:Drivers/BSP/ST7735/st7735.c **** 				Ypos += 2;
 2542              		.loc 1 575 5 is_stmt 1 view .LVU796
 575:Drivers/BSP/ST7735/st7735.c **** 				Ypos += 2;
 2543              		.loc 1 575 10 is_stmt 0 view .LVU797
 2544 00e8 0137     		adds	r7, r7, #1
 2545              	.LVL313:
 576:Drivers/BSP/ST7735/st7735.c **** 			}
 2546              		.loc 1 576 5 is_stmt 1 view .LVU798
 576:Drivers/BSP/ST7735/st7735.c **** 			}
 2547              		.loc 1 576 10 is_stmt 0 view .LVU799
 2548 00ea 0236     		adds	r6, r6, #2
 2549              	.LVL314:
ARM GAS  /var/folders/mq/wg13gp494590nh4zyt09lxf00000gn/T//ccZMG5bD.s 			page 77


 576:Drivers/BSP/ST7735/st7735.c **** 			}
 2550              		.loc 1 576 10 view .LVU800
 2551 00ec 96E7     		b	.L87
 2552              	.LVL315:
 2553              	.L96:
 596:Drivers/BSP/ST7735/st7735.c ****   }
 2554              		.loc 1 596 9 view .LVU801
 2555 00ee 4FF0FF30 		mov	r0, #-1
 2556              	.LVL316:
 599:Drivers/BSP/ST7735/st7735.c **** }
 2557              		.loc 1 599 3 is_stmt 1 view .LVU802
 599:Drivers/BSP/ST7735/st7735.c **** }
 2558              		.loc 1 599 10 is_stmt 0 view .LVU803
 2559 00f2 D6E7     		b	.L83
 2560              	.L99:
 2561              		.align	2
 2562              	.L98:
 2563 00f4 00000000 		.word	ST7735Ctx
 2564              		.cfi_endproc
 2565              	.LFE10:
 2567              		.section	.text.ST7735_DrawBitmap,"ax",%progbits
 2568              		.align	1
 2569              		.global	ST7735_DrawBitmap
 2570              		.syntax unified
 2571              		.thumb
 2572              		.thumb_func
 2574              	ST7735_DrawBitmap:
 2575              	.LVL317:
 2576              	.LFB11:
 611:Drivers/BSP/ST7735/st7735.c ****   int32_t ret = ST7735_OK;
 2577              		.loc 1 611 1 is_stmt 1 view -0
 2578              		.cfi_startproc
 2579              		@ args = 0, pretend = 0, frame = 8
 2580              		@ frame_needed = 0, uses_anonymous_args = 0
 611:Drivers/BSP/ST7735/st7735.c ****   int32_t ret = ST7735_OK;
 2581              		.loc 1 611 1 is_stmt 0 view .LVU805
 2582 0000 2DE9F047 		push	{r4, r5, r6, r7, r8, r9, r10, lr}
 2583              	.LCFI29:
 2584              		.cfi_def_cfa_offset 32
 2585              		.cfi_offset 4, -32
 2586              		.cfi_offset 5, -28
 2587              		.cfi_offset 6, -24
 2588              		.cfi_offset 7, -20
 2589              		.cfi_offset 8, -16
 2590              		.cfi_offset 9, -12
 2591              		.cfi_offset 10, -8
 2592              		.cfi_offset 14, -4
 2593 0004 84B0     		sub	sp, sp, #16
 2594              	.LCFI30:
 2595              		.cfi_def_cfa_offset 48
 2596 0006 0746     		mov	r7, r0
 2597 0008 8946     		mov	r9, r1
 2598 000a 1C46     		mov	r4, r3
 612:Drivers/BSP/ST7735/st7735.c ****   uint32_t index, size, width, height, y_pos;
 2599              		.loc 1 612 3 is_stmt 1 view .LVU806
 2600              	.LVL318:
 613:Drivers/BSP/ST7735/st7735.c ****   uint8_t pixel_val[2], tmp;
ARM GAS  /var/folders/mq/wg13gp494590nh4zyt09lxf00000gn/T//ccZMG5bD.s 			page 78


 2601              		.loc 1 613 3 view .LVU807
 614:Drivers/BSP/ST7735/st7735.c ****   uint8_t *pbmp;
 2602              		.loc 1 614 3 view .LVU808
 615:Drivers/BSP/ST7735/st7735.c ****   uint32_t counter = 0;
 2603              		.loc 1 615 3 view .LVU809
 616:Drivers/BSP/ST7735/st7735.c **** 
 2604              		.loc 1 616 3 view .LVU810
 619:Drivers/BSP/ST7735/st7735.c **** 
 2605              		.loc 1 619 3 view .LVU811
 619:Drivers/BSP/ST7735/st7735.c **** 
 2606              		.loc 1 619 25 is_stmt 0 view .LVU812
 2607 000c 93F80AC0 		ldrb	ip, [r3, #10]	@ zero_extendqisi2
 619:Drivers/BSP/ST7735/st7735.c **** 
 2608              		.loc 1 619 47 view .LVU813
 2609 0010 DB7A     		ldrb	r3, [r3, #11]	@ zero_extendqisi2
 2610              	.LVL319:
 619:Drivers/BSP/ST7735/st7735.c **** 
 2611              		.loc 1 619 30 view .LVU814
 2612 0012 0CEB032C 		add	ip, ip, r3, lsl #8
 619:Drivers/BSP/ST7735/st7735.c **** 
 2613              		.loc 1 619 75 view .LVU815
 2614 0016 237B     		ldrb	r3, [r4, #12]	@ zero_extendqisi2
 619:Drivers/BSP/ST7735/st7735.c **** 
 2615              		.loc 1 619 58 view .LVU816
 2616 0018 0CEB034C 		add	ip, ip, r3, lsl #16
 619:Drivers/BSP/ST7735/st7735.c **** 
 2617              		.loc 1 619 105 view .LVU817
 2618 001c 637B     		ldrb	r3, [r4, #13]	@ zero_extendqisi2
 619:Drivers/BSP/ST7735/st7735.c **** 
 2619              		.loc 1 619 9 view .LVU818
 2620 001e 0CEB036C 		add	ip, ip, r3, lsl #24
 2621              	.LVL320:
 622:Drivers/BSP/ST7735/st7735.c **** 
 2622              		.loc 1 622 3 is_stmt 1 view .LVU819
 622:Drivers/BSP/ST7735/st7735.c **** 
 2623              		.loc 1 622 25 is_stmt 0 view .LVU820
 2624 0022 A37C     		ldrb	r3, [r4, #18]	@ zero_extendqisi2
 622:Drivers/BSP/ST7735/st7735.c **** 
 2625              		.loc 1 622 47 view .LVU821
 2626 0024 E57C     		ldrb	r5, [r4, #19]	@ zero_extendqisi2
 622:Drivers/BSP/ST7735/st7735.c **** 
 2627              		.loc 1 622 30 view .LVU822
 2628 0026 03EB0523 		add	r3, r3, r5, lsl #8
 622:Drivers/BSP/ST7735/st7735.c **** 
 2629              		.loc 1 622 75 view .LVU823
 2630 002a 257D     		ldrb	r5, [r4, #20]	@ zero_extendqisi2
 622:Drivers/BSP/ST7735/st7735.c **** 
 2631              		.loc 1 622 58 view .LVU824
 2632 002c 03EB0543 		add	r3, r3, r5, lsl #16
 622:Drivers/BSP/ST7735/st7735.c **** 
 2633              		.loc 1 622 105 view .LVU825
 2634 0030 94F815E0 		ldrb	lr, [r4, #21]	@ zero_extendqisi2
 2635              	.LVL321:
 625:Drivers/BSP/ST7735/st7735.c **** 
 2636              		.loc 1 625 3 is_stmt 1 view .LVU826
 625:Drivers/BSP/ST7735/st7735.c **** 
 2637              		.loc 1 625 26 is_stmt 0 view .LVU827
ARM GAS  /var/folders/mq/wg13gp494590nh4zyt09lxf00000gn/T//ccZMG5bD.s 			page 79


 2638 0034 A57D     		ldrb	r5, [r4, #22]	@ zero_extendqisi2
 625:Drivers/BSP/ST7735/st7735.c **** 
 2639              		.loc 1 625 48 view .LVU828
 2640 0036 E67D     		ldrb	r6, [r4, #23]	@ zero_extendqisi2
 625:Drivers/BSP/ST7735/st7735.c **** 
 2641              		.loc 1 625 31 view .LVU829
 2642 0038 05EB0625 		add	r5, r5, r6, lsl #8
 625:Drivers/BSP/ST7735/st7735.c **** 
 2643              		.loc 1 625 76 view .LVU830
 2644 003c 267E     		ldrb	r6, [r4, #24]	@ zero_extendqisi2
 625:Drivers/BSP/ST7735/st7735.c **** 
 2645              		.loc 1 625 59 view .LVU831
 2646 003e 05EB0645 		add	r5, r5, r6, lsl #16
 625:Drivers/BSP/ST7735/st7735.c **** 
 2647              		.loc 1 625 106 view .LVU832
 2648 0042 667E     		ldrb	r6, [r4, #25]	@ zero_extendqisi2
 625:Drivers/BSP/ST7735/st7735.c **** 
 2649              		.loc 1 625 10 view .LVU833
 2650 0044 05EB0665 		add	r5, r5, r6, lsl #24
 2651              	.LVL322:
 628:Drivers/BSP/ST7735/st7735.c ****   size = size - index;
 2652              		.loc 1 628 3 is_stmt 1 view .LVU834
 628:Drivers/BSP/ST7735/st7735.c ****   size = size - index;
 2653              		.loc 1 628 24 is_stmt 0 view .LVU835
 2654 0048 A678     		ldrb	r6, [r4, #2]	@ zero_extendqisi2
 628:Drivers/BSP/ST7735/st7735.c ****   size = size - index;
 2655              		.loc 1 628 45 view .LVU836
 2656 004a 94F80380 		ldrb	r8, [r4, #3]	@ zero_extendqisi2
 628:Drivers/BSP/ST7735/st7735.c ****   size = size - index;
 2657              		.loc 1 628 28 view .LVU837
 2658 004e 06EB0826 		add	r6, r6, r8, lsl #8
 628:Drivers/BSP/ST7735/st7735.c ****   size = size - index;
 2659              		.loc 1 628 72 view .LVU838
 2660 0052 94F80480 		ldrb	r8, [r4, #4]	@ zero_extendqisi2
 628:Drivers/BSP/ST7735/st7735.c ****   size = size - index;
 2661              		.loc 1 628 55 view .LVU839
 2662 0056 06EB0846 		add	r6, r6, r8, lsl #16
 628:Drivers/BSP/ST7735/st7735.c ****   size = size - index;
 2663              		.loc 1 628 101 view .LVU840
 2664 005a 94F80580 		ldrb	r8, [r4, #5]	@ zero_extendqisi2
 628:Drivers/BSP/ST7735/st7735.c ****   size = size - index;
 2665              		.loc 1 628 8 view .LVU841
 2666 005e 06EB0866 		add	r6, r6, r8, lsl #24
 2667              	.LVL323:
 629:Drivers/BSP/ST7735/st7735.c **** 
 2668              		.loc 1 629 3 is_stmt 1 view .LVU842
 629:Drivers/BSP/ST7735/st7735.c **** 
 2669              		.loc 1 629 8 is_stmt 0 view .LVU843
 2670 0062 A6EB0C06 		sub	r6, r6, ip
 2671              	.LVL324:
 631:Drivers/BSP/ST7735/st7735.c **** 
 2672              		.loc 1 631 3 is_stmt 1 view .LVU844
 631:Drivers/BSP/ST7735/st7735.c **** 
 2673              		.loc 1 631 8 is_stmt 0 view .LVU845
 2674 0066 6444     		add	r4, r4, ip
 2675              	.LVL325:
 635:Drivers/BSP/ST7735/st7735.c **** 
ARM GAS  /var/folders/mq/wg13gp494590nh4zyt09lxf00000gn/T//ccZMG5bD.s 			page 80


 2676              		.loc 1 635 3 is_stmt 1 view .LVU846
 635:Drivers/BSP/ST7735/st7735.c **** 
 2677              		.loc 1 635 20 is_stmt 0 view .LVU847
 2678 0068 DFF800C1 		ldr	ip, .L116
 2679              	.LVL326:
 635:Drivers/BSP/ST7735/st7735.c **** 
 2680              		.loc 1 635 20 view .LVU848
 2681 006c DCF804A0 		ldr	r10, [ip, #4]
 635:Drivers/BSP/ST7735/st7735.c **** 
 2682              		.loc 1 635 28 view .LVU849
 2683 0070 AAEB020A 		sub	r10, r10, r2
 635:Drivers/BSP/ST7735/st7735.c **** 
 2684              		.loc 1 635 9 view .LVU850
 2685 0074 AAEB050A 		sub	r10, r10, r5
 2686              	.LVL327:
 637:Drivers/BSP/ST7735/st7735.c ****   {
 2687              		.loc 1 637 3 is_stmt 1 view .LVU851
 637:Drivers/BSP/ST7735/st7735.c ****   {
 2688              		.loc 1 637 6 is_stmt 0 view .LVU852
 2689 0078 0095     		str	r5, [sp]
 2690              	.LVL328:
 637:Drivers/BSP/ST7735/st7735.c ****   {
 2691              		.loc 1 637 6 view .LVU853
 2692 007a 03EB0E63 		add	r3, r3, lr, lsl #24
 2693              	.LVL329:
 637:Drivers/BSP/ST7735/st7735.c ****   {
 2694              		.loc 1 637 6 view .LVU854
 2695 007e 5246     		mov	r2, r10
 2696              	.LVL330:
 637:Drivers/BSP/ST7735/st7735.c ****   {
 2697              		.loc 1 637 6 view .LVU855
 2698 0080 FFF7FEFF 		bl	ST7735_SetDisplayWindow
 2699              	.LVL331:
 637:Drivers/BSP/ST7735/st7735.c ****   {
 2700              		.loc 1 637 5 discriminator 1 view .LVU856
 2701 0084 0028     		cmp	r0, #0
 2702 0086 62D1     		bne	.L108
 644:Drivers/BSP/ST7735/st7735.c **** 					(uint8_t)OrientationTab[ST7735Ctx.Orientation][0] | LCD_BGR :
 2703              		.loc 1 644 5 is_stmt 1 view .LVU857
 644:Drivers/BSP/ST7735/st7735.c **** 					(uint8_t)OrientationTab[ST7735Ctx.Orientation][0] | LCD_BGR :
 2704              		.loc 1 644 20 is_stmt 0 view .LVU858
 2705 0088 384B     		ldr	r3, .L116
 2706 008a 1B7B     		ldrb	r3, [r3, #12]	@ zero_extendqisi2
 644:Drivers/BSP/ST7735/st7735.c **** 					(uint8_t)OrientationTab[ST7735Ctx.Orientation][0] | LCD_BGR :
 2707              		.loc 1 644 9 view .LVU859
 2708 008c 6BBB     		cbnz	r3, .L102
 645:Drivers/BSP/ST7735/st7735.c **** 					(uint8_t)OrientationTab[ST7735Ctx.Orientation][0] | LCD_RGB;
 2709              		.loc 1 645 39 view .LVU860
 2710 008e 374B     		ldr	r3, .L116
 2711 0090 9A68     		ldr	r2, [r3, #8]
 645:Drivers/BSP/ST7735/st7735.c **** 					(uint8_t)OrientationTab[ST7735Ctx.Orientation][0] | LCD_RGB;
 2712              		.loc 1 645 6 view .LVU861
 2713 0092 374B     		ldr	r3, .L116+4
 2714 0094 13F83230 		ldrb	r3, [r3, r2, lsl #3]	@ zero_extendqisi2
 644:Drivers/BSP/ST7735/st7735.c **** 					(uint8_t)OrientationTab[ST7735Ctx.Orientation][0] | LCD_BGR :
 2715              		.loc 1 644 9 discriminator 1 view .LVU862
 2716 0098 43F00803 		orr	r3, r3, #8
ARM GAS  /var/folders/mq/wg13gp494590nh4zyt09lxf00000gn/T//ccZMG5bD.s 			page 81


 2717              	.L103:
 644:Drivers/BSP/ST7735/st7735.c **** 					(uint8_t)OrientationTab[ST7735Ctx.Orientation][0] | LCD_BGR :
 2718              		.loc 1 644 9 discriminator 4 view .LVU863
 2719 009c 8DF80B30 		strb	r3, [sp, #11]
 648:Drivers/BSP/ST7735/st7735.c ****     {
 2720              		.loc 1 648 5 is_stmt 1 view .LVU864
 648:Drivers/BSP/ST7735/st7735.c ****     {
 2721              		.loc 1 648 8 is_stmt 0 view .LVU865
 2722 00a0 07F12008 		add	r8, r7, #32
 2723 00a4 0123     		movs	r3, #1
 2724 00a6 0DF10B02 		add	r2, sp, #11
 2725 00aa 3621     		movs	r1, #54
 2726 00ac 4046     		mov	r0, r8
 2727 00ae FFF7FEFF 		bl	st7735_write_reg
 2728              	.LVL332:
 648:Drivers/BSP/ST7735/st7735.c ****     {
 2729              		.loc 1 648 7 discriminator 1 view .LVU866
 2730 00b2 0028     		cmp	r0, #0
 2731 00b4 4ED1     		bne	.L109
 652:Drivers/BSP/ST7735/st7735.c ****     {
 2732              		.loc 1 652 10 is_stmt 1 view .LVU867
 652:Drivers/BSP/ST7735/st7735.c ****     {
 2733              		.loc 1 652 13 is_stmt 0 view .LVU868
 2734 00b6 5246     		mov	r2, r10
 2735 00b8 4946     		mov	r1, r9
 2736 00ba 3846     		mov	r0, r7
 2737 00bc FFF7FEFF 		bl	ST7735_SetCursor
 2738              	.LVL333:
 652:Drivers/BSP/ST7735/st7735.c ****     {
 2739              		.loc 1 652 12 discriminator 1 view .LVU869
 2740 00c0 0028     		cmp	r0, #0
 2741 00c2 4AD1     		bne	.L110
 616:Drivers/BSP/ST7735/st7735.c **** 
 2742              		.loc 1 616 12 view .LVU870
 2743 00c4 0025     		movs	r5, #0
 2744              	.LVL334:
 2745              	.L105:
 658:Drivers/BSP/ST7735/st7735.c ****       {
 2746              		.loc 1 658 7 is_stmt 1 view .LVU871
 660:Drivers/BSP/ST7735/st7735.c ****         pixel_val[1] = *(pbmp);
 2747              		.loc 1 660 9 view .LVU872
 660:Drivers/BSP/ST7735/st7735.c ****         pixel_val[1] = *(pbmp);
 2748              		.loc 1 660 22 is_stmt 0 view .LVU873
 2749 00c6 6378     		ldrb	r3, [r4, #1]	@ zero_extendqisi2
 2750 00c8 8DF80C30 		strb	r3, [sp, #12]
 661:Drivers/BSP/ST7735/st7735.c ****         if(st7735_send_data(&pObj->Ctx, pixel_val, 2U) != ST7735_OK)
 2751              		.loc 1 661 9 is_stmt 1 view .LVU874
 661:Drivers/BSP/ST7735/st7735.c ****         if(st7735_send_data(&pObj->Ctx, pixel_val, 2U) != ST7735_OK)
 2752              		.loc 1 661 24 is_stmt 0 view .LVU875
 2753 00cc 2378     		ldrb	r3, [r4]	@ zero_extendqisi2
 661:Drivers/BSP/ST7735/st7735.c ****         if(st7735_send_data(&pObj->Ctx, pixel_val, 2U) != ST7735_OK)
 2754              		.loc 1 661 22 view .LVU876
 2755 00ce 8DF80D30 		strb	r3, [sp, #13]
 662:Drivers/BSP/ST7735/st7735.c ****         {
 2756              		.loc 1 662 9 is_stmt 1 view .LVU877
 662:Drivers/BSP/ST7735/st7735.c ****         {
 2757              		.loc 1 662 12 is_stmt 0 view .LVU878
ARM GAS  /var/folders/mq/wg13gp494590nh4zyt09lxf00000gn/T//ccZMG5bD.s 			page 82


 2758 00d2 0222     		movs	r2, #2
 2759 00d4 03A9     		add	r1, sp, #12
 2760 00d6 4046     		mov	r0, r8
 2761 00d8 FFF7FEFF 		bl	st7735_send_data
 2762              	.LVL335:
 662:Drivers/BSP/ST7735/st7735.c ****         {
 2763              		.loc 1 662 11 discriminator 1 view .LVU879
 2764 00dc 8146     		mov	r9, r0
 2765 00de 50B9     		cbnz	r0, .L111
 667:Drivers/BSP/ST7735/st7735.c ****         pbmp += 2;
 2766              		.loc 1 667 9 is_stmt 1 view .LVU880
 667:Drivers/BSP/ST7735/st7735.c ****         pbmp += 2;
 2767              		.loc 1 667 17 is_stmt 0 view .LVU881
 2768 00e0 0235     		adds	r5, r5, #2
 2769              	.LVL336:
 668:Drivers/BSP/ST7735/st7735.c ****       }while(counter < size);
 2770              		.loc 1 668 9 is_stmt 1 view .LVU882
 668:Drivers/BSP/ST7735/st7735.c ****       }while(counter < size);
 2771              		.loc 1 668 14 is_stmt 0 view .LVU883
 2772 00e2 0234     		adds	r4, r4, #2
 2773              	.LVL337:
 669:Drivers/BSP/ST7735/st7735.c **** 
 2774              		.loc 1 669 22 is_stmt 1 view .LVU884
 2775 00e4 AE42     		cmp	r6, r5
 2776 00e6 EED8     		bhi	.L105
 2777 00e8 07E0     		b	.L104
 2778              	.LVL338:
 2779              	.L102:
 646:Drivers/BSP/ST7735/st7735.c **** 
 2780              		.loc 1 646 39 is_stmt 0 view .LVU885
 2781 00ea 204B     		ldr	r3, .L116
 2782 00ec 9A68     		ldr	r2, [r3, #8]
 644:Drivers/BSP/ST7735/st7735.c **** 					(uint8_t)OrientationTab[ST7735Ctx.Orientation][0] | LCD_BGR :
 2783              		.loc 1 644 9 discriminator 2 view .LVU886
 2784 00ee 204B     		ldr	r3, .L116+4
 2785 00f0 13F83230 		ldrb	r3, [r3, r2, lsl #3]	@ zero_extendqisi2
 2786 00f4 D2E7     		b	.L103
 2787              	.LVL339:
 2788              	.L111:
 664:Drivers/BSP/ST7735/st7735.c ****           break;
 2789              		.loc 1 664 15 view .LVU887
 2790 00f6 4FF0FF39 		mov	r9, #-1
 2791              	.L104:
 2792              	.LVL340:
 671:Drivers/BSP/ST7735/st7735.c **** 						(uint8_t)OrientationTab[ST7735Ctx.Orientation][1] | LCD_BGR :
 2793              		.loc 1 671 4 is_stmt 1 view .LVU888
 671:Drivers/BSP/ST7735/st7735.c **** 						(uint8_t)OrientationTab[ST7735Ctx.Orientation][1] | LCD_BGR :
 2794              		.loc 1 671 19 is_stmt 0 view .LVU889
 2795 00fa 1C4B     		ldr	r3, .L116
 2796 00fc 1B7B     		ldrb	r3, [r3, #12]	@ zero_extendqisi2
 671:Drivers/BSP/ST7735/st7735.c **** 						(uint8_t)OrientationTab[ST7735Ctx.Orientation][1] | LCD_BGR :
 2797              		.loc 1 671 8 view .LVU890
 2798 00fe FBB9     		cbnz	r3, .L106
 672:Drivers/BSP/ST7735/st7735.c **** 						(uint8_t)OrientationTab[ST7735Ctx.Orientation][1] | LCD_RGB;
 2799              		.loc 1 672 40 view .LVU891
 2800 0100 1A4B     		ldr	r3, .L116
 2801 0102 9A68     		ldr	r2, [r3, #8]
ARM GAS  /var/folders/mq/wg13gp494590nh4zyt09lxf00000gn/T//ccZMG5bD.s 			page 83


 672:Drivers/BSP/ST7735/st7735.c **** 						(uint8_t)OrientationTab[ST7735Ctx.Orientation][1] | LCD_RGB;
 2802              		.loc 1 672 53 view .LVU892
 2803 0104 1A4B     		ldr	r3, .L116+4
 2804 0106 03EBC203 		add	r3, r3, r2, lsl #3
 672:Drivers/BSP/ST7735/st7735.c **** 						(uint8_t)OrientationTab[ST7735Ctx.Orientation][1] | LCD_RGB;
 2805              		.loc 1 672 7 view .LVU893
 2806 010a 1B79     		ldrb	r3, [r3, #4]	@ zero_extendqisi2
 671:Drivers/BSP/ST7735/st7735.c **** 						(uint8_t)OrientationTab[ST7735Ctx.Orientation][1] | LCD_BGR :
 2807              		.loc 1 671 8 discriminator 1 view .LVU894
 2808 010c 43F00803 		orr	r3, r3, #8
 2809              	.L107:
 671:Drivers/BSP/ST7735/st7735.c **** 						(uint8_t)OrientationTab[ST7735Ctx.Orientation][1] | LCD_BGR :
 2810              		.loc 1 671 8 discriminator 4 view .LVU895
 2811 0110 8DF80B30 		strb	r3, [sp, #11]
 674:Drivers/BSP/ST7735/st7735.c ****       {
 2812              		.loc 1 674 7 is_stmt 1 view .LVU896
 674:Drivers/BSP/ST7735/st7735.c ****       {
 2813              		.loc 1 674 10 is_stmt 0 view .LVU897
 2814 0114 0123     		movs	r3, #1
 2815 0116 0DF10B02 		add	r2, sp, #11
 2816 011a 3621     		movs	r1, #54
 2817 011c 4046     		mov	r0, r8
 2818 011e FFF7FEFF 		bl	st7735_write_reg
 2819              	.LVL341:
 674:Drivers/BSP/ST7735/st7735.c ****       {
 2820              		.loc 1 674 9 discriminator 1 view .LVU898
 2821 0122 E8B9     		cbnz	r0, .L112
 680:Drivers/BSP/ST7735/st7735.c ****         {
 2822              		.loc 1 680 9 is_stmt 1 view .LVU899
 680:Drivers/BSP/ST7735/st7735.c ****         {
 2823              		.loc 1 680 12 is_stmt 0 view .LVU900
 2824 0124 114B     		ldr	r3, .L116
 2825 0126 5A68     		ldr	r2, [r3, #4]
 2826 0128 0092     		str	r2, [sp]
 2827 012a 1B68     		ldr	r3, [r3]
 2828 012c 0022     		movs	r2, #0
 2829 012e 1146     		mov	r1, r2
 2830 0130 3846     		mov	r0, r7
 2831 0132 FFF7FEFF 		bl	ST7735_SetDisplayWindow
 2832              	.LVL342:
 680:Drivers/BSP/ST7735/st7735.c ****         {
 2833              		.loc 1 680 11 discriminator 1 view .LVU901
 2834 0136 B0B9     		cbnz	r0, .L115
 2835              	.LVL343:
 2836              	.L100:
 689:Drivers/BSP/ST7735/st7735.c **** 
 2837              		.loc 1 689 1 view .LVU902
 2838 0138 4846     		mov	r0, r9
 2839 013a 04B0     		add	sp, sp, #16
 2840              	.LCFI31:
 2841              		.cfi_remember_state
 2842              		.cfi_def_cfa_offset 32
 2843              		@ sp needed
 2844 013c BDE8F087 		pop	{r4, r5, r6, r7, r8, r9, r10, pc}
 2845              	.LVL344:
 2846              	.L106:
 2847              	.LCFI32:
ARM GAS  /var/folders/mq/wg13gp494590nh4zyt09lxf00000gn/T//ccZMG5bD.s 			page 84


 2848              		.cfi_restore_state
 673:Drivers/BSP/ST7735/st7735.c ****       if(st7735_write_reg(&pObj->Ctx, ST7735_MADCTL, &tmp, 1) != ST7735_OK)
 2849              		.loc 1 673 40 view .LVU903
 2850 0140 0A4B     		ldr	r3, .L116
 2851 0142 9A68     		ldr	r2, [r3, #8]
 673:Drivers/BSP/ST7735/st7735.c ****       if(st7735_write_reg(&pObj->Ctx, ST7735_MADCTL, &tmp, 1) != ST7735_OK)
 2852              		.loc 1 673 53 view .LVU904
 2853 0144 0A4B     		ldr	r3, .L116+4
 2854 0146 03EBC203 		add	r3, r3, r2, lsl #3
 671:Drivers/BSP/ST7735/st7735.c **** 						(uint8_t)OrientationTab[ST7735Ctx.Orientation][1] | LCD_BGR :
 2855              		.loc 1 671 8 discriminator 2 view .LVU905
 2856 014a 1B79     		ldrb	r3, [r3, #4]	@ zero_extendqisi2
 2857 014c E0E7     		b	.L107
 2858              	.LVL345:
 2859              	.L108:
 639:Drivers/BSP/ST7735/st7735.c ****   }
 2860              		.loc 1 639 9 view .LVU906
 2861 014e 4FF0FF39 		mov	r9, #-1
 2862              	.LVL346:
 639:Drivers/BSP/ST7735/st7735.c ****   }
 2863              		.loc 1 639 9 view .LVU907
 2864 0152 F1E7     		b	.L100
 2865              	.LVL347:
 2866              	.L109:
 650:Drivers/BSP/ST7735/st7735.c ****     }/* Set Cursor */
 2867              		.loc 1 650 11 view .LVU908
 2868 0154 4FF0FF39 		mov	r9, #-1
 2869              	.LVL348:
 650:Drivers/BSP/ST7735/st7735.c ****     }/* Set Cursor */
 2870              		.loc 1 650 11 view .LVU909
 2871 0158 EEE7     		b	.L100
 2872              	.LVL349:
 2873              	.L110:
 654:Drivers/BSP/ST7735/st7735.c ****     }
 2874              		.loc 1 654 11 view .LVU910
 2875 015a 4FF0FF39 		mov	r9, #-1
 2876              	.LVL350:
 654:Drivers/BSP/ST7735/st7735.c ****     }
 2877              		.loc 1 654 11 view .LVU911
 2878 015e EBE7     		b	.L100
 2879              	.LVL351:
 2880              	.L112:
 676:Drivers/BSP/ST7735/st7735.c ****       }
 2881              		.loc 1 676 13 view .LVU912
 2882 0160 4FF0FF39 		mov	r9, #-1
 2883              	.LVL352:
 676:Drivers/BSP/ST7735/st7735.c ****       }
 2884              		.loc 1 676 13 view .LVU913
 2885 0164 E8E7     		b	.L100
 2886              	.LVL353:
 2887              	.L115:
 682:Drivers/BSP/ST7735/st7735.c ****         }
 2888              		.loc 1 682 15 view .LVU914
 2889 0166 4FF0FF39 		mov	r9, #-1
 2890              	.LVL354:
 688:Drivers/BSP/ST7735/st7735.c **** }
 2891              		.loc 1 688 3 is_stmt 1 view .LVU915
ARM GAS  /var/folders/mq/wg13gp494590nh4zyt09lxf00000gn/T//ccZMG5bD.s 			page 85


 688:Drivers/BSP/ST7735/st7735.c **** }
 2892              		.loc 1 688 10 is_stmt 0 view .LVU916
 2893 016a E5E7     		b	.L100
 2894              	.L117:
 2895              		.align	2
 2896              	.L116:
 2897 016c 00000000 		.word	ST7735Ctx
 2898 0170 00000000 		.word	OrientationTab
 2899              		.cfi_endproc
 2900              	.LFE11:
 2902              		.section	.text.ST7735_FillRGBRect,"ax",%progbits
 2903              		.align	1
 2904              		.global	ST7735_FillRGBRect
 2905              		.syntax unified
 2906              		.thumb
 2907              		.thumb_func
 2909              	ST7735_FillRGBRect:
 2910              	.LVL355:
 2911              	.LFB12:
 702:Drivers/BSP/ST7735/st7735.c ****   int32_t ret = ST7735_OK;
 2912              		.loc 1 702 1 is_stmt 1 view -0
 2913              		.cfi_startproc
 2914              		@ args = 8, pretend = 0, frame = 0
 2915              		@ frame_needed = 0, uses_anonymous_args = 0
 702:Drivers/BSP/ST7735/st7735.c ****   int32_t ret = ST7735_OK;
 2916              		.loc 1 702 1 is_stmt 0 view .LVU918
 2917 0000 2DE9F84F 		push	{r3, r4, r5, r6, r7, r8, r9, r10, fp, lr}
 2918              	.LCFI33:
 2919              		.cfi_def_cfa_offset 40
 2920              		.cfi_offset 3, -40
 2921              		.cfi_offset 4, -36
 2922              		.cfi_offset 5, -32
 2923              		.cfi_offset 6, -28
 2924              		.cfi_offset 7, -24
 2925              		.cfi_offset 8, -20
 2926              		.cfi_offset 9, -16
 2927              		.cfi_offset 10, -12
 2928              		.cfi_offset 11, -8
 2929              		.cfi_offset 14, -4
 2930 0004 9146     		mov	r9, r2
 2931 0006 1C46     		mov	r4, r3
 2932 0008 0A9E     		ldr	r6, [sp, #40]
 2933 000a DDF82CA0 		ldr	r10, [sp, #44]
 703:Drivers/BSP/ST7735/st7735.c ****   static uint8_t pdata[640];
 2934              		.loc 1 703 3 is_stmt 1 view .LVU919
 2935              	.LVL356:
 704:Drivers/BSP/ST7735/st7735.c ****   uint8_t *rgb_data = pData;
 2936              		.loc 1 704 3 view .LVU920
 705:Drivers/BSP/ST7735/st7735.c ****   uint32_t i, j;
 2937              		.loc 1 705 3 view .LVU921
 706:Drivers/BSP/ST7735/st7735.c **** 
 2938              		.loc 1 706 3 view .LVU922
 708:Drivers/BSP/ST7735/st7735.c ****   {
 2939              		.loc 1 708 3 view .LVU923
 708:Drivers/BSP/ST7735/st7735.c ****   {
 2940              		.loc 1 708 13 is_stmt 0 view .LVU924
 2941 000e 8A19     		adds	r2, r1, r6
ARM GAS  /var/folders/mq/wg13gp494590nh4zyt09lxf00000gn/T//ccZMG5bD.s 			page 86


 2942              	.LVL357:
 708:Drivers/BSP/ST7735/st7735.c ****   {
 2943              		.loc 1 708 33 view .LVU925
 2944 0010 1E4B     		ldr	r3, .L131
 2945              	.LVL358:
 708:Drivers/BSP/ST7735/st7735.c ****   {
 2946              		.loc 1 708 33 view .LVU926
 2947 0012 1B68     		ldr	r3, [r3]
 708:Drivers/BSP/ST7735/st7735.c ****   {
 2948              		.loc 1 708 5 view .LVU927
 2949 0014 9A42     		cmp	r2, r3
 2950 0016 30D8     		bhi	.L125
 2951 0018 0746     		mov	r7, r0
 2952 001a 8846     		mov	r8, r1
 708:Drivers/BSP/ST7735/st7735.c ****   {
 2953              		.loc 1 708 51 discriminator 1 view .LVU928
 2954 001c 09EB0A02 		add	r2, r9, r10
 708:Drivers/BSP/ST7735/st7735.c ****   {
 2955              		.loc 1 708 72 discriminator 1 view .LVU929
 2956 0020 1A4B     		ldr	r3, .L131
 2957 0022 5B68     		ldr	r3, [r3, #4]
 708:Drivers/BSP/ST7735/st7735.c ****   {
 2958              		.loc 1 708 41 discriminator 1 view .LVU930
 2959 0024 9A42     		cmp	r2, r3
 2960 0026 2DD8     		bhi	.L126
 714:Drivers/BSP/ST7735/st7735.c ****     {
 2961              		.loc 1 714 11 view .LVU931
 2962 0028 0025     		movs	r5, #0
 703:Drivers/BSP/ST7735/st7735.c ****   static uint8_t pdata[640];
 2963              		.loc 1 703 11 view .LVU932
 2964 002a AB46     		mov	fp, r5
 2965 002c 15E0     		b	.L120
 2966              	.LVL359:
 2967              	.L130:
 722:Drivers/BSP/ST7735/st7735.c ****         {
 2968              		.loc 1 722 15 view .LVU933
 2969 002e 0023     		movs	r3, #0
 2970 0030 09E0     		b	.L122
 2971              	.LVL360:
 2972              	.L123:
 724:Drivers/BSP/ST7735/st7735.c ****           pdata[(2U*i) + 1U] = (uint8_t)(*(rgb_data + 1));
 2973              		.loc 1 724 11 is_stmt 1 view .LVU934
 724:Drivers/BSP/ST7735/st7735.c ****           pdata[(2U*i) + 1U] = (uint8_t)(*(rgb_data + 1));
 2974              		.loc 1 724 19 is_stmt 0 view .LVU935
 2975 0032 5A00     		lsls	r2, r3, #1
 724:Drivers/BSP/ST7735/st7735.c ****           pdata[(2U*i) + 1U] = (uint8_t)(*(rgb_data + 1));
 2976              		.loc 1 724 25 view .LVU936
 2977 0034 2078     		ldrb	r0, [r4]	@ zero_extendqisi2
 724:Drivers/BSP/ST7735/st7735.c ****           pdata[(2U*i) + 1U] = (uint8_t)(*(rgb_data + 1));
 2978              		.loc 1 724 23 view .LVU937
 2979 0036 1649     		ldr	r1, .L131+4
 2980 0038 01F81300 		strb	r0, [r1, r3, lsl #1]
 725:Drivers/BSP/ST7735/st7735.c ****           rgb_data +=2;
 2981              		.loc 1 725 11 is_stmt 1 view .LVU938
 725:Drivers/BSP/ST7735/st7735.c ****           rgb_data +=2;
 2982              		.loc 1 725 24 is_stmt 0 view .LVU939
 2983 003c 0132     		adds	r2, r2, #1
ARM GAS  /var/folders/mq/wg13gp494590nh4zyt09lxf00000gn/T//ccZMG5bD.s 			page 87


 725:Drivers/BSP/ST7735/st7735.c ****           rgb_data +=2;
 2984              		.loc 1 725 32 view .LVU940
 2985 003e 6078     		ldrb	r0, [r4, #1]	@ zero_extendqisi2
 725:Drivers/BSP/ST7735/st7735.c ****           rgb_data +=2;
 2986              		.loc 1 725 30 view .LVU941
 2987 0040 8854     		strb	r0, [r1, r2]
 726:Drivers/BSP/ST7735/st7735.c ****         }
 2988              		.loc 1 726 11 is_stmt 1 view .LVU942
 726:Drivers/BSP/ST7735/st7735.c ****         }
 2989              		.loc 1 726 20 is_stmt 0 view .LVU943
 2990 0042 0234     		adds	r4, r4, #2
 2991              	.LVL361:
 722:Drivers/BSP/ST7735/st7735.c ****         {
 2992              		.loc 1 722 32 is_stmt 1 discriminator 3 view .LVU944
 2993 0044 0133     		adds	r3, r3, #1
 2994              	.LVL362:
 2995              	.L122:
 722:Drivers/BSP/ST7735/st7735.c ****         {
 2996              		.loc 1 722 22 discriminator 1 view .LVU945
 2997 0046 B342     		cmp	r3, r6
 2998 0048 F3D3     		bcc	.L123
 728:Drivers/BSP/ST7735/st7735.c ****         {
 2999              		.loc 1 728 9 view .LVU946
 728:Drivers/BSP/ST7735/st7735.c ****         {
 3000              		.loc 1 728 12 is_stmt 0 view .LVU947
 3001 004a 7200     		lsls	r2, r6, #1
 3002 004c 1049     		ldr	r1, .L131+4
 3003 004e 07F12000 		add	r0, r7, #32
 3004 0052 FFF7FEFF 		bl	st7735_send_data
 3005              	.LVL363:
 728:Drivers/BSP/ST7735/st7735.c ****         {
 3006              		.loc 1 728 11 discriminator 1 view .LVU948
 3007 0056 68B9     		cbnz	r0, .L128
 3008              	.LVL364:
 3009              	.L121:
 714:Drivers/BSP/ST7735/st7735.c ****     {
 3010              		.loc 1 714 29 is_stmt 1 discriminator 2 view .LVU949
 3011 0058 0135     		adds	r5, r5, #1
 3012              	.LVL365:
 3013              	.L120:
 714:Drivers/BSP/ST7735/st7735.c ****     {
 3014              		.loc 1 714 18 discriminator 1 view .LVU950
 3015 005a 5545     		cmp	r5, r10
 3016 005c 0FD2     		bcs	.L118
 716:Drivers/BSP/ST7735/st7735.c ****       {
 3017              		.loc 1 716 7 view .LVU951
 716:Drivers/BSP/ST7735/st7735.c ****       {
 3018              		.loc 1 716 10 is_stmt 0 view .LVU952
 3019 005e 05EB0902 		add	r2, r5, r9
 3020 0062 4146     		mov	r1, r8
 3021 0064 3846     		mov	r0, r7
 3022 0066 FFF7FEFF 		bl	ST7735_SetCursor
 3023              	.LVL366:
 716:Drivers/BSP/ST7735/st7735.c ****       {
 3024              		.loc 1 716 9 discriminator 1 view .LVU953
 3025 006a 0028     		cmp	r0, #0
 3026 006c DFD0     		beq	.L130
ARM GAS  /var/folders/mq/wg13gp494590nh4zyt09lxf00000gn/T//ccZMG5bD.s 			page 88


 718:Drivers/BSP/ST7735/st7735.c ****       }
 3027              		.loc 1 718 13 view .LVU954
 3028 006e 4FF0FF3B 		mov	fp, #-1
 3029              	.LVL367:
 718:Drivers/BSP/ST7735/st7735.c ****       }
 3030              		.loc 1 718 13 view .LVU955
 3031 0072 F1E7     		b	.L121
 3032              	.LVL368:
 3033              	.L128:
 730:Drivers/BSP/ST7735/st7735.c ****         }
 3034              		.loc 1 730 15 view .LVU956
 3035 0074 4FF0FF3B 		mov	fp, #-1
 3036              	.LVL369:
 730:Drivers/BSP/ST7735/st7735.c ****         }
 3037              		.loc 1 730 15 view .LVU957
 3038 0078 EEE7     		b	.L121
 3039              	.LVL370:
 3040              	.L125:
 710:Drivers/BSP/ST7735/st7735.c ****   }/* Set Cursor */
 3041              		.loc 1 710 9 view .LVU958
 3042 007a 4FF0FF3B 		mov	fp, #-1
 3043              	.LVL371:
 3044              	.L118:
 737:Drivers/BSP/ST7735/st7735.c **** 
 3045              		.loc 1 737 1 view .LVU959
 3046 007e 5846     		mov	r0, fp
 3047 0080 BDE8F88F 		pop	{r3, r4, r5, r6, r7, r8, r9, r10, fp, pc}
 3048              	.LVL372:
 3049              	.L126:
 710:Drivers/BSP/ST7735/st7735.c ****   }/* Set Cursor */
 3050              		.loc 1 710 9 view .LVU960
 3051 0084 4FF0FF3B 		mov	fp, #-1
 3052              	.LVL373:
 736:Drivers/BSP/ST7735/st7735.c **** }
 3053              		.loc 1 736 3 is_stmt 1 view .LVU961
 736:Drivers/BSP/ST7735/st7735.c **** }
 3054              		.loc 1 736 10 is_stmt 0 view .LVU962
 3055 0088 F9E7     		b	.L118
 3056              	.L132:
 3057 008a 00BF     		.align	2
 3058              	.L131:
 3059 008c 00000000 		.word	ST7735Ctx
 3060 0090 00000000 		.word	pdata.1
 3061              		.cfi_endproc
 3062              	.LFE12:
 3064              		.section	.text.ST7735_DrawHLine,"ax",%progbits
 3065              		.align	1
 3066              		.global	ST7735_DrawHLine
 3067              		.syntax unified
 3068              		.thumb
 3069              		.thumb_func
 3071              	ST7735_DrawHLine:
 3072              	.LVL374:
 3073              	.LFB13:
 749:Drivers/BSP/ST7735/st7735.c ****   int32_t ret = ST7735_OK;
 3074              		.loc 1 749 1 is_stmt 1 view -0
 3075              		.cfi_startproc
ARM GAS  /var/folders/mq/wg13gp494590nh4zyt09lxf00000gn/T//ccZMG5bD.s 			page 89


 3076              		@ args = 4, pretend = 0, frame = 0
 3077              		@ frame_needed = 0, uses_anonymous_args = 0
 749:Drivers/BSP/ST7735/st7735.c ****   int32_t ret = ST7735_OK;
 3078              		.loc 1 749 1 is_stmt 0 view .LVU964
 3079 0000 F8B5     		push	{r3, r4, r5, r6, r7, lr}
 3080              	.LCFI34:
 3081              		.cfi_def_cfa_offset 24
 3082              		.cfi_offset 3, -24
 3083              		.cfi_offset 4, -20
 3084              		.cfi_offset 5, -16
 3085              		.cfi_offset 6, -12
 3086              		.cfi_offset 7, -8
 3087              		.cfi_offset 14, -4
 3088 0002 0746     		mov	r7, r0
 3089 0004 1E46     		mov	r6, r3
 3090 0006 069D     		ldr	r5, [sp, #24]
 750:Drivers/BSP/ST7735/st7735.c ****   uint32_t i;
 3091              		.loc 1 750 3 is_stmt 1 view .LVU965
 3092              	.LVL375:
 751:Drivers/BSP/ST7735/st7735.c ****   static uint8_t pdata[640];
 3093              		.loc 1 751 3 view .LVU966
 752:Drivers/BSP/ST7735/st7735.c **** 	
 3094              		.loc 1 752 3 view .LVU967
 754:Drivers/BSP/ST7735/st7735.c ****   {
 3095              		.loc 1 754 3 view .LVU968
 754:Drivers/BSP/ST7735/st7735.c ****   {
 3096              		.loc 1 754 12 is_stmt 0 view .LVU969
 3097 0008 C818     		adds	r0, r1, r3
 3098              	.LVL376:
 754:Drivers/BSP/ST7735/st7735.c ****   {
 3099              		.loc 1 754 33 view .LVU970
 3100 000a 134B     		ldr	r3, .L142
 3101              	.LVL377:
 754:Drivers/BSP/ST7735/st7735.c ****   {
 3102              		.loc 1 754 33 view .LVU971
 3103 000c 1B68     		ldr	r3, [r3]
 754:Drivers/BSP/ST7735/st7735.c ****   {
 3104              		.loc 1 754 5 view .LVU972
 3105 000e 9842     		cmp	r0, r3
 3106 0010 18D8     		bhi	.L137
 758:Drivers/BSP/ST7735/st7735.c ****   {
 3107              		.loc 1 758 8 is_stmt 1 view .LVU973
 758:Drivers/BSP/ST7735/st7735.c ****   {
 3108              		.loc 1 758 11 is_stmt 0 view .LVU974
 3109 0012 3846     		mov	r0, r7
 3110 0014 FFF7FEFF 		bl	ST7735_SetCursor
 3111              	.LVL378:
 758:Drivers/BSP/ST7735/st7735.c ****   {
 3112              		.loc 1 758 10 discriminator 1 view .LVU975
 3113 0018 B8B9     		cbnz	r0, .L138
 764:Drivers/BSP/ST7735/st7735.c ****     {
 3114              		.loc 1 764 11 view .LVU976
 3115 001a 0022     		movs	r2, #0
 3116 001c 08E0     		b	.L135
 3117              	.LVL379:
 3118              	.L136:
 767:Drivers/BSP/ST7735/st7735.c ****       pdata[(2U*i) + 1U] = (uint8_t)(Color);
ARM GAS  /var/folders/mq/wg13gp494590nh4zyt09lxf00000gn/T//ccZMG5bD.s 			page 90


 3119              		.loc 1 767 7 is_stmt 1 view .LVU977
 767:Drivers/BSP/ST7735/st7735.c ****       pdata[(2U*i) + 1U] = (uint8_t)(Color);
 3120              		.loc 1 767 15 is_stmt 0 view .LVU978
 3121 001e 5100     		lsls	r1, r2, #1
 767:Drivers/BSP/ST7735/st7735.c ****       pdata[(2U*i) + 1U] = (uint8_t)(Color);
 3122              		.loc 1 767 21 view .LVU979
 3123 0020 C5F3072C 		ubfx	ip, r5, #8, #8
 767:Drivers/BSP/ST7735/st7735.c ****       pdata[(2U*i) + 1U] = (uint8_t)(Color);
 3124              		.loc 1 767 19 view .LVU980
 3125 0024 0D4C     		ldr	r4, .L142+4
 3126 0026 04F812C0 		strb	ip, [r4, r2, lsl #1]
 768:Drivers/BSP/ST7735/st7735.c **** 			
 3127              		.loc 1 768 7 is_stmt 1 view .LVU981
 768:Drivers/BSP/ST7735/st7735.c **** 			
 3128              		.loc 1 768 20 is_stmt 0 view .LVU982
 3129 002a 0131     		adds	r1, r1, #1
 768:Drivers/BSP/ST7735/st7735.c **** 			
 3130              		.loc 1 768 26 view .LVU983
 3131 002c 6554     		strb	r5, [r4, r1]
 764:Drivers/BSP/ST7735/st7735.c ****     {
 3132              		.loc 1 764 29 is_stmt 1 discriminator 3 view .LVU984
 3133 002e 0132     		adds	r2, r2, #1
 3134              	.LVL380:
 3135              	.L135:
 764:Drivers/BSP/ST7735/st7735.c ****     {
 3136              		.loc 1 764 18 discriminator 1 view .LVU985
 3137 0030 B242     		cmp	r2, r6
 3138 0032 F4D3     		bcc	.L136
 773:Drivers/BSP/ST7735/st7735.c ****     {
 3139              		.loc 1 773 5 view .LVU986
 773:Drivers/BSP/ST7735/st7735.c ****     {
 3140              		.loc 1 773 8 is_stmt 0 view .LVU987
 3141 0034 7200     		lsls	r2, r6, #1
 3142              	.LVL381:
 773:Drivers/BSP/ST7735/st7735.c ****     {
 3143              		.loc 1 773 8 view .LVU988
 3144 0036 0949     		ldr	r1, .L142+4
 3145 0038 07F12000 		add	r0, r7, #32
 3146 003c FFF7FEFF 		bl	st7735_send_data
 3147              	.LVL382:
 773:Drivers/BSP/ST7735/st7735.c ****     {
 3148              		.loc 1 773 7 discriminator 1 view .LVU989
 3149 0040 30B9     		cbnz	r0, .L141
 3150              	.LVL383:
 3151              	.L133:
 780:Drivers/BSP/ST7735/st7735.c **** 
 3152              		.loc 1 780 1 view .LVU990
 3153 0042 F8BD     		pop	{r3, r4, r5, r6, r7, pc}
 3154              	.LVL384:
 3155              	.L137:
 756:Drivers/BSP/ST7735/st7735.c ****   }/* Set Cursor */
 3156              		.loc 1 756 9 view .LVU991
 3157 0044 4FF0FF30 		mov	r0, #-1
 3158 0048 FBE7     		b	.L133
 3159              	.LVL385:
 3160              	.L138:
 760:Drivers/BSP/ST7735/st7735.c ****   }
ARM GAS  /var/folders/mq/wg13gp494590nh4zyt09lxf00000gn/T//ccZMG5bD.s 			page 91


 3161              		.loc 1 760 9 view .LVU992
 3162 004a 4FF0FF30 		mov	r0, #-1
 3163 004e F8E7     		b	.L133
 3164              	.LVL386:
 3165              	.L141:
 775:Drivers/BSP/ST7735/st7735.c ****     }
 3166              		.loc 1 775 11 view .LVU993
 3167 0050 4FF0FF30 		mov	r0, #-1
 3168              	.LVL387:
 779:Drivers/BSP/ST7735/st7735.c **** }
 3169              		.loc 1 779 3 is_stmt 1 view .LVU994
 779:Drivers/BSP/ST7735/st7735.c **** }
 3170              		.loc 1 779 10 is_stmt 0 view .LVU995
 3171 0054 F5E7     		b	.L133
 3172              	.L143:
 3173 0056 00BF     		.align	2
 3174              	.L142:
 3175 0058 00000000 		.word	ST7735Ctx
 3176 005c 00000000 		.word	pdata.0
 3177              		.cfi_endproc
 3178              	.LFE13:
 3180              		.section	.text.ST7735_FillRect,"ax",%progbits
 3181              		.align	1
 3182              		.global	ST7735_FillRect
 3183              		.syntax unified
 3184              		.thumb
 3185              		.thumb_func
 3187              	ST7735_FillRect:
 3188              	.LVL388:
 3189              	.LFB15:
 826:Drivers/BSP/ST7735/st7735.c ****   int32_t ret = ST7735_OK;
 3190              		.loc 1 826 1 is_stmt 1 view -0
 3191              		.cfi_startproc
 3192              		@ args = 8, pretend = 0, frame = 0
 3193              		@ frame_needed = 0, uses_anonymous_args = 0
 826:Drivers/BSP/ST7735/st7735.c ****   int32_t ret = ST7735_OK;
 3194              		.loc 1 826 1 is_stmt 0 view .LVU997
 3195 0000 2DE9F047 		push	{r4, r5, r6, r7, r8, r9, r10, lr}
 3196              	.LCFI35:
 3197              		.cfi_def_cfa_offset 32
 3198              		.cfi_offset 4, -32
 3199              		.cfi_offset 5, -28
 3200              		.cfi_offset 6, -24
 3201              		.cfi_offset 7, -20
 3202              		.cfi_offset 8, -16
 3203              		.cfi_offset 9, -12
 3204              		.cfi_offset 10, -8
 3205              		.cfi_offset 14, -4
 3206 0004 82B0     		sub	sp, sp, #8
 3207              	.LCFI36:
 3208              		.cfi_def_cfa_offset 40
 3209 0006 8046     		mov	r8, r0
 3210 0008 0F46     		mov	r7, r1
 3211 000a 1446     		mov	r4, r2
 3212 000c 1E46     		mov	r6, r3
 3213 000e DDF82890 		ldr	r9, [sp, #40]
 3214 0012 DDF82CA0 		ldr	r10, [sp, #44]
ARM GAS  /var/folders/mq/wg13gp494590nh4zyt09lxf00000gn/T//ccZMG5bD.s 			page 92


 827:Drivers/BSP/ST7735/st7735.c ****   uint32_t i, y_pos = Ypos;
 3215              		.loc 1 827 3 is_stmt 1 view .LVU998
 3216              	.LVL389:
 828:Drivers/BSP/ST7735/st7735.c **** 
 3217              		.loc 1 828 3 view .LVU999
 830:Drivers/BSP/ST7735/st7735.c ****   {
 3218              		.loc 1 830 3 view .LVU1000
 830:Drivers/BSP/ST7735/st7735.c ****   {
 3219              		.loc 1 830 9 is_stmt 0 view .LVU1001
 3220 0016 0025     		movs	r5, #0
 830:Drivers/BSP/ST7735/st7735.c ****   {
 3221              		.loc 1 830 3 view .LVU1002
 3222 0018 01E0     		b	.L145
 3223              	.LVL390:
 3224              	.L151:
 837:Drivers/BSP/ST7735/st7735.c ****   }
 3225              		.loc 1 837 5 is_stmt 1 view .LVU1003
 837:Drivers/BSP/ST7735/st7735.c ****   }
 3226              		.loc 1 837 10 is_stmt 0 view .LVU1004
 3227 001a 0134     		adds	r4, r4, #1
 3228              	.LVL391:
 830:Drivers/BSP/ST7735/st7735.c ****   {
 3229              		.loc 1 830 27 is_stmt 1 discriminator 2 view .LVU1005
 3230 001c 0135     		adds	r5, r5, #1
 3231              	.LVL392:
 3232              	.L145:
 830:Drivers/BSP/ST7735/st7735.c ****   {
 3233              		.loc 1 830 16 discriminator 1 view .LVU1006
 3234 001e 4D45     		cmp	r5, r9
 3235 0020 0CD2     		bcs	.L150
 832:Drivers/BSP/ST7735/st7735.c ****     {
 3236              		.loc 1 832 5 view .LVU1007
 832:Drivers/BSP/ST7735/st7735.c ****     {
 3237              		.loc 1 832 8 is_stmt 0 view .LVU1008
 3238 0022 CDF800A0 		str	r10, [sp]
 3239 0026 3346     		mov	r3, r6
 3240 0028 2246     		mov	r2, r4
 3241 002a 3946     		mov	r1, r7
 3242 002c 4046     		mov	r0, r8
 3243 002e FFF7FEFF 		bl	ST7735_DrawHLine
 3244              	.LVL393:
 832:Drivers/BSP/ST7735/st7735.c ****     {
 3245              		.loc 1 832 7 discriminator 1 view .LVU1009
 3246 0032 0028     		cmp	r0, #0
 3247 0034 F1D0     		beq	.L151
 834:Drivers/BSP/ST7735/st7735.c ****       break;
 3248              		.loc 1 834 11 view .LVU1010
 3249 0036 4FF0FF30 		mov	r0, #-1
 3250              	.LVL394:
 840:Drivers/BSP/ST7735/st7735.c **** }
 3251              		.loc 1 840 3 is_stmt 1 view .LVU1011
 840:Drivers/BSP/ST7735/st7735.c **** }
 3252              		.loc 1 840 10 is_stmt 0 view .LVU1012
 3253 003a 00E0     		b	.L144
 3254              	.LVL395:
 3255              	.L150:
 827:Drivers/BSP/ST7735/st7735.c ****   uint32_t i, y_pos = Ypos;
ARM GAS  /var/folders/mq/wg13gp494590nh4zyt09lxf00000gn/T//ccZMG5bD.s 			page 93


 3256              		.loc 1 827 11 view .LVU1013
 3257 003c 0020     		movs	r0, #0
 3258              	.LVL396:
 3259              	.L144:
 841:Drivers/BSP/ST7735/st7735.c **** 
 3260              		.loc 1 841 1 view .LVU1014
 3261 003e 02B0     		add	sp, sp, #8
 3262              	.LCFI37:
 3263              		.cfi_def_cfa_offset 32
 3264              		@ sp needed
 3265 0040 BDE8F087 		pop	{r4, r5, r6, r7, r8, r9, r10, pc}
 841:Drivers/BSP/ST7735/st7735.c **** 
 3266              		.loc 1 841 1 view .LVU1015
 3267              		.cfi_endproc
 3268              	.LFE15:
 3270              		.section	.text.ST7735_SetPixel,"ax",%progbits
 3271              		.align	1
 3272              		.global	ST7735_SetPixel
 3273              		.syntax unified
 3274              		.thumb
 3275              		.thumb_func
 3277              	ST7735_SetPixel:
 3278              	.LVL397:
 3279              	.LFB16:
 852:Drivers/BSP/ST7735/st7735.c ****   int32_t ret = ST7735_OK;
 3280              		.loc 1 852 1 is_stmt 1 view -0
 3281              		.cfi_startproc
 3282              		@ args = 0, pretend = 0, frame = 8
 3283              		@ frame_needed = 0, uses_anonymous_args = 0
 852:Drivers/BSP/ST7735/st7735.c ****   int32_t ret = ST7735_OK;
 3284              		.loc 1 852 1 is_stmt 0 view .LVU1017
 3285 0000 10B5     		push	{r4, lr}
 3286              	.LCFI38:
 3287              		.cfi_def_cfa_offset 8
 3288              		.cfi_offset 4, -8
 3289              		.cfi_offset 14, -4
 3290 0002 82B0     		sub	sp, sp, #8
 3291              	.LCFI39:
 3292              		.cfi_def_cfa_offset 16
 853:Drivers/BSP/ST7735/st7735.c ****   uint16_t color;
 3293              		.loc 1 853 3 is_stmt 1 view .LVU1018
 3294              	.LVL398:
 854:Drivers/BSP/ST7735/st7735.c **** 
 3295              		.loc 1 854 3 view .LVU1019
 857:Drivers/BSP/ST7735/st7735.c ****   color |= (uint16_t)((uint16_t)(Color >> 8));
 3296              		.loc 1 857 3 view .LVU1020
 857:Drivers/BSP/ST7735/st7735.c ****   color |= (uint16_t)((uint16_t)(Color >> 8));
 3297              		.loc 1 857 22 is_stmt 0 view .LVU1021
 3298 0004 1FFA83FC 		uxth	ip, r3
 857:Drivers/BSP/ST7735/st7735.c ****   color |= (uint16_t)((uint16_t)(Color >> 8));
 3299              		.loc 1 857 11 view .LVU1022
 3300 0008 4FEA0C2C 		lsl	ip, ip, #8
 3301 000c 1FFA8CFC 		uxth	ip, ip
 857:Drivers/BSP/ST7735/st7735.c ****   color |= (uint16_t)((uint16_t)(Color >> 8));
 3302              		.loc 1 857 9 view .LVU1023
 3303 0010 ADF806C0 		strh	ip, [sp, #6]	@ movhi
 858:Drivers/BSP/ST7735/st7735.c **** 
ARM GAS  /var/folders/mq/wg13gp494590nh4zyt09lxf00000gn/T//ccZMG5bD.s 			page 94


 3304              		.loc 1 858 3 is_stmt 1 view .LVU1024
 858:Drivers/BSP/ST7735/st7735.c **** 
 3305              		.loc 1 858 12 is_stmt 0 view .LVU1025
 3306 0014 C3F30F23 		ubfx	r3, r3, #8, #16
 3307              	.LVL399:
 858:Drivers/BSP/ST7735/st7735.c **** 
 3308              		.loc 1 858 9 view .LVU1026
 3309 0018 4CEA030C 		orr	ip, ip, r3
 3310 001c ADF806C0 		strh	ip, [sp, #6]	@ movhi
 860:Drivers/BSP/ST7735/st7735.c ****   {
 3311              		.loc 1 860 3 is_stmt 1 view .LVU1027
 860:Drivers/BSP/ST7735/st7735.c ****   {
 3312              		.loc 1 860 24 is_stmt 0 view .LVU1028
 3313 0020 104B     		ldr	r3, .L160
 3314 0022 1B68     		ldr	r3, [r3]
 860:Drivers/BSP/ST7735/st7735.c ****   {
 3315              		.loc 1 860 5 view .LVU1029
 3316 0024 8B42     		cmp	r3, r1
 3317 0026 11D9     		bls	.L154
 3318 0028 0446     		mov	r4, r0
 860:Drivers/BSP/ST7735/st7735.c ****   {
 3319              		.loc 1 860 53 discriminator 1 view .LVU1030
 3320 002a 0E4B     		ldr	r3, .L160
 3321 002c 5B68     		ldr	r3, [r3, #4]
 860:Drivers/BSP/ST7735/st7735.c ****   {
 3322              		.loc 1 860 32 discriminator 1 view .LVU1031
 3323 002e 9342     		cmp	r3, r2
 3324 0030 0FD9     		bls	.L155
 864:Drivers/BSP/ST7735/st7735.c ****   {
 3325              		.loc 1 864 8 is_stmt 1 view .LVU1032
 864:Drivers/BSP/ST7735/st7735.c ****   {
 3326              		.loc 1 864 11 is_stmt 0 view .LVU1033
 3327 0032 FFF7FEFF 		bl	ST7735_SetCursor
 3328              	.LVL400:
 864:Drivers/BSP/ST7735/st7735.c ****   {
 3329              		.loc 1 864 10 discriminator 1 view .LVU1034
 3330 0036 78B9     		cbnz	r0, .L156
 871:Drivers/BSP/ST7735/st7735.c ****     {
 3331              		.loc 1 871 5 is_stmt 1 view .LVU1035
 871:Drivers/BSP/ST7735/st7735.c ****     {
 3332              		.loc 1 871 8 is_stmt 0 view .LVU1036
 3333 0038 0222     		movs	r2, #2
 3334 003a 0DF10601 		add	r1, sp, #6
 3335 003e 04F12000 		add	r0, r4, #32
 3336 0042 FFF7FEFF 		bl	st7735_send_data
 3337              	.LVL401:
 871:Drivers/BSP/ST7735/st7735.c ****     {
 3338              		.loc 1 871 7 discriminator 1 view .LVU1037
 3339 0046 50B9     		cbnz	r0, .L159
 3340              	.LVL402:
 3341              	.L152:
 878:Drivers/BSP/ST7735/st7735.c **** 
 3342              		.loc 1 878 1 view .LVU1038
 3343 0048 02B0     		add	sp, sp, #8
 3344              	.LCFI40:
 3345              		.cfi_remember_state
 3346              		.cfi_def_cfa_offset 8
ARM GAS  /var/folders/mq/wg13gp494590nh4zyt09lxf00000gn/T//ccZMG5bD.s 			page 95


 3347              		@ sp needed
 3348 004a 10BD     		pop	{r4, pc}
 3349              	.LVL403:
 3350              	.L154:
 3351              	.LCFI41:
 3352              		.cfi_restore_state
 862:Drivers/BSP/ST7735/st7735.c ****   }/* Set Cursor */
 3353              		.loc 1 862 9 view .LVU1039
 3354 004c 4FF0FF30 		mov	r0, #-1
 3355              	.LVL404:
 862:Drivers/BSP/ST7735/st7735.c ****   }/* Set Cursor */
 3356              		.loc 1 862 9 view .LVU1040
 3357 0050 FAE7     		b	.L152
 3358              	.LVL405:
 3359              	.L155:
 862:Drivers/BSP/ST7735/st7735.c ****   }/* Set Cursor */
 3360              		.loc 1 862 9 view .LVU1041
 3361 0052 4FF0FF30 		mov	r0, #-1
 3362              	.LVL406:
 862:Drivers/BSP/ST7735/st7735.c ****   }/* Set Cursor */
 3363              		.loc 1 862 9 view .LVU1042
 3364 0056 F7E7     		b	.L152
 3365              	.LVL407:
 3366              	.L156:
 866:Drivers/BSP/ST7735/st7735.c ****   }
 3367              		.loc 1 866 9 view .LVU1043
 3368 0058 4FF0FF30 		mov	r0, #-1
 3369 005c F4E7     		b	.L152
 3370              	.L159:
 873:Drivers/BSP/ST7735/st7735.c ****     }
 3371              		.loc 1 873 11 view .LVU1044
 3372 005e 4FF0FF30 		mov	r0, #-1
 3373              	.LVL408:
 877:Drivers/BSP/ST7735/st7735.c **** }
 3374              		.loc 1 877 3 is_stmt 1 view .LVU1045
 877:Drivers/BSP/ST7735/st7735.c **** }
 3375              		.loc 1 877 10 is_stmt 0 view .LVU1046
 3376 0062 F1E7     		b	.L152
 3377              	.L161:
 3378              		.align	2
 3379              	.L160:
 3380 0064 00000000 		.word	ST7735Ctx
 3381              		.cfi_endproc
 3382              	.LFE16:
 3384              		.section	.text.ST7735_DrawVLine,"ax",%progbits
 3385              		.align	1
 3386              		.global	ST7735_DrawVLine
 3387              		.syntax unified
 3388              		.thumb
 3389              		.thumb_func
 3391              	ST7735_DrawVLine:
 3392              	.LVL409:
 3393              	.LFB14:
 792:Drivers/BSP/ST7735/st7735.c ****   int32_t ret = ST7735_OK;
 3394              		.loc 1 792 1 is_stmt 1 view -0
 3395              		.cfi_startproc
 3396              		@ args = 4, pretend = 0, frame = 0
ARM GAS  /var/folders/mq/wg13gp494590nh4zyt09lxf00000gn/T//ccZMG5bD.s 			page 96


 3397              		@ frame_needed = 0, uses_anonymous_args = 0
 792:Drivers/BSP/ST7735/st7735.c ****   int32_t ret = ST7735_OK;
 3398              		.loc 1 792 1 is_stmt 0 view .LVU1048
 3399 0000 2DE9F843 		push	{r3, r4, r5, r6, r7, r8, r9, lr}
 3400              	.LCFI42:
 3401              		.cfi_def_cfa_offset 32
 3402              		.cfi_offset 3, -32
 3403              		.cfi_offset 4, -28
 3404              		.cfi_offset 5, -24
 3405              		.cfi_offset 6, -20
 3406              		.cfi_offset 7, -16
 3407              		.cfi_offset 8, -12
 3408              		.cfi_offset 9, -8
 3409              		.cfi_offset 14, -4
 3410 0004 1646     		mov	r6, r2
 3411 0006 1D46     		mov	r5, r3
 3412 0008 DDF82090 		ldr	r9, [sp, #32]
 793:Drivers/BSP/ST7735/st7735.c ****   uint32_t counter;
 3413              		.loc 1 793 3 is_stmt 1 view .LVU1049
 3414              	.LVL410:
 794:Drivers/BSP/ST7735/st7735.c **** 
 3415              		.loc 1 794 3 view .LVU1050
 796:Drivers/BSP/ST7735/st7735.c ****   {
 3416              		.loc 1 796 3 view .LVU1051
 796:Drivers/BSP/ST7735/st7735.c ****   {
 3417              		.loc 1 796 12 is_stmt 0 view .LVU1052
 3418 000c 1A44     		add	r2, r2, r3
 3419              	.LVL411:
 796:Drivers/BSP/ST7735/st7735.c ****   {
 3420              		.loc 1 796 33 view .LVU1053
 3421 000e 0D4B     		ldr	r3, .L170
 3422              	.LVL412:
 796:Drivers/BSP/ST7735/st7735.c ****   {
 3423              		.loc 1 796 33 view .LVU1054
 3424 0010 5B68     		ldr	r3, [r3, #4]
 796:Drivers/BSP/ST7735/st7735.c ****   {
 3425              		.loc 1 796 5 view .LVU1055
 3426 0012 9A42     		cmp	r2, r3
 3427 0014 10D8     		bhi	.L166
 3428 0016 0746     		mov	r7, r0
 3429 0018 8846     		mov	r8, r1
 802:Drivers/BSP/ST7735/st7735.c ****     {
 3430              		.loc 1 802 17 view .LVU1056
 3431 001a 0024     		movs	r4, #0
 3432              	.LVL413:
 3433              	.L164:
 802:Drivers/BSP/ST7735/st7735.c ****     {
 3434              		.loc 1 802 30 is_stmt 1 discriminator 1 view .LVU1057
 3435 001c AC42     		cmp	r4, r5
 3436 001e 08D2     		bcs	.L169
 804:Drivers/BSP/ST7735/st7735.c ****       {
 3437              		.loc 1 804 7 view .LVU1058
 804:Drivers/BSP/ST7735/st7735.c ****       {
 3438              		.loc 1 804 10 is_stmt 0 view .LVU1059
 3439 0020 4B46     		mov	r3, r9
 3440 0022 A219     		adds	r2, r4, r6
 3441 0024 4146     		mov	r1, r8
ARM GAS  /var/folders/mq/wg13gp494590nh4zyt09lxf00000gn/T//ccZMG5bD.s 			page 97


 3442 0026 3846     		mov	r0, r7
 3443 0028 FFF7FEFF 		bl	ST7735_SetPixel
 3444              	.LVL414:
 804:Drivers/BSP/ST7735/st7735.c ****       {
 3445              		.loc 1 804 9 discriminator 1 view .LVU1060
 3446 002c 38B9     		cbnz	r0, .L167
 802:Drivers/BSP/ST7735/st7735.c ****     {
 3447              		.loc 1 802 47 is_stmt 1 discriminator 2 view .LVU1061
 3448 002e 0134     		adds	r4, r4, #1
 3449              	.LVL415:
 802:Drivers/BSP/ST7735/st7735.c ****     {
 3450              		.loc 1 802 47 is_stmt 0 discriminator 2 view .LVU1062
 3451 0030 F4E7     		b	.L164
 3452              	.L169:
 793:Drivers/BSP/ST7735/st7735.c ****   uint32_t counter;
 3453              		.loc 1 793 11 view .LVU1063
 3454 0032 0020     		movs	r0, #0
 3455              	.LVL416:
 3456              	.L162:
 813:Drivers/BSP/ST7735/st7735.c **** 
 3457              		.loc 1 813 1 view .LVU1064
 3458 0034 BDE8F883 		pop	{r3, r4, r5, r6, r7, r8, r9, pc}
 3459              	.LVL417:
 3460              	.L166:
 798:Drivers/BSP/ST7735/st7735.c ****   }
 3461              		.loc 1 798 9 view .LVU1065
 3462 0038 4FF0FF30 		mov	r0, #-1
 3463              	.LVL418:
 798:Drivers/BSP/ST7735/st7735.c ****   }
 3464              		.loc 1 798 9 view .LVU1066
 3465 003c FAE7     		b	.L162
 3466              	.LVL419:
 3467              	.L167:
 806:Drivers/BSP/ST7735/st7735.c ****         break;
 3468              		.loc 1 806 13 view .LVU1067
 3469 003e 4FF0FF30 		mov	r0, #-1
 3470              	.LVL420:
 812:Drivers/BSP/ST7735/st7735.c **** }
 3471              		.loc 1 812 3 is_stmt 1 view .LVU1068
 812:Drivers/BSP/ST7735/st7735.c **** }
 3472              		.loc 1 812 10 is_stmt 0 view .LVU1069
 3473 0042 F7E7     		b	.L162
 3474              	.L171:
 3475              		.align	2
 3476              	.L170:
 3477 0044 00000000 		.word	ST7735Ctx
 3478              		.cfi_endproc
 3479              	.LFE14:
 3481              		.section	.text.ST7735_ReadID,"ax",%progbits
 3482              		.align	1
 3483              		.global	ST7735_ReadID
 3484              		.syntax unified
 3485              		.thumb
 3486              		.thumb_func
 3488              	ST7735_ReadID:
 3489              	.LVL421:
 3490              	.LFB3:
ARM GAS  /var/folders/mq/wg13gp494590nh4zyt09lxf00000gn/T//ccZMG5bD.s 			page 98


 354:Drivers/BSP/ST7735/st7735.c ****   int32_t ret;
 3491              		.loc 1 354 1 is_stmt 1 view -0
 3492              		.cfi_startproc
 3493              		@ args = 0, pretend = 0, frame = 8
 3494              		@ frame_needed = 0, uses_anonymous_args = 0
 354:Drivers/BSP/ST7735/st7735.c ****   int32_t ret;
 3495              		.loc 1 354 1 is_stmt 0 view .LVU1071
 3496 0000 30B5     		push	{r4, r5, lr}
 3497              	.LCFI43:
 3498              		.cfi_def_cfa_offset 12
 3499              		.cfi_offset 4, -12
 3500              		.cfi_offset 5, -8
 3501              		.cfi_offset 14, -4
 3502 0002 83B0     		sub	sp, sp, #12
 3503              	.LCFI44:
 3504              		.cfi_def_cfa_offset 24
 3505 0004 0D46     		mov	r5, r1
 355:Drivers/BSP/ST7735/st7735.c ****   uint8_t tmp[3];
 3506              		.loc 1 355 3 is_stmt 1 view .LVU1072
 356:Drivers/BSP/ST7735/st7735.c **** 
 3507              		.loc 1 356 3 view .LVU1073
 358:Drivers/BSP/ST7735/st7735.c ****   {
 3508              		.loc 1 358 3 view .LVU1074
 358:Drivers/BSP/ST7735/st7735.c ****   {
 3509              		.loc 1 358 6 is_stmt 0 view .LVU1075
 3510 0006 00F12004 		add	r4, r0, #32
 3511 000a 01AA     		add	r2, sp, #4
 3512 000c DA21     		movs	r1, #218
 3513              	.LVL422:
 358:Drivers/BSP/ST7735/st7735.c ****   {
 3514              		.loc 1 358 6 view .LVU1076
 3515 000e 2046     		mov	r0, r4
 3516              	.LVL423:
 358:Drivers/BSP/ST7735/st7735.c ****   {
 3517              		.loc 1 358 6 view .LVU1077
 3518 0010 FFF7FEFF 		bl	st7735_read_reg
 3519              	.LVL424:
 358:Drivers/BSP/ST7735/st7735.c ****   {
 3520              		.loc 1 358 5 discriminator 1 view .LVU1078
 3521 0014 D0B9     		cbnz	r0, .L174
 362:Drivers/BSP/ST7735/st7735.c ****   {
 3522              		.loc 1 362 8 is_stmt 1 view .LVU1079
 362:Drivers/BSP/ST7735/st7735.c ****   {
 3523              		.loc 1 362 11 is_stmt 0 view .LVU1080
 3524 0016 0DF10502 		add	r2, sp, #5
 3525 001a DB21     		movs	r1, #219
 3526 001c 2046     		mov	r0, r4
 3527 001e FFF7FEFF 		bl	st7735_read_reg
 3528              	.LVL425:
 362:Drivers/BSP/ST7735/st7735.c ****   {
 3529              		.loc 1 362 10 discriminator 1 view .LVU1081
 3530 0022 B0B9     		cbnz	r0, .L175
 366:Drivers/BSP/ST7735/st7735.c ****   {
 3531              		.loc 1 366 7 is_stmt 1 view .LVU1082
 366:Drivers/BSP/ST7735/st7735.c ****   {
 3532              		.loc 1 366 10 is_stmt 0 view .LVU1083
 3533 0024 0DF10602 		add	r2, sp, #6
ARM GAS  /var/folders/mq/wg13gp494590nh4zyt09lxf00000gn/T//ccZMG5bD.s 			page 99


 3534 0028 DC21     		movs	r1, #220
 3535 002a 2046     		mov	r0, r4
 3536 002c FFF7FEFF 		bl	st7735_read_reg
 3537              	.LVL426:
 366:Drivers/BSP/ST7735/st7735.c ****   {
 3538              		.loc 1 366 9 discriminator 1 view .LVU1084
 3539 0030 90B9     		cbnz	r0, .L176
 373:Drivers/BSP/ST7735/st7735.c **** 		//*Id = __rbit(*Id);
 3540              		.loc 1 373 5 is_stmt 1 view .LVU1085
 373:Drivers/BSP/ST7735/st7735.c **** 		//*Id = __rbit(*Id);
 3541              		.loc 1 373 25 is_stmt 0 view .LVU1086
 3542 0032 9DF80630 		ldrb	r3, [sp, #6]	@ zero_extendqisi2
 373:Drivers/BSP/ST7735/st7735.c **** 		//*Id = __rbit(*Id);
 3543              		.loc 1 373 48 view .LVU1087
 3544 0036 9DF80520 		ldrb	r2, [sp, #5]	@ zero_extendqisi2
 373:Drivers/BSP/ST7735/st7735.c **** 		//*Id = __rbit(*Id);
 3545              		.loc 1 373 32 view .LVU1088
 3546 003a 43EA0223 		orr	r3, r3, r2, lsl #8
 373:Drivers/BSP/ST7735/st7735.c **** 		//*Id = __rbit(*Id);
 3547              		.loc 1 373 72 view .LVU1089
 3548 003e 9DF80420 		ldrb	r2, [sp, #4]	@ zero_extendqisi2
 373:Drivers/BSP/ST7735/st7735.c **** 		//*Id = __rbit(*Id);
 3549              		.loc 1 373 56 view .LVU1090
 3550 0042 43EA0243 		orr	r3, r3, r2, lsl #16
 373:Drivers/BSP/ST7735/st7735.c **** 		//*Id = __rbit(*Id);
 3551              		.loc 1 373 9 view .LVU1091
 3552 0046 2B60     		str	r3, [r5]
 375:Drivers/BSP/ST7735/st7735.c ****   }
 3553              		.loc 1 375 5 is_stmt 1 view .LVU1092
 3554              	.LVL427:
 3555              	.L172:
 379:Drivers/BSP/ST7735/st7735.c **** 
 3556              		.loc 1 379 1 is_stmt 0 view .LVU1093
 3557 0048 03B0     		add	sp, sp, #12
 3558              	.LCFI45:
 3559              		.cfi_remember_state
 3560              		.cfi_def_cfa_offset 12
 3561              		@ sp needed
 3562 004a 30BD     		pop	{r4, r5, pc}
 3563              	.LVL428:
 3564              	.L174:
 3565              	.LCFI46:
 3566              		.cfi_restore_state
 360:Drivers/BSP/ST7735/st7735.c ****   }
 3567              		.loc 1 360 9 view .LVU1094
 3568 004c 4FF0FF30 		mov	r0, #-1
 3569 0050 FAE7     		b	.L172
 3570              	.L175:
 364:Drivers/BSP/ST7735/st7735.c ****   }	
 3571              		.loc 1 364 9 view .LVU1095
 3572 0052 4FF0FF30 		mov	r0, #-1
 3573 0056 F7E7     		b	.L172
 3574              	.L176:
 368:Drivers/BSP/ST7735/st7735.c ****   }	
 3575              		.loc 1 368 9 view .LVU1096
 3576 0058 4FF0FF30 		mov	r0, #-1
 3577              	.LVL429:
ARM GAS  /var/folders/mq/wg13gp494590nh4zyt09lxf00000gn/T//ccZMG5bD.s 			page 100


 378:Drivers/BSP/ST7735/st7735.c **** }
 3578              		.loc 1 378 3 is_stmt 1 view .LVU1097
 378:Drivers/BSP/ST7735/st7735.c **** }
 3579              		.loc 1 378 10 is_stmt 0 view .LVU1098
 3580 005c F4E7     		b	.L172
 3581              		.cfi_endproc
 3582              	.LFE3:
 3584              		.section	.text.ST7735_GetPixel,"ax",%progbits
 3585              		.align	1
 3586              		.global	ST7735_GetPixel
 3587              		.syntax unified
 3588              		.thumb
 3589              		.thumb_func
 3591              	ST7735_GetPixel:
 3592              	.LVL430:
 3593              	.LFB17:
 889:Drivers/BSP/ST7735/st7735.c ****   int32_t ret;
 3594              		.loc 1 889 1 is_stmt 1 view -0
 3595              		.cfi_startproc
 3596              		@ args = 0, pretend = 0, frame = 8
 3597              		@ frame_needed = 0, uses_anonymous_args = 0
 889:Drivers/BSP/ST7735/st7735.c ****   int32_t ret;
 3598              		.loc 1 889 1 is_stmt 0 view .LVU1100
 3599 0000 70B5     		push	{r4, r5, r6, lr}
 3600              	.LCFI47:
 3601              		.cfi_def_cfa_offset 16
 3602              		.cfi_offset 4, -16
 3603              		.cfi_offset 5, -12
 3604              		.cfi_offset 6, -8
 3605              		.cfi_offset 14, -4
 3606 0002 82B0     		sub	sp, sp, #8
 3607              	.LCFI48:
 3608              		.cfi_def_cfa_offset 24
 3609 0004 0546     		mov	r5, r0
 3610 0006 1E46     		mov	r6, r3
 890:Drivers/BSP/ST7735/st7735.c ****   uint8_t pixel_lsb, pixel_msb;
 3611              		.loc 1 890 3 is_stmt 1 view .LVU1101
 891:Drivers/BSP/ST7735/st7735.c ****   uint8_t tmp;
 3612              		.loc 1 891 3 view .LVU1102
 892:Drivers/BSP/ST7735/st7735.c **** 
 3613              		.loc 1 892 3 view .LVU1103
 896:Drivers/BSP/ST7735/st7735.c **** 
 3614              		.loc 1 896 3 view .LVU1104
 896:Drivers/BSP/ST7735/st7735.c **** 
 3615              		.loc 1 896 9 is_stmt 0 view .LVU1105
 3616 0008 FFF7FEFF 		bl	ST7735_SetCursor
 3617              	.LVL431:
 896:Drivers/BSP/ST7735/st7735.c **** 
 3618              		.loc 1 896 9 view .LVU1106
 3619 000c 0446     		mov	r4, r0
 3620              	.LVL432:
 899:Drivers/BSP/ST7735/st7735.c **** 
 3621              		.loc 1 899 3 is_stmt 1 view .LVU1107
 899:Drivers/BSP/ST7735/st7735.c **** 
 3622              		.loc 1 899 10 is_stmt 0 view .LVU1108
 3623 000e 2035     		adds	r5, r5, #32
 3624              	.LVL433:
ARM GAS  /var/folders/mq/wg13gp494590nh4zyt09lxf00000gn/T//ccZMG5bD.s 			page 101


 899:Drivers/BSP/ST7735/st7735.c **** 
 3625              		.loc 1 899 10 view .LVU1109
 3626 0010 0DF10502 		add	r2, sp, #5
 3627 0014 2E21     		movs	r1, #46
 3628 0016 2846     		mov	r0, r5
 3629              	.LVL434:
 899:Drivers/BSP/ST7735/st7735.c **** 
 3630              		.loc 1 899 10 view .LVU1110
 3631 0018 FFF7FEFF 		bl	st7735_read_reg
 3632              	.LVL435:
 899:Drivers/BSP/ST7735/st7735.c **** 
 3633              		.loc 1 899 7 discriminator 1 view .LVU1111
 3634 001c 0444     		add	r4, r4, r0
 3635              	.LVL436:
 902:Drivers/BSP/ST7735/st7735.c **** 
 3636              		.loc 1 902 3 is_stmt 1 view .LVU1112
 902:Drivers/BSP/ST7735/st7735.c **** 
 3637              		.loc 1 902 10 is_stmt 0 view .LVU1113
 3638 001e 0122     		movs	r2, #1
 3639 0020 0DF10501 		add	r1, sp, #5
 3640 0024 2846     		mov	r0, r5
 3641 0026 FFF7FEFF 		bl	st7735_recv_data
 3642              	.LVL437:
 902:Drivers/BSP/ST7735/st7735.c **** 
 3643              		.loc 1 902 7 discriminator 1 view .LVU1114
 3644 002a 0444     		add	r4, r4, r0
 3645              	.LVL438:
 905:Drivers/BSP/ST7735/st7735.c ****   /* Read first part of the RGB888 data */
 3646              		.loc 1 905 3 is_stmt 1 view .LVU1115
 905:Drivers/BSP/ST7735/st7735.c ****   /* Read first part of the RGB888 data */
 3647              		.loc 1 905 10 is_stmt 0 view .LVU1116
 3648 002c 0122     		movs	r2, #1
 3649 002e 0DF10701 		add	r1, sp, #7
 3650 0032 2846     		mov	r0, r5
 3651 0034 FFF7FEFF 		bl	st7735_recv_data
 3652              	.LVL439:
 905:Drivers/BSP/ST7735/st7735.c ****   /* Read first part of the RGB888 data */
 3653              		.loc 1 905 7 discriminator 1 view .LVU1117
 3654 0038 0444     		add	r4, r4, r0
 3655              	.LVL440:
 907:Drivers/BSP/ST7735/st7735.c **** 
 3656              		.loc 1 907 3 is_stmt 1 view .LVU1118
 907:Drivers/BSP/ST7735/st7735.c **** 
 3657              		.loc 1 907 10 is_stmt 0 view .LVU1119
 3658 003a 0122     		movs	r2, #1
 3659 003c 0DF10601 		add	r1, sp, #6
 3660 0040 2846     		mov	r0, r5
 3661 0042 FFF7FEFF 		bl	st7735_recv_data
 3662              	.LVL441:
 909:Drivers/BSP/ST7735/st7735.c **** 
 3663              		.loc 1 909 3 is_stmt 1 view .LVU1120
 909:Drivers/BSP/ST7735/st7735.c **** 
 3664              		.loc 1 909 13 is_stmt 0 view .LVU1121
 3665 0046 9DF80730 		ldrb	r3, [sp, #7]	@ zero_extendqisi2
 909:Drivers/BSP/ST7735/st7735.c **** 
 3666              		.loc 1 909 39 view .LVU1122
 3667 004a 9DF80620 		ldrb	r2, [sp, #6]	@ zero_extendqisi2
ARM GAS  /var/folders/mq/wg13gp494590nh4zyt09lxf00000gn/T//ccZMG5bD.s 			page 102


 909:Drivers/BSP/ST7735/st7735.c **** 
 3668              		.loc 1 909 36 view .LVU1123
 3669 004e 03EB0223 		add	r3, r3, r2, lsl #8
 909:Drivers/BSP/ST7735/st7735.c **** 
 3670              		.loc 1 909 10 view .LVU1124
 3671 0052 3360     		str	r3, [r6]
 911:Drivers/BSP/ST7735/st7735.c ****   {
 3672              		.loc 1 911 3 is_stmt 1 view .LVU1125
 911:Drivers/BSP/ST7735/st7735.c ****   {
 3673              		.loc 1 911 5 is_stmt 0 view .LVU1126
 3674 0054 2018     		adds	r0, r4, r0
 3675              	.LVL442:
 911:Drivers/BSP/ST7735/st7735.c ****   {
 3676              		.loc 1 911 5 view .LVU1127
 3677 0056 01D1     		bne	.L182
 3678              	.LVL443:
 3679              	.L178:
 917:Drivers/BSP/ST7735/st7735.c **** 
 3680              		.loc 1 917 1 view .LVU1128
 3681 0058 02B0     		add	sp, sp, #8
 3682              	.LCFI49:
 3683              		.cfi_remember_state
 3684              		.cfi_def_cfa_offset 16
 3685              		@ sp needed
 3686 005a 70BD     		pop	{r4, r5, r6, pc}
 3687              	.LVL444:
 3688              	.L182:
 3689              	.LCFI50:
 3690              		.cfi_restore_state
 913:Drivers/BSP/ST7735/st7735.c ****   }
 3691              		.loc 1 913 9 view .LVU1129
 3692 005c 4FF0FF30 		mov	r0, #-1
 3693              	.LVL445:
 916:Drivers/BSP/ST7735/st7735.c **** }
 3694              		.loc 1 916 3 is_stmt 1 view .LVU1130
 916:Drivers/BSP/ST7735/st7735.c **** }
 3695              		.loc 1 916 10 is_stmt 0 view .LVU1131
 3696 0060 FAE7     		b	.L178
 3697              		.cfi_endproc
 3698              	.LFE17:
 3700              		.section	.text.ST7735_RegisterBusIO,"ax",%progbits
 3701              		.align	1
 3702              		.global	ST7735_RegisterBusIO
 3703              		.syntax unified
 3704              		.thumb
 3705              		.thumb_func
 3707              	ST7735_RegisterBusIO:
 3708              	.LVL446:
 3709              	.LFB0:
 102:Drivers/BSP/ST7735/st7735.c ****   int32_t ret;
 3710              		.loc 1 102 1 is_stmt 1 view -0
 3711              		.cfi_startproc
 3712              		@ args = 0, pretend = 0, frame = 0
 3713              		@ frame_needed = 0, uses_anonymous_args = 0
 103:Drivers/BSP/ST7735/st7735.c **** 
 3714              		.loc 1 103 3 view .LVU1133
 105:Drivers/BSP/ST7735/st7735.c ****   {
ARM GAS  /var/folders/mq/wg13gp494590nh4zyt09lxf00000gn/T//ccZMG5bD.s 			page 103


 3715              		.loc 1 105 3 view .LVU1134
 105:Drivers/BSP/ST7735/st7735.c ****   {
 3716              		.loc 1 105 5 is_stmt 0 view .LVU1135
 3717 0000 E8B1     		cbz	r0, .L185
 102:Drivers/BSP/ST7735/st7735.c ****   int32_t ret;
 3718              		.loc 1 102 1 view .LVU1136
 3719 0002 08B5     		push	{r3, lr}
 3720              	.LCFI51:
 3721              		.cfi_def_cfa_offset 8
 3722              		.cfi_offset 3, -8
 3723              		.cfi_offset 14, -4
 3724 0004 0346     		mov	r3, r0
 111:Drivers/BSP/ST7735/st7735.c ****     pObj->IO.DeInit    = pIO->DeInit;
 3725              		.loc 1 111 5 is_stmt 1 view .LVU1137
 111:Drivers/BSP/ST7735/st7735.c ****     pObj->IO.DeInit    = pIO->DeInit;
 3726              		.loc 1 111 29 is_stmt 0 view .LVU1138
 3727 0006 0A68     		ldr	r2, [r1]
 111:Drivers/BSP/ST7735/st7735.c ****     pObj->IO.DeInit    = pIO->DeInit;
 3728              		.loc 1 111 24 view .LVU1139
 3729 0008 0260     		str	r2, [r0]
 112:Drivers/BSP/ST7735/st7735.c ****     pObj->IO.Address   = pIO->Address;
 3730              		.loc 1 112 5 is_stmt 1 view .LVU1140
 112:Drivers/BSP/ST7735/st7735.c ****     pObj->IO.Address   = pIO->Address;
 3731              		.loc 1 112 29 is_stmt 0 view .LVU1141
 3732 000a 4868     		ldr	r0, [r1, #4]
 3733              	.LVL447:
 112:Drivers/BSP/ST7735/st7735.c ****     pObj->IO.Address   = pIO->Address;
 3734              		.loc 1 112 24 view .LVU1142
 3735 000c 5860     		str	r0, [r3, #4]
 113:Drivers/BSP/ST7735/st7735.c ****     pObj->IO.WriteReg  = pIO->WriteReg;
 3736              		.loc 1 113 5 is_stmt 1 view .LVU1143
 113:Drivers/BSP/ST7735/st7735.c ****     pObj->IO.WriteReg  = pIO->WriteReg;
 3737              		.loc 1 113 29 is_stmt 0 view .LVU1144
 3738 000e 0889     		ldrh	r0, [r1, #8]
 113:Drivers/BSP/ST7735/st7735.c ****     pObj->IO.WriteReg  = pIO->WriteReg;
 3739              		.loc 1 113 24 view .LVU1145
 3740 0010 1881     		strh	r0, [r3, #8]	@ movhi
 114:Drivers/BSP/ST7735/st7735.c ****     pObj->IO.ReadReg   = pIO->ReadReg;
 3741              		.loc 1 114 5 is_stmt 1 view .LVU1146
 114:Drivers/BSP/ST7735/st7735.c ****     pObj->IO.ReadReg   = pIO->ReadReg;
 3742              		.loc 1 114 29 is_stmt 0 view .LVU1147
 3743 0012 C868     		ldr	r0, [r1, #12]
 114:Drivers/BSP/ST7735/st7735.c ****     pObj->IO.ReadReg   = pIO->ReadReg;
 3744              		.loc 1 114 24 view .LVU1148
 3745 0014 D860     		str	r0, [r3, #12]
 115:Drivers/BSP/ST7735/st7735.c ****     pObj->IO.SendData  = pIO->SendData;
 3746              		.loc 1 115 5 is_stmt 1 view .LVU1149
 115:Drivers/BSP/ST7735/st7735.c ****     pObj->IO.SendData  = pIO->SendData;
 3747              		.loc 1 115 29 is_stmt 0 view .LVU1150
 3748 0016 0869     		ldr	r0, [r1, #16]
 115:Drivers/BSP/ST7735/st7735.c ****     pObj->IO.SendData  = pIO->SendData;
 3749              		.loc 1 115 24 view .LVU1151
 3750 0018 1861     		str	r0, [r3, #16]
 116:Drivers/BSP/ST7735/st7735.c ****     pObj->IO.RecvData  = pIO->RecvData;
 3751              		.loc 1 116 5 is_stmt 1 view .LVU1152
 116:Drivers/BSP/ST7735/st7735.c ****     pObj->IO.RecvData  = pIO->RecvData;
 3752              		.loc 1 116 29 is_stmt 0 view .LVU1153
ARM GAS  /var/folders/mq/wg13gp494590nh4zyt09lxf00000gn/T//ccZMG5bD.s 			page 104


 3753 001a 4869     		ldr	r0, [r1, #20]
 116:Drivers/BSP/ST7735/st7735.c ****     pObj->IO.RecvData  = pIO->RecvData;
 3754              		.loc 1 116 24 view .LVU1154
 3755 001c 5861     		str	r0, [r3, #20]
 117:Drivers/BSP/ST7735/st7735.c ****     pObj->IO.GetTick   = pIO->GetTick;
 3756              		.loc 1 117 5 is_stmt 1 view .LVU1155
 117:Drivers/BSP/ST7735/st7735.c ****     pObj->IO.GetTick   = pIO->GetTick;
 3757              		.loc 1 117 29 is_stmt 0 view .LVU1156
 3758 001e 8869     		ldr	r0, [r1, #24]
 117:Drivers/BSP/ST7735/st7735.c ****     pObj->IO.GetTick   = pIO->GetTick;
 3759              		.loc 1 117 24 view .LVU1157
 3760 0020 9861     		str	r0, [r3, #24]
 118:Drivers/BSP/ST7735/st7735.c **** 
 3761              		.loc 1 118 5 is_stmt 1 view .LVU1158
 118:Drivers/BSP/ST7735/st7735.c **** 
 3762              		.loc 1 118 29 is_stmt 0 view .LVU1159
 3763 0022 C969     		ldr	r1, [r1, #28]
 3764              	.LVL448:
 118:Drivers/BSP/ST7735/st7735.c **** 
 3765              		.loc 1 118 24 view .LVU1160
 3766 0024 D961     		str	r1, [r3, #28]
 120:Drivers/BSP/ST7735/st7735.c ****     pObj->Ctx.WriteReg  = ST7735_WriteRegWrap;
 3767              		.loc 1 120 5 is_stmt 1 view .LVU1161
 120:Drivers/BSP/ST7735/st7735.c ****     pObj->Ctx.WriteReg  = ST7735_WriteRegWrap;
 3768              		.loc 1 120 25 is_stmt 0 view .LVU1162
 3769 0026 0949     		ldr	r1, .L191
 3770 0028 5962     		str	r1, [r3, #36]
 121:Drivers/BSP/ST7735/st7735.c ****     pObj->Ctx.SendData  = ST7735_SendDataWrap;
 3771              		.loc 1 121 5 is_stmt 1 view .LVU1163
 121:Drivers/BSP/ST7735/st7735.c ****     pObj->Ctx.SendData  = ST7735_SendDataWrap;
 3772              		.loc 1 121 25 is_stmt 0 view .LVU1164
 3773 002a 0949     		ldr	r1, .L191+4
 3774 002c 1962     		str	r1, [r3, #32]
 122:Drivers/BSP/ST7735/st7735.c ****     pObj->Ctx.RecvData  = ST7735_RecvDataWrap;
 3775              		.loc 1 122 5 is_stmt 1 view .LVU1165
 122:Drivers/BSP/ST7735/st7735.c ****     pObj->Ctx.RecvData  = ST7735_RecvDataWrap;
 3776              		.loc 1 122 25 is_stmt 0 view .LVU1166
 3777 002e 0949     		ldr	r1, .L191+8
 3778 0030 9962     		str	r1, [r3, #40]
 123:Drivers/BSP/ST7735/st7735.c ****     pObj->Ctx.handle    = pObj;
 3779              		.loc 1 123 5 is_stmt 1 view .LVU1167
 123:Drivers/BSP/ST7735/st7735.c ****     pObj->Ctx.handle    = pObj;
 3780              		.loc 1 123 25 is_stmt 0 view .LVU1168
 3781 0032 0949     		ldr	r1, .L191+12
 3782 0034 D962     		str	r1, [r3, #44]
 124:Drivers/BSP/ST7735/st7735.c **** 
 3783              		.loc 1 124 5 is_stmt 1 view .LVU1169
 124:Drivers/BSP/ST7735/st7735.c **** 
 3784              		.loc 1 124 25 is_stmt 0 view .LVU1170
 3785 0036 1B63     		str	r3, [r3, #48]
 126:Drivers/BSP/ST7735/st7735.c ****     {
 3786              		.loc 1 126 5 is_stmt 1 view .LVU1171
 126:Drivers/BSP/ST7735/st7735.c ****     {
 3787              		.loc 1 126 7 is_stmt 0 view .LVU1172
 3788 0038 22B1     		cbz	r2, .L186
 128:Drivers/BSP/ST7735/st7735.c ****     }
 3789              		.loc 1 128 7 is_stmt 1 view .LVU1173
ARM GAS  /var/folders/mq/wg13gp494590nh4zyt09lxf00000gn/T//ccZMG5bD.s 			page 105


 128:Drivers/BSP/ST7735/st7735.c ****     }
 3790              		.loc 1 128 13 is_stmt 0 view .LVU1174
 3791 003a 9047     		blx	r2
 3792              	.LVL449:
 3793              	.L183:
 137:Drivers/BSP/ST7735/st7735.c **** 
 3794              		.loc 1 137 1 view .LVU1175
 3795 003c 08BD     		pop	{r3, pc}
 3796              	.LVL450:
 3797              	.L185:
 3798              	.LCFI52:
 3799              		.cfi_def_cfa_offset 0
 3800              		.cfi_restore 3
 3801              		.cfi_restore 14
 107:Drivers/BSP/ST7735/st7735.c ****   }
 3802              		.loc 1 107 9 view .LVU1176
 3803 003e 4FF0FF30 		mov	r0, #-1
 3804              	.LVL451:
 137:Drivers/BSP/ST7735/st7735.c **** 
 3805              		.loc 1 137 1 view .LVU1177
 3806 0042 7047     		bx	lr
 3807              	.LVL452:
 3808              	.L186:
 3809              	.LCFI53:
 3810              		.cfi_def_cfa_offset 8
 3811              		.cfi_offset 3, -8
 3812              		.cfi_offset 14, -4
 132:Drivers/BSP/ST7735/st7735.c ****     }
 3813              		.loc 1 132 11 view .LVU1178
 3814 0044 4FF0FF30 		mov	r0, #-1
 3815              	.LVL453:
 136:Drivers/BSP/ST7735/st7735.c **** }
 3816              		.loc 1 136 3 is_stmt 1 view .LVU1179
 136:Drivers/BSP/ST7735/st7735.c **** }
 3817              		.loc 1 136 10 is_stmt 0 view .LVU1180
 3818 0048 F8E7     		b	.L183
 3819              	.L192:
 3820 004a 00BF     		.align	2
 3821              	.L191:
 3822 004c 00000000 		.word	ST7735_ReadRegWrap
 3823 0050 00000000 		.word	ST7735_WriteRegWrap
 3824 0054 00000000 		.word	ST7735_SendDataWrap
 3825 0058 00000000 		.word	ST7735_RecvDataWrap
 3826              		.cfi_endproc
 3827              	.LFE0:
 3829              		.section	.bss.pdata.0,"aw",%nobits
 3830              		.align	2
 3833              	pdata.0:
 3834 0000 00000000 		.space	640
 3834      00000000 
 3834      00000000 
 3834      00000000 
 3834      00000000 
 3835              		.section	.bss.pdata.1,"aw",%nobits
 3836              		.align	2
 3839              	pdata.1:
 3840 0000 00000000 		.space	640
ARM GAS  /var/folders/mq/wg13gp494590nh4zyt09lxf00000gn/T//ccZMG5bD.s 			page 106


 3840      00000000 
 3840      00000000 
 3840      00000000 
 3840      00000000 
 3841              		.global	ST7735Ctx
 3842              		.section	.bss.ST7735Ctx,"aw",%nobits
 3843              		.align	2
 3846              	ST7735Ctx:
 3847 0000 00000000 		.space	16
 3847      00000000 
 3847      00000000 
 3847      00000000 
 3848              		.section	.rodata.OrientationTab,"a"
 3849              		.align	2
 3852              	OrientationTab:
 3853 0000 40000000 		.word	64
 3854 0004 C0000000 		.word	192
 3855 0008 80000000 		.word	128
 3856 000c 00000000 		.word	0
 3857 0010 20000000 		.word	32
 3858 0014 60000000 		.word	96
 3859 0018 E0000000 		.word	224
 3860 001c A0000000 		.word	160
 3861              		.global	ST7735_LCD_Driver
 3862              		.section	.data.ST7735_LCD_Driver,"aw"
 3863              		.align	2
 3866              	ST7735_LCD_Driver:
 3867 0000 00000000 		.word	ST7735_Init
 3868 0004 00000000 		.word	ST7735_DeInit
 3869 0008 00000000 		.word	ST7735_ReadID
 3870 000c 00000000 		.word	ST7735_DisplayOn
 3871 0010 00000000 		.word	ST7735_DisplayOff
 3872 0014 00000000 		.word	ST7735_SetBrightness
 3873 0018 00000000 		.word	ST7735_GetBrightness
 3874 001c 00000000 		.word	ST7735_SetOrientation
 3875 0020 00000000 		.word	ST7735_GetOrientation
 3876 0024 00000000 		.word	ST7735_SetCursor
 3877 0028 00000000 		.word	ST7735_DrawBitmap
 3878 002c 00000000 		.word	ST7735_FillRGBRect
 3879 0030 00000000 		.word	ST7735_DrawHLine
 3880 0034 00000000 		.word	ST7735_DrawVLine
 3881 0038 00000000 		.word	ST7735_FillRect
 3882 003c 00000000 		.word	ST7735_GetPixel
 3883 0040 00000000 		.word	ST7735_SetPixel
 3884 0044 00000000 		.word	ST7735_GetXSize
 3885 0048 00000000 		.word	ST7735_GetYSize
 3886              		.text
 3887              	.Letext0:
 3888              		.file 2 "/Applications/ArmGNUToolchain/13.3.rel1/arm-none-eabi/arm-none-eabi/include/machine/_defa
 3889              		.file 3 "/Applications/ArmGNUToolchain/13.3.rel1/arm-none-eabi/arm-none-eabi/include/sys/_stdint.h
 3890              		.file 4 "Drivers/BSP/ST7735/st7735_reg.h"
 3891              		.file 5 "Drivers/BSP/ST7735/st7735.h"
ARM GAS  /var/folders/mq/wg13gp494590nh4zyt09lxf00000gn/T//ccZMG5bD.s 			page 107


DEFINED SYMBOLS
                            *ABS*:00000000 st7735.c
/var/folders/mq/wg13gp494590nh4zyt09lxf00000gn/T//ccZMG5bD.s:20     .text.ST7735_DeInit:00000000 $t
/var/folders/mq/wg13gp494590nh4zyt09lxf00000gn/T//ccZMG5bD.s:26     .text.ST7735_DeInit:00000000 ST7735_DeInit
/var/folders/mq/wg13gp494590nh4zyt09lxf00000gn/T//ccZMG5bD.s:45     .text.ST7735_SetBrightness:00000000 $t
/var/folders/mq/wg13gp494590nh4zyt09lxf00000gn/T//ccZMG5bD.s:51     .text.ST7735_SetBrightness:00000000 ST7735_SetBrightness
/var/folders/mq/wg13gp494590nh4zyt09lxf00000gn/T//ccZMG5bD.s:71     .text.ST7735_GetBrightness:00000000 $t
/var/folders/mq/wg13gp494590nh4zyt09lxf00000gn/T//ccZMG5bD.s:77     .text.ST7735_GetBrightness:00000000 ST7735_GetBrightness
/var/folders/mq/wg13gp494590nh4zyt09lxf00000gn/T//ccZMG5bD.s:97     .text.ST7735_GetOrientation:00000000 $t
/var/folders/mq/wg13gp494590nh4zyt09lxf00000gn/T//ccZMG5bD.s:103    .text.ST7735_GetOrientation:00000000 ST7735_GetOrientation
/var/folders/mq/wg13gp494590nh4zyt09lxf00000gn/T//ccZMG5bD.s:126    .text.ST7735_GetOrientation:0000000c $d
/var/folders/mq/wg13gp494590nh4zyt09lxf00000gn/T//ccZMG5bD.s:3846   .bss.ST7735Ctx:00000000 ST7735Ctx
/var/folders/mq/wg13gp494590nh4zyt09lxf00000gn/T//ccZMG5bD.s:131    .text.ST7735_GetXSize:00000000 $t
/var/folders/mq/wg13gp494590nh4zyt09lxf00000gn/T//ccZMG5bD.s:137    .text.ST7735_GetXSize:00000000 ST7735_GetXSize
/var/folders/mq/wg13gp494590nh4zyt09lxf00000gn/T//ccZMG5bD.s:161    .text.ST7735_GetXSize:0000000c $d
/var/folders/mq/wg13gp494590nh4zyt09lxf00000gn/T//ccZMG5bD.s:166    .text.ST7735_GetYSize:00000000 $t
/var/folders/mq/wg13gp494590nh4zyt09lxf00000gn/T//ccZMG5bD.s:172    .text.ST7735_GetYSize:00000000 ST7735_GetYSize
/var/folders/mq/wg13gp494590nh4zyt09lxf00000gn/T//ccZMG5bD.s:196    .text.ST7735_GetYSize:0000000c $d
/var/folders/mq/wg13gp494590nh4zyt09lxf00000gn/T//ccZMG5bD.s:201    .text.ST7735_ReadRegWrap:00000000 $t
/var/folders/mq/wg13gp494590nh4zyt09lxf00000gn/T//ccZMG5bD.s:206    .text.ST7735_ReadRegWrap:00000000 ST7735_ReadRegWrap
/var/folders/mq/wg13gp494590nh4zyt09lxf00000gn/T//ccZMG5bD.s:239    .text.ST7735_WriteRegWrap:00000000 $t
/var/folders/mq/wg13gp494590nh4zyt09lxf00000gn/T//ccZMG5bD.s:244    .text.ST7735_WriteRegWrap:00000000 ST7735_WriteRegWrap
/var/folders/mq/wg13gp494590nh4zyt09lxf00000gn/T//ccZMG5bD.s:280    .text.ST7735_SendDataWrap:00000000 $t
/var/folders/mq/wg13gp494590nh4zyt09lxf00000gn/T//ccZMG5bD.s:285    .text.ST7735_SendDataWrap:00000000 ST7735_SendDataWrap
/var/folders/mq/wg13gp494590nh4zyt09lxf00000gn/T//ccZMG5bD.s:318    .text.ST7735_RecvDataWrap:00000000 $t
/var/folders/mq/wg13gp494590nh4zyt09lxf00000gn/T//ccZMG5bD.s:323    .text.ST7735_RecvDataWrap:00000000 ST7735_RecvDataWrap
/var/folders/mq/wg13gp494590nh4zyt09lxf00000gn/T//ccZMG5bD.s:356    .text.ST7735_IO_Delay:00000000 $t
/var/folders/mq/wg13gp494590nh4zyt09lxf00000gn/T//ccZMG5bD.s:361    .text.ST7735_IO_Delay:00000000 ST7735_IO_Delay
/var/folders/mq/wg13gp494590nh4zyt09lxf00000gn/T//ccZMG5bD.s:411    .text.ST7735_DisplayOn:00000000 $t
/var/folders/mq/wg13gp494590nh4zyt09lxf00000gn/T//ccZMG5bD.s:417    .text.ST7735_DisplayOn:00000000 ST7735_DisplayOn
/var/folders/mq/wg13gp494590nh4zyt09lxf00000gn/T//ccZMG5bD.s:556    .text.ST7735_DisplayOn:00000094 $d
/var/folders/mq/wg13gp494590nh4zyt09lxf00000gn/T//ccZMG5bD.s:3852   .rodata.OrientationTab:00000000 OrientationTab
/var/folders/mq/wg13gp494590nh4zyt09lxf00000gn/T//ccZMG5bD.s:562    .text.ST7735_DisplayOff:00000000 $t
/var/folders/mq/wg13gp494590nh4zyt09lxf00000gn/T//ccZMG5bD.s:568    .text.ST7735_DisplayOff:00000000 ST7735_DisplayOff
/var/folders/mq/wg13gp494590nh4zyt09lxf00000gn/T//ccZMG5bD.s:707    .text.ST7735_DisplayOff:00000094 $d
/var/folders/mq/wg13gp494590nh4zyt09lxf00000gn/T//ccZMG5bD.s:713    .text.ST7735_SetDisplayWindow:00000000 $t
/var/folders/mq/wg13gp494590nh4zyt09lxf00000gn/T//ccZMG5bD.s:718    .text.ST7735_SetDisplayWindow:00000000 ST7735_SetDisplayWindow
/var/folders/mq/wg13gp494590nh4zyt09lxf00000gn/T//ccZMG5bD.s:1061   .text.ST7735_SetDisplayWindow:00000164 $d
/var/folders/mq/wg13gp494590nh4zyt09lxf00000gn/T//ccZMG5bD.s:1066   .text.ST7735_SetOrientation:00000000 $t
/var/folders/mq/wg13gp494590nh4zyt09lxf00000gn/T//ccZMG5bD.s:1072   .text.ST7735_SetOrientation:00000000 ST7735_SetOrientation
/var/folders/mq/wg13gp494590nh4zyt09lxf00000gn/T//ccZMG5bD.s:1270   .text.ST7735_SetOrientation:000000b8 $d
/var/folders/mq/wg13gp494590nh4zyt09lxf00000gn/T//ccZMG5bD.s:1276   .text.ST7735_Init:00000000 $t
/var/folders/mq/wg13gp494590nh4zyt09lxf00000gn/T//ccZMG5bD.s:1282   .text.ST7735_Init:00000000 ST7735_Init
/var/folders/mq/wg13gp494590nh4zyt09lxf00000gn/T//ccZMG5bD.s:2292   .text.ST7735_SetCursor:00000000 $t
/var/folders/mq/wg13gp494590nh4zyt09lxf00000gn/T//ccZMG5bD.s:2298   .text.ST7735_SetCursor:00000000 ST7735_SetCursor
/var/folders/mq/wg13gp494590nh4zyt09lxf00000gn/T//ccZMG5bD.s:2563   .text.ST7735_SetCursor:000000f4 $d
/var/folders/mq/wg13gp494590nh4zyt09lxf00000gn/T//ccZMG5bD.s:2568   .text.ST7735_DrawBitmap:00000000 $t
/var/folders/mq/wg13gp494590nh4zyt09lxf00000gn/T//ccZMG5bD.s:2574   .text.ST7735_DrawBitmap:00000000 ST7735_DrawBitmap
/var/folders/mq/wg13gp494590nh4zyt09lxf00000gn/T//ccZMG5bD.s:2897   .text.ST7735_DrawBitmap:0000016c $d
/var/folders/mq/wg13gp494590nh4zyt09lxf00000gn/T//ccZMG5bD.s:2903   .text.ST7735_FillRGBRect:00000000 $t
/var/folders/mq/wg13gp494590nh4zyt09lxf00000gn/T//ccZMG5bD.s:2909   .text.ST7735_FillRGBRect:00000000 ST7735_FillRGBRect
/var/folders/mq/wg13gp494590nh4zyt09lxf00000gn/T//ccZMG5bD.s:3059   .text.ST7735_FillRGBRect:0000008c $d
/var/folders/mq/wg13gp494590nh4zyt09lxf00000gn/T//ccZMG5bD.s:3839   .bss.pdata.1:00000000 pdata.1
/var/folders/mq/wg13gp494590nh4zyt09lxf00000gn/T//ccZMG5bD.s:3065   .text.ST7735_DrawHLine:00000000 $t
/var/folders/mq/wg13gp494590nh4zyt09lxf00000gn/T//ccZMG5bD.s:3071   .text.ST7735_DrawHLine:00000000 ST7735_DrawHLine
/var/folders/mq/wg13gp494590nh4zyt09lxf00000gn/T//ccZMG5bD.s:3175   .text.ST7735_DrawHLine:00000058 $d
/var/folders/mq/wg13gp494590nh4zyt09lxf00000gn/T//ccZMG5bD.s:3833   .bss.pdata.0:00000000 pdata.0
ARM GAS  /var/folders/mq/wg13gp494590nh4zyt09lxf00000gn/T//ccZMG5bD.s 			page 108


/var/folders/mq/wg13gp494590nh4zyt09lxf00000gn/T//ccZMG5bD.s:3181   .text.ST7735_FillRect:00000000 $t
/var/folders/mq/wg13gp494590nh4zyt09lxf00000gn/T//ccZMG5bD.s:3187   .text.ST7735_FillRect:00000000 ST7735_FillRect
/var/folders/mq/wg13gp494590nh4zyt09lxf00000gn/T//ccZMG5bD.s:3271   .text.ST7735_SetPixel:00000000 $t
/var/folders/mq/wg13gp494590nh4zyt09lxf00000gn/T//ccZMG5bD.s:3277   .text.ST7735_SetPixel:00000000 ST7735_SetPixel
/var/folders/mq/wg13gp494590nh4zyt09lxf00000gn/T//ccZMG5bD.s:3380   .text.ST7735_SetPixel:00000064 $d
/var/folders/mq/wg13gp494590nh4zyt09lxf00000gn/T//ccZMG5bD.s:3385   .text.ST7735_DrawVLine:00000000 $t
/var/folders/mq/wg13gp494590nh4zyt09lxf00000gn/T//ccZMG5bD.s:3391   .text.ST7735_DrawVLine:00000000 ST7735_DrawVLine
/var/folders/mq/wg13gp494590nh4zyt09lxf00000gn/T//ccZMG5bD.s:3477   .text.ST7735_DrawVLine:00000044 $d
/var/folders/mq/wg13gp494590nh4zyt09lxf00000gn/T//ccZMG5bD.s:3482   .text.ST7735_ReadID:00000000 $t
/var/folders/mq/wg13gp494590nh4zyt09lxf00000gn/T//ccZMG5bD.s:3488   .text.ST7735_ReadID:00000000 ST7735_ReadID
/var/folders/mq/wg13gp494590nh4zyt09lxf00000gn/T//ccZMG5bD.s:3585   .text.ST7735_GetPixel:00000000 $t
/var/folders/mq/wg13gp494590nh4zyt09lxf00000gn/T//ccZMG5bD.s:3591   .text.ST7735_GetPixel:00000000 ST7735_GetPixel
/var/folders/mq/wg13gp494590nh4zyt09lxf00000gn/T//ccZMG5bD.s:3701   .text.ST7735_RegisterBusIO:00000000 $t
/var/folders/mq/wg13gp494590nh4zyt09lxf00000gn/T//ccZMG5bD.s:3707   .text.ST7735_RegisterBusIO:00000000 ST7735_RegisterBusIO
/var/folders/mq/wg13gp494590nh4zyt09lxf00000gn/T//ccZMG5bD.s:3822   .text.ST7735_RegisterBusIO:0000004c $d
/var/folders/mq/wg13gp494590nh4zyt09lxf00000gn/T//ccZMG5bD.s:3830   .bss.pdata.0:00000000 $d
/var/folders/mq/wg13gp494590nh4zyt09lxf00000gn/T//ccZMG5bD.s:3836   .bss.pdata.1:00000000 $d
/var/folders/mq/wg13gp494590nh4zyt09lxf00000gn/T//ccZMG5bD.s:3843   .bss.ST7735Ctx:00000000 $d
/var/folders/mq/wg13gp494590nh4zyt09lxf00000gn/T//ccZMG5bD.s:3849   .rodata.OrientationTab:00000000 $d
/var/folders/mq/wg13gp494590nh4zyt09lxf00000gn/T//ccZMG5bD.s:3866   .data.ST7735_LCD_Driver:00000000 ST7735_LCD_Driver
/var/folders/mq/wg13gp494590nh4zyt09lxf00000gn/T//ccZMG5bD.s:3863   .data.ST7735_LCD_Driver:00000000 $d

UNDEFINED SYMBOLS
st7735_write_reg
st7735_send_data
st7735_read_reg
st7735_recv_data
